Archive member included because of file (symbol)

/home/jialiang/logic32-elf/lib/gcc/logic32-elf/3.4.2/../../../../logic32-elf/lib/libc.a(memcpy.o)
                              obj/GUIAAPolyOut.o (memcpy)
/home/jialiang/logic32-elf/lib/gcc/logic32-elf/3.4.2/../../../../logic32-elf/lib/libc.a(memmove.o)
                              obj/GUIAlloc.o (memmove)
/home/jialiang/logic32-elf/lib/gcc/logic32-elf/3.4.2/../../../../logic32-elf/lib/libc.a(strlen.o)
                              obj/GUI_ErrorOut.o (strlen)
/home/jialiang/logic32-elf/lib/gcc/logic32-elf/3.4.2/../../../../logic32-elf/lib/libc.a(memset.o)
                              obj/GUI_ErrorOut.o (memset)
/home/jialiang/logic32-elf/lib/gcc/logic32-elf/3.4.2/../../../../logic32-elf/lib/libc.a(memcmp.o)
                              obj/GUI_MOUSE.o (memcmp)
/home/jialiang/logic32-elf/lib/gcc/logic32-elf/3.4.2/../../../../logic32-elf/lib/libc.a(strcpy.o)
                              obj/GUI__SetText.o (strcpy)
/home/jialiang/logic32-elf/lib/gcc/logic32-elf/3.4.2/../../../../logic32-elf/lib/libc.a(strncpy.o)
                              obj/MENU_GetItemText.o (strncpy)
/home/jialiang/logic32-elf/lib/gcc/logic32-elf/3.4.2/../../../../logic32-elf/lib/libc.a(printf.o)
                              obj/GUI_X_uCOS.o (printf)
/home/jialiang/logic32-elf/lib/gcc/logic32-elf/3.4.2/../../../../logic32-elf/lib/libc.a(puts.o)
                              obj/hooks.o (puts)
/home/jialiang/logic32-elf/lib/gcc/logic32-elf/3.4.2/../../../../logic32-elf/lib/libc.a(vfprintf.o)
                              /home/jialiang/logic32-elf/lib/gcc/logic32-elf/3.4.2/../../../../logic32-elf/lib/libc.a(printf.o) (_vfprintf_r)
/home/jialiang/logic32-elf/lib/gcc/logic32-elf/3.4.2/../../../../logic32-elf/lib/libc.a(impure.o)
                              /home/jialiang/logic32-elf/lib/gcc/logic32-elf/3.4.2/../../../../logic32-elf/lib/libc.a(printf.o) (_impure_ptr)
/home/jialiang/logic32-elf/lib/gcc/logic32-elf/3.4.2/../../../../logic32-elf/lib/libc.a(fvwrite.o)
                              /home/jialiang/logic32-elf/lib/gcc/logic32-elf/3.4.2/../../../../logic32-elf/lib/libc.a(puts.o) (__sfvwrite)
/home/jialiang/logic32-elf/lib/gcc/logic32-elf/3.4.2/../../../../logic32-elf/lib/libc.a(locale.o)
                              /home/jialiang/logic32-elf/lib/gcc/logic32-elf/3.4.2/../../../../logic32-elf/lib/libc.a(vfprintf.o) (localeconv)
/home/jialiang/logic32-elf/lib/gcc/logic32-elf/3.4.2/../../../../logic32-elf/lib/libc.a(wsetup.o)
                              /home/jialiang/logic32-elf/lib/gcc/logic32-elf/3.4.2/../../../../logic32-elf/lib/libc.a(vfprintf.o) (__swsetup)
/home/jialiang/logic32-elf/lib/gcc/logic32-elf/3.4.2/../../../../logic32-elf/lib/libc.a(malloc.o)
                              /home/jialiang/logic32-elf/lib/gcc/logic32-elf/3.4.2/../../../../logic32-elf/lib/libc.a(vfprintf.o) (free)
/home/jialiang/logic32-elf/lib/gcc/logic32-elf/3.4.2/../../../../logic32-elf/lib/libc.a(s_isinf.o)
                              /home/jialiang/logic32-elf/lib/gcc/logic32-elf/3.4.2/../../../../logic32-elf/lib/libc.a(vfprintf.o) (isinf)
/home/jialiang/logic32-elf/lib/gcc/logic32-elf/3.4.2/../../../../logic32-elf/lib/libc.a(wcrtomb.o)
                              /home/jialiang/logic32-elf/lib/gcc/logic32-elf/3.4.2/../../../../logic32-elf/lib/libc.a(vfprintf.o) (_wcrtomb_r)
/home/jialiang/logic32-elf/lib/gcc/logic32-elf/3.4.2/../../../../logic32-elf/lib/libc.a(mallocr.o)
                              /home/jialiang/logic32-elf/lib/gcc/logic32-elf/3.4.2/../../../../logic32-elf/lib/libc.a(vfprintf.o) (_malloc_r)
/home/jialiang/logic32-elf/lib/gcc/logic32-elf/3.4.2/../../../../logic32-elf/lib/libc.a(wcsrtombs.o)
                              /home/jialiang/logic32-elf/lib/gcc/logic32-elf/3.4.2/../../../../logic32-elf/lib/libc.a(vfprintf.o) (_wcsrtombs_r)
/home/jialiang/logic32-elf/lib/gcc/logic32-elf/3.4.2/../../../../logic32-elf/lib/libc.a(memchr.o)
                              /home/jialiang/logic32-elf/lib/gcc/logic32-elf/3.4.2/../../../../logic32-elf/lib/libc.a(vfprintf.o) (memchr)
/home/jialiang/logic32-elf/lib/gcc/logic32-elf/3.4.2/../../../../logic32-elf/lib/libc.a(s_isnan.o)
                              /home/jialiang/logic32-elf/lib/gcc/logic32-elf/3.4.2/../../../../logic32-elf/lib/libc.a(vfprintf.o) (isnan)
/home/jialiang/logic32-elf/lib/gcc/logic32-elf/3.4.2/../../../../logic32-elf/lib/libc.a(fflush.o)
                              /home/jialiang/logic32-elf/lib/gcc/logic32-elf/3.4.2/../../../../logic32-elf/lib/libc.a(vfprintf.o) (fflush)
/home/jialiang/logic32-elf/lib/gcc/logic32-elf/3.4.2/../../../../logic32-elf/lib/libc.a(findfp.o)
                              /home/jialiang/logic32-elf/lib/gcc/logic32-elf/3.4.2/../../../../logic32-elf/lib/libc.a(vfprintf.o) (__sinit)
/home/jialiang/logic32-elf/lib/gcc/logic32-elf/3.4.2/../../../../logic32-elf/lib/libc.a(dtoa.o)
                              /home/jialiang/logic32-elf/lib/gcc/logic32-elf/3.4.2/../../../../logic32-elf/lib/libc.a(vfprintf.o) (_dtoa_r)
/home/jialiang/logic32-elf/lib/gcc/logic32-elf/3.4.2/../../../../logic32-elf/lib/libc.a(reallocr.o)
                              /home/jialiang/logic32-elf/lib/gcc/logic32-elf/3.4.2/../../../../logic32-elf/lib/libc.a(fvwrite.o) (_realloc_r)
/home/jialiang/logic32-elf/lib/gcc/logic32-elf/3.4.2/../../../../logic32-elf/lib/libc.a(strcmp.o)
                              /home/jialiang/logic32-elf/lib/gcc/logic32-elf/3.4.2/../../../../logic32-elf/lib/libc.a(locale.o) (strcmp)
/home/jialiang/logic32-elf/lib/gcc/logic32-elf/3.4.2/../../../../logic32-elf/lib/libc.a(freer.o)
                              /home/jialiang/logic32-elf/lib/gcc/logic32-elf/3.4.2/../../../../logic32-elf/lib/libc.a(wsetup.o) (_free_r)
/home/jialiang/logic32-elf/lib/gcc/logic32-elf/3.4.2/../../../../logic32-elf/lib/libc.a(makebuf.o)
                              /home/jialiang/logic32-elf/lib/gcc/logic32-elf/3.4.2/../../../../logic32-elf/lib/libc.a(wsetup.o) (__smakebuf)
/home/jialiang/logic32-elf/lib/gcc/logic32-elf/3.4.2/../../../../logic32-elf/lib/libc.a(wctomb_r.o)
                              /home/jialiang/logic32-elf/lib/gcc/logic32-elf/3.4.2/../../../../logic32-elf/lib/libc.a(wcrtomb.o) (_wctomb_r)
/home/jialiang/logic32-elf/lib/gcc/logic32-elf/3.4.2/../../../../logic32-elf/lib/libc.a(mlock.o)
                              /home/jialiang/logic32-elf/lib/gcc/logic32-elf/3.4.2/../../../../logic32-elf/lib/libc.a(mallocr.o) (__malloc_lock)
/home/jialiang/logic32-elf/lib/gcc/logic32-elf/3.4.2/../../../../logic32-elf/lib/libc.a(sbrkr.o)
                              /home/jialiang/logic32-elf/lib/gcc/logic32-elf/3.4.2/../../../../logic32-elf/lib/libc.a(mallocr.o) (_sbrk_r)
/home/jialiang/logic32-elf/lib/gcc/logic32-elf/3.4.2/../../../../logic32-elf/lib/libc.a(fwalk.o)
                              /home/jialiang/logic32-elf/lib/gcc/logic32-elf/3.4.2/../../../../logic32-elf/lib/libc.a(fflush.o) (_fwalk)
/home/jialiang/logic32-elf/lib/gcc/logic32-elf/3.4.2/../../../../logic32-elf/lib/libc.a(stdio.o)
                              /home/jialiang/logic32-elf/lib/gcc/logic32-elf/3.4.2/../../../../logic32-elf/lib/libc.a(findfp.o) (__sread)
/home/jialiang/logic32-elf/lib/gcc/logic32-elf/3.4.2/../../../../logic32-elf/lib/libc.a(mprec.o)
                              /home/jialiang/logic32-elf/lib/gcc/logic32-elf/3.4.2/../../../../logic32-elf/lib/libc.a(dtoa.o) (__mprec_bigtens)
/home/jialiang/logic32-elf/lib/gcc/logic32-elf/3.4.2/../../../../logic32-elf/lib/libc.a(fstatr.o)
                              /home/jialiang/logic32-elf/lib/gcc/logic32-elf/3.4.2/../../../../logic32-elf/lib/libc.a(makebuf.o) (_fstat_r)
/home/jialiang/logic32-elf/lib/gcc/logic32-elf/3.4.2/../../../../logic32-elf/lib/libc.a(readr.o)
                              /home/jialiang/logic32-elf/lib/gcc/logic32-elf/3.4.2/../../../../logic32-elf/lib/libc.a(stdio.o) (_read_r)
/home/jialiang/logic32-elf/lib/gcc/logic32-elf/3.4.2/../../../../logic32-elf/lib/libc.a(lseekr.o)
                              /home/jialiang/logic32-elf/lib/gcc/logic32-elf/3.4.2/../../../../logic32-elf/lib/libc.a(stdio.o) (_lseek_r)
/home/jialiang/logic32-elf/lib/gcc/logic32-elf/3.4.2/../../../../logic32-elf/lib/libc.a(writer.o)
                              /home/jialiang/logic32-elf/lib/gcc/logic32-elf/3.4.2/../../../../logic32-elf/lib/libc.a(stdio.o) (_write_r)
/home/jialiang/logic32-elf/lib/gcc/logic32-elf/3.4.2/../../../../logic32-elf/lib/libc.a(closer.o)
                              /home/jialiang/logic32-elf/lib/gcc/logic32-elf/3.4.2/../../../../logic32-elf/lib/libc.a(stdio.o) (_close_r)
/home/jialiang/logic32-elf/lib/gcc/logic32-elf/3.4.2/../../../../logic32-elf/lib/libc.a(callocr.o)
                              /home/jialiang/logic32-elf/lib/gcc/logic32-elf/3.4.2/../../../../logic32-elf/lib/libc.a(mprec.o) (_calloc_r)
/home/jialiang/logic32-elf/lib/gcc/logic32-elf/3.4.2/../../../../logic32-elf/lib/libm.a(s_sin.o)
                              obj/GUIArc.o (sin)
/home/jialiang/logic32-elf/lib/gcc/logic32-elf/3.4.2/../../../../logic32-elf/lib/libm.a(s_cos.o)
                              obj/GUIArc.o (cos)
/home/jialiang/logic32-elf/lib/gcc/logic32-elf/3.4.2/../../../../logic32-elf/lib/libm.a(s_ceil.o)
                              obj/GUIArc.o (ceil)
/home/jialiang/logic32-elf/lib/gcc/logic32-elf/3.4.2/../../../../logic32-elf/lib/libm.a(s_floor.o)
                              obj/GUIArc.o (floor)
/home/jialiang/logic32-elf/lib/gcc/logic32-elf/3.4.2/../../../../logic32-elf/lib/libm.a(w_sqrt.o)
                              obj/GUIPolyE.o (sqrt)
/home/jialiang/logic32-elf/lib/gcc/logic32-elf/3.4.2/../../../../logic32-elf/lib/libm.a(e_rem_pio2.o)
                              /home/jialiang/logic32-elf/lib/gcc/logic32-elf/3.4.2/../../../../logic32-elf/lib/libm.a(s_sin.o) (__ieee754_rem_pio2)
/home/jialiang/logic32-elf/lib/gcc/logic32-elf/3.4.2/../../../../logic32-elf/lib/libm.a(k_cos.o)
                              /home/jialiang/logic32-elf/lib/gcc/logic32-elf/3.4.2/../../../../logic32-elf/lib/libm.a(s_sin.o) (__kernel_cos)
/home/jialiang/logic32-elf/lib/gcc/logic32-elf/3.4.2/../../../../logic32-elf/lib/libm.a(k_sin.o)
                              /home/jialiang/logic32-elf/lib/gcc/logic32-elf/3.4.2/../../../../logic32-elf/lib/libm.a(s_sin.o) (__kernel_sin)
/home/jialiang/logic32-elf/lib/gcc/logic32-elf/3.4.2/../../../../logic32-elf/lib/libm.a(e_sqrt.o)
                              /home/jialiang/logic32-elf/lib/gcc/logic32-elf/3.4.2/../../../../logic32-elf/lib/libm.a(w_sqrt.o) (__ieee754_sqrt)
/home/jialiang/logic32-elf/lib/gcc/logic32-elf/3.4.2/../../../../logic32-elf/lib/libm.a(s_lib_ver.o)
                              /home/jialiang/logic32-elf/lib/gcc/logic32-elf/3.4.2/../../../../logic32-elf/lib/libm.a(w_sqrt.o) (__fdlib_version)
/home/jialiang/logic32-elf/lib/gcc/logic32-elf/3.4.2/../../../../logic32-elf/lib/libm.a(s_matherr.o)
                              /home/jialiang/logic32-elf/lib/gcc/logic32-elf/3.4.2/../../../../logic32-elf/lib/libm.a(w_sqrt.o) (matherr)
/home/jialiang/logic32-elf/lib/gcc/logic32-elf/3.4.2/../../../../logic32-elf/lib/libm.a(k_rem_pio2.o)
                              /home/jialiang/logic32-elf/lib/gcc/logic32-elf/3.4.2/../../../../logic32-elf/lib/libm.a(e_rem_pio2.o) (__kernel_rem_pio2)
/home/jialiang/logic32-elf/lib/gcc/logic32-elf/3.4.2/../../../../logic32-elf/lib/libm.a(s_fabs.o)
                              /home/jialiang/logic32-elf/lib/gcc/logic32-elf/3.4.2/../../../../logic32-elf/lib/libm.a(e_rem_pio2.o) (fabs)
/home/jialiang/logic32-elf/lib/gcc/logic32-elf/3.4.2/../../../../logic32-elf/lib/libm.a(s_scalbn.o)
                              /home/jialiang/logic32-elf/lib/gcc/logic32-elf/3.4.2/../../../../logic32-elf/lib/libm.a(k_rem_pio2.o) (scalbn)
/home/jialiang/logic32-elf/lib/gcc/logic32-elf/3.4.2/../../../../logic32-elf/lib/libm.a(s_copysign.o)
                              /home/jialiang/logic32-elf/lib/gcc/logic32-elf/3.4.2/../../../../logic32-elf/lib/libm.a(s_scalbn.o) (copysign)
/home/jialiang/logic32-elf/lib/gcc/logic32-elf/3.4.2/libgcc.a(_si_to_df.o)
                              obj/GUIArc.o (__floatsidf)
/home/jialiang/logic32-elf/lib/gcc/logic32-elf/3.4.2/libgcc.a(_addsub_df.o)
                              obj/GUIArc.o (__adddf3)
/home/jialiang/logic32-elf/lib/gcc/logic32-elf/3.4.2/libgcc.a(_mul_df.o)
                              obj/GUIArc.o (__muldf3)
/home/jialiang/logic32-elf/lib/gcc/logic32-elf/3.4.2/libgcc.a(_df_to_sf.o)
                              obj/GUIArc.o (__truncdfsf2)
/home/jialiang/logic32-elf/lib/gcc/logic32-elf/3.4.2/libgcc.a(_div_df.o)
                              obj/GUIArc.o (__divdf3)
/home/jialiang/logic32-elf/lib/gcc/logic32-elf/3.4.2/libgcc.a(_sf_to_df.o)
                              obj/GUIArc.o (__extendsfdf2)
/home/jialiang/logic32-elf/lib/gcc/logic32-elf/3.4.2/libgcc.a(_mul_sf.o)
                              obj/GUIArc.o (__mulsf3)
/home/jialiang/logic32-elf/lib/gcc/logic32-elf/3.4.2/libgcc.a(_fixunssfsi.o)
                              obj/GUIArc.o (__fixunssfsi)
/home/jialiang/logic32-elf/lib/gcc/logic32-elf/3.4.2/libgcc.a(_df_to_si.o)
                              obj/GUIArc.o (__fixdfsi)
/home/jialiang/logic32-elf/lib/gcc/logic32-elf/3.4.2/libgcc.a(_si_to_sf.o)
                              obj/GUIArc.o (__floatsisf)
/home/jialiang/logic32-elf/lib/gcc/logic32-elf/3.4.2/libgcc.a(_lt_sf.o)
                              obj/GUIArc.o (__ltsf2)
/home/jialiang/logic32-elf/lib/gcc/logic32-elf/3.4.2/libgcc.a(_eq_sf.o)
                              obj/GUIArc.o (__eqsf2)
/home/jialiang/logic32-elf/lib/gcc/logic32-elf/3.4.2/libgcc.a(_addsub_sf.o)
                              obj/GUIArc.o (__addsf3)
/home/jialiang/logic32-elf/lib/gcc/logic32-elf/3.4.2/libgcc.a(_div_sf.o)
                              obj/GUIArc.o (__divsf3)
/home/jialiang/logic32-elf/lib/gcc/logic32-elf/3.4.2/libgcc.a(_sf_to_si.o)
                              obj/GUIArc.o (__fixsfsi)
/home/jialiang/logic32-elf/lib/gcc/logic32-elf/3.4.2/libgcc.a(_gt_sf.o)
                              obj/GUIArc.o (__gtsf2)
/home/jialiang/logic32-elf/lib/gcc/logic32-elf/3.4.2/libgcc.a(_ge_sf.o)
                              obj/EDITFloat.o (__gesf2)
/home/jialiang/logic32-elf/lib/gcc/logic32-elf/3.4.2/libgcc.a(_lt_df.o)
                              /home/jialiang/logic32-elf/lib/gcc/logic32-elf/3.4.2/../../../../logic32-elf/lib/libc.a(vfprintf.o) (__ltdf2)
/home/jialiang/logic32-elf/lib/gcc/logic32-elf/3.4.2/libgcc.a(_ne_df.o)
                              /home/jialiang/logic32-elf/lib/gcc/logic32-elf/3.4.2/../../../../logic32-elf/lib/libc.a(vfprintf.o) (__nedf2)
/home/jialiang/logic32-elf/lib/gcc/logic32-elf/3.4.2/libgcc.a(_eq_df.o)
                              /home/jialiang/logic32-elf/lib/gcc/logic32-elf/3.4.2/../../../../logic32-elf/lib/libc.a(vfprintf.o) (__eqdf2)
/home/jialiang/logic32-elf/lib/gcc/logic32-elf/3.4.2/libgcc.a(_gt_df.o)
                              /home/jialiang/logic32-elf/lib/gcc/logic32-elf/3.4.2/../../../../logic32-elf/lib/libc.a(dtoa.o) (__gtdf2)
/home/jialiang/logic32-elf/lib/gcc/logic32-elf/3.4.2/libgcc.a(_ge_df.o)
                              /home/jialiang/logic32-elf/lib/gcc/logic32-elf/3.4.2/../../../../logic32-elf/lib/libc.a(dtoa.o) (__gedf2)
/home/jialiang/logic32-elf/lib/gcc/logic32-elf/3.4.2/libgcc.a(_pack_df.o)
                              /home/jialiang/logic32-elf/lib/gcc/logic32-elf/3.4.2/libgcc.a(_si_to_df.o) (__pack_d)
/home/jialiang/logic32-elf/lib/gcc/logic32-elf/3.4.2/libgcc.a(_negdi2.o)
                              /home/jialiang/logic32-elf/lib/gcc/logic32-elf/3.4.2/libgcc.a(_addsub_df.o) (__negdi2)
/home/jialiang/logic32-elf/lib/gcc/logic32-elf/3.4.2/libgcc.a(_thenan_df.o)
                              /home/jialiang/logic32-elf/lib/gcc/logic32-elf/3.4.2/libgcc.a(_addsub_df.o) (__thenan_df)
/home/jialiang/logic32-elf/lib/gcc/logic32-elf/3.4.2/libgcc.a(_unpack_df.o)
                              /home/jialiang/logic32-elf/lib/gcc/logic32-elf/3.4.2/libgcc.a(_addsub_df.o) (__unpack_d)
/home/jialiang/logic32-elf/lib/gcc/logic32-elf/3.4.2/libgcc.a(_muldi3.o)
                              /home/jialiang/logic32-elf/lib/gcc/logic32-elf/3.4.2/libgcc.a(_mul_df.o) (__muldi3)
/home/jialiang/logic32-elf/lib/gcc/logic32-elf/3.4.2/libgcc.a(_make_sf.o)
                              /home/jialiang/logic32-elf/lib/gcc/logic32-elf/3.4.2/libgcc.a(_df_to_sf.o) (__make_fp)
/home/jialiang/logic32-elf/lib/gcc/logic32-elf/3.4.2/libgcc.a(_unpack_sf.o)
                              /home/jialiang/logic32-elf/lib/gcc/logic32-elf/3.4.2/libgcc.a(_sf_to_df.o) (__unpack_f)
/home/jialiang/logic32-elf/lib/gcc/logic32-elf/3.4.2/libgcc.a(_make_df.o)
                              /home/jialiang/logic32-elf/lib/gcc/logic32-elf/3.4.2/libgcc.a(_sf_to_df.o) (__make_dp)
/home/jialiang/logic32-elf/lib/gcc/logic32-elf/3.4.2/libgcc.a(_pack_sf.o)
                              /home/jialiang/logic32-elf/lib/gcc/logic32-elf/3.4.2/libgcc.a(_mul_sf.o) (__pack_f)
/home/jialiang/logic32-elf/lib/gcc/logic32-elf/3.4.2/libgcc.a(_thenan_sf.o)
                              /home/jialiang/logic32-elf/lib/gcc/logic32-elf/3.4.2/libgcc.a(_mul_sf.o) (__thenan_sf)
/home/jialiang/logic32-elf/lib/gcc/logic32-elf/3.4.2/libgcc.a(_lshrdi3.o)
                              /home/jialiang/logic32-elf/lib/gcc/logic32-elf/3.4.2/libgcc.a(_df_to_si.o) (__lshrdi3)
/home/jialiang/logic32-elf/lib/gcc/logic32-elf/3.4.2/libgcc.a(_fpcmp_parts_sf.o)
                              /home/jialiang/logic32-elf/lib/gcc/logic32-elf/3.4.2/libgcc.a(_lt_sf.o) (__fpcmp_parts_f)
/home/jialiang/logic32-elf/lib/gcc/logic32-elf/3.4.2/libgcc.a(_fpcmp_parts_df.o)
                              /home/jialiang/logic32-elf/lib/gcc/logic32-elf/3.4.2/libgcc.a(_lt_df.o) (__fpcmp_parts_d)
/home/jialiang/logic32-elf/lib/gcc/logic32-elf/3.4.2/libgcc.a(_ashldi3.o)
                              /home/jialiang/logic32-elf/lib/gcc/logic32-elf/3.4.2/libgcc.a(_pack_df.o) (__ashldi3)

Allocating common symbols
Common symbol       size              file

WM__CHWinModal      0x8               obj/WMTouch.o
OSLockNesting       0x1               obj/os_core.o
OSTaskRegNextAvailID
                    0x1               obj/os_core.o
OSRunning           0x1               obj/os_core.o
WM__NumWindows      0x2               obj/WM.o
WM__hATransWindow   0x2               obj/WM.o
OSIdleCtr           0x4               obj/os_core.o
OSPrioHighRdy       0x1               obj/os_core.o
RADIO__pfHandleSetValue
                    0x4               obj/RADIO.o
errno               0x4               obj/syscall.o
GUI_CURSOR_pfTempHide
                    0x4               obj/GUICore.o
WM__ahDesktopWin    0x2               obj/WM.o
WM_pfPollPID        0x4               obj/WM.o
WM__CHWinLast       0x8               obj/WMTouch.o
GUI_DecChar         0x1               obj/GUICore.o
_hActiveTimer       0x2               obj/GUITimer.o
GUI_ALLOC           0x18              obj/GUIAlloc.o
OSPrioCur           0x1               obj/os_core.o
GUI_CURSOR_pfTempUnhide
                    0x4               obj/GUICore.o
OSTCBList           0x4               obj/os_core.o
OSTickStepState     0x1               obj/os_core.o
GUI_pLCD_APIList    0x4               obj/GUICore.o
OSTaskStatStk       0x1900            obj/os_core.o
OSCtxSwCtr          0x4               obj/os_core.o
OSIdleCtrMax        0x4               obj/os_core.o
OSTCBFreeList       0x4               obj/os_core.o
WM_PID__StateLast   0xc               obj/WM.o
GUI_pfTimerExec     0x4               obj/GUICore.o
GUI_pfKeyMsgHook    0x4               obj/GUI_OnKey.o
WM__NumInvalidWindows
                    0x2               obj/WM.o
OSCPUUsage          0x1               obj/os_core.o
GUI_pfDispCharStyle
                    0x4               obj/GUICore.o
OSTaskCtr           0x1               obj/os_core.o
WM_IsActive         0x1               obj/WM.o
OSQTbl              0x60              obj/os_core.o
OSTCBHighRdy        0x4               obj/os_core.o
OSQFreeList         0x4               obj/os_core.o
WM__FirstWin        0x2               obj/WM.o
OSRdyGrp            0x1               obj/os_core.o
GUI_RectDispString  0x8               obj/GUI_DispStringInRectEx.o
WM__CaptureReleaseAuto
                    0x1               obj/WM.o
OSRdyTbl            0x8               obj/os_core.o
WM__PaintCallbackCnt
                    0x1               obj/WM.o
hFirstTimer         0x2               obj/GUITimer.o
GUI_Context         0x60              obj/GUICore.o
OSEventFreeList     0x4               obj/os_core.o
WM__CreateFlags     0x2               obj/WM.o
WM__aBkColor        0x4               obj/WM.o
OSIntNesting        0x1               obj/os_core.o
WM__pFirstCriticalHandle
                    0x4               obj/WM.o
WM__hCapture        0x2               obj/WM.o
OSTCBCur            0x4               obj/os_core.o
LCD__aConvTable     0x200             obj/LCDColor.o
WM__hWinFocus       0x2               obj/WM.o
OSTime              0x4               obj/os_core.o
OSTaskIdleStk       0x1900            obj/os_core.o
screen_point        0x4               obj/l32_screen.o
OSEventTbl          0xc8              obj/os_core.o
OSTCBTbl            0x688             obj/os_core.o
WM__TransWindowCnt  0x4               obj/WM.o
OSStatRdy           0x1               obj/os_core.o
OSTCBPrioTbl        0x100             obj/os_core.o
OSIdleCtrRun        0x4               obj/os_core.o
WM_pfHandlePID      0x4               obj/GUICore.o
GUI_Heap            0x100000          obj/GUIAlloc.o

Memory Configuration

Name             Origin             Length             Attributes
*default*        0x00000000         0xffffffff

Linker script and memory map

LOAD obj/crt0.o
LOAD obj/os_cpu_a.o
LOAD obj/GUIAAArc.o
LOAD obj/GUIAAChar.o
LOAD obj/GUIAAChar2.o
LOAD obj/GUIAAChar4.o
LOAD obj/GUIAACircle.o
LOAD obj/GUIAALib.o
LOAD obj/GUIAALine.o
LOAD obj/GUIAAPoly.o
LOAD obj/GUIAAPolyOut.o
LOAD obj/LCDP111.o
LOAD obj/LCDP222.o
LOAD obj/LCDP233.o
LOAD obj/LCDP323.o
LOAD obj/LCDP332.o
LOAD obj/LCDP444_12.o
LOAD obj/LCDP444_12_1.o
LOAD obj/LCDP444_16.o
LOAD obj/LCDP555.o
LOAD obj/LCDP556.o
LOAD obj/LCDP565.o
LOAD obj/LCDP655.o
LOAD obj/LCDP8666.o
LOAD obj/LCDP8666_1.o
LOAD obj/LCDPM233.o
LOAD obj/LCDPM323.o
LOAD obj/LCDPM332.o
LOAD obj/LCDPM444_12.o
LOAD obj/LCDPM444_16.o
LOAD obj/LCDPM555.o
LOAD obj/LCDPM556.o
LOAD obj/LCDPM565.o
LOAD obj/LCDPM655.o
LOAD obj/LCDP0.o
LOAD obj/LCDP2.o
LOAD obj/LCDP4.o
LOAD obj/GUI2DLib.o
LOAD obj/GUIAlloc.o
LOAD obj/GUIArc.o
LOAD obj/GUIChar.o
LOAD obj/GUICharLine.o
LOAD obj/GUICharM.o
LOAD obj/GUICharP.o
LOAD obj/GUICirc.o
LOAD obj/GUIColor2Index.o
LOAD obj/GUICore.o
LOAD obj/GUICurs.o
LOAD obj/GUIEncJS.o
LOAD obj/GUIIndex2Color.o
LOAD obj/GUIPolyE.o
LOAD obj/GUIPolyM.o
LOAD obj/GUIPolyR.o
LOAD obj/GUIRealloc.o
LOAD obj/GUIStream.o
LOAD obj/GUITask.o
LOAD obj/GUITime.o
LOAD obj/GUITimer.o
LOAD obj/GUIUC0.o
LOAD obj/GUIVal.o
LOAD obj/GUIValf.o
LOAD obj/GUI_AddBin.o
LOAD obj/GUI_AddDec.o
LOAD obj/GUI_AddDecMin.o
LOAD obj/GUI_AddDecShift.o
LOAD obj/GUI_AddHex.o
LOAD obj/GUI_AddKeyMsgHook.o
LOAD obj/GUI_ALLOC_AllocInit.o
LOAD obj/GUI_ALLOC_AllocZero.o
LOAD obj/GUI_BMP.o
LOAD obj/GUI_BMP_Serialize.o
LOAD obj/GUI_CalcColorDist.o
LOAD obj/GUI_ClearRectEx.o
LOAD obj/GUI_Color2VisColor.o
LOAD obj/GUI_CursorArrowL.o
LOAD obj/GUI_CursorArrowLI.o
LOAD obj/GUI_CursorArrowLPx.o
LOAD obj/GUI_CursorArrowM.o
LOAD obj/GUI_CursorArrowMI.o
LOAD obj/GUI_CursorArrowMPx.o
LOAD obj/GUI_CursorArrowS.o
LOAD obj/GUI_CursorArrowSI.o
LOAD obj/GUI_CursorArrowSPx.o
LOAD obj/GUI_CursorCrossL.o
LOAD obj/GUI_CursorCrossLI.o
LOAD obj/GUI_CursorCrossLPx.o
LOAD obj/GUI_CursorCrossM.o
LOAD obj/GUI_CursorCrossMI.o
LOAD obj/GUI_CursorCrossMPx.o
LOAD obj/GUI_CursorCrossS.o
LOAD obj/GUI_CursorCrossSI.o
LOAD obj/GUI_CursorCrossSPx.o
LOAD obj/GUI_CursorHeaderM.o
LOAD obj/GUI_CursorHeaderMI.o
LOAD obj/GUI_CursorHeaderMPx.o
LOAD obj/GUI_CursorPal.o
LOAD obj/GUI_CursorPalI.o
LOAD obj/GUI_DispBin.o
LOAD obj/GUI_DispCEOL.o
LOAD obj/GUI_DispChar.o
LOAD obj/GUI_DispChars.o
LOAD obj/GUI_DispHex.o
LOAD obj/GUI_DispString.o
LOAD obj/GUI_DispStringAt.o
LOAD obj/GUI_DispStringAtCEOL.o
LOAD obj/GUI_DispStringHCenter.o
LOAD obj/GUI_DispStringInRect.o
LOAD obj/GUI_DispStringInRectEx.o
LOAD obj/GUI_DispStringInRectMax.o
LOAD obj/GUI_DispStringLen.o
LOAD obj/GUI_DrawBitmap.o
LOAD obj/GUI_DrawBitmapEx.o
LOAD obj/GUI_DrawBitmapExp.o
LOAD obj/GUI_DrawBitmapMag.o
LOAD obj/GUI_DrawFocusRect.o
LOAD obj/GUI_DrawGraph.o
LOAD obj/GUI_DrawHLine.o
LOAD obj/GUI_DrawPie.o
LOAD obj/GUI_DrawPixel.o
LOAD obj/GUI_DrawPolyline.o
LOAD obj/GUI_DrawRectEx.o
LOAD obj/GUI_DrawVLine.o
LOAD obj/GUI_ErrorOut.o
LOAD obj/GUI_Exec.o
LOAD obj/GUI_FillPolygon.o
LOAD obj/GUI_FillRect.o
LOAD obj/GUI_FillRectEx.o
LOAD obj/GUI_GetBitmapPixelColor.o
LOAD obj/GUI_GetBitmapPixelIndex.o
LOAD obj/GUI_GetClientRect.o
LOAD obj/GUI_GetColor.o
LOAD obj/GUI_GetDispPos.o
LOAD obj/GUI_GetFont.o
LOAD obj/GUI_GetFontInfo.o
LOAD obj/GUI_GetFontSizeY.o
LOAD obj/GUI_GetLineStyle.o
LOAD obj/GUI_GetStringDistX.o
LOAD obj/GUI_GetTextAlign.o
LOAD obj/GUI_GetTextExtend.o
LOAD obj/GUI_GetTextMode.o
LOAD obj/GUI_GetVersionString.o
LOAD obj/GUI_GetYSizeOfFont.o
LOAD obj/GUI_Goto.o
LOAD obj/GUI_InitLUT.o
LOAD obj/GUI_InvertRect.o
LOAD obj/GUI_IsInFont.o
LOAD obj/GUI_Log.o
LOAD obj/GUI_MergeRect.o
LOAD obj/GUI_MOUSE.o
LOAD obj/GUI_MOUSE_DriverPS2.o
LOAD obj/GUI_MoveRect.o
LOAD obj/GUI_OnKey.o
LOAD obj/GUI_Pen.o
LOAD obj/GUI_PID.o
LOAD obj/GUI_RectsIntersect.o
LOAD obj/GUI_SaveContext.o
LOAD obj/GUI_SelectLayer.o
LOAD obj/GUI_SelectLCD.o
LOAD obj/GUI_SetColor.o
LOAD obj/GUI_SetColorIndex.o
LOAD obj/GUI_SetDecChar.o
LOAD obj/GUI_SetDefault.o
LOAD obj/GUI_SetDrawMode.o
LOAD obj/GUI_SetFont.o
LOAD obj/GUI_SetLBorder.o
LOAD obj/GUI_SetLineStyle.o
LOAD obj/GUI_SetLUTColor.o
LOAD obj/GUI_SetLUTColorEx.o
LOAD obj/GUI_SetLUTEntry.o
LOAD obj/GUI_SetOrg.o
LOAD obj/GUI_SetPixelIndex.o
LOAD obj/GUI_SetTextAlign.o
LOAD obj/GUI_SetTextMode.o
LOAD obj/GUI_SetTextStyle.o
LOAD obj/GUI_SIF.o
LOAD obj/GUI_SIF_Prop.o
LOAD obj/GUI_TOUCH.o
LOAD obj/GUI_TOUCH_DriverAnalog.o
LOAD obj/GUI_TOUCH_StoreState.o
LOAD obj/GUI_TOUCH_StoreUnstable.o
LOAD obj/GUI_UC.o
LOAD obj/GUI_UC_DispString.o
LOAD obj/GUI_UC_EncodeNone.o
LOAD obj/GUI_UC_EncodeUTF8.o
LOAD obj/GUI_WaitEvent.o
LOAD obj/GUI_WaitKey.o
LOAD obj/GUI_Warn.o
LOAD obj/GUI__AddSpaceHex.o
LOAD obj/GUI__CalcTextRect.o
LOAD obj/GUI__DivideRound.o
LOAD obj/GUI__DivideRound32.o
LOAD obj/GUI__GetFontSizeY.o
LOAD obj/GUI__GetNumChars.o
LOAD obj/GUI__HandleEOLine.o
LOAD obj/GUI__IntersectRect.o
LOAD obj/GUI__IntersectRects.o
LOAD obj/GUI__memset.o
LOAD obj/GUI__memset16.o
LOAD obj/GUI__Read.o
LOAD obj/GUI__ReduceRect.o
LOAD obj/GUI__SetText.o
LOAD obj/GUI__strcmp.o
LOAD obj/GUI__strlen.o
LOAD obj/GUI__Wrap.o
LOAD obj/LCD.o
LOAD obj/LCDAA.o
LOAD obj/LCDColor.o
LOAD obj/LCDGetP.o
LOAD obj/LCDInfo.o
LOAD obj/LCDInfo0.o
LOAD obj/LCDInfo1.o
LOAD obj/LCDL0Delta.o
LOAD obj/LCDL0Mag.o
LOAD obj/LCDP1.o
LOAD obj/LCDP565_Index2Color.o
LOAD obj/LCDPM565_Index2Color.o
LOAD obj/LCDRLE4.o
LOAD obj/LCDRLE8.o
LOAD obj/LCD_API.o
LOAD obj/LCD_DrawBitmap_565.o
LOAD obj/LCD_DrawBitmap_M565.o
LOAD obj/LCD_DrawVLine.o
LOAD obj/LCD_GetColorIndex.o
LOAD obj/LCD_GetEx.o
LOAD obj/LCD_GetNumDisplays.o
LOAD obj/LCD_GetPixelColor.o
LOAD obj/LCD_Index2ColorEx.o
LOAD obj/LCD_L0_Generic.o
LOAD obj/LCD_Mirror.o
LOAD obj/LCD_MixColors256.o
LOAD obj/LCD_Rotate180.o
LOAD obj/LCD_RotateCCW.o
LOAD obj/LCD_RotateCW.o
LOAD obj/LCD_SelectLCD.o
LOAD obj/LCD_SetAPI.o
LOAD obj/LCD_SetClipRectEx.o
LOAD obj/LCD_UpdateColorIndices.o
LOAD obj/F08_1.o
LOAD obj/F08_ASCII.o
LOAD obj/F10S_1.o
LOAD obj/F10S_ASCII.o
LOAD obj/F10_1.o
LOAD obj/F10_ASCII.o
LOAD obj/F13B_1.o
LOAD obj/F13B_ASCII.o
LOAD obj/F13HB_1.o
LOAD obj/F13HB_ASCII.o
LOAD obj/F13H_1.o
LOAD obj/F13H_ASCII.o
LOAD obj/F13_1.o
LOAD obj/F13_ASCII.o
LOAD obj/F16B_1.o
LOAD obj/F16B_ASCII.o
LOAD obj/F16_1.o
LOAD obj/F16_1HK.o
LOAD obj/F16_ASCII.o
LOAD obj/F16_HK.o
LOAD obj/F24B_1.o
LOAD obj/F24B_ASCII.o
LOAD obj/F24_1.o
LOAD obj/F24_ASCII.o
LOAD obj/F32B_1.o
LOAD obj/F32B_ASCII.o
LOAD obj/F32_1.o
LOAD obj/F32_ASCII.o
LOAD obj/F4x6.o
LOAD obj/F6x8.o
LOAD obj/F8x10_ASCII.o
LOAD obj/F8x12_ASCII.o
LOAD obj/F8x13_1.o
LOAD obj/F8x13_ASCII.o
LOAD obj/F8x15B_1.o
LOAD obj/F8x15B_ASCII.o
LOAD obj/F8x16.o
LOAD obj/F8x8.o
LOAD obj/FComic18B_1.o
LOAD obj/FComic18B_ASCII.o
LOAD obj/FComic24B_1.o
LOAD obj/FComic24B_ASCII.o
LOAD obj/FD24x32.o
LOAD obj/FD32.o
LOAD obj/FD36x48.o
LOAD obj/FD48.o
LOAD obj/FD48x64.o
LOAD obj/FD60x80.o
LOAD obj/FD64.o
LOAD obj/FD80.o
LOAD obj/LCDNull.o
LOAD obj/GUIDEV.o
LOAD obj/GUIDEV_1.o
LOAD obj/GUIDEV_16.o
LOAD obj/GUIDEV_8.o
LOAD obj/GUIDEV_AA.o
LOAD obj/GUIDEV_Auto.o
LOAD obj/GUIDEV_Banding.o
LOAD obj/GUIDEV_Clear.o
LOAD obj/GUIDEV_CmpWithLCD.o
LOAD obj/GUIDEV_CopyFromLCD.o
LOAD obj/GUIDEV_CreateFixed.o
LOAD obj/GUIDEV_GetDataPtr.o
LOAD obj/GUIDEV_GetXSize.o
LOAD obj/GUIDEV_GetYSize.o
LOAD obj/GUIDEV_Measure.o
LOAD obj/GUIDEV_ReduceYSize.o
LOAD obj/GUIDEV_SetOrg.o
LOAD obj/GUIDEV_Usage.o
LOAD obj/GUIDEV_UsageBM.o
LOAD obj/GUIDEV_Write.o
LOAD obj/GUIDEV_WriteAlpha.o
LOAD obj/GUIDEV_WriteEx.o
LOAD obj/GUIDEV_XY2PTR.o
LOAD obj/LCD_1.o
LOAD obj/LCD_2.o
LOAD obj/LCD_3.o
LOAD obj/LCD_4.o
LOAD obj/BUTTON.o
LOAD obj/BUTTON_Bitmap.o
LOAD obj/BUTTON_BMP.o
LOAD obj/BUTTON_Create.o
LOAD obj/BUTTON_CreateIndirect.o
LOAD obj/BUTTON_Default.o
LOAD obj/BUTTON_Get.o
LOAD obj/BUTTON_IsPressed.o
LOAD obj/BUTTON_SelfDraw.o
LOAD obj/BUTTON_SetTextAlign.o
LOAD obj/BUTTON_StreamedBitmap.o
LOAD obj/BUTTON__SetBitmapObj.o
LOAD obj/CHECKBOX.o
LOAD obj/CHECKBOX_Create.o
LOAD obj/CHECKBOX_CreateIndirect.o
LOAD obj/CHECKBOX_Default.o
LOAD obj/CHECKBOX_GetState.o
LOAD obj/CHECKBOX_Image.o
LOAD obj/CHECKBOX_IsChecked.o
LOAD obj/CHECKBOX_SetBkColor.o
LOAD obj/CHECKBOX_SetDefaultImage.o
LOAD obj/CHECKBOX_SetFont.o
LOAD obj/CHECKBOX_SetImage.o
LOAD obj/CHECKBOX_SetNumStates.o
LOAD obj/CHECKBOX_SetSpacing.o
LOAD obj/CHECKBOX_SetState.o
LOAD obj/CHECKBOX_SetText.o
LOAD obj/CHECKBOX_SetTextAlign.o
LOAD obj/CHECKBOX_SetTextColor.o
LOAD obj/DIALOG.o
LOAD obj/DROPDOWN.o
LOAD obj/DROPDOWN_Create.o
LOAD obj/DROPDOWN_CreateIndirect.o
LOAD obj/DROPDOWN_DeleteItem.o
LOAD obj/DROPDOWN_InsertString.o
LOAD obj/DROPDOWN_ItemSpacing.o
LOAD obj/DROPDOWN_SetAutoScroll.o
LOAD obj/DROPDOWN_SetTextAlign.o
LOAD obj/DROPDOWN_SetTextHeight.o
LOAD obj/EDIT.o
LOAD obj/EDITBin.o
LOAD obj/EDITDec.o
LOAD obj/EDITFloat.o
LOAD obj/EDITHex.o
LOAD obj/EDIT_Create.o
LOAD obj/EDIT_CreateIndirect.o
LOAD obj/EDIT_Default.o
LOAD obj/EDIT_GetNumChars.o
LOAD obj/EDIT_SetCursorAtChar.o
LOAD obj/EDIT_SetInsertMode.o
LOAD obj/EDIT_SetpfAddKeyEx.o
LOAD obj/EDIT_SetpfUpdateBuffer.o
LOAD obj/EDIT_SetSel.o
LOAD obj/FRAMEWIN.o
LOAD obj/FRAMEWIN_AddMenu.o
LOAD obj/FRAMEWIN_Button.o
LOAD obj/FRAMEWIN_ButtonClose.o
LOAD obj/FRAMEWIN_ButtonMax.o
LOAD obj/FRAMEWIN_ButtonMin.o
LOAD obj/FRAMEWIN_Create.o
LOAD obj/FRAMEWIN_CreateIndirect.o
LOAD obj/FRAMEWIN_Default.o
LOAD obj/FRAMEWIN_Get.o
LOAD obj/FRAMEWIN_IsMinMax.o
LOAD obj/FRAMEWIN_MinMaxRest.o
LOAD obj/FRAMEWIN_SetBorderSize.o
LOAD obj/FRAMEWIN_SetColors.o
LOAD obj/FRAMEWIN_SetFont.o
LOAD obj/FRAMEWIN_SetResizeable.o
LOAD obj/FRAMEWIN_SetTitleHeight.o
LOAD obj/FRAMEWIN_SetTitleVis.o
LOAD obj/FRAMEWIN__UpdateButtons.o
LOAD obj/GUI_ARRAY.o
LOAD obj/GUI_ARRAY_DeleteItem.o
LOAD obj/GUI_ARRAY_InsertItem.o
LOAD obj/GUI_ARRAY_ResizeItem.o
LOAD obj/GUI_DRAW.o
LOAD obj/GUI_DRAW_BITMAP.o
LOAD obj/GUI_DRAW_BMP.o
LOAD obj/GUI_DRAW_Self.o
LOAD obj/GUI_DRAW_STREAMED.o
LOAD obj/GUI_EditBin.o
LOAD obj/GUI_EditDec.o
LOAD obj/GUI_EditFloat.o
LOAD obj/GUI_EditHex.o
LOAD obj/GUI_EditString.o
LOAD obj/GUI_HOOK.o
LOAD obj/HEADER.o
LOAD obj/HEADER_Bitmap.o
LOAD obj/HEADER_BMP.o
LOAD obj/HEADER_Create.o
LOAD obj/HEADER_CreateIndirect.o
LOAD obj/HEADER_StreamedBitmap.o
LOAD obj/HEADER__SetDrawObj.o
LOAD obj/LISTBOX.o
LOAD obj/LISTBOX_Create.o
LOAD obj/LISTBOX_CreateIndirect.o
LOAD obj/LISTBOX_Default.o
LOAD obj/LISTBOX_DeleteItem.o
LOAD obj/LISTBOX_Font.o
LOAD obj/LISTBOX_GetItemText.o
LOAD obj/LISTBOX_GetNumItems.o
LOAD obj/LISTBOX_InsertString.o
LOAD obj/LISTBOX_ItemDisabled.o
LOAD obj/LISTBOX_ItemSpacing.o
LOAD obj/LISTBOX_MultiSel.o
LOAD obj/LISTBOX_ScrollStep.o
LOAD obj/LISTBOX_SetAutoScroll.o
LOAD obj/LISTBOX_SetBkColor.o
LOAD obj/LISTBOX_SetOwner.o
LOAD obj/LISTBOX_SetOwnerDraw.o
LOAD obj/LISTBOX_SetScrollbarWidth.o
LOAD obj/LISTBOX_SetString.o
LOAD obj/LISTBOX_SetTextColor.o
LOAD obj/LISTVIEW.o
LOAD obj/LISTVIEW_Create.o
LOAD obj/LISTVIEW_CreateIndirect.o
LOAD obj/LISTVIEW_Default.o
LOAD obj/LISTVIEW_DeleteColumn.o
LOAD obj/LISTVIEW_DeleteRow.o
LOAD obj/LISTVIEW_GetBkColor.o
LOAD obj/LISTVIEW_GetFont.o
LOAD obj/LISTVIEW_GetHeader.o
LOAD obj/LISTVIEW_GetNumColumns.o
LOAD obj/LISTVIEW_GetNumRows.o
LOAD obj/LISTVIEW_GetSel.o
LOAD obj/LISTVIEW_GetTextColor.o
LOAD obj/LISTVIEW_SetBkColor.o
LOAD obj/LISTVIEW_SetColumnWidth.o
LOAD obj/LISTVIEW_SetFont.o
LOAD obj/LISTVIEW_SetGridVis.o
LOAD obj/LISTVIEW_SetItemColor.o
LOAD obj/LISTVIEW_SetItemText.o
LOAD obj/LISTVIEW_SetLBorder.o
LOAD obj/LISTVIEW_SetRBorder.o
LOAD obj/LISTVIEW_SetRowHeight.o
LOAD obj/LISTVIEW_SetSel.o
LOAD obj/LISTVIEW_SetTextAlign.o
LOAD obj/LISTVIEW_SetTextColor.o
LOAD obj/MENU.o
LOAD obj/MENU_Attach.o
LOAD obj/MENU_CreateIndirect.o
LOAD obj/MENU_Default.o
LOAD obj/MENU_DeleteItem.o
LOAD obj/MENU_DisableItem.o
LOAD obj/MENU_EnableItem.o
LOAD obj/MENU_GetItem.o
LOAD obj/MENU_GetItemText.o
LOAD obj/MENU_GetNumItems.o
LOAD obj/MENU_InsertItem.o
LOAD obj/MENU_Popup.o
LOAD obj/MENU_SetBkColor.o
LOAD obj/MENU_SetBorderSize.o
LOAD obj/MENU_SetFont.o
LOAD obj/MENU_SetItem.o
LOAD obj/MENU_SetTextColor.o
LOAD obj/MENU__FindItem.o
LOAD obj/MESSAGEBOX.o
LOAD obj/MULTIEDIT.o
LOAD obj/MULTIEDIT_Create.o
LOAD obj/MULTIEDIT_CreateIndirect.o
LOAD obj/MULTIPAGE.o
LOAD obj/MULTIPAGE_Create.o
LOAD obj/MULTIPAGE_CreateIndirect.o
LOAD obj/MULTIPAGE_Default.o
LOAD obj/PROGBAR.o
LOAD obj/PROGBAR_Create.o
LOAD obj/PROGBAR_CreateIndirect.o
LOAD obj/RADIO.o
LOAD obj/RADIO_Create.o
LOAD obj/RADIO_CreateIndirect.o
LOAD obj/RADIO_Default.o
LOAD obj/RADIO_Image.o
LOAD obj/RADIO_SetBkColor.o
LOAD obj/RADIO_SetDefaultImage.o
LOAD obj/RADIO_SetFont.o
LOAD obj/RADIO_SetGroupId.o
LOAD obj/RADIO_SetImage.o
LOAD obj/RADIO_SetText.o
LOAD obj/RADIO_SetTextColor.o
LOAD obj/SCROLLBAR.o
LOAD obj/SCROLLBAR_Create.o
LOAD obj/SCROLLBAR_CreateIndirect.o
LOAD obj/SCROLLBAR_Defaults.o
LOAD obj/SCROLLBAR_GetValue.o
LOAD obj/SCROLLBAR_SetWidth.o
LOAD obj/SLIDER.o
LOAD obj/SLIDER_Create.o
LOAD obj/SLIDER_CreateIndirect.o
LOAD obj/TEXT.o
LOAD obj/TEXT_Create.o
LOAD obj/TEXT_CreateIndirect.o
LOAD obj/TEXT_SetBkColor.o
LOAD obj/TEXT_SetFont.o
LOAD obj/TEXT_SetText.o
LOAD obj/TEXT_SetTextAlign.o
LOAD obj/TEXT_SetTextColor.o
LOAD obj/WIDGET.o
LOAD obj/WIDGET_Effect_3D.o
LOAD obj/WIDGET_Effect_3D1L.o
LOAD obj/WIDGET_Effect_3D2L.o
LOAD obj/WIDGET_Effect_None.o
LOAD obj/WIDGET_Effect_Simple.o
LOAD obj/WIDGET_FillStringInRect.o
LOAD obj/WIDGET_SetEffect.o
LOAD obj/WIDGET_SetWidth.o
LOAD obj/WINDOW.o
LOAD obj/WINDOW_Default.o
LOAD obj/WM.o
LOAD obj/WMMemDev.o
LOAD obj/WMTouch.o
LOAD obj/WM_AttachWindow.o
LOAD obj/WM_BringToBottom.o
LOAD obj/WM_BringToTop.o
LOAD obj/WM_Broadcast.o
LOAD obj/WM_CheckScrollPos.o
LOAD obj/WM_CriticalHandle.o
LOAD obj/WM_DIAG.o
LOAD obj/WM_EnableWindow.o
LOAD obj/WM_ForEachDesc.o
LOAD obj/WM_GetBkColor.o
LOAD obj/WM_GetClientRect.o
LOAD obj/WM_GetClientWindow.o
LOAD obj/WM_GetDesktopWindow.o
LOAD obj/WM_GetDesktopWindowEx.o
LOAD obj/WM_GetDiagInfo.o
LOAD obj/WM_GetDialogItem.o
LOAD obj/WM_GetFirstChild.o
LOAD obj/WM_GetFlags.o
LOAD obj/WM_GetFocussedWindow.o
LOAD obj/WM_GetId.o
LOAD obj/WM_GetInsideRect.o
LOAD obj/WM_GetInsideRectExScrollbar.o
LOAD obj/WM_GetInvalidRect.o
LOAD obj/WM_GetNextSibling.o
LOAD obj/WM_GetOrg.o
LOAD obj/WM_GetParent.o
LOAD obj/WM_GetPrevSibling.o
LOAD obj/WM_GetScrollbar.o
LOAD obj/WM_GetScrollPartner.o
LOAD obj/WM_GetScrollState.o
LOAD obj/WM_GetWindowRect.o
LOAD obj/WM_GetWindowSize.o
LOAD obj/WM_HasCaptured.o
LOAD obj/WM_HasFocus.o
LOAD obj/WM_Hide.o
LOAD obj/WM_IsCompletelyVisible.o
LOAD obj/WM_IsEnabled.o
LOAD obj/WM_IsFocussable.o
LOAD obj/WM_IsVisible.o
LOAD obj/WM_IsWindow.o
LOAD obj/WM_MakeModal.o
LOAD obj/WM_Move.o
LOAD obj/WM_MoveChildTo.o
LOAD obj/WM_NotifyParent.o
LOAD obj/WM_OnKey.o
LOAD obj/WM_Paint.o
LOAD obj/WM_PID__GetPrevState.o
LOAD obj/WM_ResizeWindow.o
LOAD obj/WM_Screen2Win.o
LOAD obj/WM_SendMessageNoPara.o
LOAD obj/WM_SendToParent.o
LOAD obj/WM_SetAnchor.o
LOAD obj/WM_SetCallback.o
LOAD obj/WM_SetCapture.o
LOAD obj/WM_SetCaptureMove.o
LOAD obj/WM_SetCreateFlags.o
LOAD obj/WM_SetDesktopColor.o
LOAD obj/WM_SetFocus.o
LOAD obj/WM_SetFocusOnNextChild.o
LOAD obj/WM_SetFocusOnPrevChild.o
LOAD obj/WM_SetId.o
LOAD obj/WM_SetpfPollPID.o
LOAD obj/WM_SetScrollbar.o
LOAD obj/WM_SetScrollState.o
LOAD obj/WM_SetSize.o
LOAD obj/WM_SetTrans.o
LOAD obj/WM_SetTransState.o
LOAD obj/WM_SetUserClipRect.o
LOAD obj/WM_SetXSize.o
LOAD obj/WM_SetYSize.o
LOAD obj/WM_Show.o
LOAD obj/WM_StayOnTop.o
LOAD obj/WM_Timer.o
LOAD obj/WM_TimerExternal.o
LOAD obj/WM_UserData.o
LOAD obj/WM_Validate.o
LOAD obj/WM_ValidateWindow.o
LOAD obj/WM__ForEachDesc.o
LOAD obj/WM__GetFirstSibling.o
LOAD obj/WM__GetFocussedChild.o
LOAD obj/WM__GetLastSibling.o
LOAD obj/WM__GetOrg_AA.o
LOAD obj/WM__GetPrevSibling.o
LOAD obj/WM__IsAncestor.o
LOAD obj/WM__IsChild.o
LOAD obj/WM__IsEnabled.o
LOAD obj/WM__NotifyVisChanged.o
LOAD obj/WM__Screen2Client.o
LOAD obj/WM__SendMessage.o
LOAD obj/WM__SendMessageIfEnabled.o
LOAD obj/WM__SendMessageNoPara.o
LOAD obj/WM__UpdateChildPositions.o
LOAD obj/dialog_all.o
LOAD obj/GUI_X_Touch.o
LOAD obj/GUI_X_uCOS.o
LOAD obj/l32_screen.o
LOAD obj/syscall.o
LOAD obj/uart.o
LOAD obj/main.o
LOAD obj/hooks.o
LOAD obj/BSP.o
LOAD obj/led.o
LOAD obj/app.o
LOAD obj/os_core.o
LOAD obj/os_q.o
LOAD obj/os_flag.o
LOAD obj/os_sem.o
LOAD obj/os_tmr.o
LOAD obj/os_task.o
LOAD obj/os_time.o
LOAD obj/os_mbox.o
LOAD obj/os_mem.o
LOAD obj/os_mutex.o
LOAD obj/os_cpu_c.o
LOAD /home/jialiang/logic32-elf/lib/gcc/logic32-elf/3.4.2/../../../../logic32-elf/lib/libc.a
LOAD /home/jialiang/logic32-elf/lib/gcc/logic32-elf/3.4.2/../../../../logic32-elf/lib/libm.a
LOAD /home/jialiang/logic32-elf/lib/gcc/logic32-elf/3.4.2/libgcc.a
LOAD /home/jialiang/logic32-elf/lib/gcc/logic32-elf/3.4.2/libgcc.a
                0x00000000                . = 0x0

.text           0x00000000    0x75284
 CREATE_OBJECT_SYMBOLS
 *(.text)
 .text          0x00000000       0xa8 obj/crt0.o
                0x00000098                sei
                0x000000a0                cli
                0x00000094                halt
 .text          0x000000a8      0x3b0 obj/os_cpu_a.o
                0x000000bc                OSStartHighRdy
                0x00000190                OSCtxSw
                0x00000234                OSIntCtxSw
                0x00000308                systick_isr
                0x000000b4                OS_CPU_SR_Restore
                0x000000a8                OS_CPU_SR_Save
                0x00000198                OSIntCtxSw_no_save
 *fill*         0x00000458        0x8 00
 .text          0x00000460      0x1e8 obj/GUIAAArc.o
                0x00000460                GUI_AA_DrawArc
 *fill*         0x00000648        0x8 00
 .text          0x00000650      0x528 obj/GUIAAChar.o
                0x00000650                GUIPROPAA_DispChar
                0x00000af0                GUIPROPAA_IsInFont
                0x00000a10                GUIPROPAA_GetCharDistX
                0x00000ae0                GUIPROPAA_GetFontInfo
 *fill*         0x00000b78        0x8 00
 .text          0x00000b80      0x6b8 obj/GUIAAChar2.o
                0x000010e0                GUIPROP_AA2_GetCharDistX
                0x000011a0                GUIPROP_AA2_GetFontInfo
                0x000011b0                GUIPROP_AA2_IsInFont
                0x00000b80                GUIPROP_AA2_DispChar
 *fill*         0x00001238        0x8 00
 .text          0x00001240      0x3f8 obj/GUIAAChar4.o
                0x000015a0                GUIPROP_AA4_GetFontInfo
                0x000015b0                GUIPROP_AA4_IsInFont
                0x00001240                GUIPROP_AA4_DispChar
                0x000014e0                GUIPROP_AA4_GetCharDistX
 *fill*         0x00001638        0x8 00
 .text          0x00001640      0x2f0 obj/GUIAACircle.o
                0x00001640                GL_FillCircleAA_HiRes
                0x00001800                GUI_AA_FillCircle
 .text          0x00001930      0x938 obj/GUIAALib.o
                0x000020e0                GUI_AA_SetFactor
                0x00002180                GUI_AA_GetFactor
                0x00002230                GUI_AA_Exit
                0x00001f40                GUI_AA_Init_HiRes
                0x000021e0                GUI_AA_HiRes2Pixel
                0x000021c0                GUI_AA_EnableHiRes
                0x000021a0                GUI_AA_DisableHiRes
                0x00001db0                GUI_AA_Init
 *fill*         0x00002268        0x8 00
 .text          0x00002270      0x2a8 obj/GUIAALine.o
                0x00002270                GUI_AA_DrawLine
 *fill*         0x00002518        0x8 00
 .text          0x00002520      0x378 obj/GUIAAPoly.o
                0x00002520                GUI_AA_FillPolygon
 *fill*         0x00002898        0x8 00
 .text          0x000028a0       0xc4 obj/GUIAAPolyOut.o
                0x000028a0                GUI_AA_DrawPolyOutline
 *fill*         0x00002964        0xc 00
 .text          0x00002970      0x118 obj/LCDP111.o
                0x000029a0                LCD_Index2Color_111
                0x000029f0                LCD_GetIndexMask_111
                0x00002970                LCD_Color2Index_111
                0x00002a00                LCD_Color2Index_M111
                0x00002a80                LCD_GetIndexMask_M111
                0x00002a30                LCD_Index2Color_M111
 *fill*         0x00002a88        0x8 00
 .text          0x00002a90      0x138 obj/LCDP222.o
                0x00002a90                LCD_Color2Index_222
                0x00002bc0                LCD_GetIndexMask_M222
                0x00002ae0                LCD_Index2Color_222
                0x00002b30                LCD_Color2Index_M222
                0x00002b20                LCD_GetIndexMask_222
                0x00002b80                LCD_Index2Color_M222
 *fill*         0x00002bc8        0x8 00
 .text          0x00002bd0       0xc8 obj/LCDP233.o
                0x00002bd0                LCD_Color2Index_233
                0x00002c30                LCD_Index2Color_233
                0x00002c90                LCD_GetIndexMask_233
 *fill*         0x00002c98        0x8 00
 .text          0x00002ca0       0xc8 obj/LCDP323.o
                0x00002d00                LCD_Index2Color_323
                0x00002d60                LCD_GetIndexMask_323
                0x00002ca0                LCD_Color2Index_323
 *fill*         0x00002d68        0x8 00
 .text          0x00002d70       0xc8 obj/LCDP332.o
                0x00002e30                LCD_GetIndexMask_332
                0x00002dd0                LCD_Index2Color_332
                0x00002d70                LCD_Color2Index_332
 *fill*         0x00002e38        0x8 00
 .text          0x00002e40       0x98 obj/LCDP444_12.o
                0x00002e90                LCD_Index2Color_444_12
                0x00002ed0                LCD_GetIndexMask_444_12
                0x00002e40                LCD_Color2Index_444_12
 *fill*         0x00002ed8        0x8 00
 .text          0x00002ee0       0xa8 obj/LCDP444_12_1.o
                0x00002f80                LCD_GetIndexMask_444_12_1
                0x00002ee0                LCD_Color2Index_444_12_1
                0x00002f30                LCD_Index2Color_444_12_1
 *fill*         0x00002f88        0x8 00
 .text          0x00002f90       0xa8 obj/LCDP444_16.o
                0x00002f90                LCD_Color2Index_444_16
                0x00003030                LCD_GetIndexMask_444_16
                0x00002fe0                LCD_Index2Color_444_16
 *fill*         0x00003038        0x8 00
 .text          0x00003040       0x88 obj/LCDP555.o
                0x00003070                LCD_Index2Color_555
                0x000030c0                LCD_GetIndexMask_555
                0x00003040                LCD_Color2Index_555
 *fill*         0x000030c8        0x8 00
 .text          0x000030d0       0x98 obj/LCDP556.o
                0x00003100                LCD_Index2Color_556
                0x000030d0                LCD_Color2Index_556
                0x00003160                LCD_GetIndexMask_556
 *fill*         0x00003168        0x8 00
 .text          0x00003170       0x38 obj/LCDP565.o
                0x00003170                LCD_Color2Index_565
                0x000031a0                LCD_GetIndexMask_565
 *fill*         0x000031a8        0x8 00
 .text          0x000031b0       0x98 obj/LCDP655.o
                0x00003240                LCD_GetIndexMask_655
                0x000031e0                LCD_Index2Color_655
                0x000031b0                LCD_Color2Index_655
 *fill*         0x00003248        0x8 00
 .text          0x00003250      0x158 obj/LCDP8666.o
                0x00003250                LCD_Color2Index_8666
                0x000033a0                LCD_GetIndexMask_8666
                0x00003300                LCD_Index2Color_8666
 *fill*         0x000033a8        0x8 00
 .text          0x000033b0      0x198 obj/LCDP8666_1.o
                0x000033b0                LCD_Color2Index_8666_1
                0x00003540                LCD_GetIndexMask_8666_1
                0x00003460                LCD_Index2Color_8666_1
 *fill*         0x00003548        0x8 00
 .text          0x00003550       0xc8 obj/LCDPM233.o
                0x00003610                LCD_GetIndexMask_M233
                0x000035b0                LCD_Index2Color_M233
                0x00003550                LCD_Color2Index_M233
 *fill*         0x00003618        0x8 00
 .text          0x00003620       0xc8 obj/LCDPM323.o
                0x000036e0                LCD_GetIndexMask_M323
                0x00003680                LCD_Index2Color_M323
                0x00003620                LCD_Color2Index_M323
 *fill*         0x000036e8        0x8 00
 .text          0x000036f0       0xc8 obj/LCDPM332.o
                0x000036f0                LCD_Color2Index_M332
                0x000037b0                LCD_GetIndexMask_M332
                0x00003750                LCD_Index2Color_M332
 *fill*         0x000037b8        0x8 00
 .text          0x000037c0       0x98 obj/LCDPM444_12.o
                0x000037c0                LCD_Color2Index_M444_12
                0x00003810                LCD_Index2Color_M444_12
                0x00003850                LCD_GetIndexMask_M444_12
 *fill*         0x00003858        0x8 00
 .text          0x00003860       0xa8 obj/LCDPM444_16.o
                0x000038b0                LCD_Index2Color_M444_16
                0x00003860                LCD_Color2Index_M444_16
                0x00003900                LCD_GetIndexMask_M444_16
 *fill*         0x00003908        0x8 00
 .text          0x00003910       0x88 obj/LCDPM555.o
                0x00003910                LCD_Color2Index_M555
                0x00003940                LCD_Index2Color_M555
                0x00003990                LCD_GetIndexMask_M555
 *fill*         0x00003998        0x8 00
 .text          0x000039a0       0x98 obj/LCDPM556.o
                0x000039a0                LCD_Color2Index_M556
                0x000039d0                LCD_Index2Color_M556
                0x00003a30                LCD_GetIndexMask_M556
 *fill*         0x00003a38        0x8 00
 .text          0x00003a40       0x38 obj/LCDPM565.o
                0x00003a40                LCD_Color2Index_M565
                0x00003a70                LCD_GetIndexMask_M565
 *fill*         0x00003a78        0x8 00
 .text          0x00003a80       0x98 obj/LCDPM655.o
                0x00003ab0                LCD_Index2Color_M655
                0x00003b10                LCD_GetIndexMask_M655
                0x00003a80                LCD_Color2Index_M655
 *fill*         0x00003b18        0x8 00
 .text          0x00003b20      0x128 obj/LCDP0.o
                0x00003c10                LCD_Index2Color_0
                0x00003c40                LCD_GetIndexMask_0
                0x00003b20                LCD_Color2Index_0
 *fill*         0x00003c48        0x8 00
 .text          0x00003c50       0x48 obj/LCDP2.o
                0x00003c50                LCD_Color2Index_2
                0x00003c80                LCD_Index2Color_2
                0x00003c90                LCD_GetIndexMask_2
 *fill*         0x00003c98        0x8 00
 .text          0x00003ca0       0x48 obj/LCDP4.o
                0x00003ca0                LCD_Color2Index_4
                0x00003ce0                LCD_GetIndexMask_4
                0x00003cd0                LCD_Index2Color_4
 *fill*         0x00003ce8        0x8 00
 .text          0x00003cf0     0x1408 obj/GUI2DLib.o
                0x00003f30                GUI_DrawRect
                0x00004bb0                GL_DrawPolygon
                0x000044d0                GL_DrawLine
                0x00004060                GL_DrawPoint
                0x00004a90                GUI_DrawLineTo
                0x00004d10                GUI_DrawPolygon
                0x00003ed0                GUI_MoveTo
                0x00003e70                GUI_MoveRel
                0x00003cf0                GUI_sin
                0x00003da0                GUI_cos
                0x00004ec0                GUI_DrawLineRel
                0x00005030                GUI_DrawPoint
                0x00003e50                GL_MoveTo
                0x00004f80                GUI_DrawLine
                0x000040c0                GL_DrawLine1
                0x00004b40                GL_DrawLineTo
 *fill*         0x000050f8        0x8 00
 .text          0x00005100      0xb84 obj/GUIAlloc.o
                0x00005a10                GUI_ALLOC_Free
                0x00005820                GUI_ALLOC_GetMaxSize
                0x000056a0                GUI_ALLOC_h2p
                0x00005990                GUI_ALLOC_GetSize
                0x00005760                GUI_ALLOC_GetNumFreeBytes
                0x00005180                GUI_ALLOC_AllocNoInit
                0x00005b40                GUI_ALLOC_FreePtr
                0x00005100                GUI_ALLOC_Init
 *fill*         0x00005c84        0xc 00
 .text          0x00005c90      0xcac obj/GUIArc.o
                0x00006870                GUI_DrawArc
                0x00006610                GL_DrawArc
 *fill*         0x0000693c        0x4 00
 .text          0x00006940      0x2a8 obj/GUIChar.o
                0x00006990                GUI_DispNextLine
                0x00006ae0                GUI_GetYAdjust
                0x00006ba0                GUI_GetCharDistX
                0x00006940                GUI_GetFontDistY
                0x00006a00                GL_DispChar
 *fill*         0x00006be8        0x8 00
 .text          0x00006bf0      0x488 obj/GUICharLine.o
                0x00006d90                GUI__DispLine
                0x00006cd0                GUI__GetLineDistX
                0x00006bf0                GUI__GetLineNumChars
 *fill*         0x00007078        0x8 00
 .text          0x00007080      0x444 obj/GUICharM.o
                0x00007420                GUIMONO_GetFontInfo
                0x00007430                GUIMONO_IsInFont
                0x000073f0                GUIMONO_GetCharDistX
                0x00007080                GUIMONO_DispChar
 *fill*         0x000074c4        0xc 00
 .text          0x000074d0      0x39c obj/GUICharP.o
                0x00007720                GUIPROP_GetCharDistX
                0x000077e0                GUIPROP_GetFontInfo
                0x000074d0                GUIPROP_DispChar
                0x000077f0                GUIPROP_IsInFont
 *fill*         0x0000786c        0x4 00
 .text          0x00007870      0xe7c obj/GUICirc.o
                0x000080b0                GUI_FillCircle
                0x00007870                GL_DrawCircle
                0x00007f30                GL_FillCircle
                0x000082a0                GUI_FillEllipse
                0x00008470                GL_DrawEllipse
                0x00007b80                GUI_DrawCircle
                0x00008150                GL_FillEllipse
                0x00008620                GUI_DrawEllipse
 *fill*         0x000086ec        0x4 00
 .text          0x000086f0       0x38 obj/GUIColor2Index.o
                0x000086f0                GUI_Color2Index
 *fill*         0x00008728        0x8 00
 .text          0x00008730      0x2a8 obj/GUICore.o
                0x00008810                GUI_Clear
                0x000088f0                GUI_Init
                0x00008730                GUI_ClearRect
 *fill*         0x000089d8        0x8 00
 .text          0x000089e0     0x1938 obj/GUICurs.o
                0x00009010                GUI_CURSOR_Deactivate
                0x00008f80                GUI_CURSOR_Activate
                0x00009280                GUI_CURSOR_Select
                0x000096a0                GUI_CURSOR_Hide
                0x000098e0                GUI_CURSOR_Show
                0x00009bf0                GUI_CURSOR_SetPosition
 *fill*         0x0000a318        0x8 00
 .text          0x0000a320      0x1f4 obj/GUIEncJS.o
 *fill*         0x0000a514        0xc 00
 .text          0x0000a520       0x38 obj/GUIIndex2Color.o
                0x0000a520                GUI_Index2Color
 *fill*         0x0000a558        0x8 00
 .text          0x0000a560      0x5c4 obj/GUIPolyE.o
                0x0000a560                GUI_EnlargePolygon
 *fill*         0x0000ab24        0xc 00
 .text          0x0000ab30       0x6c obj/GUIPolyM.o
                0x0000ab30                GUI_MagnifyPolygon
 *fill*         0x0000ab9c        0x4 00
 .text          0x0000aba0      0x1bc obj/GUIPolyR.o
                0x0000aba0                GUI_RotatePolygon
 *fill*         0x0000ad5c        0x4 00
 .text          0x0000ad60       0xc4 obj/GUIRealloc.o
                0x0000ad60                GUI_ALLOC_Realloc
 *fill*         0x0000ae24        0xc 00
 .text          0x0000ae30       0x98 obj/GUIStream.o
                0x0000ae30                GUI_DrawStreamedBitmap
 *fill*         0x0000aec8        0x8 00
 .text          0x0000aed0      0x2fc obj/GUITask.o
                0x0000af50                GUI_Lock
                0x0000b170                GUITASK_CopyContext
                0x0000b140                GUITASK_Init
                0x0000aed0                GUI_Unlock
 *fill*         0x0000b1cc        0x4 00
 .text          0x0000b1d0       0x98 obj/GUITime.o
                0x0000b1f0                GUI_Delay
                0x0000b1d0                GUI_GetTime
 *fill*         0x0000b268        0x8 00
 .text          0x0000b270      0x8b0 obj/GUITimer.o
                0x0000b650                GUI_TIMER_SetTime
                0x0000b500                GUI_TIMER_Delete
                0x0000b690                GUI_TIMER_Context
                0x0000b270                GUI_TIMER_Exec
                0x0000b360                GUI_TIMER_Create
                0x0000b6d0                GUI_TIMER_SetDelay
                0x0000b610                GUI_TIMER_SetPeriod
                0x0000b8b0                GUI_TIMER_Restart
 .text          0x0000bb20       0xdc obj/GUIUC0.o
                0x0000bb20                GUI_UC2DB
                0x0000bb90                GUI_DB2UC
 *fill*         0x0000bbfc        0x4 00
 .text          0x0000bc00      0x2cc obj/GUIVal.o
                0x0000bc00                GUI_DispDecShift
                0x0000bdc0                GUI_DispSDec
                0x0000be20                GUI_DispDec
                0x0000bcb0                GUI_DispDecMin
                0x0000bcf0                GUI_DispDecSpace
                0x0000be60                GUI_DispDecAt
                0x0000bc40                GUI_DispSDecShift
 *fill*         0x0000becc        0x4 00
 .text          0x0000bed0      0x8e4 obj/GUIValf.o
                0x0000bed0                GUI_DispFloatFix
                0x0000c430                GUI_DispSFloatFix
                0x0000c050                GUI_DispFloatMin
                0x0000c240                GUI_DispFloat
                0x0000c5b0                GUI_DispSFloatMin
 *fill*         0x0000c7b4        0xc 00
 .text          0x0000c7c0       0xe4 obj/GUI_AddBin.o
                0x0000c7c0                GUI_AddBin
 *fill*         0x0000c8a4        0xc 00
 .text          0x0000c8b0       0x20 obj/GUI_AddDec.o
                0x0000c8b0                GUI_AddDec
 .text          0x0000c8d0       0x44 obj/GUI_AddDecMin.o
                0x0000c8d0                GUI_AddDecMin
 *fill*         0x0000c914        0xc 00
 .text          0x0000c920      0x294 obj/GUI_AddDecShift.o
                0x0000c990                GUI_AddSign
                0x0000c920                GUI_Long2Len
                0x0000c9d0                GUI_AddDecShift
 *fill*         0x0000cbb4        0xc 00
 .text          0x0000cbc0       0x94 obj/GUI_AddHex.o
                0x0000cbc0                GUI_AddHex
 *fill*         0x0000cc54        0xc 00
 .text          0x0000cc60       0x18 obj/GUI_AddKeyMsgHook.o
                0x0000cc60                GUI_SetKeyMsgHook
 *fill*         0x0000cc78        0x8 00
 .text          0x0000cc80       0xac obj/GUI_ALLOC_AllocInit.o
                0x0000cc80                GUI_ALLOC_AllocInit
 *fill*         0x0000cd2c        0x4 00
 .text          0x0000cd30       0x88 obj/GUI_ALLOC_AllocZero.o
                0x0000cd30                GUI_ALLOC_AllocZero
 *fill*         0x0000cdb8        0x8 00
 .text          0x0000cdc0      0x684 obj/GUI_BMP.o
                0x0000cdc0                GUI_BMP_GetXSize
                0x0000ce20                GUI_BMP_GetYSize
                0x0000cea0                GUI_BMP_Draw
 *fill*         0x0000d444        0xc 00
 .text          0x0000d450      0x5c4 obj/GUI_BMP_Serialize.o
                0x0000d9b0                GUI_BMP_Serialize
                0x0000d450                GUI_BMP_SerializeEx
 *fill*         0x0000da14        0xc 00
 .text          0x0000da20       0xb0 obj/GUI_CalcColorDist.o
                0x0000da20                GUI_CalcColorDist
 .text          0x0000dad0       0x50 obj/GUI_ClearRectEx.o
                0x0000dad0                GUI_ClearRectEx
 .text          0x0000db20      0x124 obj/GUI_Color2VisColor.o
                0x0000db70                GUI_ColorIsAvailable
                0x0000db20                GUI_Color2VisColor
                0x0000dbf0                GUI_CalcVisColorError
 *fill*         0x0000dc44        0xc 00
 .text          0x0000dc50       0xa8 obj/GUI_DispBin.o
                0x0000dc50                GUI_DispBin
                0x0000dc90                GUI_DispBinAt
 *fill*         0x0000dcf8        0x8 00
 .text          0x0000dd00       0x70 obj/GUI_DispCEOL.o
                0x0000dd00                GUI_DispCEOL
 .text          0x0000dd70      0x228 obj/GUI_DispChar.o
                0x0000dd70                GUI_DispChar
                0x0000de80                GUI_DispCharAt
 *fill*         0x0000df98        0x8 00
 .text          0x0000dfa0       0x58 obj/GUI_DispChars.o
                0x0000dfa0                GUI_DispChars
 *fill*         0x0000dff8        0x8 00
 .text          0x0000e000       0xa8 obj/GUI_DispHex.o
                0x0000e040                GUI_DispHexAt
                0x0000e000                GUI_DispHex
 *fill*         0x0000e0a8        0x8 00
 .text          0x0000e0b0      0x2c4 obj/GUI_DispString.o
                0x0000e0b0                GUI_DispString
 *fill*         0x0000e374        0xc 00
 .text          0x0000e380       0x58 obj/GUI_DispStringAt.o
                0x0000e380                GUI_DispStringAt
 *fill*         0x0000e3d8        0x8 00
 .text          0x0000e3e0       0x1c obj/GUI_DispStringAtCEOL.o
                0x0000e3e0                GUI_DispStringAtCEOL
 *fill*         0x0000e3fc        0x4 00
 .text          0x0000e400       0x78 obj/GUI_DispStringHCenter.o
                0x0000e400                GUI_DispStringHCenterAt
 *fill*         0x0000e478        0x8 00
 .text          0x0000e480      0x528 obj/GUI_DispStringInRect.o
                0x0000e820                GUI_DispStringInRectMax
                0x0000e480                GUI__DispStringInRect
                0x0000e8f0                GUI_DispStringInRect
 *fill*         0x0000e9a8        0x8 00
 .text          0x0000e9b0      0x200 obj/GUI_DispStringInRectEx.o
                0x0000e9b0                GUI_DispStringInRectEx
 .text          0x0000ebb0       0xa0 obj/GUI_DispStringLen.o
                0x0000ebb0                GUI_DispStringLen
 .text          0x0000ec50      0x4ac obj/GUI_DrawBitmap.o
                0x0000ec50                GL_DrawBitmap
                0x0000ee80                GUI_DrawBitmap
 *fill*         0x0000f0fc        0x4 00
 .text          0x0000f100      0x6b8 obj/GUI_DrawBitmapEx.o
                0x0000f100                GUI_DrawBitmapEx
 *fill*         0x0000f7b8        0x8 00
 .text          0x0000f7c0      0x178 obj/GUI_DrawBitmapExp.o
                0x0000f7c0                GUI_DrawBitmapExp
 *fill*         0x0000f938        0x8 00
 .text          0x0000f940      0x230 obj/GUI_DrawBitmapMag.o
                0x0000f940                GUI_DrawBitmapMag
 .text          0x0000fb70      0x170 obj/GUI_DrawFocusRect.o
                0x0000fb70                GUI_DrawFocusRect
 .text          0x0000fce0      0x210 obj/GUI_DrawGraph.o
                0x0000fce0                GUI_DrawGraph
 .text          0x0000fef0       0xc0 obj/GUI_DrawHLine.o
                0x0000fef0                GUI_DrawHLine
 .text          0x0000ffb0       0xf0 obj/GUI_DrawPie.o
                0x0000ffb0                GUI_DrawPie
 .text          0x000100a0       0xac obj/GUI_DrawPixel.o
                0x000100a0                GUI_DrawPixel
 *fill*         0x0001014c        0x4 00
 .text          0x00010150      0x118 obj/GUI_DrawPolyline.o
                0x00010150                GUI_DrawPolyLine
 *fill*         0x00010268        0x8 00
 .text          0x00010270       0x50 obj/GUI_DrawRectEx.o
                0x00010270                GUI_DrawRectEx
 .text          0x000102c0       0xb0 obj/GUI_DrawVLine.o
                0x000102c0                GUI_DrawVLine
 .text          0x00010370      0x3d8 obj/GUI_ErrorOut.o
                0x00010390                GUI_ErrorOut1
                0x00010530                GUI_ErrorOut3
                0x00010450                GUI_ErrorOut2
                0x00010630                GUI_ErrorOut4
                0x00010370                GUI_ErrorOut
 *fill*         0x00010748        0x8 00
 .text          0x00010750       0xe0 obj/GUI_Exec.o
                0x000107b0                GUI_Exec
                0x00010750                GUI_Exec1
 .text          0x00010830      0x6d4 obj/GUI_FillPolygon.o
                0x00010830                GL_FillPolygon
                0x00010e60                GUI_FillPolygon
 *fill*         0x00010f04        0xc 00
 .text          0x00010f10       0xc4 obj/GUI_FillRect.o
                0x00010f10                GUI_FillRect
 *fill*         0x00010fd4        0xc 00
 .text          0x00010fe0       0x50 obj/GUI_FillRectEx.o
                0x00010fe0                GUI_FillRectEx
 .text          0x00011030       0x68 obj/GUI_GetBitmapPixelColor.o
                0x00011030                GUI_GetBitmapPixelColor
 *fill*         0x00011098        0x8 00
 .text          0x000110a0      0x1d8 obj/GUI_GetBitmapPixelIndex.o
                0x000110a0                GUI_GetBitmapPixelIndex
 *fill*         0x00011278        0x8 00
 .text          0x00011280       0x24 obj/GUI_GetClientRect.o
                0x00011280                GUI_GetClientRect
 *fill*         0x000112a4        0xc 00
 .text          0x000112b0       0xd8 obj/GUI_GetColor.o
                0x000112b0                GUI_GetBkColorIndex
                0x00011350                GUI_GetColor
                0x00011320                GUI_GetColorIndex
                0x000112e0                GUI_GetBkColor
 *fill*         0x00011388        0x8 00
 .text          0x00011390       0x7c obj/GUI_GetDispPos.o
                0x00011390                GUI_GetDispPosX
                0x000113d0                GUI_GetDispPosY
 *fill*         0x0001140c        0x4 00
 .text          0x00011410       0x34 obj/GUI_GetFont.o
                0x00011410                GUI_GetFont
 *fill*         0x00011444        0xc 00
 .text          0x00011450       0xb4 obj/GUI_GetFontInfo.o
                0x00011450                GUI_GetFontInfo
 *fill*         0x00011504        0xc 00
 .text          0x00011510       0x30 obj/GUI_GetFontSizeY.o
                0x00011510                GUI_GetFontSizeY
 .text          0x00011540       0x38 obj/GUI_GetLineStyle.o
                0x00011540                GUI_GetLineStyle
 *fill*         0x00011578        0x8 00
 .text          0x00011580       0x30 obj/GUI_GetStringDistX.o
                0x00011580                GUI_GetStringDistX
 .text          0x000115b0       0x3c obj/GUI_GetTextAlign.o
                0x000115b0                GUI_GetTextAlign
 *fill*         0x000115ec        0x4 00
 .text          0x000115f0      0x180 obj/GUI_GetTextExtend.o
                0x000115f0                GUI_GetTextExtend
 .text          0x00011770       0x3c obj/GUI_GetTextMode.o
                0x00011770                GUI_GetTextMode
 *fill*         0x000117ac        0x4 00
 .text          0x000117b0       0x30 obj/GUI_GetVersionString.o
                0x000117b0                GUI_GetVersionString
 .text          0x000117e0       0x40 obj/GUI_GetYSizeOfFont.o
                0x00011800                GUI_GetYDistOfFont
                0x000117e0                GUI_GetYSizeOfFont
 .text          0x00011820       0xc8 obj/GUI_Goto.o
                0x00011820                GUI_GotoY
                0x000118a0                GUI_GotoXY
                0x00011860                GUI_GotoX
 *fill*         0x000118e8        0x8 00
 .text          0x000118f0       0x20 obj/GUI_InitLUT.o
                0x000118f0                GUI_InitLUT
 .text          0x00011910       0xe0 obj/GUI_InvertRect.o
                0x00011910                GUI_InvertRect
 .text          0x000119f0       0x64 obj/GUI_IsInFont.o
                0x000119f0                GUI_IsInFont
 *fill*         0x00011a54        0xc 00
 .text          0x00011a60      0x388 obj/GUI_Log.o
                0x00011a80                GUI_Log1
                0x00011a60                GUI_Log
                0x00011cf0                GUI_Log4
                0x00011b30                GUI_Log2
                0x00011c00                GUI_Log3
 *fill*         0x00011de8        0x8 00
 .text          0x00011df0      0x10c obj/GUI_MergeRect.o
                0x00011df0                GUI_MergeRect
 *fill*         0x00011efc        0x4 00
 .text          0x00011f00       0xa8 obj/GUI_MOUSE.o
                0x00011f50                GUI_MOUSE_StoreState
                0x00011f00                GUI_MOUSE_GetState
 *fill*         0x00011fa8        0x8 00
 .text          0x00011fb0      0x244 obj/GUI_MOUSE_DriverPS2.o
                0x00011fb0                GUI_MOUSE_DRIVER_PS2_OnRx
                0x000121e0                GUI_MOUSE_DRIVER_PS2_Init
 *fill*         0x000121f4        0xc 00
 .text          0x00012200       0x54 obj/GUI_MoveRect.o
                0x00012200                GUI_MoveRect
 *fill*         0x00012254        0xc 00
 .text          0x00012260      0x1d0 obj/GUI_OnKey.o
                0x00012280                GUI_StoreKey
                0x000123c0                GUI_SendKeyMsg
                0x000122e0                GUI_StoreKeyMsg
                0x00012310                GUI_PollKeyMsg
                0x000122b0                GUI_ClearKeyBuffer
                0x00012260                GUI_GetKey
 .text          0x00012430      0x118 obj/GUI_Pen.o
                0x00012430                GUI_GetPenSize
                0x00012470                GUI_GetPenShape
                0x000124b0                GUI_SetPenSize
                0x00012500                GUI_SetPenShape
 *fill*         0x00012548        0x8 00
 .text          0x00012550       0xb8 obj/GUI_PID.o
                0x000125a0                GUI_PID_StoreState
                0x00012550                GUI_PID_GetState
 *fill*         0x00012608        0x8 00
 .text          0x00012610       0xa8 obj/GUI_RectsIntersect.o
                0x00012610                GUI_RectsIntersect
 *fill*         0x000126b8        0x8 00
 .text          0x000126c0       0x58 obj/GUI_SaveContext.o
                0x000126f0                GUI_RestoreContext
                0x000126c0                GUI_SaveContext_W_M
 *fill*         0x00012718        0x8 00
 .text          0x00012720       0x78 obj/GUI_SelectLayer.o
                0x00012720                GUI_SelectLayer
 *fill*         0x00012798        0x8 00
 .text          0x000127a0       0x28 obj/GUI_SelectLCD.o
                0x000127a0                GUI_SelectLCD
 *fill*         0x000127c8        0x8 00
 .text          0x000127d0       0x60 obj/GUI_SetColor.o
                0x00012800                GUI_SetColor
                0x000127d0                GUI_SetBkColor
 .text          0x00012830       0x94 obj/GUI_SetColorIndex.o
                0x00012830                GUI_SetBkColorIndex
                0x00012880                GUI_SetColorIndex
 *fill*         0x000128c4        0xc 00
 .text          0x000128d0       0x38 obj/GUI_SetDecChar.o
                0x000128f0                GUI_GetDecChar
                0x000128d0                GUI_SetDecChar
 *fill*         0x00012908        0x8 00
 .text          0x00012910       0xc4 obj/GUI_SetDefault.o
                0x00012970                GUI_SetDefault
                0x00012910                GL_SetDefault
 *fill*         0x000129d4        0xc 00
 .text          0x000129e0       0x38 obj/GUI_SetDrawMode.o
                0x000129e0                GUI_SetDrawMode
 *fill*         0x00012a18        0x8 00
 .text          0x00012a20       0x58 obj/GUI_SetFont.o
                0x00012a20                GUI_SetFont
 *fill*         0x00012a78        0x8 00
 .text          0x00012a80       0x4c obj/GUI_SetLBorder.o
                0x00012a80                GUI_SetLBorder
 *fill*         0x00012acc        0x4 00
 .text          0x00012ad0       0x48 obj/GUI_SetLineStyle.o
                0x00012ad0                GUI_SetLineStyle
 *fill*         0x00012b18        0x8 00
 .text          0x00012b20        0x4 obj/GUI_SetLUTColor.o
                0x00012b20                GUI_SetLUTColor
 *fill*         0x00012b24        0xc 00
 .text          0x00012b30       0xa0 obj/GUI_SetLUTColorEx.o
                0x00012b30                GUI_SetLUTColorEx
 .text          0x00012bd0       0x40 obj/GUI_SetLUTEntry.o
                0x00012bd0                GUI_SetLUTEntry
 .text          0x00012c10       0x40 obj/GUI_SetOrg.o
                0x00012c10                GUI_SetOrg
 .text          0x00012c50       0x90 obj/GUI_SetPixelIndex.o
                0x00012c50                LCD_SetPixelIndex
 .text          0x00012ce0       0x4c obj/GUI_SetTextAlign.o
                0x00012ce0                GUI_SetTextAlign
 *fill*         0x00012d2c        0x4 00
 .text          0x00012d30       0x4c obj/GUI_SetTextMode.o
                0x00012d30                GUI_SetTextMode
 *fill*         0x00012d7c        0x4 00
 .text          0x00012d80      0x1ec obj/GUI_SetTextStyle.o
                0x00012f10                GUI_SetTextStyle
 *fill*         0x00012f6c        0x4 00
 .text          0x00012f70       0xf4 obj/GUI_SIF.o
                0x00012f70                GUI_SIF_CreateFont
                0x00013060                GUI_SIF_DeleteFont
 *fill*         0x00013064        0xc 00
 .text          0x00013070      0x5c4 obj/GUI_SIF_Prop.o
 *fill*         0x00013634        0xc 00
 .text          0x00013640       0xa8 obj/GUI_TOUCH.o
                0x00013690                GUI_TOUCH_StoreStateEx
                0x00013640                GUI_TOUCH_GetState
 *fill*         0x000136e8        0x8 00
 .text          0x000136f0      0x3b8 obj/GUI_TOUCH_DriverAnalog.o
                0x000137e0                GUI_TOUCH_GetCalData
                0x00013810                GUI_TOUCH_Exec
                0x00013740                GUI_TOUCH_Calibrate
                0x000136f0                GUI_TOUCH_GetxPhys
                0x00013700                GUI_TOUCH_GetyPhys
                0x00013710                GUI_TOUCH_SetDefaultCalibration
 *fill*         0x00013aa8        0x8 00
 .text          0x00013ab0       0x78 obj/GUI_TOUCH_StoreState.o
                0x00013ab0                GUI_TOUCH_StoreState
 *fill*         0x00013b28        0x8 00
 .text          0x00013b30       0xa4 obj/GUI_TOUCH_StoreUnstable.o
                0x00013bb0                GUI_TOUCH_GetUnstable
                0x00013b30                GUI_TOUCH_StoreUnstable
 *fill*         0x00013bd4        0xc 00
 .text          0x00013be0      0x2c0 obj/GUI_UC.o
                0x00013d10                GUI_UC__GetCharCodeInc
                0x00013ce0                GUI_UC__CalcSizeOfChar
                0x00013c30                GUI_UC_GetCharCode
                0x00013c80                GUI_UC_Encode
                0x00013d90                GUI_UC__NumChars2NumBytes
                0x00013e20                GUI_UC__NumBytes2NumChars
                0x00013be0                GUI_UC_GetCharSize
 .text          0x00013ea0      0x3b4 obj/GUI_UC_DispString.o
                0x00013ea0                GUI_UC_DispString
 *fill*         0x00014254        0xc 00
 .text          0x00014260       0x70 obj/GUI_UC_EncodeNone.o
                0x000142a0                GUI_UC_SetEncodeNone
 .text          0x000142d0      0x2c0 obj/GUI_UC_EncodeUTF8.o
                0x00014560                GUI_UC_SetEncodeUTF8
 .text          0x00014590       0x18 obj/GUI_WaitEvent.o
                0x00014590                GUI_WaitEvent
 *fill*         0x000145a8        0x8 00
 .text          0x000145b0       0x58 obj/GUI_WaitKey.o
                0x000145b0                GUI_WaitKey
 *fill*         0x00014608        0x8 00
 .text          0x00014610      0x388 obj/GUI_Warn.o
                0x00014610                GUI_Warn
                0x00014630                GUI_Warn1
                0x000148a0                GUI_Warn4
                0x000146e0                GUI_Warn2
                0x000147b0                GUI_Warn3
 *fill*         0x00014998        0x8 00
 .text          0x000149a0       0x3c obj/GUI__AddSpaceHex.o
                0x000149a0                GUI__AddSpaceHex
 *fill*         0x000149dc        0x4 00
 .text          0x000149e0      0x1f8 obj/GUI__CalcTextRect.o
                0x000149e0                GUI__CalcTextRect
 *fill*         0x00014bd8        0x8 00
 .text          0x00014be0       0x2c obj/GUI__DivideRound.o
                0x00014be0                GUI__DivideRound
 *fill*         0x00014c0c        0x4 00
 .text          0x00014c10       0x40 obj/GUI__DivideRound32.o
                0x00014c10                GUI__DivideRound32
 .text          0x00014c50       0x2c obj/GUI__GetFontSizeY.o
                0x00014c50                GUI__GetFontSizeY
 *fill*         0x00014c7c        0x4 00
 .text          0x00014c80       0x78 obj/GUI__GetNumChars.o
                0x00014c80                GUI__GetNumChars
 *fill*         0x00014cf8        0x8 00
 .text          0x00014d00       0x4c obj/GUI__HandleEOLine.o
                0x00014d00                GUI__HandleEOLine
 *fill*         0x00014d4c        0x4 00
 .text          0x00014d50       0x9c obj/GUI__IntersectRect.o
                0x00014d50                GUI__IntersectRect
 *fill*         0x00014dec        0x4 00
 .text          0x00014df0       0xf0 obj/GUI__IntersectRects.o
                0x00014df0                GUI__IntersectRects
 .text          0x00014ee0       0xe0 obj/GUI__memset.o
                0x00014ee0                GUI__memset
 .text          0x00014fc0       0xb0 obj/GUI__memset16.o
                0x00014fc0                GUI__memset16
 .text          0x00015070       0x98 obj/GUI__Read.o
                0x00015070                GUI__Read16
                0x000150b0                GUI__Read32
 *fill*         0x00015108        0x8 00
 .text          0x00015110       0x44 obj/GUI__ReduceRect.o
                0x00015110                GUI__ReduceRect
 *fill*         0x00015154        0xc 00
 .text          0x00015160       0x9c obj/GUI__SetText.o
                0x00015160                GUI__SetText
 *fill*         0x000151fc        0x4 00
 .text          0x00015200      0x1d8 obj/GUI__strcmp.o
                0x00015200                GUI__strcmp
                0x000152c0                GUI__strcmp_hp
 *fill*         0x000153d8        0x8 00
 .text          0x000153e0       0x40 obj/GUI__strlen.o
                0x000153e0                GUI__strlen
 .text          0x00015420      0x42c obj/GUI__Wrap.o
                0x00015740                GUI__WrapGetNumBytesToNextLine
                0x00015420                GUI__WrapGetNumCharsDisp
                0x00015650                GUI__WrapGetNumCharsToNextLine
 *fill*         0x0001584c        0x4 00
 .text          0x00015850      0xb4c obj/LCD.o
                0x000159f0                LCD_DrawHLine
                0x00016330                LCD_SetColor
                0x00016260                LCD_Color2Index
                0x00015b60                LCD_DrawBitmap
                0x000160c0                LCD_SetClipRectMax
                0x000158e0                LCD_SetDrawMode
                0x00015850                LCD_SetColorIndex
                0x000160f0                LCD_Init
                0x00015930                LCD_DrawPixel
                0x00015a90                LCD_FillRect
                0x000162c0                LCD_SetBkColor
                0x00016290                LCD_Index2Color
                0x00015890                LCD_SetBkColorIndex
 *fill*         0x0001639c        0x4 00
 .text          0x000163a0      0x404 obj/LCDAA.o
                0x000163a0                LCD_AA_MixColors
                0x00016450                LCD_SetPixelAA
                0x000165f0                LCD_SetPixelAA_NoTrans
 *fill*         0x000167a4        0xc 00
 .text          0x000167b0      0x184 obj/LCDColor.o
                0x000167b0                LCD_GetpPalConvTableUncached
                0x00016930                LCD_InitLUT
                0x00016870                LCD_GetpPalConvTable
 *fill*         0x00016934        0xc 00
 .text          0x00016940       0xf0 obj/LCDGetP.o
                0x00016940                LCD_GetPixelIndex
 .text          0x00016a30       0xf4 obj/LCDInfo.o
                0x00016a30                LCD_GetDevCap
 *fill*         0x00016b24        0xc 00
 .text          0x00016b30       0x88 obj/LCDInfo0.o
                0x00016b70                LCD_GetBitsPerPixel
                0x00016b80                LCD_GetNumColors
                0x00016b30                LCD_GetXSize
                0x00016ba0                LCD_GetXMag
                0x00016bb0                LCD_GetFixedPalette
                0x00016b60                LCD_GetVYSize
                0x00016b40                LCD_GetYSize
                0x00016b90                LCD_GetYMag
                0x00016b50                LCD_GetVXSize
 *fill*         0x00016bb8        0x8 00
 .text          0x00016bc0       0x88 obj/LCDInfo1.o
                0x00016bc0                LCD_GetXSize_1
                0x00016c00                LCD_GetBitsPerPixel_1
                0x00016bf0                LCD_GetVYSize_1
                0x00016c30                LCD_GetXMag_1
                0x00016be0                LCD_GetVXSize_1
                0x00016c10                LCD_GetNumColors_1
                0x00016c20                LCD_GetYMag_1
                0x00016bd0                LCD_GetYSize_1
                0x00016c40                LCD_GetFixedPalette_1
 *fill*         0x00016c48        0x8 00
 .text          0x00016c50        0x4 obj/LCDL0Delta.o
                0x00016c50                LCDL0Delta_c
 *fill*         0x00016c54        0xc 00
 .text          0x00016c60        0x4 obj/LCDL0Mag.o
                0x00016c60                LCDL0Mag_c
 *fill*         0x00016c64        0xc 00
 .text          0x00016c70       0x68 obj/LCDP1.o
                0x00016c70                LCD_Color2Index_1
                0x00016ca0                LCD_Index2Color_1
                0x00016cd0                LCD_GetIndexMask_1
 *fill*         0x00016cd8        0x8 00
 .text          0x00016ce0       0x54 obj/LCDP565_Index2Color.o
                0x00016ce0                LCD_Index2Color_565
 *fill*         0x00016d34        0xc 00
 .text          0x00016d40       0x54 obj/LCDPM565_Index2Color.o
                0x00016d40                LCD_Index2Color_M565
 *fill*         0x00016d94        0xc 00
 .text          0x00016da0      0x5a0 obj/LCDRLE4.o
 .text          0x00017340      0x620 obj/LCDRLE8.o
 .text          0x00017960      0x448 obj/LCD_DrawBitmap_565.o
 *fill*         0x00017da8        0x8 00
 .text          0x00017db0      0x44c obj/LCD_DrawBitmap_M565.o
 *fill*         0x000181fc        0x4 00
 .text          0x00018200       0x9c obj/LCD_DrawVLine.o
                0x00018200                LCD_DrawVLine
 *fill*         0x0001829c        0x4 00
 .text          0x000182a0       0x38 obj/LCD_GetColorIndex.o
                0x000182a0                LCD_GetBkColorIndex
                0x000182c0                LCD_GetColorIndex
 *fill*         0x000182d8        0x8 00
 .text          0x000182e0      0x188 obj/LCD_GetEx.o
                0x00018420                LCD_GetMirrorXEx
                0x000183e0                LCD_GetXMagEx
                0x00018300                LCD_GetYSizeEx
                0x00018440                LCD_GetSwapXYEx
                0x000183a0                LCD_GetNumColorsEx
                0x000182e0                LCD_GetXSizeEx
                0x00018360                LCD_GetBitsPerPixelEx
                0x00018450                LCD_GetSwapRBEx
                0x00018460                LCD_GetDeltaModeEx
                0x00018380                LCD_GetBitsPerPixel_L0Ex
                0x000183c0                LCD_GetYMagEx
                0x00018320                LCD_GetVXSizeEx
                0x00018430                LCD_GetMirrorYEx
                0x00018400                LCD_GetFixedPaletteEx
                0x00018340                LCD_GetVYSizeEx
 *fill*         0x00018468        0x8 00
 .text          0x00018470        0x8 obj/LCD_GetNumDisplays.o
                0x00018470                LCD_GetNumLayers
 *fill*         0x00018478        0x8 00
 .text          0x00018480       0x20 obj/LCD_GetPixelColor.o
                0x00018480                LCD_GetPixelColor
 .text          0x000184a0       0x4c obj/LCD_Index2ColorEx.o
                0x000184a0                LCD_Index2ColorEx
 *fill*         0x000184ec        0x4 00
 .text          0x000184f0       0x80 obj/LCD_L0_Generic.o
                0x000184f0                LCD_L0_Color2Index
                0x00018550                LCD_L0_GetRect
                0x00018530                LCD_L0_GetIndexMask
                0x00018510                LCD_L0_Index2Color
 .text          0x00018570       0x7c obj/LCD_MixColors256.o
                0x00018570                LCD_MixColors256
 *fill*         0x000185ec        0x4 00
 .text          0x000185f0      0x7fc obj/LCD_Rotate180.o
 *fill*         0x00018dec        0x4 00
 .text          0x00018df0      0x86c obj/LCD_RotateCCW.o
 *fill*         0x0001965c        0x4 00
 .text          0x00019660      0x84c obj/LCD_RotateCW.o
 *fill*         0x00019eac        0x4 00
 .text          0x00019eb0       0x40 obj/LCD_SelectLCD.o
                0x00019eb0                LCD_SelectLCD
 .text          0x00019ef0       0x88 obj/LCD_SetAPI.o
                0x00019ef0                LCD_SetAPI
 *fill*         0x00019f78        0x8 00
 .text          0x00019f80       0x58 obj/LCD_SetClipRectEx.o
                0x00019f80                LCD_SetClipRectEx
 *fill*         0x00019fd8        0x8 00
 .text          0x00019fe0       0x44 obj/LCD_UpdateColorIndices.o
                0x00019fe0                LCD_UpdateColorIndices
 *fill*         0x0001a024        0xc 00
 .text          0x0001a030     0x1294 obj/LCDNull.o
                0x0001a060                LCD_L0_GetPixelIndex
                0x0001a1d0                LCD_L0_DrawVLine
                0x0001b270                LCD_L0_SetOrg
                0x0001a0a0                LCD_L0_XorPixel
                0x0001b2a0                LCD_L0_Off
                0x0001b2c0                LCD_L0_SetLUTEntry
                0x0001b290                LCD_L0_On
                0x0001a3d0                LCD_L0_DrawBitmap
                0x0001a0e0                LCD_L0_DrawHLine
                0x0001a030                LCD_L0_SetPixelIndex
                0x0001b2b0                LCD_L0_Init
                0x0001a2c0                LCD_L0_FillRect
 *fill*         0x0001b2c4        0xc 00
 .text          0x0001b2d0      0xc64 obj/GUIDEV.o
                0x0001b840                GUI_MEMDEV_Create
                0x0001b4a0                GUI_MEMDEV__CreateFixed
                0x0001b6f0                GUI_MEMDEV_CreateEx
                0x0001b2d0                GUI_MEMDEV__GetRect
                0x0001b380                GUI_MEMDEV__Index2Color
                0x0001b990                GUI_MEMDEV_Select
                0x0001bf10                GUI_MEMDEV_CopyToLCD
                0x0001b340                GUI_MEMDEV__Color2Index
                0x0001baa0                GUI_MEMDEV__WriteToActiveAt
                0x0001b3f0                GUI_MEMDEV_Delete
                0x0001bd60                GUI_MEMDEV_CopyToLCDAt
                0x0001b3c0                GUI_MEMDEV__GetIndexMask
 *fill*         0x0001bf34        0xc 00
 .text          0x0001bf40     0x1884 obj/GUIDEV_1.o
 *fill*         0x0001d7c4        0xc 00
 .text          0x0001d7d0     0x1b94 obj/GUIDEV_16.o
 *fill*         0x0001f364        0xc 00
 .text          0x0001f370     0x19bc obj/GUIDEV_8.o
 *fill*         0x00020d2c        0x4 00
 .text          0x00020d30      0x4c8 obj/GUIDEV_AA.o
                0x00020d30                GUI_MEMDEV_CopyToLCDAA
                0x00020fe0                GUI_MEMDEV_CopyFromLCDAA
 *fill*         0x000211f8        0x8 00
 .text          0x00021200      0x1f4 obj/GUIDEV_Auto.o
                0x00021220                GUI_MEMDEV_DrawAuto
                0x00021210                GUI_MEMDEV_DeleteAuto
                0x00021200                GUI_MEMDEV_CreateAuto
 *fill*         0x000213f4        0xc 00
 .text          0x00021400      0x2a8 obj/GUIDEV_Banding.o
                0x00021400                GUI_MEMDEV_Draw
 *fill*         0x000216a8        0x8 00
 .text          0x000216b0       0xb8 obj/GUIDEV_Clear.o
                0x000216b0                GUI_MEMDEV_Clear
 *fill*         0x00021768        0x8 00
 .text          0x00021770      0x248 obj/GUIDEV_CmpWithLCD.o
                0x00021770                GUI_MEMDEV_CompareWithLCD
 *fill*         0x000219b8        0x8 00
 .text          0x000219c0      0x2d8 obj/GUIDEV_CopyFromLCD.o
                0x000219c0                GUI_MEMDEV_CopyFromLCD
 *fill*         0x00021c98        0x8 00
 .text          0x00021ca0       0xa8 obj/GUIDEV_CreateFixed.o
                0x00021ca0                GUI_MEMDEV_CreateFixed
 *fill*         0x00021d48        0x8 00
 .text          0x00021d50       0x38 obj/GUIDEV_GetDataPtr.o
                0x00021d50                GUI_MEMDEV_GetDataPtr
 *fill*         0x00021d88        0x8 00
 .text          0x00021d90       0x7c obj/GUIDEV_GetXSize.o
                0x00021d90                GUI_MEMDEV_GetXSize
 *fill*         0x00021e0c        0x4 00
 .text          0x00021e10       0x7c obj/GUIDEV_GetYSize.o
                0x00021e10                GUI_MEMDEV_GetYSize
 *fill*         0x00021e8c        0x4 00
 .text          0x00021e90      0xb20 obj/GUIDEV_Measure.o
                0x00022930                GUI_MEASDEV_GetRect
                0x00022730                GUI_MEASDEV_Delete
                0x000227e0                GUI_MEASDEV_Create
                0x00022780                GUI_MEASDEV_ClearRect
                0x000228b0                GUI_MEASDEV_Select
 .text          0x000229b0       0x88 obj/GUIDEV_ReduceYSize.o
                0x000229b0                GUI_MEMDEV_ReduceYSize
 *fill*         0x00022a38        0x8 00
 .text          0x00022a40      0x118 obj/GUIDEV_SetOrg.o
                0x00022a40                GUI_MEMDEV_SetOrg
 *fill*         0x00022b58        0x8 00
 .text          0x00022b60      0x140 obj/GUIDEV_Usage.o
                0x00022ba0                GUI_USAGE_DecUseCnt
                0x00022b60                GUI_USAGE_Select
                0x00022c10                GUI_USAGE_AddRect
 .text          0x00022ca0      0x690 obj/GUIDEV_UsageBM.o
                0x00023230                GUI_USAGE_BM_Create
 .text          0x00023330      0x1f0 obj/GUIDEV_Write.o
                0x00023450                GUI_MEMDEV_Write
                0x00023330                GUI_MEMDEV_WriteAt
 .text          0x00023520      0x400 obj/GUIDEV_WriteAlpha.o
                0x00023840                GUI_MEMDEV_WriteAlpha
                0x00023710                GUI_MEMDEV_WriteAlphaAt
 .text          0x00023920      0xea8 obj/GUIDEV_WriteEx.o
                0x000246e0                GUI_MEMDEV_WriteEx
                0x00024590                GUI_MEMDEV_WriteExAt
 *fill*         0x000247c8        0x8 00
 .text          0x000247d0      0x174 obj/GUIDEV_XY2PTR.o
                0x00024910                GUI_MEMDEV__XY2PTREx
                0x000247d0                GUI_MEMDEV__XY2PTR
 *fill*         0x00024944        0xc 00
 .text          0x00024950        0x4 obj/LCD_1.o
                0x00024950                LCD_1_c
 *fill*         0x00024954        0xc 00
 .text          0x00024960        0x4 obj/LCD_2.o
                0x00024960                LCD_2_c
 *fill*         0x00024964        0xc 00
 .text          0x00024970        0x4 obj/LCD_3.o
                0x00024970                LCD_3_c
 *fill*         0x00024974        0xc 00
 .text          0x00024980        0x4 obj/LCD_4.o
                0x00024980                LCD_4_c
 *fill*         0x00024984        0xc 00
 .text          0x00024990      0x8bc obj/BUTTON.o
                0x00024f80                BUTTON_SetFont
                0x000251b0                BUTTON_SetState
                0x00024990                BUTTON_Callback
                0x00024f00                BUTTON_SetText
                0x000250e0                BUTTON_SetTextColor
                0x00025210                BUTTON_SetFocussable
                0x00024de0                BUTTON_CreateEx
                0x00025010                BUTTON_SetBkColor
                0x000251d0                BUTTON_SetPressed
 *fill*         0x0002524c        0x4 00
 .text          0x00025250       0x9c obj/BUTTON_Bitmap.o
                0x000252a0                BUTTON_SetBitmap
                0x00025250                BUTTON_SetBitmapEx
 *fill*         0x000252ec        0x4 00
 .text          0x000252f0       0x9c obj/BUTTON_BMP.o
                0x000252f0                BUTTON_SetBMPEx
                0x00025340                BUTTON_SetBMP
 *fill*         0x0002538c        0x4 00
 .text          0x00025390       0xa0 obj/BUTTON_Create.o
                0x00025390                BUTTON_Create
                0x000253e0                BUTTON_CreateAsChild
 .text          0x00025430       0xc8 obj/BUTTON_CreateIndirect.o
                0x00025430                BUTTON_CreateIndirect
 *fill*         0x000254f8        0x8 00
 .text          0x00025500      0x128 obj/BUTTON_Default.o
                0x00025570                BUTTON_SetDefaultTextAlign
                0x00025510                BUTTON_SetDefaultTextColor
                0x00025500                BUTTON_SetDefaultFont
                0x00025580                BUTTON_GetDefaultFont
                0x00025540                BUTTON_SetDefaultBkColor
                0x000255d0                BUTTON_GetDefaultBkColor
                0x00025590                BUTTON_GetDefaultTextColor
                0x00025610                BUTTON_GetDefaultTextAlign
 *fill*         0x00025628        0x8 00
 .text          0x00025630      0x250 obj/BUTTON_Get.o
                0x00025720                BUTTON_GetText
                0x00025630                BUTTON_GetBkColor
                0x000256c0                BUTTON_GetFont
                0x000257f0                BUTTON_GetTextColor
 .text          0x00025880       0x58 obj/BUTTON_IsPressed.o
                0x00025880                BUTTON_IsPressed
 *fill*         0x000258d8        0x8 00
 .text          0x000258e0       0x9c obj/BUTTON_SelfDraw.o
                0x000258e0                BUTTON_SetSelfDrawEx
                0x00025930                BUTTON_SetSelfDraw
 *fill*         0x0002597c        0x4 00
 .text          0x00025980       0x88 obj/BUTTON_SetTextAlign.o
                0x00025980                BUTTON_SetTextAlign
 *fill*         0x00025a08        0x8 00
 .text          0x00025a10       0x9c obj/BUTTON_StreamedBitmap.o
                0x00025a60                BUTTON_SetStreamedBitmap
                0x00025a10                BUTTON_SetStreamedBitmapEx
 *fill*         0x00025aac        0x4 00
 .text          0x00025ab0       0xb8 obj/BUTTON__SetBitmapObj.o
                0x00025ab0                BUTTON__SetDrawObj
 *fill*         0x00025b68        0x8 00
 .text          0x00025b70      0x750 obj/CHECKBOX.o
                0x000260a0                CHECKBOX_CreateEx
 .text          0x000262c0       0x50 obj/CHECKBOX_Create.o
                0x000262c0                CHECKBOX_Create
 .text          0x00026310       0xb4 obj/CHECKBOX_CreateIndirect.o
                0x00026310                CHECKBOX_CreateIndirect
 *fill*         0x000263c4        0xc 00
 .text          0x000263d0       0xb8 obj/CHECKBOX_Default.o
                0x00026410                CHECKBOX_SetDefaultAlign
                0x000263d0                CHECKBOX_SetDefaultSpacing
                0x00026460                CHECKBOX_GetDefaultFont
                0x00026450                CHECKBOX_GetDefaultBkColor
                0x00026440                CHECKBOX_GetDefaultTextColor
                0x00026420                CHECKBOX_GetDefaultSpacing
                0x000263f0                CHECKBOX_SetDefaultBkColor
                0x00026400                CHECKBOX_SetDefaultFont
                0x00026470                CHECKBOX_GetDefaultAlign
                0x000263e0                CHECKBOX_SetDefaultTextColor
 *fill*         0x00026488        0x8 00
 .text          0x00026490       0x5c obj/CHECKBOX_GetState.o
                0x00026490                CHECKBOX_GetState
 *fill*         0x000264ec        0x4 00
 .text          0x000264f0       0x4c obj/CHECKBOX_IsChecked.o
                0x000264f0                CHECKBOX_IsChecked
 *fill*         0x0002653c        0x4 00
 .text          0x00026540       0xa4 obj/CHECKBOX_SetBkColor.o
                0x00026540                CHECKBOX_SetBkColor
 *fill*         0x000265e4        0xc 00
 .text          0x000265f0       0x28 obj/CHECKBOX_SetDefaultImage.o
                0x000265f0                CHECKBOX_SetDefaultImage
 *fill*         0x00026618        0x8 00
 .text          0x00026620       0x68 obj/CHECKBOX_SetFont.o
                0x00026620                CHECKBOX_SetFont
 *fill*         0x00026688        0x8 00
 .text          0x00026690       0x74 obj/CHECKBOX_SetImage.o
                0x00026690                CHECKBOX_SetImage
 *fill*         0x00026704        0xc 00
 .text          0x00026710       0xf4 obj/CHECKBOX_SetNumStates.o
                0x00026710                CHECKBOX_SetNumStates
 *fill*         0x00026804        0xc 00
 .text          0x00026810       0x70 obj/CHECKBOX_SetSpacing.o
                0x00026810                CHECKBOX_SetSpacing
 .text          0x00026880       0x78 obj/CHECKBOX_SetState.o
                0x00026880                CHECKBOX_SetState
 *fill*         0x000268f8        0x8 00
 .text          0x00026900       0x7c obj/CHECKBOX_SetText.o
                0x00026900                CHECKBOX_SetText
 *fill*         0x0002697c        0x4 00
 .text          0x00026980       0x70 obj/CHECKBOX_SetTextAlign.o
                0x00026980                CHECKBOX_SetTextAlign
 .text          0x000269f0       0x68 obj/CHECKBOX_SetTextColor.o
                0x000269f0                CHECKBOX_SetTextColor
 *fill*         0x00026a58        0x8 00
 .text          0x00026a60      0x398 obj/DIALOG.o
                0x00026a60                DIALOG_GetBkColor
                0x00026b10                GUI_CreateDialogBox
                0x00026ca0                GUI_ExecCreatedDialog
                0x00026a70                DIALOG_SetBkColor
                0x00026d40                GUI_ExecDialogBox
                0x00026c20                GUI_EndDialog
                0x00026ad0                GUI_GetDialogStatusPtr
                0x00026a90                GUI_SetDialogStatusPtr
 *fill*         0x00026df8        0x8 00
 .text          0x00026e00     0x1820 obj/DROPDOWN.o
                0x00027560                DROPDOWN_GetNumItems
                0x000270e0                DROPDOWN_Expand
                0x00027840                DROPDOWN_SetTextColor
                0x00028610                DROPDOWN_GetDefaultFont
                0x000275e0                DROPDOWN_SetFont
                0x00027930                DROPDOWN_GetSel
                0x000273f0                DROPDOWN_AddString
                0x00028550                DROPDOWN_SetScrollbarWidth
                0x00027750                DROPDOWN_SetBkColor
                0x00027480                DROPDOWN_SetSel
                0x00026f50                DROPDOWN_CreateEx
                0x00026ee0                DROPDOWN_Collapse
                0x00027af0                DROPDOWN_IncSel
                0x00028600                DROPDOWN_SetDefaultFont
                0x00026e00                DROPDOWN__AdjustHeight
                0x000279b0                DROPDOWN_DecSel
                0x00027c20                DROPDOWN_AddKey
 .text          0x00028620       0x50 obj/DROPDOWN_Create.o
                0x00028620                DROPDOWN_Create
 .text          0x00028670       0xb4 obj/DROPDOWN_CreateIndirect.o
                0x00028670                DROPDOWN_CreateIndirect
 *fill*         0x00028724        0xc 00
 .text          0x00028730       0xc0 obj/DROPDOWN_DeleteItem.o
                0x00028730                DROPDOWN_DeleteItem
 .text          0x000287f0      0x124 obj/DROPDOWN_InsertString.o
                0x000287f0                DROPDOWN_InsertString
 *fill*         0x00028914        0xc 00
 .text          0x00028920       0xdc obj/DROPDOWN_ItemSpacing.o
                0x00028920                DROPDOWN_SetItemSpacing
                0x000289a0                DROPDOWN_GetItemSpacing
 *fill*         0x000289fc        0x4 00
 .text          0x00028a00       0xb4 obj/DROPDOWN_SetAutoScroll.o
                0x00028a00                DROPDOWN_SetAutoScroll
 *fill*         0x00028ab4        0xc 00
 .text          0x00028ac0       0x5c obj/DROPDOWN_SetTextAlign.o
                0x00028ac0                DROPDOWN_SetTextAlign
 *fill*         0x00028b1c        0x4 00
 .text          0x00028b20       0x68 obj/DROPDOWN_SetTextHeight.o
                0x00028b20                DROPDOWN_SetTextHeight
 *fill*         0x00028b88        0x8 00
 .text          0x00028b90     0x1db4 obj/EDIT.o
                0x0002a200                EDIT_SetText
                0x00029fb0                EDIT_SetFont
                0x00029520                EDIT_AddKey
                0x00028ff0                ShowCurrsor
                0x0002a5a0                EDIT_GetValue
                0x0002a060                EDIT_SetBkColor
                0x00029070                EDIT__SetCursorPos
                0x000294b0                EDIT__GetCurrentChar
                0x00029e00                EDIT_CreateEx
                0x00029130                EDIT_SetCursorAtPixel
                0x00028b90                EDIT_h2p
                0x0002a630                EDIT_SetValue
                0x0002a720                EDIT_SetMaxLen
                0x0002a8a0                EDIT_SetTextAlign
                0x0002a130                EDIT_SetTextColor
                0x0002a490                EDIT_GetText
 *fill*         0x0002a944        0xc 00
 .text          0x0002a950      0x414 obj/EDITBin.o
                0x0002ac20                EDIT_SetBinMode
 *fill*         0x0002ad64        0xc 00
 .text          0x0002ad70      0x7a8 obj/EDITDec.o
                0x0002b390                EDIT_SetDecMode
 *fill*         0x0002b518        0x8 00
 .text          0x0002b520      0x730 obj/EDITFloat.o
                0x0002ba90                EDIT_SetFloatValue
                0x0002b9a0                EDIT_GetFloatValue
                0x0002b520                EDIT_SetFloatMode
 .text          0x0002bc50      0x3f4 obj/EDITHex.o
                0x0002bf00                EDIT_SetHexMode
 *fill*         0x0002c044        0xc 00
 .text          0x0002c050       0xb8 obj/EDIT_Create.o
                0x0002c050                EDIT_Create
                0x0002c0b0                EDIT_CreateAsChild
 *fill*         0x0002c108        0x8 00
 .text          0x0002c110       0xe8 obj/EDIT_CreateIndirect.o
                0x0002c110                EDIT_CreateIndirect
 *fill*         0x0002c1f8        0x8 00
 .text          0x0002c200      0x100 obj/EDIT_Default.o
                0x0002c220                EDIT_SetDefaultTextAlign
                0x0002c210                EDIT_GetDefaultFont
                0x0002c230                EDIT_GetDefaultTextAlign
                0x0002c270                EDIT_SetDefaultBkColor
                0x0002c2a0                EDIT_GetDefaultTextColor
                0x0002c2d0                EDIT_GetDefaultBkColor
                0x0002c200                EDIT_SetDefaultFont
                0x0002c240                EDIT_SetDefaultTextColor
 .text          0x0002c300       0x78 obj/EDIT_GetNumChars.o
                0x0002c300                EDIT_GetNumChars
 *fill*         0x0002c378        0x8 00
 .text          0x0002c380       0x64 obj/EDIT_SetCursorAtChar.o
                0x0002c380                EDIT_SetCursorAtChar
 *fill*         0x0002c3e4        0xc 00
 .text          0x0002c3f0       0x80 obj/EDIT_SetInsertMode.o
                0x0002c3f0                EDIT_SetInsertMode
 .text          0x0002c470       0x54 obj/EDIT_SetpfAddKeyEx.o
                0x0002c470                EDIT_SetpfAddKeyEx
 *fill*         0x0002c4c4        0xc 00
 .text          0x0002c4d0       0x54 obj/EDIT_SetpfUpdateBuffer.o
                0x0002c4d0                EDIT_SetpfUpdateBuffer
 *fill*         0x0002c524        0xc 00
 .text          0x0002c530       0xe8 obj/EDIT_SetSel.o
                0x0002c530                EDIT_SetSel
 *fill*         0x0002c618        0x8 00
 .text          0x0002c620     0x12d0 obj/FRAMEWIN.o
                0x0002cc50                FRAMEWIN_SetActive
                0x0002d800                FRAMEWIN_SetTextAlign
                0x0002d5c0                FRAMEWIN_SetText
                0x0002c880                FRAMEWIN__CalcTitleHeight
                0x0002cb40                FRAMEWIN__UpdatePositions
                0x0002d870                FRAMEWIN_SetMoveable
                0x0002d640                FRAMEWIN_CreateEx
                0x0002c8f0                FRAMEWIN__CalcPositions
 .text          0x0002d8f0      0x134 obj/FRAMEWIN_AddMenu.o
                0x0002d8f0                FRAMEWIN_AddMenu
 *fill*         0x0002da24        0xc 00
 .text          0x0002da30      0x150 obj/FRAMEWIN_Button.o
                0x0002da30                FRAMEWIN_AddButton
 .text          0x0002db80      0x1c4 obj/FRAMEWIN_ButtonClose.o
                0x0002dcf0                FRAMEWIN_AddCloseButton
 *fill*         0x0002dd44        0xc 00
 .text          0x0002dd50      0x614 obj/FRAMEWIN_ButtonMax.o
                0x0002e310                FRAMEWIN_AddMaxButton
 *fill*         0x0002e364        0xc 00
 .text          0x0002e370      0x314 obj/FRAMEWIN_ButtonMin.o
                0x0002e630                FRAMEWIN_AddMinButton
 *fill*         0x0002e684        0xc 00
 .text          0x0002e690       0xbc obj/FRAMEWIN_Create.o
                0x0002e6f0                FRAMEWIN_CreateAsChild
                0x0002e690                FRAMEWIN_Create
 *fill*         0x0002e74c        0x4 00
 .text          0x0002e750       0xc4 obj/FRAMEWIN_CreateIndirect.o
                0x0002e750                FRAMEWIN_CreateIndirect
 *fill*         0x0002e814        0xc 00
 .text          0x0002e820      0x160 obj/FRAMEWIN_Default.o
                0x0002e820                FRAMEWIN_SetDefaultFont
                0x0002e830                FRAMEWIN_GetDefaultFont
                0x0002e920                FRAMEWIN_SetDefaultTextColor
                0x0002e8c0                FRAMEWIN_SetDefaultTitleHeight
                0x0002e8b0                FRAMEWIN_GetDefaultClientColor
                0x0002e950                FRAMEWIN_GetDefaultTextColor
                0x0002e840                FRAMEWIN_SetDefaultBarColor
                0x0002e8d0                FRAMEWIN_GetDefaultTitleHeight
                0x0002e8f0                FRAMEWIN_SetDefaultBorderSize
                0x0002e870                FRAMEWIN_GetDefaultBarColor
                0x0002e8a0                FRAMEWIN_SetDefaultClientColor
                0x0002e900                FRAMEWIN_GetDefaultBorderSize
 .text          0x0002e980      0x15c obj/FRAMEWIN_Get.o
                0x0002e9e0                FRAMEWIN_GetTitleHeight
                0x0002ea80                FRAMEWIN_GetBorderSize
                0x0002e980                FRAMEWIN_GetFont
 *fill*         0x0002eadc        0x4 00
 .text          0x0002eae0       0xbc obj/FRAMEWIN_IsMinMax.o
                0x0002eb40                FRAMEWIN_IsMaximized
                0x0002eae0                FRAMEWIN_IsMinimized
 *fill*         0x0002eb9c        0x4 00
 .text          0x0002eba0      0x7a0 obj/FRAMEWIN_MinMaxRest.o
                0x0002eba0                FRAMEWIN_Minimize
                0x0002ee10                FRAMEWIN_Maximize
                0x0002f0f0                FRAMEWIN_Restore
 .text          0x0002f340      0x1cc obj/FRAMEWIN_SetBorderSize.o
                0x0002f340                FRAMEWIN_SetBorderSize
 *fill*         0x0002f50c        0x4 00
 .text          0x0002f510      0x1e8 obj/FRAMEWIN_SetColors.o
                0x0002f510                FRAMEWIN_SetBarColor
                0x0002f690                FRAMEWIN_SetClientColor
                0x0002f600                FRAMEWIN_SetTextColorEx
                0x0002f5a0                FRAMEWIN_SetTextColor
 *fill*         0x0002f6f8        0x8 00
 .text          0x0002f700       0x90 obj/FRAMEWIN_SetFont.o
                0x0002f700                FRAMEWIN_SetFont
 .text          0x0002f790      0x728 obj/FRAMEWIN_SetResizeable.o
                0x0002fe20                FRAMEWIN_SetResizeable
 *fill*         0x0002feb8        0x8 00
 .text          0x0002fec0       0xb0 obj/FRAMEWIN_SetTitleHeight.o
                0x0002fec0                FRAMEWIN_SetTitleHeight
 .text          0x0002ff70      0x1e4 obj/FRAMEWIN_SetTitleVis.o
                0x0002ff70                FRAMEWIN_SetTitleVis
 *fill*         0x00030154        0xc 00
 .text          0x00030160      0x278 obj/FRAMEWIN__UpdateButtons.o
                0x00030160                FRAMEWIN__UpdateButtons
 *fill*         0x000303d8        0x8 00
 .text          0x000303e0      0x8b4 obj/GUI_ARRAY.o
                0x000304d0                GUI_ARRAY_AddItem
                0x000306a0                GUI_ARRAY_Delete
                0x000303e0                GUI_ARRAY_Check
                0x00030b00                GUI_ARRAY_GetpItem
                0x00030890                GUI_ARRAY_SetItem
                0x000307a0                GUI_ARRAY_SethItem
                0x00030450                GUI_ARRAY_GetNumItems
                0x00030a20                GUI_ARRAY_GethItem
                0x00030c50                GUI_ARRAY_Create
 *fill*         0x00030c94        0xc 00
 .text          0x00030ca0       0xc0 obj/GUI_ARRAY_DeleteItem.o
                0x00030ca0                GUI_ARRAY_DeleteItem
 .text          0x00030d60      0x1c8 obj/GUI_ARRAY_InsertItem.o
                0x00030eb0                GUI_ARRAY_InsertItem
                0x00030d60                GUI_ARRAY_InsertBlankItem
 *fill*         0x00030f28        0x8 00
 .text          0x00030f30       0xf8 obj/GUI_ARRAY_ResizeItem.o
                0x00030f30                GUI_ARRAY_ResizeItem
 *fill*         0x00031028        0x8 00
 .text          0x00031030       0xf8 obj/GUI_DRAW.o
                0x00031090                GUI_DRAW__GetXSize
                0x00031030                GUI_DRAW__Draw
                0x000310e0                GUI_DRAW__GetYSize
 *fill*         0x00031128        0x8 00
 .text          0x00031130      0x124 obj/GUI_DRAW_BITMAP.o
                0x000311c0                GUI_DRAW_BITMAP_Create
 *fill*         0x00031254        0xc 00
 .text          0x00031260      0x124 obj/GUI_DRAW_BMP.o
                0x000312f0                GUI_DRAW_BMP_Create
 *fill*         0x00031384        0xc 00
 .text          0x00031390       0xd4 obj/GUI_DRAW_Self.o
                0x000313d0                GUI_DRAW_SELF_Create
 *fill*         0x00031464        0xc 00
 .text          0x00031470      0x124 obj/GUI_DRAW_STREAMED.o
                0x00031500                GUI_DRAW_STREAMED_Create
 *fill*         0x00031594        0xc 00
 .text          0x000315a0      0x208 obj/GUI_EditBin.o
                0x000315a0                GUI_EditBin
 *fill*         0x000317a8        0x8 00
 .text          0x000317b0      0x228 obj/GUI_EditDec.o
                0x000317b0                GUI_EditDec
 *fill*         0x000319d8        0x8 00
 .text          0x000319e0      0x288 obj/GUI_EditFloat.o
                0x000319e0                GUI_EditFloat
 *fill*         0x00031c68        0x8 00
 .text          0x00031c70      0x208 obj/GUI_EditHex.o
                0x00031c70                GUI_EditHex
 *fill*         0x00031e78        0x8 00
 .text          0x00031e80      0x1ec obj/GUI_EditString.o
                0x00031e80                GUI_EditString
 *fill*         0x0003206c        0x4 00
 .text          0x00032070       0x2c obj/GUI_HOOK.o
                0x00032090                GUI_HOOK_Remove
                0x00032070                GUI_HOOK_Add
 *fill*         0x0003209c        0x4 00
 .text          0x000320a0     0x130c obj/HEADER.o
                0x000324e0                HEADER_GetDefaultBorderH
                0x00033350                HEADER_GetNumItems
                0x000324b0                HEADER_GetDefaultCursor
                0x00032470                HEADER_SetDefaultBorderV
                0x00032800                HEADER_AddItem
                0x00032500                HEADER_GetDefaultFont
                0x00032ae0                HEADER_SetItemWidth
                0x00032570                HEADER_SetHeight
                0x000324c0                HEADER_GetDefaultBkColor
                0x000324d0                HEADER_GetDefaultTextColor
                0x00032130                HEADER_CreateEx
                0x00032490                HEADER_SetDefaultFont
                0x000323f0                HEADER_SetDefaultCursor
                0x00032510                HEADER_SetFont
                0x000326c0                HEADER_SetTextAlign
                0x00032450                HEADER_SetDefaultBorderH
                0x00032990                HEADER_DeleteItem
                0x00032410                HEADER_SetDefaultBkColor
                0x000332c0                HEADER_GetHeight
                0x000323a0                HEADER_Create
                0x00032430                HEADER_SetDefaultTextColor
                0x00032660                HEADER_SetBkColor
                0x00032760                HEADER_SetScrollPos
                0x000320a0                HEADER_GetItemWidth
                0x00032a30                HEADER_SetItemText
                0x000324f0                HEADER_GetDefaultBorderV
                0x00032600                HEADER_SetTextColor
 *fill*         0x000333ac        0x4 00
 .text          0x000333b0       0xb4 obj/HEADER_Bitmap.o
                0x000333b0                HEADER_SetBitmapEx
                0x00033410                HEADER_SetBitmap
 *fill*         0x00033464        0xc 00
 .text          0x00033470       0xb4 obj/HEADER_BMP.o
                0x000334d0                HEADER_SetBMP
                0x00033470                HEADER_SetBMPEx
 *fill*         0x00033524        0xc 00
 .text          0x00033530       0x4c obj/HEADER_Create.o
                0x00033530                HEADER_CreateAttached
 *fill*         0x0003357c        0x4 00
 .text          0x00033580       0xb4 obj/HEADER_CreateIndirect.o
                0x00033580                HEADER_CreateIndirect
 *fill*         0x00033634        0xc 00
 .text          0x00033640       0xb4 obj/HEADER_StreamedBitmap.o
                0x00033640                HEADER_SetStreamedBitmapEx
                0x000336a0                HEADER_SetStreamedBitmap
 *fill*         0x000336f4        0xc 00
 .text          0x00033700       0xa4 obj/HEADER__SetDrawObj.o
                0x00033700                HEADER__SetDrawObj
 *fill*         0x000337a4        0xc 00
 .text          0x000337b0     0x3248 obj/LISTBOX.o
                0x000358a0                LISTBOX_IncSel
                0x00035480                LISTBOX_SetText
                0x00035850                LISTBOX_DecSel
                0x00034030                LISTBOX__InvalidateItem
                0x00035520                LISTBOX_CreateEx
                0x00035190                LISTBOX_AddString
                0x00033810                LISTBOX_OwnerDraw
                0x000342b0                LISTBOX__InvalidateItemAndBelow
                0x00034f40                LISTBOX_InvalidateItem
                0x00034570                LISTBOX_UpdateScrollers
                0x000337d0                LISTBOX__GetpString
                0x00034490                LISTBOX__SetScrollbarWidth
                0x000349c0                LISTBOX_SetSel
                0x00033ff0                LISTBOX__InvalidateInsideArea
                0x00035df0                LISTBOX_AddKey
                0x00035650                LISTBOX_GetSel
                0x000337b0                LISTBOX__GetNumItems
                0x00033fc0                LISTBOX__InvalidateItemSize
 *fill*         0x000369f8        0x8 00
 .text          0x00036a00       0xb4 obj/LISTBOX_Create.o
                0x00036a60                LISTBOX_CreateAsChild
                0x00036a00                LISTBOX_Create
 *fill*         0x00036ab4        0xc 00
 .text          0x00036ac0       0xc0 obj/LISTBOX_CreateIndirect.o
                0x00036ac0                LISTBOX_CreateIndirect
 .text          0x00036b80      0x124 obj/LISTBOX_Default.o
                0x00036c00                LISTBOX_GetDefaultBkColor
                0x00036b80                LISTBOX_SetDefaultFont
                0x00036c70                LISTBOX_GetDefaultTextColor
                0x00036bb0                LISTBOX_GetDefaultScrollStepH
                0x00036ba0                LISTBOX_SetDefaultScrollStepH
                0x00036b90                LISTBOX_GetDefaultFont
                0x00036c40                LISTBOX_SetDefaultTextColor
                0x00036bd0                LISTBOX_SetDefaultBkColor
 *fill*         0x00036ca4        0xc 00
 .text          0x00036cb0       0xfc obj/LISTBOX_DeleteItem.o
                0x00036cb0                LISTBOX_DeleteItem
 *fill*         0x00036dac        0x4 00
 .text          0x00036db0      0x104 obj/LISTBOX_Font.o
                0x00036db0                LISTBOX_SetFont
                0x00036e40                LISTBOX_GetFont
 *fill*         0x00036eb4        0xc 00
 .text          0x00036ec0       0xd0 obj/LISTBOX_GetItemText.o
                0x00036ec0                LISTBOX_GetItemText
 .text          0x00036f90       0x7c obj/LISTBOX_GetNumItems.o
                0x00036f90                LISTBOX_GetNumItems
 *fill*         0x0003700c        0x4 00
 .text          0x00037010       0xe8 obj/LISTBOX_InsertString.o
                0x00037010                LISTBOX_InsertString
 *fill*         0x000370f8        0x8 00
 .text          0x00037100      0x1d0 obj/LISTBOX_ItemDisabled.o
                0x000371c0                LISTBOX_SetItemDisabled
                0x00037100                LISTBOX_GetItemDisabled
 .text          0x000372d0      0x10c obj/LISTBOX_ItemSpacing.o
                0x00037360                LISTBOX_GetItemSpacing
                0x000372d0                LISTBOX_SetItemSpacing
 *fill*         0x000373dc        0x4 00
 .text          0x000373e0      0x304 obj/LISTBOX_MultiSel.o
                0x00037510                LISTBOX_GetItemSel
                0x000375d0                LISTBOX_SetItemSel
                0x000374a0                LISTBOX_GetMulti
                0x000373e0                LISTBOX_SetMulti
 *fill*         0x000376e4        0xc 00
 .text          0x000376f0       0xbc obj/LISTBOX_ScrollStep.o
                0x000376f0                LISTBOX_SetScrollStepH
                0x00037750                LISTBOX_GetScrollStepH
 *fill*         0x000377ac        0x4 00
 .text          0x000377b0      0x13c obj/LISTBOX_SetAutoScroll.o
                0x00037850                LISTBOX_SetAutoScrollV
                0x000377b0                LISTBOX_SetAutoScrollH
 *fill*         0x000378ec        0x4 00
 .text          0x000378f0       0xc0 obj/LISTBOX_SetBkColor.o
                0x000378f0                LISTBOX_SetBkColor
 .text          0x000379b0       0x84 obj/LISTBOX_SetOwner.o
                0x000379b0                LISTBOX_SetOwner
 *fill*         0x00037a34        0xc 00
 .text          0x00037a40       0x8c obj/LISTBOX_SetOwnerDraw.o
                0x00037a40                LISTBOX_SetOwnerDraw
 *fill*         0x00037acc        0x4 00
 .text          0x00037ad0       0xa4 obj/LISTBOX_SetScrollbarWidth.o
                0x00037ad0                LISTBOX_SetScrollbarWidth
 *fill*         0x00037b74        0xc 00
 .text          0x00037b80       0xd8 obj/LISTBOX_SetString.o
                0x00037b80                LISTBOX_SetString
 *fill*         0x00037c58        0x8 00
 .text          0x00037c60       0xd4 obj/LISTBOX_SetTextColor.o
                0x00037c60                LISTBOX_SetTextColor
 *fill*         0x00037d34        0xc 00
 .text          0x00037d40     0x18bc obj/LISTVIEW.o
                0x00038060                LISTVIEW__UpdateScrollParas
                0x00037d40                LISTVIEW__GetRowDistY
                0x00037e20                LISTVIEW__InvalidateRow
                0x00038520                LISTVIEW_IncSel
                0x00037f80                LISTVIEW__UpdateScrollPos
                0x00039230                LISTVIEW_AddColumn
                0x00039360                LISTVIEW_AddRow
                0x000382c0                LISTVIEW_CreateEx
                0x00037dc0                LISTVIEW__InvalidateInsideArea
                0x000384e0                LISTVIEW_DecSel
 *fill*         0x000395fc        0x4 00
 .text          0x00039600       0x9c obj/LISTVIEW_Create.o
                0x00039650                LISTVIEW_CreateAttached
                0x00039600                LISTVIEW_Create
 *fill*         0x0003969c        0x4 00
 .text          0x000396a0       0xb4 obj/LISTVIEW_CreateIndirect.o
                0x000396a0                LISTVIEW_CreateIndirect
 *fill*         0x00039754        0xc 00
 .text          0x00039760       0xb8 obj/LISTVIEW_Default.o
                0x00039760                LISTVIEW_SetDefaultFont
                0x00039800                LISTVIEW_SetDefaultGridColor
                0x00039780                LISTVIEW_SetDefaultTextColor
                0x000397c0                LISTVIEW_SetDefaultBkColor
 *fill*         0x00039818        0x8 00
 .text          0x00039820      0x13c obj/LISTVIEW_DeleteColumn.o
                0x00039820                LISTVIEW_DeleteColumn
 *fill*         0x0003995c        0x4 00
 .text          0x00039960      0x1c4 obj/LISTVIEW_DeleteRow.o
                0x00039960                LISTVIEW_DeleteRow
 *fill*         0x00039b24        0xc 00
 .text          0x00039b30       0x7c obj/LISTVIEW_GetBkColor.o
                0x00039b30                LISTVIEW_GetBkColor
 *fill*         0x00039bac        0x4 00
 .text          0x00039bb0       0x54 obj/LISTVIEW_GetFont.o
                0x00039bb0                LISTVIEW_GetFont
 *fill*         0x00039c04        0xc 00
 .text          0x00039c10       0x5c obj/LISTVIEW_GetHeader.o
                0x00039c10                LISTVIEW_GetHeader
 *fill*         0x00039c6c        0x4 00
 .text          0x00039c70       0x5c obj/LISTVIEW_GetNumColumns.o
                0x00039c70                LISTVIEW_GetNumColumns
 *fill*         0x00039ccc        0x4 00
 .text          0x00039cd0       0x5c obj/LISTVIEW_GetNumRows.o
                0x00039cd0                LISTVIEW_GetNumRows
 *fill*         0x00039d2c        0x4 00
 .text          0x00039d30       0x5c obj/LISTVIEW_GetSel.o
                0x00039d30                LISTVIEW_GetSel
 *fill*         0x00039d8c        0x4 00
 .text          0x00039d90       0x7c obj/LISTVIEW_GetTextColor.o
                0x00039d90                LISTVIEW_GetTextColor
 *fill*         0x00039e0c        0x4 00
 .text          0x00039e10       0xa8 obj/LISTVIEW_SetBkColor.o
                0x00039e10                LISTVIEW_SetBkColor
 *fill*         0x00039eb8        0x8 00
 .text          0x00039ec0       0x6c obj/LISTVIEW_SetColumnWidth.o
                0x00039ec0                LISTVIEW_SetColumnWidth
 *fill*         0x00039f2c        0x4 00
 .text          0x00039f30       0x84 obj/LISTVIEW_SetFont.o
                0x00039f30                LISTVIEW_SetFont
 *fill*         0x00039fb4        0xc 00
 .text          0x00039fc0       0x90 obj/LISTVIEW_SetGridVis.o
                0x00039fc0                LISTVIEW_SetGridVis
 .text          0x0003a050      0x28c obj/LISTVIEW_SetItemColor.o
                0x0003a1e0                LISTVIEW_SetItemTextColor
                0x0003a260                LISTVIEW_SetItemBkColor
 *fill*         0x0003a2dc        0x4 00
 .text          0x0003a2e0      0x124 obj/LISTVIEW_SetItemText.o
                0x0003a2e0                LISTVIEW_SetItemText
 *fill*         0x0003a404        0xc 00
 .text          0x0003a410       0x6c obj/LISTVIEW_SetLBorder.o
                0x0003a410                LISTVIEW_SetLBorder
 *fill*         0x0003a47c        0x4 00
 .text          0x0003a480       0x6c obj/LISTVIEW_SetRBorder.o
                0x0003a480                LISTVIEW_SetRBorder
 *fill*         0x0003a4ec        0x4 00
 .text          0x0003a4f0       0x90 obj/LISTVIEW_SetRowHeight.o
                0x0003a4f0                LISTVIEW_SetRowHeight
 .text          0x0003a580      0x104 obj/LISTVIEW_SetSel.o
                0x0003a580                LISTVIEW_SetSel
 *fill*         0x0003a684        0xc 00
 .text          0x0003a690       0xb4 obj/LISTVIEW_SetTextAlign.o
                0x0003a690                LISTVIEW_SetTextAlign
 *fill*         0x0003a744        0xc 00
 .text          0x0003a750       0xa8 obj/LISTVIEW_SetTextColor.o
                0x0003a750                LISTVIEW_SetTextColor
 *fill*         0x0003a7f8        0x8 00
 .text          0x0003a800     0x3404 obj/MENU.o
                0x0003ab10                MENU_CreateEx
                0x0003d960                MENU_AddItem
                0x0003acc0                MENU__GetNumItems
                0x0003d760                MENU__SetItem
                0x0003a870                MENU__SendMenuMessage
                0x0003a800                MENU_h2p
                0x0003aa70                MENU_SetOwner
                0x0003b090                MENU__InvalidateItem
                0x0003c590                MENU__ResizeMenu
                0x0003c4f0                MENU__RecalcTextWidthOfItems
                0x0003d910                MENU__SetItemFlags
 *fill*         0x0003dc04        0xc 00
 .text          0x0003dc10       0xcc obj/MENU_Attach.o
                0x0003dc10                MENU_Attach
 *fill*         0x0003dcdc        0x4 00
 .text          0x0003dce0       0xb4 obj/MENU_CreateIndirect.o
                0x0003dce0                MENU_CreateIndirect
 *fill*         0x0003dd94        0xc 00
 .text          0x0003dda0      0x180 obj/MENU_Default.o
                0x0003de30                MENU_SetDefaultEffect
                0x0003df00                MENU_GetDefaultEffect
                0x0003de50                MENU_GetDefaultTextColor
                0x0003dda0                MENU_SetDefaultTextColor
                0x0003de40                MENU_SetDefaultFont
                0x0003df10                MENU_GetDefaultFont
                0x0003de90                MENU_GetDefaultBkColor
                0x0003ded0                MENU_GetDefaultBorderSize
                0x0003de00                MENU_SetDefaultBorderSize
                0x0003ddd0                MENU_SetDefaultBkColor
 .text          0x0003df20       0xa0 obj/MENU_DeleteItem.o
                0x0003df20                MENU_DeleteItem
 .text          0x0003dfc0       0xac obj/MENU_DisableItem.o
                0x0003dfc0                MENU_DisableItem
 *fill*         0x0003e06c        0x4 00
 .text          0x0003e070       0xac obj/MENU_EnableItem.o
                0x0003e070                MENU_EnableItem
 *fill*         0x0003e11c        0x4 00
 .text          0x0003e120       0xb8 obj/MENU_GetItem.o
                0x0003e120                MENU_GetItem
 *fill*         0x0003e1d8        0x8 00
 .text          0x0003e1e0       0xc4 obj/MENU_GetItemText.o
                0x0003e1e0                MENU_GetItemText
 *fill*         0x0003e2a4        0xc 00
 .text          0x0003e2b0       0x64 obj/MENU_GetNumItems.o
                0x0003e2b0                MENU_GetNumItems
 *fill*         0x0003e314        0xc 00
 .text          0x0003e320      0x108 obj/MENU_InsertItem.o
                0x0003e320                MENU_InsertItem
 *fill*         0x0003e428        0x8 00
 .text          0x0003e430      0x110 obj/MENU_Popup.o
                0x0003e430                MENU_Popup
 .text          0x0003e540       0x9c obj/MENU_SetBkColor.o
                0x0003e540                MENU_SetBkColor
 *fill*         0x0003e5dc        0x4 00
 .text          0x0003e5e0       0xac obj/MENU_SetBorderSize.o
                0x0003e5e0                MENU_SetBorderSize
 *fill*         0x0003e68c        0x4 00
 .text          0x0003e690       0x90 obj/MENU_SetFont.o
                0x0003e690                MENU_SetFont
 .text          0x0003e720       0xcc obj/MENU_SetItem.o
                0x0003e720                MENU_SetItem
 *fill*         0x0003e7ec        0x4 00
 .text          0x0003e7f0       0x9c obj/MENU_SetTextColor.o
                0x0003e7f0                MENU_SetTextColor
 *fill*         0x0003e88c        0x4 00
 .text          0x0003e890      0x114 obj/MENU__FindItem.o
                0x0003e890                MENU__FindItem
 *fill*         0x0003e9a4        0xc 00
 .text          0x0003e9b0      0x3e0 obj/MESSAGEBOX.o
                0x0003ead0                MESSAGEBOX_Create
                0x0003ed70                GUI_MessageBox
 .text          0x0003ed90     0x443c obj/MULTIEDIT.o
                0x00042ac0                MULTIEDIT_SetCursorOffset
                0x00042480                MULTIEDIT_SetWrapNone
                0x00041bd0                MULTIEDIT_SetText
                0x00042440                MULTIEDIT_SetWrapWord
                0x00042460                MULTIEDIT_SetWrapChar
                0x00043130                MULTIEDIT_GetTextSize
                0x000424a0                MULTIEDIT_SetInsertMode
                0x00042810                MULTIEDIT_SetAutoScrollH
                0x00042370                MULTIEDIT_GetPrompt
                0x000428e0                MULTIEDIT_SetHBorder
                0x000422a0                MULTIEDIT_GetText
                0x00043000                MULTIEDIT_SetMaxNumChars
                0x00042640                MULTIEDIT_SetPasswordMode
                0x00042ee0                MULTIEDIT_SetBufferSize
                0x00042b30                MULTIEDIT_SetTextColor
                0x00042960                MULTIEDIT_SetFont
                0x00042740                MULTIEDIT_SetAutoScrollV
                0x00042bd0                MULTIEDIT_SetPrompt
                0x00041f40                MULTIEDIT_CreateEx
                0x00042a00                MULTIEDIT_SetBkColor
                0x00042230                MULTIEDIT_AddKey
                0x00042570                MULTIEDIT_SetReadOnly
 *fill*         0x000431cc        0x4 00
 .text          0x000431d0       0x60 obj/MULTIEDIT_Create.o
                0x000431d0                MULTIEDIT_Create
 .text          0x00043230       0xc8 obj/MULTIEDIT_CreateIndirect.o
                0x00043230                MULTIEDIT_CreateIndirect
 *fill*         0x000432f8        0x8 00
 .text          0x00043300     0x25cc obj/MULTIPAGE.o
                0x00045540                MULTIPAGE_SetAlign
                0x00044ff0                MULTIPAGE_DisablePage
                0x00044d20                MULTIPAGE_DeletePage
                0x00043b90                MULTIPAGE_SelectPage
                0x00045750                MULTIPAGE_GetWindow
                0x000453c0                MULTIPAGE_SetTextColor
                0x000450c0                MULTIPAGE_EnablePage
                0x000456d0                MULTIPAGE_GetSelection
                0x000454a0                MULTIPAGE_SetFont
                0x000452e0                MULTIPAGE_SetBkColor
                0x000447f0                MULTIPAGE_CreateEx
                0x00044a90                MULTIPAGE_AddPage
                0x00045190                MULTIPAGE_SetText
                0x00045810                MULTIPAGE_IsPageEnabled
 *fill*         0x000458cc        0x4 00
 .text          0x000458d0       0x50 obj/MULTIPAGE_Create.o
                0x000458d0                MULTIPAGE_Create
 .text          0x00045920       0xb4 obj/MULTIPAGE_CreateIndirect.o
                0x00045920                MULTIPAGE_CreateIndirect
 *fill*         0x000459d4        0xc 00
 .text          0x000459e0      0x118 obj/MULTIPAGE_Default.o
                0x00045a90                MULTIPAGE_SetDefaultBkColor
                0x00045a80                MULTIPAGE_SetDefaultAlign
                0x00045ac0                MULTIPAGE_SetDefaultFont
                0x00045ad0                MULTIPAGE_SetDefaultTextColor
                0x00045a30                MULTIPAGE_GetDefaultFont
                0x000459e0                MULTIPAGE_GetDefaultAlign
                0x00045a40                MULTIPAGE_GetDefaultTextColor
                0x000459f0                MULTIPAGE_GetDefaultBkColor
 *fill*         0x00045af8        0x8 00
 .text          0x00045b00     0x16ac obj/PROGBAR.o
                0x00046230                PROGBAR_SetValue
                0x00046830                PROGBAR_SetFont
                0x000470d0                PROGBAR_SetMinMax
                0x000468e0                PROGBAR_SetBarColor
                0x00047010                PROGBAR_SetTextPos
                0x000469b0                PROGBAR_SetTextColor
                0x00046a80                PROGBAR_SetText
                0x00045b00                PROGBAR_h2p
                0x00046120                PROGBAR_CreateEx
                0x00046f60                PROGBAR_SetTextAlign
 *fill*         0x000471ac        0x4 00
 .text          0x000471b0       0xa0 obj/PROGBAR_Create.o
                0x000471b0                PROGBAR_Create
                0x00047200                PROGBAR_CreateAsChild
 .text          0x00047250       0xb4 obj/PROGBAR_CreateIndirect.o
                0x00047250                PROGBAR_CreateIndirect
 *fill*         0x00047304        0xc 00
 .text          0x00047310      0xfac obj/RADIO.o
                0x00047480                RADIO_CreateEx
                0x00048260                RADIO_GetValue
                0x00047700                RADIO_AddValue
                0x00047940                RADIO_Dec
                0x00047380                RADIO_SetValue
                0x00047310                RADIO__SetValue
                0x00047820                RADIO_Inc
 *fill*         0x000482bc        0x4 00
 .text          0x000482c0       0x70 obj/RADIO_Create.o
                0x000482c0                RADIO_Create
 .text          0x00048330       0xdc obj/RADIO_CreateIndirect.o
                0x00048330                RADIO_CreateIndirect
 *fill*         0x0004840c        0x4 00
 .text          0x00048410       0x40 obj/RADIO_Default.o
                0x00048420                RADIO_GetDefaultTextColor
                0x00048410                RADIO_GetDefaultFont
                0x00048430                RADIO_SetDefaultFont
                0x00048440                RADIO_SetDefaultTextColor
 .text          0x00048450       0xa4 obj/RADIO_SetBkColor.o
                0x00048450                RADIO_SetBkColor
 *fill*         0x000484f4        0xc 00
 .text          0x00048500       0x48 obj/RADIO_SetDefaultImage.o
                0x00048500                RADIO_SetDefaultImage
 *fill*         0x00048548        0x8 00
 .text          0x00048550       0x80 obj/RADIO_SetFont.o
                0x00048550                RADIO_SetFont
 .text          0x000485d0      0x5b0 obj/RADIO_SetGroupId.o
                0x000488e0                RADIO_SetGroupId
 .text          0x00048b80       0xac obj/RADIO_SetImage.o
                0x00048b80                RADIO_SetImage
 *fill*         0x00048c2c        0x4 00
 .text          0x00048c30       0xb4 obj/RADIO_SetText.o
                0x00048c30                RADIO_SetText
 *fill*         0x00048ce4        0xc 00
 .text          0x00048cf0       0x80 obj/RADIO_SetTextColor.o
                0x00048cf0                RADIO_SetTextColor
 .text          0x00048d70     0x13c8 obj/SCROLLBAR.o
                0x000491b0                SCROLLBAR_CreateEx
                0x00049560                SCROLLBAR_Inc
                0x00049100                SCROLLBAR_SetValue
                0x000490c0                SCROLLBAR__InvalidatePartner
                0x00049fb0                SCROLLBAR_SetPageSize
                0x00049630                SCROLLBAR_Dec
                0x0004a020                SCROLLBAR_SetState
                0x00049f40                SCROLLBAR_SetNumItems
                0x00049490                SCROLLBAR_AddValue
 *fill*         0x0004a138        0x8 00
 .text          0x0004a140      0x12c obj/SCROLLBAR_Create.o
                0x0004a140                SCROLLBAR_Create
                0x0004a190                SCROLLBAR_CreateAttached
 *fill*         0x0004a26c        0x4 00
 .text          0x0004a270       0xb4 obj/SCROLLBAR_CreateIndirect.o
                0x0004a270                SCROLLBAR_CreateIndirect
 *fill*         0x0004a324        0xc 00
 .text          0x0004a330       0xfc obj/SCROLLBAR_Defaults.o
                0x0004a3b0                SCROLLBAR_SetDefaultWidth
                0x0004a3d0                SCROLLBAR_SetDefaultBkColor
                0x0004a400                SCROLLBAR_SetDefaultColor
                0x0004a350                SCROLLBAR_GetDefaultBkColor
                0x0004a380                SCROLLBAR_GetDefaultColor
                0x0004a330                SCROLLBAR_GetDefaultWidth
 *fill*         0x0004a42c        0x4 00
 .text          0x0004a430       0x54 obj/SCROLLBAR_GetValue.o
                0x0004a430                SCROLLBAR_GetValue
 *fill*         0x0004a484        0xc 00
 .text          0x0004a490       0x6c obj/SCROLLBAR_SetWidth.o
                0x0004a490                SCROLLBAR_SetWidth
 *fill*         0x0004a4fc        0x4 00
 .text          0x0004a500      0xbc4 obj/SLIDER.o
                0x0004ae40                SLIDER_SetWidth
                0x0004b070                SLIDER_GetValue
                0x0004af50                SLIDER_SetNumTicks
                0x0004a710                SLIDER_Inc
                0x0004a790                SLIDER_Dec
                0x0004aeb0                SLIDER_SetRange
                0x0004afd0                SLIDER_SetBkColor
                0x0004a500                SLIDER_CreateEx
                0x0004b060                SLIDER_SetDefaultBkColor
                0x0004a670                SLIDER_SetValue
 *fill*         0x0004b0c4        0xc 00
 .text          0x0004b0d0       0x50 obj/SLIDER_Create.o
                0x0004b0d0                SLIDER_Create
 .text          0x0004b120       0xb4 obj/SLIDER_CreateIndirect.o
                0x0004b120                SLIDER_CreateIndirect
 *fill*         0x0004b1d4        0xc 00
 .text          0x0004b1e0      0x310 obj/TEXT.o
                0x0004b4c0                TEXT_SetDefaultFont
                0x0004b350                TEXT_CreateEx
                0x0004b4e0                TEXT_GetDefaultFont
                0x0004b4d0                TEXT_SetDefaultTextColor
 .text          0x0004b4f0       0xb8 obj/TEXT_Create.o
                0x0004b550                TEXT_CreateAsChild
                0x0004b4f0                TEXT_Create
 *fill*         0x0004b5a8        0x8 00
 .text          0x0004b5b0       0xbc obj/TEXT_CreateIndirect.o
                0x0004b5b0                TEXT_CreateIndirect
 *fill*         0x0004b66c        0x4 00
 .text          0x0004b670       0x8c obj/TEXT_SetBkColor.o
                0x0004b670                TEXT_SetBkColor
 *fill*         0x0004b6fc        0x4 00
 .text          0x0004b700       0x5c obj/TEXT_SetFont.o
                0x0004b700                TEXT_SetFont
 *fill*         0x0004b75c        0x4 00
 .text          0x0004b760       0x74 obj/TEXT_SetText.o
                0x0004b760                TEXT_SetText
 *fill*         0x0004b7d4        0xc 00
 .text          0x0004b7e0       0x5c obj/TEXT_SetTextAlign.o
                0x0004b7e0                TEXT_SetTextAlign
 *fill*         0x0004b83c        0x4 00
 .text          0x0004b840       0x5c obj/TEXT_SetTextColor.o
                0x0004b840                TEXT_SetTextColor
 *fill*         0x0004b89c        0x4 00
 .text          0x0004b8a0      0xfd0 obj/WIDGET.o
                0x0004ba50                WIDGET__GetXSize
                0x0004c320                WIDGET__EFFECT_DrawDownRect
                0x0004bcd0                WIDGET_AndState
                0x0004c4e0                WIDGET__EFFECT_DrawDown
                0x0004bbf0                WIDGET_GetState
                0x0004c100                WIDGET__DrawFocusRect
                0x0004ba00                WIDGET__GetInsideRect
                0x0004bc50                WIDGET_OrState
                0x0004c860                WIDGET_GetDefaultEffect
                0x0004b8a0                WIDGET__RotateRect90
                0x0004b9b0                WIDGET__GetBkColor
                0x0004bb90                WIDGET_SetState
                0x0004b920                WIDGET__GetClientRect
                0x0004bac0                WIDGET__GetYSize
                0x0004c1b0                WIDGET__DrawVLine
                0x0004bb30                WIDGET__GetWindowSizeX
                0x0004c690                WIDGET__EFFECT_DrawUpRect
                0x0004bd50                WIDGET__Init
                0x0004c090                WIDGET__SetScrollState
                0x0004c270                WIDGET__FillRectEx
                0x0004bd70                WIDGET_HandleActive
                0x0004c840                WIDGET_SetDefaultEffect
 .text          0x0004c870      0x340 obj/WIDGET_Effect_3D.o
                0x0004cb60                WIDGET_EFFECT_3D_DrawUp
                0x0004cb90                WIDGET_SetDefaultEffect_3D
 .text          0x0004cbb0      0x3e0 obj/WIDGET_Effect_3D1L.o
                0x0004cf70                WIDGET_SetDefaultEffect_3D1L
 .text          0x0004cf90      0x380 obj/WIDGET_Effect_3D2L.o
                0x0004d2f0                WIDGET_SetDefaultEffect_3D2L
 .text          0x0004d310       0x80 obj/WIDGET_Effect_None.o
                0x0004d370                WIDGET_SetDefaultEffect_None
 .text          0x0004d390      0x280 obj/WIDGET_Effect_Simple.o
                0x0004d5f0                WIDGET_SetDefaultEffect_Simple
 .text          0x0004d610      0x248 obj/WIDGET_FillStringInRect.o
                0x0004d610                WIDGET__FillStringInRect
 *fill*         0x0004d858        0x8 00
 .text          0x0004d860       0x38 obj/WIDGET_SetEffect.o
                0x0004d860                WIDGET_SetEffect
 *fill*         0x0004d898        0x8 00
 .text          0x0004d8a0       0x98 obj/WIDGET_SetWidth.o
                0x0004d8a0                WIDGET_SetWidth
 *fill*         0x0004d938        0x8 00
 .text          0x0004d940      0x388 obj/WINDOW.o
                0x0004dbd0                WINDOW_CreateIndirect
 *fill*         0x0004dcc8        0x8 00
 .text          0x0004dcd0       0x10 obj/WINDOW_Default.o
                0x0004dcd0                WINDOW_SetDefaultBkColor
 .text          0x0004dce0     0x4360 obj/WM.o
                0x0004f260                WM_SelectWindow
                0x0004de70                WM__InsertWindowIntoList
                0x00051bd0                WM_Activate
                0x0004dd40                WM__ClipAtParentBorders
                0x0004ed30                WM__InvalidateAreaBelow
                0x0004fc50                WM_CreateWindow
                0x0004e020                WM__RemoveWindowFromList
                0x0004e130                WM__Client2Screen
                0x0004ee80                WM_SendMessage
                0x0004eef0                WM__SendMsgNoData
                0x00050d10                WM_SetDefault
                0x0004f390                WM_DeleteWindow
                0x0004dce0                WM__RectIsNZ
                0x0004ef70                WM__GetClientRectWin
                0x00051830                WM_Exec1
                0x0004e170                WM__ActivateClipRect
                0x00051b80                WM_Exec
                0x00051c20                WM_DefaultProc
                0x0004f240                WM_InvalidateWindow
                0x0004e430                WM__IsWindow
                0x0004ed50                WM__DetachWindow
                0x0004efb0                WM_InvalidateRect
                0x0004e4d0                WM__RemoveFromLinList
                0x0004f7d0                WM_CreateWindowAsChild
                0x00051150                WM__PaintWinAndOverlays
                0x000507e0                WM__GetNextIVR
                0x00050920                WM__InitIVRSearch
                0x0004eaf0                WM_InvalidateArea
                0x00051bf0                WM_Deactivate
                0x0004fca0                WM_GetActiveWindow
                0x00051f00                WM_Init
 .text          0x00052040       0xa0 obj/WMMemDev.o
                0x00052090                WM_DisableMemdev
                0x00052040                WM_EnableMemdev
 .text          0x000520e0      0x7f0 obj/WMTouch.o
                0x000520e0                WM__IsInModalArea
                0x00052190                WM__SendPIDMessage
                0x00052250                WM__SendTouchMessage
                0x00052360                WM_HandlePID
 .text          0x000528d0      0x3a0 obj/WM_AttachWindow.o
                0x00052ab0                WM_AttachWindowAt
                0x000528d0                WM_DetachWindow
                0x00052970                WM_AttachWindow
 .text          0x00052c70       0xb4 obj/WM_BringToBottom.o
                0x00052c70                WM_BringToBottom
 *fill*         0x00052d24        0xc 00
 .text          0x00052d30      0x114 obj/WM_BringToTop.o
                0x00052d50                WM_BringToTop
 *fill*         0x00052e44        0xc 00
 .text          0x00052e50       0x88 obj/WM_Broadcast.o
                0x00052e50                WM_BroadcastMessage
 *fill*         0x00052ed8        0x8 00
 .text          0x00052ee0      0x138 obj/WM_CheckScrollPos.o
                0x00052fc0                WM_SetScrollValue
                0x00052f30                WM_CheckScrollPos
                0x00052ee0                WM_CheckScrollBounds
 *fill*         0x00053018        0x8 00
 .text          0x00053020       0x78 obj/WM_CriticalHandle.o
                0x00053020                WM__AddCriticalHandle
                0x00053040                WM__RemoveCriticalHandle
 *fill*         0x00053098        0x8 00
 .text          0x000530a0        0x4 obj/WM_DIAG.o
                0x000530a0                WM_DIAG_C
 *fill*         0x000530a4        0xc 00
 .text          0x000530b0      0x1a8 obj/WM_EnableWindow.o
                0x000531e0                WM_DisableWindow
                0x000530b0                WM_SetEnableState
                0x00053160                WM_EnableWindow
 *fill*         0x00053258        0x8 00
 .text          0x00053260       0x50 obj/WM_ForEachDesc.o
                0x00053260                WM_ForEachDesc
 .text          0x000532b0       0x50 obj/WM_GetBkColor.o
                0x000532b0                WM_GetBkColor
 .text          0x00053300      0x114 obj/WM_GetClientRect.o
                0x00053300                WM_GetClientRectEx
                0x00053370                WM_GetClientRect
 *fill*         0x00053414        0xc 00
 .text          0x00053420       0x40 obj/WM_GetClientWindow.o
                0x00053420                WM_GetClientWindow
 .text          0x00053460       0x18 obj/WM_GetDesktopWindow.o
                0x00053460                WM_GetDesktopWindow
 *fill*         0x00053478        0x8 00
 .text          0x00053480       0x34 obj/WM_GetDesktopWindowEx.o
                0x00053480                WM_GetDesktopWindowEx
 *fill*         0x000534b4        0xc 00
 .text          0x000534c0       0x38 obj/WM_GetDiagInfo.o
                0x000534e0                WM_GetNumInvalidWindows
                0x000534c0                WM_GetNumWindows
 *fill*         0x000534f8        0x8 00
 .text          0x00053500      0x1e8 obj/WM_GetDialogItem.o
                0x000535f0                WM_GetDialogItem
 *fill*         0x000536e8        0x8 00
 .text          0x000536f0       0x50 obj/WM_GetFirstChild.o
                0x000536f0                WM_GetFirstChild
 .text          0x00053740       0x5c obj/WM_GetFlags.o
                0x00053740                WM_GetFlags
 *fill*         0x0005379c        0x4 00
 .text          0x000537a0       0x38 obj/WM_GetFocussedWindow.o
                0x000537a0                WM_GetFocussedWindow
 *fill*         0x000537d8        0x8 00
 .text          0x000537e0       0x30 obj/WM_GetId.o
                0x000537e0                WM_GetId
 .text          0x00053810       0x70 obj/WM_GetInsideRect.o
                0x00053840                WM_GetInsideRect
                0x00053810                WM_GetInsideRectEx
 .text          0x00053880      0x1b8 obj/WM_GetInsideRectExScrollbar.o
                0x00053880                WM_GetInsideRectExScrollbar
 *fill*         0x00053a38        0x8 00
 .text          0x00053a40       0x94 obj/WM_GetInvalidRect.o
                0x00053a40                WM_GetInvalidRect
 *fill*         0x00053ad4        0xc 00
 .text          0x00053ae0       0x58 obj/WM_GetNextSibling.o
                0x00053ae0                WM_GetNextSibling
 *fill*         0x00053b38        0x8 00
 .text          0x00053b40      0x194 obj/WM_GetOrg.o
                0x00053c00                WM_GetOrgX
                0x00053ba0                WM_GetWindowOrgY
                0x00053c70                WM_GetOrgY
                0x00053b40                WM_GetWindowOrgX
 *fill*         0x00053cd4        0xc 00
 .text          0x00053ce0       0x50 obj/WM_GetParent.o
                0x00053ce0                WM_GetParent
 .text          0x00053d30       0x5c obj/WM_GetPrevSibling.o
                0x00053d30                WM_GetPrevSibling
 *fill*         0x00053d8c        0x4 00
 .text          0x00053d90       0x54 obj/WM_GetScrollbar.o
                0x00053d90                WM_GetScrollbarH
                0x00053dc0                WM_GetScrollbarV
 *fill*         0x00053de4        0xc 00
 .text          0x00053df0       0xcc obj/WM_GetScrollPartner.o
                0x00053df0                WM_GetScrollPartner
 *fill*         0x00053ebc        0x4 00
 .text          0x00053ec0       0x30 obj/WM_GetScrollState.o
                0x00053ec0                WM_GetScrollState
 .text          0x00053ef0      0x150 obj/WM_GetWindowRect.o
                0x00053ef0                WM_GetWindowRect
                0x00053fb0                WM_GetWindowRectEx
 .text          0x00054040      0x1d8 obj/WM_GetWindowSize.o
                0x00054040                WM__GetWindowSizeX
                0x00054160                WM_GetWindowSizeY
                0x00054070                WM__GetWindowSizeY
                0x000540a0                WM_GetWindowSizeX
 *fill*         0x00054218        0x8 00
 .text          0x00054220       0x3c obj/WM_HasCaptured.o
                0x00054220                WM_HasCaptured
 *fill*         0x0005425c        0x4 00
 .text          0x00054260       0x3c obj/WM_HasFocus.o
                0x00054260                WM_HasFocus
 *fill*         0x0005429c        0x4 00
 .text          0x000542a0       0x7c obj/WM_Hide.o
                0x000542a0                WM_HideWindow
 *fill*         0x0005431c        0x4 00
 .text          0x00054320      0x2e0 obj/WM_IsCompletelyVisible.o
                0x00054320                WM_IsCompletelyVisible
 .text          0x00054600       0x54 obj/WM_IsEnabled.o
                0x00054600                WM_IsEnabled
 *fill*         0x00054654        0xc 00
 .text          0x00054660       0x4c obj/WM_IsFocussable.o
                0x00054660                WM_IsFocussable
 *fill*         0x000546ac        0x4 00
 .text          0x000546b0       0x68 obj/WM_IsVisible.o
                0x000546b0                WM_IsVisible
 *fill*         0x00054718        0x8 00
 .text          0x00054720       0x38 obj/WM_IsWindow.o
                0x00054720                WM_IsWindow
 *fill*         0x00054758        0x8 00
 .text          0x00054760       0xc0 obj/WM_MakeModal.o
                0x00054760                WM_MakeModal
 .text          0x00054820      0x374 obj/WM_Move.o
                0x00054b10                WM_MoveTo
                0x000548e0                WM__MoveWindow
                0x00054ac0                WM_MoveWindow
                0x00054a40                WM__MoveTo
 *fill*         0x00054b94        0xc 00
 .text          0x00054ba0       0xd0 obj/WM_MoveChildTo.o
                0x00054ba0                WM_MoveChildTo
 .text          0x00054c70       0x30 obj/WM_NotifyParent.o
                0x00054c70                WM_NotifyParent
 .text          0x00054ca0       0x8c obj/WM_OnKey.o
                0x00054ca0                WM_OnKey
 *fill*         0x00054d2c        0x4 00
 .text          0x00054d30       0xc8 obj/WM_Paint.o
                0x00054d30                WM_Paint
 *fill*         0x00054df8        0x8 00
 .text          0x00054e00       0x24 obj/WM_PID__GetPrevState.o
                0x00054e00                WM_PID__GetPrevState
 *fill*         0x00054e24        0xc 00
 .text          0x00054e30      0x2f4 obj/WM_ResizeWindow.o
                0x00054e30                WM_ResizeWindow
 *fill*         0x00055124        0xc 00
 .text          0x00055130      0x4f0 obj/WM_Screen2Win.o
                0x00055130                WM__IsInWindow
                0x00055490                WM_Screen2hWinEx
                0x00055330                WM_Screen2hWin
 .text          0x00055620       0x40 obj/WM_SendMessageNoPara.o
                0x00055620                WM_SendMessageNoPara
 .text          0x00055660       0x70 obj/WM_SendToParent.o
                0x00055660                WM_SendToParent
 .text          0x000556d0       0xa0 obj/WM_SetAnchor.o
                0x000556d0                WM_SetAnchor
 .text          0x00055770       0x6c obj/WM_SetCallback.o
                0x00055770                WM_SetCallback
 *fill*         0x000557dc        0x4 00
 .text          0x000557e0      0x10c obj/WM_SetCapture.o
                0x000557e0                WM_SetCapture
                0x00055880                WM_ReleaseCapture
 *fill*         0x000558ec        0x4 00
 .text          0x000558f0      0x144 obj/WM_SetCaptureMove.o
                0x000558f0                WM_SetCaptureMove
 *fill*         0x00055a34        0xc 00
 .text          0x00055a40       0x1c obj/WM_SetCreateFlags.o
                0x00055a40                WM_SetCreateFlags
 *fill*         0x00055a5c        0x4 00
 .text          0x00055a60       0xe0 obj/WM_SetDesktopColor.o
                0x00055b10                WM_SetDesktopColors
                0x00055ad0                WM_SetDesktopColor
                0x00055a60                WM_SetDesktopColorEx
 .text          0x00055b40      0x1c4 obj/WM_SetFocus.o
                0x00055b40                WM_SetFocus
 *fill*         0x00055d04        0xc 00
 .text          0x00055d10      0x1b0 obj/WM_SetFocusOnNextChild.o
                0x00055d10                WM_SetFocusOnNextChild
 .text          0x00055ec0      0x1a0 obj/WM_SetFocusOnPrevChild.o
                0x00055ec0                WM_SetFocusOnPrevChild
 .text          0x00056060       0x30 obj/WM_SetId.o
                0x00056060                WM_SetId
 .text          0x00056090       0x18 obj/WM_SetpfPollPID.o
                0x00056090                WM_SetpfPollPID
 *fill*         0x000560a8        0x8 00
 .text          0x000560b0      0x2ec obj/WM_SetScrollbar.o
                0x000560b0                WM__SetScrollbarV
                0x000562e0                WM_SetScrollbarV
                0x00056220                WM_SetScrollbarH
                0x00056160                WM__SetScrollbarH
 *fill*         0x0005639c        0x4 00
 .text          0x000563a0       0x50 obj/WM_SetScrollState.o
                0x000563a0                WM_SetScrollState
 .text          0x000563f0       0xac obj/WM_SetSize.o
                0x000563f0                WM_SetSize
 *fill*         0x0005649c        0x4 00
 .text          0x000564a0      0x168 obj/WM_SetTrans.o
                0x000565b0                WM_GetHasTrans
                0x00056530                WM_ClrHasTrans
                0x000564a0                WM_SetHasTrans
 *fill*         0x00056608        0x8 00
 .text          0x00056610      0x114 obj/WM_SetTransState.o
                0x00056610                WM_SetTransState
 *fill*         0x00056724        0xc 00
 .text          0x00056730       0x48 obj/WM_SetUserClipRect.o
                0x00056730                WM_SetUserClipRect
 *fill*         0x00056778        0x8 00
 .text          0x00056780       0xb8 obj/WM_SetXSize.o
                0x00056780                WM_SetXSize
 *fill*         0x00056838        0x8 00
 .text          0x00056840       0xb8 obj/WM_SetYSize.o
                0x00056840                WM_SetYSize
 *fill*         0x000568f8        0x8 00
 .text          0x00056900      0x154 obj/WM_Show.o
                0x00056990                WM_ShowWindow
                0x00056900                WM_InvalidateWindowDescs
 *fill*         0x00056a54        0xc 00
 .text          0x00056a60      0x148 obj/WM_StayOnTop.o
                0x00056a60                WM_SetStayOnTop
                0x00056b40                WM_GetStayOnTop
 *fill*         0x00056ba8        0x8 00
 .text          0x00056bb0       0x40 obj/WM_Timer.o
                0x00056bb0                WM_DeleteTimer
                0x00056bd0                WM_CreateTimer
 .text          0x00056bf0        0x4 obj/WM_TimerExternal.o
                0x00056bf0                WM_TimerExternal_c
 *fill*         0x00056bf4        0xc 00
 .text          0x00056c00      0x11c obj/WM_UserData.o
                0x00056c00                WM_GetUserData
                0x00056c90                WM_SetUserData
 *fill*         0x00056d1c        0x4 00
 .text          0x00056d20      0x1f4 obj/WM_Validate.o
                0x00056d20                WM_ValidateRect
 *fill*         0x00056f14        0xc 00
 .text          0x00056f20       0x7c obj/WM_ValidateWindow.o
                0x00056f20                WM_ValidateWindow
 *fill*         0x00056f9c        0x4 00
 .text          0x00056fa0       0xa0 obj/WM__ForEachDesc.o
                0x00056fa0                WM__ForEachDesc
 .text          0x00057040       0x48 obj/WM__GetFirstSibling.o
                0x00057040                WM__GetFirstSibling
 *fill*         0x00057088        0x8 00
 .text          0x00057090       0x54 obj/WM__GetFocussedChild.o
                0x00057090                WM__GetFocussedChild
 *fill*         0x000570e4        0xc 00
 .text          0x000570f0       0x84 obj/WM__GetLastSibling.o
                0x000570f0                WM__GetLastSibling
 *fill*         0x00057174        0xc 00
 .text          0x00057180       0x7c obj/WM__GetOrg_AA.o
                0x000571c0                WM__GetOrgY_AA
                0x00057180                WM__GetOrgX_AA
 *fill*         0x000571fc        0x4 00
 .text          0x00057200       0xc8 obj/WM__GetPrevSibling.o
                0x00057200                WM__GetPrevSibling
 *fill*         0x000572c8        0x8 00
 .text          0x000572d0      0x150 obj/WM__IsAncestor.o
                0x00057380                WM__IsAncestorOrSelf
                0x000572d0                WM__IsAncestor
 .text          0x00057420       0x84 obj/WM__IsChild.o
                0x00057420                WM__IsChild
 *fill*         0x000574a4        0xc 00
 .text          0x000574b0       0x44 obj/WM__IsEnabled.o
                0x000574b0                WM__IsEnabled
 *fill*         0x000574f4        0xc 00
 .text          0x00057500      0x194 obj/WM__NotifyVisChanged.o
                0x000575c0                WM__NotifyVisChanged
 *fill*         0x00057694        0xc 00
 .text          0x000576a0       0x3c obj/WM__Screen2Client.o
                0x000576a0                WM__Screen2Client
 *fill*         0x000576dc        0x4 00
 .text          0x000576e0       0x68 obj/WM__SendMessage.o
                0x000576e0                WM__SendMessage
 *fill*         0x00057748        0x8 00
 .text          0x00057750       0x48 obj/WM__SendMessageIfEnabled.o
                0x00057750                WM__SendMessageIfEnabled
 *fill*         0x00057798        0x8 00
 .text          0x000577a0       0x6c obj/WM__SendMessageNoPara.o
                0x000577a0                WM__SendMessageNoPara
 *fill*         0x0005780c        0x4 00
 .text          0x00057810      0x2f0 obj/WM__UpdateChildPositions.o
                0x00057810                WM__UpdateChildPositions
 .text          0x00057b00      0x450 obj/dialog_all.o
                0x00057ec0                MainTask
 .text          0x00057f50       0x74 obj/GUI_X_Touch.o
                0x00057f60                GUI_TOUCH_X_ActivateY
                0x00057f70                GUI_TOUCH_X_MeasureX
                0x00057fa0                GUI_TOUCH_X_MeasureY
                0x00057f50                GUI_TOUCH_X_ActivateX
 *fill*         0x00057fc4        0xc 00
 .text          0x00057fd0      0x3e0 obj/GUI_X_uCOS.o
                0x00058020                GUI_X_GetTime
                0x00057fe0                GUI_X_Warn
                0x00058110                GUI_X_Unlock
                0x00058200                GUI_X_GetKey
                0x00058040                GUI_X_Delay
                0x00058160                GUI_X_WaitEvent
                0x000580d0                GUI_X_Lock
                0x00058140                GUI_X_GetTaskId
                0x000581d0                GUI_X_Init
                0x00057fd0                GUI_X_Log
                0x000581a0                GUI_X_SignalEvent
                0x00058090                GUI_X_InitOS
                0x00058380                GUI_X_StoreKey
                0x000582a0                GUI_X_WaitKey
                0x00057ff0                GUI_X_ErrorOut
                0x00058070                GUI_X_ExecIdle
 .text          0x000583b0       0xf4 obj/l32_screen.o
                0x000583b0                put_pixel_ex
                0x000583e0                put_pixel
                0x00058400                get_pixel
                0x00058480                screen_init
                0x00058440                goto_xy
 *fill*         0x000584a4        0xc 00
 .text          0x000584b0      0x300 obj/syscall.o
                0x000584b0                isatty
                0x00058650                lseek
                0x00058690                write
                0x000584f0                fstat
                0x00058540                read
                0x00058760                sbrk
                0x00058740                close
 .text          0x000587b0       0xac obj/uart.o
                0x00058800                uart_puts
                0x000587c0                uart_getc
                0x000587b0                uart_putc
 *fill*         0x0005885c        0x4 00
 .text          0x00058860       0x5c obj/main.o
                0x00058860                main
 *fill*         0x000588bc        0x4 00
 .text          0x000588c0       0xec obj/hooks.o
                0x00058940                App_TaskSwHook
                0x00058960                App_TimeTickHook
                0x000588d0                App_TaskDelHook
                0x000588c0                App_TaskCreateHook
                0x00058920                App_TaskStatHook
                0x00058900                App_TaskReturnHook
                0x000588f0                App_TaskIdleHook
                0x00058950                App_TCBInitHook
 *fill*         0x000589ac        0x4 00
 .text          0x000589b0       0x14 obj/BSP.o
                0x000589c0                SysTick_init
                0x000589b0                BSP_Init
 *fill*         0x000589c4        0xc 00
 .text          0x000589d0       0x74 obj/led.o
                0x000589d0                LED_GPIO_Config
                0x000589e0                LED
 *fill*         0x00058a44        0xc 00
 .text          0x00058a50      0x130 obj/app.o
                0x00058b40                key_task
                0x00058a50                led_task
                0x00058b70                gui_task
 .text          0x00058b80     0x155c obj/os_core.o
                0x00058b80                OSIntEnter
                0x00059eb0                OS_TCBInit
                0x000591e0                OS_EventTaskRemove
                0x00058bd0                OSIntExit
                0x000598d0                OS_MemCopy
                0x00059920                OS_Sched
                0x00059d10                OS_TaskStat
                0x000594e0                OS_MemClr
                0x00059260                OS_EventTaskRdy
                0x00059a70                OSSchedUnlock
                0x00058ef0                OSStatInit
                0x000591d0                OS_Dummy
                0x000593b0                OS_EventTaskWait
                0x00058e10                OSStart
                0x00058f70                OSTimeTick
                0x00058d60                OSSchedLock
                0x00059520                OSInit
                0x00059c60                OS_StrLen
                0x000591c0                OSVersion
                0x00059480                OS_EventWaitListInit
                0x00059cc0                OS_TaskIdle
 *fill*         0x0005a0dc        0x4 00
 .text          0x0005a0e0     0x1088 obj/os_q.o
                0x0005a590                OSQFlush
                0x0005a0e0                OSQAccept
                0x0005aa20                OSQPost
                0x0005a5e0                OSQPend
                0x0005abb0                OSQPostFront
                0x0005a1f0                OSQCreate
                0x0005ad50                OSQPostOpt
                0x0005a320                OSQDel
                0x0005a880                OSQPendAbort
                0x0005b0c0                OS_QInit
                0x0005afa0                OSQQuery
 *fill*         0x0005b168        0x8 00
 .text          0x0005b170      0xa2c obj/os_sem.o
                0x0005b4e0                OSSemPend
                0x0005b170                OSSemAccept
                0x0005b740                OSSemPendAbort
                0x0005b8d0                OSSemPost
                0x0005b200                OSSemCreate
                0x0005ba10                OSSemQuery
                0x0005bad0                OSSemSet
                0x0005b2a0                OSSemDel
 *fill*         0x0005bb9c        0x4 00
 .text          0x0005bba0     0x1460 obj/os_task.o
                0x0005ce50                OSTaskRegGetID
                0x0005cfd0                OS_TaskReturn
                0x0005c090                OSTaskCreateExt
                0x0005bed0                OSTaskCreate
                0x0005bba0                OSTaskChangePrio
                0x0005c260                OSTaskDel
                0x0005cef0                OSTaskRegSet
                0x0005c800                OSTaskNameSet
                0x0005cd70                OSTaskRegGet
                0x0005c590                OSTaskDelReq
                0x0005c900                OSTaskResume
                0x0005c6a0                OSTaskNameGet
                0x0005cc70                OSTaskQuery
                0x0005ca90                OSTaskSuspend
 .text          0x0005d000      0x478 obj/os_time.o
                0x0005d440                OSTimeSet
                0x0005d000                OSTimeDly
                0x0005d110                OSTimeDlyHMSM
                0x0005d290                OSTimeDlyResume
                0x0005d400                OSTimeGet
 *fill*         0x0005d478        0x8 00
 .text          0x0005d480      0xa4c obj/os_mbox.o
                0x0005de10                OSMboxQuery
                0x0005db70                OSMboxPost
                0x0005d9e0                OSMboxPendAbort
                0x0005d4e0                OSMboxCreate
                0x0005d7c0                OSMboxPend
                0x0005d480                OSMboxAccept
                0x0005dc80                OSMboxPostOpt
                0x0005d580                OSMboxDel
 *fill*         0x0005decc        0x4 00
 .text          0x0005ded0     0x10f8 obj/os_mutex.o
                0x0005ded0                OSMutexAccept
                0x0005e610                OSMutexPend
                0x0005e1c0                OSMutexDel
                0x0005e050                OSMutexCreate
                0x0005ee90                OSMutexQuery
                0x0005eac0                OSMutexPost
 *fill*         0x0005efc8        0x8 00
 .text          0x0005efd0      0x21c obj/os_cpu_c.o
                0x0005eff0                OSTaskCreateHook
                0x0005f0a0                OSTaskStatHook
                0x0005efd0                OSInitHookBegin
                0x0005f010                OSTaskDelHook
                0x0005f190                OSTimeTickHook
                0x0005f170                OSTCBInitHook
                0x0005f050                OSTaskReturnHook
                0x0005f0c0                OSTaskStkInit
                0x0005f1b0                OS_CPU_SysTickHandler
                0x0005efe0                OSInitHookEnd
                0x0005f150                OSTaskSwHook
                0x0005f030                OSTaskIdleHook
 *fill*         0x0005f1ec        0x4 00
 .text          0x0005f1f0       0xe8 /home/jialiang/logic32-elf/lib/gcc/logic32-elf/3.4.2/../../../../logic32-elf/lib/libc.a(memcpy.o)
                0x0005f1f0                memcpy
 *fill*         0x0005f2d8        0x8 00
 .text          0x0005f2e0      0x164 /home/jialiang/logic32-elf/lib/gcc/logic32-elf/3.4.2/../../../../logic32-elf/lib/libc.a(memmove.o)
                0x0005f2e0                memmove
 *fill*         0x0005f444        0xc 00
 .text          0x0005f450       0xb8 /home/jialiang/logic32-elf/lib/gcc/logic32-elf/3.4.2/../../../../logic32-elf/lib/libc.a(strlen.o)
                0x0005f450                strlen
 *fill*         0x0005f508        0x8 00
 .text          0x0005f510       0xd8 /home/jialiang/logic32-elf/lib/gcc/logic32-elf/3.4.2/../../../../logic32-elf/lib/libc.a(memset.o)
                0x0005f510                memset
 *fill*         0x0005f5e8        0x8 00
 .text          0x0005f5f0       0xcc /home/jialiang/logic32-elf/lib/gcc/logic32-elf/3.4.2/../../../../logic32-elf/lib/libc.a(memcmp.o)
                0x0005f5f0                memcmp
 *fill*         0x0005f6bc        0x4 00
 .text          0x0005f6c0       0xb4 /home/jialiang/logic32-elf/lib/gcc/logic32-elf/3.4.2/../../../../logic32-elf/lib/libc.a(strcpy.o)
                0x0005f6c0                strcpy
 *fill*         0x0005f774        0xc 00
 .text          0x0005f780      0x10c /home/jialiang/logic32-elf/lib/gcc/logic32-elf/3.4.2/../../../../logic32-elf/lib/libc.a(strncpy.o)
                0x0005f780                strncpy
 *fill*         0x0005f88c        0x4 00
 .text          0x0005f890       0x60 /home/jialiang/logic32-elf/lib/gcc/logic32-elf/3.4.2/../../../../logic32-elf/lib/libc.a(printf.o)
                0x0005f8c0                printf
                0x0005f890                _printf_r
 .text          0x0005f8f0      0x164 /home/jialiang/logic32-elf/lib/gcc/logic32-elf/3.4.2/../../../../logic32-elf/lib/libc.a(puts.o)
                0x0005f8f0                _puts_r
                0x0005f9a0                puts
 *fill*         0x0005fa54        0xc 00
 .text          0x0005fa60     0x25d8 /home/jialiang/logic32-elf/lib/gcc/logic32-elf/3.4.2/../../../../logic32-elf/lib/libc.a(vfprintf.o)
                0x0005fa60                _vfprintf_r
                0x00061f90                vfprintf
 *fill*         0x00062038        0x8 00
 .text          0x00062040      0x540 /home/jialiang/logic32-elf/lib/gcc/logic32-elf/3.4.2/../../../../logic32-elf/lib/libc.a(fvwrite.o)
                0x00062040                __sfvwrite
 .text          0x00062580      0x18c /home/jialiang/logic32-elf/lib/gcc/logic32-elf/3.4.2/../../../../logic32-elf/lib/libc.a(locale.o)
                0x00062580                _setlocale_r
                0x00062620                __locale_charset
                0x00062630                _localeconv_r
                0x00062640                setlocale
                0x00062700                localeconv
 *fill*         0x0006270c        0x4 00
 .text          0x00062710      0x194 /home/jialiang/logic32-elf/lib/gcc/logic32-elf/3.4.2/../../../../logic32-elf/lib/libc.a(wsetup.o)
                0x00062710                __swsetup
 *fill*         0x000628a4        0xc 00
 .text          0x000628b0       0x58 /home/jialiang/logic32-elf/lib/gcc/logic32-elf/3.4.2/../../../../logic32-elf/lib/libc.a(malloc.o)
                0x000628b0                malloc
                0x000628e0                free
 *fill*         0x00062908        0x8 00
 .text          0x00062910       0x5c /home/jialiang/logic32-elf/lib/gcc/logic32-elf/3.4.2/../../../../logic32-elf/lib/libc.a(s_isinf.o)
                0x00062910                isinf
 *fill*         0x0006296c        0x4 00
 .text          0x00062970      0x180 /home/jialiang/logic32-elf/lib/gcc/logic32-elf/3.4.2/../../../../logic32-elf/lib/libc.a(wcrtomb.o)
                0x00062970                _wcrtomb_r
                0x00062a20                wcrtomb
 .text          0x00062af0      0x938 /home/jialiang/logic32-elf/lib/gcc/logic32-elf/3.4.2/../../../../logic32-elf/lib/libc.a(mallocr.o)
                0x00062af0                _malloc_r
 *fill*         0x00063428        0x8 00
 .text          0x00063430      0x42c /home/jialiang/logic32-elf/lib/gcc/logic32-elf/3.4.2/../../../../logic32-elf/lib/libc.a(wcsrtombs.o)
                0x00063430                _wcsrtombs_r
                0x00063640                wcsrtombs
 *fill*         0x0006385c        0x4 00
 .text          0x00063860      0x13c /home/jialiang/logic32-elf/lib/gcc/logic32-elf/3.4.2/../../../../logic32-elf/lib/libc.a(memchr.o)
                0x00063860                memchr
 *fill*         0x0006399c        0x4 00
 .text          0x000639a0       0x4c /home/jialiang/logic32-elf/lib/gcc/logic32-elf/3.4.2/../../../../logic32-elf/lib/libc.a(s_isnan.o)
                0x000639a0                isnan
 *fill*         0x000639ec        0x4 00
 .text          0x000639f0      0x1b4 /home/jialiang/logic32-elf/lib/gcc/logic32-elf/3.4.2/../../../../logic32-elf/lib/libc.a(fflush.o)
                0x000639f0                fflush
 *fill*         0x00063ba4        0xc 00
 .text          0x00063bb0      0x4dc /home/jialiang/logic32-elf/lib/gcc/logic32-elf/3.4.2/../../../../logic32-elf/lib/libc.a(findfp.o)
                0x00063c30                __sinit
                0x00063bb0                __sfmoreglue
                0x00064060                _cleanup
                0x00064040                _cleanup_r
                0x00063d70                __sfp
 *fill*         0x0006408c        0x4 00
 .text          0x00064090     0x1f2c /home/jialiang/logic32-elf/lib/gcc/logic32-elf/3.4.2/../../../../logic32-elf/lib/libc.a(dtoa.o)
                0x000642b0                _dtoa_r
 *fill*         0x00065fbc        0x4 00
 .text          0x00065fc0      0x6a8 /home/jialiang/logic32-elf/lib/gcc/logic32-elf/3.4.2/../../../../logic32-elf/lib/libc.a(reallocr.o)
                0x00065fc0                _realloc_r
 *fill*         0x00066668        0x8 00
 .text          0x00066670      0x110 /home/jialiang/logic32-elf/lib/gcc/logic32-elf/3.4.2/../../../../logic32-elf/lib/libc.a(strcmp.o)
                0x00066670                strcmp
 .text          0x00066780      0x528 /home/jialiang/logic32-elf/lib/gcc/logic32-elf/3.4.2/../../../../logic32-elf/lib/libc.a(freer.o)
                0x000668f0                _free_r
                0x00066780                _malloc_trim_r
 *fill*         0x00066ca8        0x8 00
 .text          0x00066cb0      0x1e8 /home/jialiang/logic32-elf/lib/gcc/logic32-elf/3.4.2/../../../../logic32-elf/lib/libc.a(makebuf.o)
                0x00066cb0                __smakebuf
 *fill*         0x00066e98        0x8 00
 .text          0x00066ea0      0x674 /home/jialiang/logic32-elf/lib/gcc/logic32-elf/3.4.2/../../../../logic32-elf/lib/libc.a(wctomb_r.o)
                0x00066ea0                _wctomb_r
 *fill*         0x00067514        0xc 00
 .text          0x00067520       0x14 /home/jialiang/logic32-elf/lib/gcc/logic32-elf/3.4.2/../../../../logic32-elf/lib/libc.a(mlock.o)
                0x00067530                __malloc_unlock
                0x00067520                __malloc_lock
 *fill*         0x00067534        0xc 00
 .text          0x00067540       0x8c /home/jialiang/logic32-elf/lib/gcc/logic32-elf/3.4.2/../../../../logic32-elf/lib/libc.a(sbrkr.o)
                0x00067540                _sbrk_r
 *fill*         0x000675cc        0x4 00
 .text          0x000675d0      0x148 /home/jialiang/logic32-elf/lib/gcc/logic32-elf/3.4.2/../../../../logic32-elf/lib/libc.a(fwalk.o)
                0x000675d0                _fwalk
 *fill*         0x00067718        0x8 00
 .text          0x00067720      0x210 /home/jialiang/logic32-elf/lib/gcc/logic32-elf/3.4.2/../../../../logic32-elf/lib/libc.a(stdio.o)
                0x00067860                __sseek
                0x00067720                __sread
                0x00067900                __sclose
                0x000677c0                __swrite
 .text          0x00067930     0x1f84 /home/jialiang/logic32-elf/lib/gcc/logic32-elf/3.4.2/../../../../logic32-elf/lib/libc.a(mprec.o)
                0x00069790                _mprec_log10
                0x00067ec0                _hi0bits
                0x00067930                _Balloc
                0x00068d30                _d2b
                0x00068130                _multiply
                0x00069230                _ratio
                0x00067ba0                _s2b
                0x000680f0                _i2b
                0x00067fc0                _lo0bits
                0x00068740                __mcmp
                0x00068350                _pow5mult
                0x00068a20                _ulp
                0x00068b00                _b2d
                0x00067a60                _multadd
                0x000687d0                __mdiff
                0x000685b0                _lshift
                0x00067a20                _Bfree
 *fill*         0x000698b4        0xc 00
 .text          0x000698c0       0x90 /home/jialiang/logic32-elf/lib/gcc/logic32-elf/3.4.2/../../../../logic32-elf/lib/libc.a(fstatr.o)
                0x000698c0                _fstat_r
 .text          0x00069950       0x94 /home/jialiang/logic32-elf/lib/gcc/logic32-elf/3.4.2/../../../../logic32-elf/lib/libc.a(readr.o)
                0x00069950                _read_r
 *fill*         0x000699e4        0xc 00
 .text          0x000699f0       0x94 /home/jialiang/logic32-elf/lib/gcc/logic32-elf/3.4.2/../../../../logic32-elf/lib/libc.a(lseekr.o)
                0x000699f0                _lseek_r
 *fill*         0x00069a84        0xc 00
 .text          0x00069a90       0x94 /home/jialiang/logic32-elf/lib/gcc/logic32-elf/3.4.2/../../../../logic32-elf/lib/libc.a(writer.o)
                0x00069a90                _write_r
 *fill*         0x00069b24        0xc 00
 .text          0x00069b30       0x8c /home/jialiang/logic32-elf/lib/gcc/logic32-elf/3.4.2/../../../../logic32-elf/lib/libc.a(closer.o)
                0x00069b30                _close_r
 *fill*         0x00069bbc        0x4 00
 .text          0x00069bc0       0xd4 /home/jialiang/logic32-elf/lib/gcc/logic32-elf/3.4.2/../../../../logic32-elf/lib/libc.a(callocr.o)
                0x00069bc0                _calloc_r
 *fill*         0x00069c94        0xc 00
 .text          0x00069ca0      0x2a0 /home/jialiang/logic32-elf/lib/gcc/logic32-elf/3.4.2/../../../../logic32-elf/lib/libm.a(s_sin.o)
                0x00069ca0                sin
 .text          0x00069f40      0x2a8 /home/jialiang/logic32-elf/lib/gcc/logic32-elf/3.4.2/../../../../logic32-elf/lib/libm.a(s_cos.o)
                0x00069f40                cos
 *fill*         0x0006a1e8        0x8 00
 .text          0x0006a1f0      0x35c /home/jialiang/logic32-elf/lib/gcc/logic32-elf/3.4.2/../../../../logic32-elf/lib/libm.a(s_ceil.o)
                0x0006a1f0                ceil
 *fill*         0x0006a54c        0x4 00
 .text          0x0006a550      0x37c /home/jialiang/logic32-elf/lib/gcc/logic32-elf/3.4.2/../../../../logic32-elf/lib/libm.a(s_floor.o)
                0x0006a550                floor
 *fill*         0x0006a8cc        0x4 00
 .text          0x0006a8d0      0x1f0 /home/jialiang/logic32-elf/lib/gcc/logic32-elf/3.4.2/../../../../logic32-elf/lib/libm.a(w_sqrt.o)
                0x0006a8d0                sqrt
 .text          0x0006aac0      0xf48 /home/jialiang/logic32-elf/lib/gcc/logic32-elf/3.4.2/../../../../logic32-elf/lib/libm.a(e_rem_pio2.o)
                0x0006aac0                __ieee754_rem_pio2
 *fill*         0x0006ba08        0x8 00
 .text          0x0006ba10      0x824 /home/jialiang/logic32-elf/lib/gcc/logic32-elf/3.4.2/../../../../logic32-elf/lib/libm.a(k_cos.o)
                0x0006ba10                __kernel_cos
 *fill*         0x0006c234        0xc 00
 .text          0x0006c240      0x618 /home/jialiang/logic32-elf/lib/gcc/logic32-elf/3.4.2/../../../../logic32-elf/lib/libm.a(k_sin.o)
                0x0006c240                __kernel_sin
 *fill*         0x0006c858        0x8 00
 .text          0x0006c860      0x4b0 /home/jialiang/logic32-elf/lib/gcc/logic32-elf/3.4.2/../../../../logic32-elf/lib/libm.a(e_sqrt.o)
                0x0006c860                __ieee754_sqrt
 .text          0x0006cd10        0x8 /home/jialiang/logic32-elf/lib/gcc/logic32-elf/3.4.2/../../../../logic32-elf/lib/libm.a(s_matherr.o)
                0x0006cd10                matherr
 *fill*         0x0006cd18        0x8 00
 .text          0x0006cd20     0x1584 /home/jialiang/logic32-elf/lib/gcc/logic32-elf/3.4.2/../../../../logic32-elf/lib/libm.a(k_rem_pio2.o)
                0x0006cd20                __kernel_rem_pio2
 *fill*         0x0006e2a4        0xc 00
 .text          0x0006e2b0       0x38 /home/jialiang/logic32-elf/lib/gcc/logic32-elf/3.4.2/../../../../logic32-elf/lib/libm.a(s_fabs.o)
                0x0006e2b0                fabs
 *fill*         0x0006e2e8        0x8 00
 .text          0x0006e2f0      0x3fc /home/jialiang/logic32-elf/lib/gcc/logic32-elf/3.4.2/../../../../logic32-elf/lib/libm.a(s_scalbn.o)
                0x0006e2f0                scalbn
 *fill*         0x0006e6ec        0x4 00
 .text          0x0006e6f0       0x5c /home/jialiang/logic32-elf/lib/gcc/logic32-elf/3.4.2/../../../../logic32-elf/lib/libm.a(s_copysign.o)
                0x0006e6f0                copysign
 *fill*         0x0006e74c        0x4 00
 .text          0x0006e750      0x198 /home/jialiang/logic32-elf/lib/gcc/logic32-elf/3.4.2/libgcc.a(_si_to_df.o)
                0x0006e750                __floatsidf
 *fill*         0x0006e8e8        0x8 00
 .text          0x0006e8f0      0xa5c /home/jialiang/logic32-elf/lib/gcc/logic32-elf/3.4.2/libgcc.a(_addsub_df.o)
                0x0006f200                __adddf3
                0x0006f2a0                __subdf3
 *fill*         0x0006f34c        0x4 00
 .text          0x0006f350      0xe6c /home/jialiang/logic32-elf/lib/gcc/logic32-elf/3.4.2/libgcc.a(_mul_df.o)
                0x0006f350                __muldf3
 *fill*         0x000701bc        0x4 00
 .text          0x000701c0       0xfc /home/jialiang/logic32-elf/lib/gcc/logic32-elf/3.4.2/libgcc.a(_df_to_sf.o)
                0x000701c0                __truncdfsf2
 *fill*         0x000702bc        0x4 00
 .text          0x000702c0      0x7dc /home/jialiang/logic32-elf/lib/gcc/logic32-elf/3.4.2/libgcc.a(_div_df.o)
                0x000702c0                __divdf3
 *fill*         0x00070a9c        0x4 00
 .text          0x00070aa0       0xac /home/jialiang/logic32-elf/lib/gcc/logic32-elf/3.4.2/libgcc.a(_sf_to_df.o)
                0x00070aa0                __extendsfdf2
 *fill*         0x00070b4c        0x4 00
 .text          0x00070b50      0x6bc /home/jialiang/logic32-elf/lib/gcc/logic32-elf/3.4.2/libgcc.a(_mul_sf.o)
                0x00070b50                __mulsf3
 *fill*         0x0007120c        0x4 00
 .text          0x00071210       0x98 /home/jialiang/logic32-elf/lib/gcc/logic32-elf/3.4.2/libgcc.a(_fixunssfsi.o)
                0x00071210                __fixunssfsi
 *fill*         0x000712a8        0x8 00
 .text          0x000712b0      0x2e4 /home/jialiang/logic32-elf/lib/gcc/logic32-elf/3.4.2/libgcc.a(_df_to_si.o)
                0x000712b0                __fixdfsi
 *fill*         0x00071594        0xc 00
 .text          0x000715a0      0x10c /home/jialiang/logic32-elf/lib/gcc/logic32-elf/3.4.2/libgcc.a(_si_to_sf.o)
                0x000715a0                __floatsisf
 *fill*         0x000716ac        0x4 00
 .text          0x000716b0      0x12c /home/jialiang/logic32-elf/lib/gcc/logic32-elf/3.4.2/libgcc.a(_lt_sf.o)
                0x000716b0                __ltsf2
 *fill*         0x000717dc        0x4 00
 .text          0x000717e0      0x12c /home/jialiang/logic32-elf/lib/gcc/logic32-elf/3.4.2/libgcc.a(_eq_sf.o)
                0x000717e0                __eqsf2
 *fill*         0x0007190c        0x4 00
 .text          0x00071910      0x6d0 /home/jialiang/logic32-elf/lib/gcc/logic32-elf/3.4.2/libgcc.a(_addsub_sf.o)
                0x00071f50                __subsf3
                0x00071ec0                __addsf3
 .text          0x00071fe0      0x46c /home/jialiang/logic32-elf/lib/gcc/logic32-elf/3.4.2/libgcc.a(_div_sf.o)
                0x00071fe0                __divsf3
 *fill*         0x0007244c        0x4 00
 .text          0x00072450      0x2b4 /home/jialiang/logic32-elf/lib/gcc/logic32-elf/3.4.2/libgcc.a(_sf_to_si.o)
                0x00072450                __fixsfsi
 *fill*         0x00072704        0xc 00
 .text          0x00072710      0x12c /home/jialiang/logic32-elf/lib/gcc/logic32-elf/3.4.2/libgcc.a(_gt_sf.o)
                0x00072710                __gtsf2
 *fill*         0x0007283c        0x4 00
 .text          0x00072840      0x12c /home/jialiang/logic32-elf/lib/gcc/logic32-elf/3.4.2/libgcc.a(_ge_sf.o)
                0x00072840                __gesf2
 *fill*         0x0007296c        0x4 00
 .text          0x00072970      0x13c /home/jialiang/logic32-elf/lib/gcc/logic32-elf/3.4.2/libgcc.a(_lt_df.o)
                0x00072970                __ltdf2
 *fill*         0x00072aac        0x4 00
 .text          0x00072ab0      0x13c /home/jialiang/logic32-elf/lib/gcc/logic32-elf/3.4.2/libgcc.a(_ne_df.o)
                0x00072ab0                __nedf2
 *fill*         0x00072bec        0x4 00
 .text          0x00072bf0      0x13c /home/jialiang/logic32-elf/lib/gcc/logic32-elf/3.4.2/libgcc.a(_eq_df.o)
                0x00072bf0                __eqdf2
 *fill*         0x00072d2c        0x4 00
 .text          0x00072d30      0x13c /home/jialiang/logic32-elf/lib/gcc/logic32-elf/3.4.2/libgcc.a(_gt_df.o)
                0x00072d30                __gtdf2
 *fill*         0x00072e6c        0x4 00
 .text          0x00072e70      0x13c /home/jialiang/logic32-elf/lib/gcc/logic32-elf/3.4.2/libgcc.a(_ge_df.o)
                0x00072e70                __gedf2
 *fill*         0x00072fac        0x4 00
 .text          0x00072fb0      0x96c /home/jialiang/logic32-elf/lib/gcc/logic32-elf/3.4.2/libgcc.a(_pack_df.o)
                0x00072fb0                __pack_d
 *fill*         0x0007391c        0x4 00
 .text          0x00073920       0xb8 /home/jialiang/logic32-elf/lib/gcc/logic32-elf/3.4.2/libgcc.a(_negdi2.o)
                0x00073920                __negdi2
 *fill*         0x000739d8        0x8 00
 .text          0x000739e0      0x2e4 /home/jialiang/logic32-elf/lib/gcc/logic32-elf/3.4.2/libgcc.a(_unpack_df.o)
                0x000739e0                __unpack_d
 *fill*         0x00073cc4        0xc 00
 .text          0x00073cd0      0x1cc /home/jialiang/logic32-elf/lib/gcc/logic32-elf/3.4.2/libgcc.a(_muldi3.o)
                0x00073cd0                __muldi3
 *fill*         0x00073e9c        0x4 00
 .text          0x00073ea0       0x6c /home/jialiang/logic32-elf/lib/gcc/logic32-elf/3.4.2/libgcc.a(_make_sf.o)
                0x00073ea0                __make_fp
 *fill*         0x00073f0c        0x4 00
 .text          0x00073f10      0x1c4 /home/jialiang/logic32-elf/lib/gcc/logic32-elf/3.4.2/libgcc.a(_unpack_sf.o)
                0x00073f10                __unpack_f
 *fill*         0x000740d4        0xc 00
 .text          0x000740e0       0x7c /home/jialiang/logic32-elf/lib/gcc/logic32-elf/3.4.2/libgcc.a(_make_df.o)
                0x000740e0                __make_dp
 *fill*         0x0007415c        0x4 00
 .text          0x00074160      0x44c /home/jialiang/logic32-elf/lib/gcc/logic32-elf/3.4.2/libgcc.a(_pack_sf.o)
                0x00074160                __pack_f
 *fill*         0x000745ac        0x4 00
 .text          0x000745b0      0x114 /home/jialiang/logic32-elf/lib/gcc/logic32-elf/3.4.2/libgcc.a(_lshrdi3.o)
                0x000745b0                __lshrdi3
 *fill*         0x000746c4        0xc 00
 .text          0x000746d0      0x50c /home/jialiang/logic32-elf/lib/gcc/logic32-elf/3.4.2/libgcc.a(_fpcmp_parts_sf.o)
                0x000746d0                __fpcmp_parts_f
 *fill*         0x00074bdc        0x4 00
 .text          0x00074be0      0x58c /home/jialiang/logic32-elf/lib/gcc/logic32-elf/3.4.2/libgcc.a(_fpcmp_parts_df.o)
                0x00074be0                __fpcmp_parts_d
 *fill*         0x0007516c        0x4 00
 .text          0x00075170      0x114 /home/jialiang/logic32-elf/lib/gcc/logic32-elf/3.4.2/libgcc.a(_ashldi3.o)
                0x00075170                __ashldi3
                0x00075284                etext = ALIGN (0x1)
                0x00075284                . = ALIGN (0x1)

.data           0x00075290      0xc48
 *(.data)
 .data          0x00075290        0x4 obj/crt0.o
                0x00075290                __errno
 *fill*         0x00075294        0xc 00
 .data          0x000752a0       0x2c obj/GUIAAChar2.o
 *fill*         0x000752cc        0x4 00
 .data          0x000752d0        0x4 obj/GUITask.o
 .data          0x000752d4        0x7 obj/GUI_GetVersionString.o
 *fill*         0x000752db        0x5 00
 .data          0x000752e0       0x24 obj/GUI_TOUCH_DriverAnalog.o
 *fill*         0x00075304        0xc 00
 .data          0x00075310        0x4 obj/LCD_API.o
                0x00075310                LCD_aAPI
 *fill*         0x00075314        0xc 00
 .data          0x00075320        0x8 obj/LCD_Rotate180.o
                0x00075320                LCD_APIList180
 *fill*         0x00075328        0x8 00
 .data          0x00075330        0x8 obj/LCD_RotateCCW.o
                0x00075330                LCD_APIListCCW
 *fill*         0x00075338        0x8 00
 .data          0x00075340        0x8 obj/LCD_RotateCW.o
                0x00075340                LCD_APIListCW
 *fill*         0x00075348        0x8 00
 .data          0x00075350       0x20 obj/F08_1.o
                0x00075350                GUI_Font8_2
 .data          0x00075370       0x20 obj/F4x6.o
                0x00075370                GUI_Font4x6_2
 .data          0x00075390       0x20 obj/BUTTON.o
                0x00075390                BUTTON__DefaultProps
 .data          0x000753b0       0x28 obj/CHECKBOX.o
                0x000753b0                CHECKBOX__DefaultProps
 *fill*         0x000753d8        0x8 00
 .data          0x000753e0        0x4 obj/DIALOG.o
 *fill*         0x000753e4        0xc 00
 .data          0x000753f0       0x20 obj/DROPDOWN.o
                0x000753f0                DROPDOWN__DefaultProps
 .data          0x00075410       0x1c obj/EDIT.o
                0x00075410                EDIT__DefaultProps
 *fill*         0x0007542c        0x4 00
 .data          0x00075430       0x22 obj/FRAMEWIN.o
                0x00075430                FRAMEWIN__DefaultProps
 *fill*         0x00075452        0xe 00
 .data          0x00075460       0x34 obj/HEADER.o
 *fill*         0x00075494        0xc 00
 .data          0x000754a0       0x28 obj/LISTBOX.o
                0x000754a0                LISTBOX_DefaultProps
 *fill*         0x000754c8        0x8 00
 .data          0x000754d0       0x20 obj/LISTVIEW.o
                0x000754d0                LISTVIEW_DefaultProps
 .data          0x000754f0       0x40 obj/MENU.o
                0x00075500                MENU__DefaultProps
                0x000754f0                MENU__pDefaultEffect
 .data          0x00075530       0x18 obj/MULTIEDIT.o
 *fill*         0x00075548        0x8 00
 .data          0x00075550       0x34 obj/MULTIPAGE.o
                0x00075570                MULTIPAGE__DefaultAlign
                0x00075550                MULTIPAGE__DefaultTextColor
                0x00075580                MULTIPAGE__pDefaultFont
                0x00075560                MULTIPAGE__DefaultBkColor
 *fill*         0x00075584        0xc 00
 .data          0x00075590       0x34 obj/RADIO.o
                0x000755a0                RADIO__apDefaultImage
                0x000755b0                RADIO__pDefaultFont
                0x00075590                RADIO__pDefaultImageCheck
                0x000755c0                RADIO__DefaultTextColor
 *fill*         0x000755c4        0xc 00
 .data          0x000755d0       0x28 obj/SCROLLBAR.o
                0x000755f0                SCROLLBAR__aDefaultBkColor
                0x000755d0                SCROLLBAR__DefaultWidth
                0x000755e0                SCROLLBAR__aDefaultColor
 *fill*         0x000755f8        0x8 00
 .data          0x00075600        0x4 obj/SLIDER.o
 *fill*         0x00075604        0xc 00
 .data          0x00075610        0x4 obj/TEXT.o
 *fill*         0x00075614        0xc 00
 .data          0x00075620        0x4 obj/WIDGET.o
                0x00075620                _pEffectDefault
 *fill*         0x00075624        0xc 00
 .data          0x00075630        0x4 obj/WINDOW.o
                0x00075630                WINDOW__DefaultBkColor
 *fill*         0x00075634        0xc 00
 .data          0x00075640        0x4 obj/l32_screen.o
                0x00075640                screen_start
 *fill*         0x00075644        0xc 00
 .data          0x00075650        0x4 obj/syscall.o
 *fill*         0x00075654        0xc 00
 .data          0x00075660      0x38c /home/jialiang/logic32-elf/lib/gcc/logic32-elf/3.4.2/../../../../logic32-elf/lib/libc.a(impure.o)
                0x00075660                _impure_ptr
 *fill*         0x000759ec        0x4 00
 .data          0x000759f0       0x54 /home/jialiang/logic32-elf/lib/gcc/logic32-elf/3.4.2/../../../../logic32-elf/lib/libc.a(locale.o)
                0x00075a30                __mb_cur_max
                0x000759f0                __lc_ctype
                0x00075a20                __nlocale_changed
                0x00075a10                __mlocale_changed
                0x00075a00                _PathLocale
 *fill*         0x00075a44        0xc 00
 .data          0x00075a50      0x488 /home/jialiang/logic32-elf/lib/gcc/logic32-elf/3.4.2/../../../../logic32-elf/lib/libc.a(mallocr.o)
                0x00075ab0                __malloc_top_pad
                0x00075a90                __malloc_max_sbrked_mem
                0x00075aa0                __malloc_sbrk_base
                0x00075a50                __malloc_current_mallinfo
                0x00075ad0                __malloc_av_
                0x00075a80                __malloc_max_total_mem
                0x00075ac0                __malloc_trim_threshold
                0x00075ed8                edata = .

.bss            0x00075ee0   0x1a9cc4
 *(.bss)
 .bss           0x00075ee0       0x14 obj/GUIAAChar2.o
 .bss           0x00075ef4      0x16c obj/GUIAALib.o
 .bss           0x00076060    0x6001c obj/GUIAlloc.o
 .bss           0x000d607c       0x34 obj/GUICurs.o
 .bss           0x000d60b0      0x198 obj/GUITask.o
 .bss           0x000d6248       0x1c obj/GUI_FillPolygon.o
 .bss           0x000d6264        0xc obj/GUI_MOUSE.o
 .bss           0x000d6270       0x10 obj/GUI_MOUSE_DriverPS2.o
 .bss           0x000d6280       0x10 obj/GUI_OnKey.o
 .bss           0x000d6290        0xc obj/GUI_PID.o
 .bss           0x000d629c        0xc obj/GUI_TOUCH.o
 .bss           0x000d62a8       0x1c obj/GUI_TOUCH_DriverAnalog.o
 .bss           0x000d62c4        0xc obj/GUI_TOUCH_StoreState.o
 .bss           0x000d62d0        0x8 obj/GUI_TOUCH_StoreUnstable.o
 .bss           0x000d62d8       0x10 obj/LCDRLE8.o
 .bss           0x000d62e8        0x8 obj/EDIT.o
 .bss           0x000d62f0       0x18 obj/FRAMEWIN_SetResizeable.o
 .bss           0x000d6308        0xc obj/HEADER.o
 .bss           0x000d6314        0x8 obj/MULTIEDIT.o
 .bss           0x000d631c        0x4 obj/TEXT.o
 .bss           0x000d6320       0x1d obj/WM.o
 *fill*         0x000d633d        0x3 00
 .bss           0x000d6340        0x4 obj/WM_SetCaptureMove.o
 .bss           0x000d6344       0x11 obj/GUI_X_uCOS.o
 .bss           0x000d6355     0x2800 obj/syscall.o
 *fill*         0x000d8b55        0x3 00
 .bss           0x000d8b58    0x43200 obj/main.o
 .bss           0x0011bd58        0x4 /home/jialiang/logic32-elf/lib/gcc/logic32-elf/3.4.2/../../../../logic32-elf/lib/libc.a(findfp.o)
 *(COMMON)
 *fill*         0x0011bd5c        0x4 00
 COMMON         0x0011bd60   0x100020 obj/GUIAlloc.o
                0x0011bd60                GUI_ALLOC
                0x0011bd80                GUI_Heap
 COMMON         0x0021bd80       0x84 obj/GUICore.o
                0x0021bd80                GUI_CURSOR_pfTempHide
                0x0021bd84                GUI_DecChar
                0x0021bd88                GUI_CURSOR_pfTempUnhide
                0x0021bd8c                GUI_pLCD_APIList
                0x0021bd90                GUI_pfTimerExec
                0x0021bd94                GUI_pfDispCharStyle
                0x0021bda0                GUI_Context
                0x0021be00                WM_pfHandlePID
 COMMON         0x0021be04        0x4 obj/GUITimer.o
                0x0021be04                _hActiveTimer
                0x0021be06                hFirstTimer
 COMMON         0x0021be08        0x8 obj/GUI_DispStringInRectEx.o
                0x0021be08                GUI_RectDispString
 COMMON         0x0021be10        0x4 obj/GUI_OnKey.o
                0x0021be10                GUI_pfKeyMsgHook
 *fill*         0x0021be14        0xc 00
 COMMON         0x0021be20      0x200 obj/LCDColor.o
                0x0021be20                LCD__aConvTable
 COMMON         0x0021c020        0x4 obj/RADIO.o
                0x0021c020                RADIO__pfHandleSetValue
 *fill*         0x0021c024        0x4 00
 COMMON         0x0021c028       0x38 obj/WM.o
                0x0021c028                WM__NumWindows
                0x0021c02a                WM__hATransWindow
                0x0021c02c                WM__ahDesktopWin
                0x0021c030                WM_pfPollPID
                0x0021c038                WM_PID__StateLast
                0x0021c044                WM__NumInvalidWindows
                0x0021c046                WM_IsActive
                0x0021c048                WM__FirstWin
                0x0021c04a                WM__CaptureReleaseAuto
                0x0021c04b                WM__PaintCallbackCnt
                0x0021c04c                WM__CreateFlags
                0x0021c050                WM__aBkColor
                0x0021c054                WM__pFirstCriticalHandle
                0x0021c058                WM__hCapture
                0x0021c05a                WM__hWinFocus
                0x0021c05c                WM__TransWindowCnt
 COMMON         0x0021c060       0x10 obj/WMTouch.o
                0x0021c060                WM__CHWinModal
                0x0021c068                WM__CHWinLast
 COMMON         0x0021c070        0x4 obj/l32_screen.o
                0x0021c070                screen_point
 COMMON         0x0021c074        0x4 obj/syscall.o
                0x0021c074                errno
 *fill*         0x0021c078        0x8 00
 COMMON         0x0021c080     0x3b24 obj/os_core.o
                0x0021c080                OSLockNesting
                0x0021c081                OSTaskRegNextAvailID
                0x0021c082                OSRunning
                0x0021c084                OSIdleCtr
                0x0021c088                OSPrioHighRdy
                0x0021c089                OSPrioCur
                0x0021c08c                OSTCBList
                0x0021c090                OSTickStepState
                0x0021c0a0                OSTaskStatStk
                0x0021d9a0                OSCtxSwCtr
                0x0021d9a4                OSIdleCtrMax
                0x0021d9a8                OSTCBFreeList
                0x0021d9ac                OSCPUUsage
                0x0021d9ad                OSTaskCtr
                0x0021d9b0                OSQTbl
                0x0021da10                OSTCBHighRdy
                0x0021da14                OSQFreeList
                0x0021da18                OSRdyGrp
                0x0021da20                OSRdyTbl
                0x0021da28                OSEventFreeList
                0x0021da2c                OSIntNesting
                0x0021da30                OSTCBCur
                0x0021da34                OSTime
                0x0021da40                OSTaskIdleStk
                0x0021f340                OSEventTbl
                0x0021f410                OSTCBTbl
                0x0021fa98                OSStatRdy
                0x0021faa0                OSTCBPrioTbl
                0x0021fba0                OSIdleCtrRun
                0x0021fba4                end = .
OUTPUT(a.out elf32-logic32)

.comment        0x0021fba4     0x3342
 .comment       0x0021fba4       0x12 obj/GUIAAArc.o
 .comment       0x0021fbb6       0x12 obj/GUIAAChar.o
 .comment       0x0021fbc8       0x12 obj/GUIAAChar2.o
 .comment       0x0021fbda       0x12 obj/GUIAAChar4.o
 .comment       0x0021fbec       0x12 obj/GUIAACircle.o
 .comment       0x0021fbfe       0x12 obj/GUIAALib.o
 .comment       0x0021fc10       0x12 obj/GUIAALine.o
 .comment       0x0021fc22       0x12 obj/GUIAAPoly.o
 .comment       0x0021fc34       0x12 obj/GUIAAPolyOut.o
 .comment       0x0021fc46       0x12 obj/LCDP111.o
 .comment       0x0021fc58       0x12 obj/LCDP222.o
 .comment       0x0021fc6a       0x12 obj/LCDP233.o
 .comment       0x0021fc7c       0x12 obj/LCDP323.o
 .comment       0x0021fc8e       0x12 obj/LCDP332.o
 .comment       0x0021fca0       0x12 obj/LCDP444_12.o
 .comment       0x0021fcb2       0x12 obj/LCDP444_12_1.o
 .comment       0x0021fcc4       0x12 obj/LCDP444_16.o
 .comment       0x0021fcd6       0x12 obj/LCDP555.o
 .comment       0x0021fce8       0x12 obj/LCDP556.o
 .comment       0x0021fcfa       0x12 obj/LCDP565.o
 .comment       0x0021fd0c       0x12 obj/LCDP655.o
 .comment       0x0021fd1e       0x12 obj/LCDP8666.o
 .comment       0x0021fd30       0x12 obj/LCDP8666_1.o
 .comment       0x0021fd42       0x12 obj/LCDPM233.o
 .comment       0x0021fd54       0x12 obj/LCDPM323.o
 .comment       0x0021fd66       0x12 obj/LCDPM332.o
 .comment       0x0021fd78       0x12 obj/LCDPM444_12.o
 .comment       0x0021fd8a       0x12 obj/LCDPM444_16.o
 .comment       0x0021fd9c       0x12 obj/LCDPM555.o
 .comment       0x0021fdae       0x12 obj/LCDPM556.o
 .comment       0x0021fdc0       0x12 obj/LCDPM565.o
 .comment       0x0021fdd2       0x12 obj/LCDPM655.o
 .comment       0x0021fde4       0x12 obj/LCDP0.o
 .comment       0x0021fdf6       0x12 obj/LCDP2.o
 .comment       0x0021fe08       0x12 obj/LCDP4.o
 .comment       0x0021fe1a       0x12 obj/GUI2DLib.o
 .comment       0x0021fe2c       0x12 obj/GUIAlloc.o
 .comment       0x0021fe3e       0x12 obj/GUIArc.o
 .comment       0x0021fe50       0x12 obj/GUIChar.o
 .comment       0x0021fe62       0x12 obj/GUICharLine.o
 .comment       0x0021fe74       0x12 obj/GUICharM.o
 .comment       0x0021fe86       0x12 obj/GUICharP.o
 .comment       0x0021fe98       0x12 obj/GUICirc.o
 .comment       0x0021feaa       0x12 obj/GUIColor2Index.o
 .comment       0x0021febc       0x12 obj/GUICore.o
 .comment       0x0021fece       0x12 obj/GUICurs.o
 .comment       0x0021fee0       0x12 obj/GUIEncJS.o
 .comment       0x0021fef2       0x12 obj/GUIIndex2Color.o
 .comment       0x0021ff04       0x12 obj/GUIPolyE.o
 .comment       0x0021ff16       0x12 obj/GUIPolyM.o
 .comment       0x0021ff28       0x12 obj/GUIPolyR.o
 .comment       0x0021ff3a       0x12 obj/GUIRealloc.o
 .comment       0x0021ff4c       0x12 obj/GUIStream.o
 .comment       0x0021ff5e       0x12 obj/GUITask.o
 .comment       0x0021ff70       0x12 obj/GUITime.o
 .comment       0x0021ff82       0x12 obj/GUITimer.o
 .comment       0x0021ff94       0x12 obj/GUIUC0.o
 .comment       0x0021ffa6       0x12 obj/GUIVal.o
 .comment       0x0021ffb8       0x12 obj/GUIValf.o
 .comment       0x0021ffca       0x12 obj/GUI_AddBin.o
 .comment       0x0021ffdc       0x12 obj/GUI_AddDec.o
 .comment       0x0021ffee       0x12 obj/GUI_AddDecMin.o
 .comment       0x00220000       0x12 obj/GUI_AddDecShift.o
 .comment       0x00220012       0x12 obj/GUI_AddHex.o
 .comment       0x00220024       0x12 obj/GUI_AddKeyMsgHook.o
 .comment       0x00220036       0x12 obj/GUI_ALLOC_AllocInit.o
 .comment       0x00220048       0x12 obj/GUI_ALLOC_AllocZero.o
 .comment       0x0022005a       0x12 obj/GUI_BMP.o
 .comment       0x0022006c       0x12 obj/GUI_BMP_Serialize.o
 .comment       0x0022007e       0x12 obj/GUI_CalcColorDist.o
 .comment       0x00220090       0x12 obj/GUI_ClearRectEx.o
 .comment       0x002200a2       0x12 obj/GUI_Color2VisColor.o
 .comment       0x002200b4       0x12 obj/GUI_CursorArrowL.o
 .comment       0x002200c6       0x12 obj/GUI_CursorArrowLI.o
 .comment       0x002200d8       0x12 obj/GUI_CursorArrowLPx.o
 .comment       0x002200ea       0x12 obj/GUI_CursorArrowM.o
 .comment       0x002200fc       0x12 obj/GUI_CursorArrowMI.o
 .comment       0x0022010e       0x12 obj/GUI_CursorArrowMPx.o
 .comment       0x00220120       0x12 obj/GUI_CursorArrowS.o
 .comment       0x00220132       0x12 obj/GUI_CursorArrowSI.o
 .comment       0x00220144       0x12 obj/GUI_CursorArrowSPx.o
 .comment       0x00220156       0x12 obj/GUI_CursorCrossL.o
 .comment       0x00220168       0x12 obj/GUI_CursorCrossLI.o
 .comment       0x0022017a       0x12 obj/GUI_CursorCrossLPx.o
 .comment       0x0022018c       0x12 obj/GUI_CursorCrossM.o
 .comment       0x0022019e       0x12 obj/GUI_CursorCrossMI.o
 .comment       0x002201b0       0x12 obj/GUI_CursorCrossMPx.o
 .comment       0x002201c2       0x12 obj/GUI_CursorCrossS.o
 .comment       0x002201d4       0x12 obj/GUI_CursorCrossSI.o
 .comment       0x002201e6       0x12 obj/GUI_CursorCrossSPx.o
 .comment       0x002201f8       0x12 obj/GUI_CursorHeaderM.o
 .comment       0x0022020a       0x12 obj/GUI_CursorHeaderMI.o
 .comment       0x0022021c       0x12 obj/GUI_CursorHeaderMPx.o
 .comment       0x0022022e       0x12 obj/GUI_CursorPal.o
 .comment       0x00220240       0x12 obj/GUI_CursorPalI.o
 .comment       0x00220252       0x12 obj/GUI_DispBin.o
 .comment       0x00220264       0x12 obj/GUI_DispCEOL.o
 .comment       0x00220276       0x12 obj/GUI_DispChar.o
 .comment       0x00220288       0x12 obj/GUI_DispChars.o
 .comment       0x0022029a       0x12 obj/GUI_DispHex.o
 .comment       0x002202ac       0x12 obj/GUI_DispString.o
 .comment       0x002202be       0x12 obj/GUI_DispStringAt.o
 .comment       0x002202d0       0x12 obj/GUI_DispStringAtCEOL.o
 .comment       0x002202e2       0x12 obj/GUI_DispStringHCenter.o
 .comment       0x002202f4       0x12 obj/GUI_DispStringInRect.o
 .comment       0x00220306       0x12 obj/GUI_DispStringInRectEx.o
 .comment       0x00220318       0x12 obj/GUI_DispStringInRectMax.o
 .comment       0x0022032a       0x12 obj/GUI_DispStringLen.o
 .comment       0x0022033c       0x12 obj/GUI_DrawBitmap.o
 .comment       0x0022034e       0x12 obj/GUI_DrawBitmapEx.o
 .comment       0x00220360       0x12 obj/GUI_DrawBitmapExp.o
 .comment       0x00220372       0x12 obj/GUI_DrawBitmapMag.o
 .comment       0x00220384       0x12 obj/GUI_DrawFocusRect.o
 .comment       0x00220396       0x12 obj/GUI_DrawGraph.o
 .comment       0x002203a8       0x12 obj/GUI_DrawHLine.o
 .comment       0x002203ba       0x12 obj/GUI_DrawPie.o
 .comment       0x002203cc       0x12 obj/GUI_DrawPixel.o
 .comment       0x002203de       0x12 obj/GUI_DrawPolyline.o
 .comment       0x002203f0       0x12 obj/GUI_DrawRectEx.o
 .comment       0x00220402       0x12 obj/GUI_DrawVLine.o
 .comment       0x00220414       0x12 obj/GUI_ErrorOut.o
 .comment       0x00220426       0x12 obj/GUI_Exec.o
 .comment       0x00220438       0x12 obj/GUI_FillPolygon.o
 .comment       0x0022044a       0x12 obj/GUI_FillRect.o
 .comment       0x0022045c       0x12 obj/GUI_FillRectEx.o
 .comment       0x0022046e       0x12 obj/GUI_GetBitmapPixelColor.o
 .comment       0x00220480       0x12 obj/GUI_GetBitmapPixelIndex.o
 .comment       0x00220492       0x12 obj/GUI_GetClientRect.o
 .comment       0x002204a4       0x12 obj/GUI_GetColor.o
 .comment       0x002204b6       0x12 obj/GUI_GetDispPos.o
 .comment       0x002204c8       0x12 obj/GUI_GetFont.o
 .comment       0x002204da       0x12 obj/GUI_GetFontInfo.o
 .comment       0x002204ec       0x12 obj/GUI_GetFontSizeY.o
 .comment       0x002204fe       0x12 obj/GUI_GetLineStyle.o
 .comment       0x00220510       0x12 obj/GUI_GetStringDistX.o
 .comment       0x00220522       0x12 obj/GUI_GetTextAlign.o
 .comment       0x00220534       0x12 obj/GUI_GetTextExtend.o
 .comment       0x00220546       0x12 obj/GUI_GetTextMode.o
 .comment       0x00220558       0x12 obj/GUI_GetVersionString.o
 .comment       0x0022056a       0x12 obj/GUI_GetYSizeOfFont.o
 .comment       0x0022057c       0x12 obj/GUI_Goto.o
 .comment       0x0022058e       0x12 obj/GUI_InitLUT.o
 .comment       0x002205a0       0x12 obj/GUI_InvertRect.o
 .comment       0x002205b2       0x12 obj/GUI_IsInFont.o
 .comment       0x002205c4       0x12 obj/GUI_Log.o
 .comment       0x002205d6       0x12 obj/GUI_MergeRect.o
 .comment       0x002205e8       0x12 obj/GUI_MOUSE.o
 .comment       0x002205fa       0x12 obj/GUI_MOUSE_DriverPS2.o
 .comment       0x0022060c       0x12 obj/GUI_MoveRect.o
 .comment       0x0022061e       0x12 obj/GUI_OnKey.o
 .comment       0x00220630       0x12 obj/GUI_Pen.o
 .comment       0x00220642       0x12 obj/GUI_PID.o
 .comment       0x00220654       0x12 obj/GUI_RectsIntersect.o
 .comment       0x00220666       0x12 obj/GUI_SaveContext.o
 .comment       0x00220678       0x12 obj/GUI_SelectLayer.o
 .comment       0x0022068a       0x12 obj/GUI_SelectLCD.o
 .comment       0x0022069c       0x12 obj/GUI_SetColor.o
 .comment       0x002206ae       0x12 obj/GUI_SetColorIndex.o
 .comment       0x002206c0       0x12 obj/GUI_SetDecChar.o
 .comment       0x002206d2       0x12 obj/GUI_SetDefault.o
 .comment       0x002206e4       0x12 obj/GUI_SetDrawMode.o
 .comment       0x002206f6       0x12 obj/GUI_SetFont.o
 .comment       0x00220708       0x12 obj/GUI_SetLBorder.o
 .comment       0x0022071a       0x12 obj/GUI_SetLineStyle.o
 .comment       0x0022072c       0x12 obj/GUI_SetLUTColor.o
 .comment       0x0022073e       0x12 obj/GUI_SetLUTColorEx.o
 .comment       0x00220750       0x12 obj/GUI_SetLUTEntry.o
 .comment       0x00220762       0x12 obj/GUI_SetOrg.o
 .comment       0x00220774       0x12 obj/GUI_SetPixelIndex.o
 .comment       0x00220786       0x12 obj/GUI_SetTextAlign.o
 .comment       0x00220798       0x12 obj/GUI_SetTextMode.o
 .comment       0x002207aa       0x12 obj/GUI_SetTextStyle.o
 .comment       0x002207bc       0x12 obj/GUI_SIF.o
 .comment       0x002207ce       0x12 obj/GUI_SIF_Prop.o
 .comment       0x002207e0       0x12 obj/GUI_TOUCH.o
 .comment       0x002207f2       0x12 obj/GUI_TOUCH_DriverAnalog.o
 .comment       0x00220804       0x12 obj/GUI_TOUCH_StoreState.o
 .comment       0x00220816       0x12 obj/GUI_TOUCH_StoreUnstable.o
 .comment       0x00220828       0x12 obj/GUI_UC.o
 .comment       0x0022083a       0x12 obj/GUI_UC_DispString.o
 .comment       0x0022084c       0x12 obj/GUI_UC_EncodeNone.o
 .comment       0x0022085e       0x12 obj/GUI_UC_EncodeUTF8.o
 .comment       0x00220870       0x12 obj/GUI_WaitEvent.o
 .comment       0x00220882       0x12 obj/GUI_WaitKey.o
 .comment       0x00220894       0x12 obj/GUI_Warn.o
 .comment       0x002208a6       0x12 obj/GUI__AddSpaceHex.o
 .comment       0x002208b8       0x12 obj/GUI__CalcTextRect.o
 .comment       0x002208ca       0x12 obj/GUI__DivideRound.o
 .comment       0x002208dc       0x12 obj/GUI__DivideRound32.o
 .comment       0x002208ee       0x12 obj/GUI__GetFontSizeY.o
 .comment       0x00220900       0x12 obj/GUI__GetNumChars.o
 .comment       0x00220912       0x12 obj/GUI__HandleEOLine.o
 .comment       0x00220924       0x12 obj/GUI__IntersectRect.o
 .comment       0x00220936       0x12 obj/GUI__IntersectRects.o
 .comment       0x00220948       0x12 obj/GUI__memset.o
 .comment       0x0022095a       0x12 obj/GUI__memset16.o
 .comment       0x0022096c       0x12 obj/GUI__Read.o
 .comment       0x0022097e       0x12 obj/GUI__ReduceRect.o
 .comment       0x00220990       0x12 obj/GUI__SetText.o
 .comment       0x002209a2       0x12 obj/GUI__strcmp.o
 .comment       0x002209b4       0x12 obj/GUI__strlen.o
 .comment       0x002209c6       0x12 obj/GUI__Wrap.o
 .comment       0x002209d8       0x12 obj/LCD.o
 .comment       0x002209ea       0x12 obj/LCDAA.o
 .comment       0x002209fc       0x12 obj/LCDColor.o
 .comment       0x00220a0e       0x12 obj/LCDGetP.o
 .comment       0x00220a20       0x12 obj/LCDInfo.o
 .comment       0x00220a32       0x12 obj/LCDInfo0.o
 .comment       0x00220a44       0x12 obj/LCDInfo1.o
 .comment       0x00220a56       0x12 obj/LCDL0Delta.o
 .comment       0x00220a68       0x12 obj/LCDL0Mag.o
 .comment       0x00220a7a       0x12 obj/LCDP1.o
 .comment       0x00220a8c       0x12 obj/LCDP565_Index2Color.o
 .comment       0x00220a9e       0x12 obj/LCDPM565_Index2Color.o
 .comment       0x00220ab0       0x12 obj/LCDRLE4.o
 .comment       0x00220ac2       0x12 obj/LCDRLE8.o
 .comment       0x00220ad4       0x12 obj/LCD_API.o
 .comment       0x00220ae6       0x12 obj/LCD_DrawBitmap_565.o
 .comment       0x00220af8       0x12 obj/LCD_DrawBitmap_M565.o
 .comment       0x00220b0a       0x12 obj/LCD_DrawVLine.o
 .comment       0x00220b1c       0x12 obj/LCD_GetColorIndex.o
 .comment       0x00220b2e       0x12 obj/LCD_GetEx.o
 .comment       0x00220b40       0x12 obj/LCD_GetNumDisplays.o
 .comment       0x00220b52       0x12 obj/LCD_GetPixelColor.o
 .comment       0x00220b64       0x12 obj/LCD_Index2ColorEx.o
 .comment       0x00220b76       0x12 obj/LCD_L0_Generic.o
 .comment       0x00220b88       0x12 obj/LCD_Mirror.o
 .comment       0x00220b9a       0x12 obj/LCD_MixColors256.o
 .comment       0x00220bac       0x12 obj/LCD_Rotate180.o
 .comment       0x00220bbe       0x12 obj/LCD_RotateCCW.o
 .comment       0x00220bd0       0x12 obj/LCD_RotateCW.o
 .comment       0x00220be2       0x12 obj/LCD_SelectLCD.o
 .comment       0x00220bf4       0x12 obj/LCD_SetAPI.o
 .comment       0x00220c06       0x12 obj/LCD_SetClipRectEx.o
 .comment       0x00220c18       0x12 obj/LCD_UpdateColorIndices.o
 .comment       0x00220c2a       0x12 obj/F08_1.o
 .comment       0x00220c3c       0x12 obj/F08_ASCII.o
 .comment       0x00220c4e       0x12 obj/F10S_1.o
 .comment       0x00220c60       0x12 obj/F10S_ASCII.o
 .comment       0x00220c72       0x12 obj/F10_1.o
 .comment       0x00220c84       0x12 obj/F10_ASCII.o
 .comment       0x00220c96       0x12 obj/F13B_1.o
 .comment       0x00220ca8       0x12 obj/F13B_ASCII.o
 .comment       0x00220cba       0x12 obj/F13HB_1.o
 .comment       0x00220ccc       0x12 obj/F13HB_ASCII.o
 .comment       0x00220cde       0x12 obj/F13H_1.o
 .comment       0x00220cf0       0x12 obj/F13H_ASCII.o
 .comment       0x00220d02       0x12 obj/F13_1.o
 .comment       0x00220d14       0x12 obj/F13_ASCII.o
 .comment       0x00220d26       0x12 obj/F16B_1.o
 .comment       0x00220d38       0x12 obj/F16B_ASCII.o
 .comment       0x00220d4a       0x12 obj/F16_1.o
 .comment       0x00220d5c       0x12 obj/F16_1HK.o
 .comment       0x00220d6e       0x12 obj/F16_ASCII.o
 .comment       0x00220d80       0x12 obj/F16_HK.o
 .comment       0x00220d92       0x12 obj/F24B_1.o
 .comment       0x00220da4       0x12 obj/F24B_ASCII.o
 .comment       0x00220db6       0x12 obj/F24_1.o
 .comment       0x00220dc8       0x12 obj/F24_ASCII.o
 .comment       0x00220dda       0x12 obj/F32B_1.o
 .comment       0x00220dec       0x12 obj/F32B_ASCII.o
 .comment       0x00220dfe       0x12 obj/F32_1.o
 .comment       0x00220e10       0x12 obj/F32_ASCII.o
 .comment       0x00220e22       0x12 obj/F4x6.o
 .comment       0x00220e34       0x12 obj/F6x8.o
 .comment       0x00220e46       0x12 obj/F8x10_ASCII.o
 .comment       0x00220e58       0x12 obj/F8x12_ASCII.o
 .comment       0x00220e6a       0x12 obj/F8x13_1.o
 .comment       0x00220e7c       0x12 obj/F8x13_ASCII.o
 .comment       0x00220e8e       0x12 obj/F8x15B_1.o
 .comment       0x00220ea0       0x12 obj/F8x15B_ASCII.o
 .comment       0x00220eb2       0x12 obj/F8x16.o
 .comment       0x00220ec4       0x12 obj/F8x8.o
 .comment       0x00220ed6       0x12 obj/FComic18B_1.o
 .comment       0x00220ee8       0x12 obj/FComic18B_ASCII.o
 .comment       0x00220efa       0x12 obj/FComic24B_1.o
 .comment       0x00220f0c       0x12 obj/FComic24B_ASCII.o
 .comment       0x00220f1e       0x12 obj/FD24x32.o
 .comment       0x00220f30       0x12 obj/FD32.o
 .comment       0x00220f42       0x12 obj/FD36x48.o
 .comment       0x00220f54       0x12 obj/FD48.o
 .comment       0x00220f66       0x12 obj/FD48x64.o
 .comment       0x00220f78       0x12 obj/FD60x80.o
 .comment       0x00220f8a       0x12 obj/FD64.o
 .comment       0x00220f9c       0x12 obj/FD80.o
 .comment       0x00220fae       0x12 obj/LCDNull.o
 .comment       0x00220fc0       0x12 obj/GUIDEV.o
 .comment       0x00220fd2       0x12 obj/GUIDEV_1.o
 .comment       0x00220fe4       0x12 obj/GUIDEV_16.o
 .comment       0x00220ff6       0x12 obj/GUIDEV_8.o
 .comment       0x00221008       0x12 obj/GUIDEV_AA.o
 .comment       0x0022101a       0x12 obj/GUIDEV_Auto.o
 .comment       0x0022102c       0x12 obj/GUIDEV_Banding.o
 .comment       0x0022103e       0x12 obj/GUIDEV_Clear.o
 .comment       0x00221050       0x12 obj/GUIDEV_CmpWithLCD.o
 .comment       0x00221062       0x12 obj/GUIDEV_CopyFromLCD.o
 .comment       0x00221074       0x12 obj/GUIDEV_CreateFixed.o
 .comment       0x00221086       0x12 obj/GUIDEV_GetDataPtr.o
 .comment       0x00221098       0x12 obj/GUIDEV_GetXSize.o
 .comment       0x002210aa       0x12 obj/GUIDEV_GetYSize.o
 .comment       0x002210bc       0x12 obj/GUIDEV_Measure.o
 .comment       0x002210ce       0x12 obj/GUIDEV_ReduceYSize.o
 .comment       0x002210e0       0x12 obj/GUIDEV_SetOrg.o
 .comment       0x002210f2       0x12 obj/GUIDEV_Usage.o
 .comment       0x00221104       0x12 obj/GUIDEV_UsageBM.o
 .comment       0x00221116       0x12 obj/GUIDEV_Write.o
 .comment       0x00221128       0x12 obj/GUIDEV_WriteAlpha.o
 .comment       0x0022113a       0x12 obj/GUIDEV_WriteEx.o
 .comment       0x0022114c       0x12 obj/GUIDEV_XY2PTR.o
 .comment       0x0022115e       0x12 obj/LCD_1.o
 .comment       0x00221170       0x12 obj/LCD_2.o
 .comment       0x00221182       0x12 obj/LCD_3.o
 .comment       0x00221194       0x12 obj/LCD_4.o
 .comment       0x002211a6       0x12 obj/BUTTON.o
 .comment       0x002211b8       0x12 obj/BUTTON_Bitmap.o
 .comment       0x002211ca       0x12 obj/BUTTON_BMP.o
 .comment       0x002211dc       0x12 obj/BUTTON_Create.o
 .comment       0x002211ee       0x12 obj/BUTTON_CreateIndirect.o
 .comment       0x00221200       0x12 obj/BUTTON_Default.o
 .comment       0x00221212       0x12 obj/BUTTON_Get.o
 .comment       0x00221224       0x12 obj/BUTTON_IsPressed.o
 .comment       0x00221236       0x12 obj/BUTTON_SelfDraw.o
 .comment       0x00221248       0x12 obj/BUTTON_SetTextAlign.o
 .comment       0x0022125a       0x12 obj/BUTTON_StreamedBitmap.o
 .comment       0x0022126c       0x12 obj/BUTTON__SetBitmapObj.o
 .comment       0x0022127e       0x12 obj/CHECKBOX.o
 .comment       0x00221290       0x12 obj/CHECKBOX_Create.o
 .comment       0x002212a2       0x12 obj/CHECKBOX_CreateIndirect.o
 .comment       0x002212b4       0x12 obj/CHECKBOX_Default.o
 .comment       0x002212c6       0x12 obj/CHECKBOX_GetState.o
 .comment       0x002212d8       0x12 obj/CHECKBOX_Image.o
 .comment       0x002212ea       0x12 obj/CHECKBOX_IsChecked.o
 .comment       0x002212fc       0x12 obj/CHECKBOX_SetBkColor.o
 .comment       0x0022130e       0x12 obj/CHECKBOX_SetDefaultImage.o
 .comment       0x00221320       0x12 obj/CHECKBOX_SetFont.o
 .comment       0x00221332       0x12 obj/CHECKBOX_SetImage.o
 .comment       0x00221344       0x12 obj/CHECKBOX_SetNumStates.o
 .comment       0x00221356       0x12 obj/CHECKBOX_SetSpacing.o
 .comment       0x00221368       0x12 obj/CHECKBOX_SetState.o
 .comment       0x0022137a       0x12 obj/CHECKBOX_SetText.o
 .comment       0x0022138c       0x12 obj/CHECKBOX_SetTextAlign.o
 .comment       0x0022139e       0x12 obj/CHECKBOX_SetTextColor.o
 .comment       0x002213b0       0x12 obj/DIALOG.o
 .comment       0x002213c2       0x12 obj/DROPDOWN.o
 .comment       0x002213d4       0x12 obj/DROPDOWN_Create.o
 .comment       0x002213e6       0x12 obj/DROPDOWN_CreateIndirect.o
 .comment       0x002213f8       0x12 obj/DROPDOWN_DeleteItem.o
 .comment       0x0022140a       0x12 obj/DROPDOWN_InsertString.o
 .comment       0x0022141c       0x12 obj/DROPDOWN_ItemSpacing.o
 .comment       0x0022142e       0x12 obj/DROPDOWN_SetAutoScroll.o
 .comment       0x00221440       0x12 obj/DROPDOWN_SetTextAlign.o
 .comment       0x00221452       0x12 obj/DROPDOWN_SetTextHeight.o
 .comment       0x00221464       0x12 obj/EDIT.o
 .comment       0x00221476       0x12 obj/EDITBin.o
 .comment       0x00221488       0x12 obj/EDITDec.o
 .comment       0x0022149a       0x12 obj/EDITFloat.o
 .comment       0x002214ac       0x12 obj/EDITHex.o
 .comment       0x002214be       0x12 obj/EDIT_Create.o
 .comment       0x002214d0       0x12 obj/EDIT_CreateIndirect.o
 .comment       0x002214e2       0x12 obj/EDIT_Default.o
 .comment       0x002214f4       0x12 obj/EDIT_GetNumChars.o
 .comment       0x00221506       0x12 obj/EDIT_SetCursorAtChar.o
 .comment       0x00221518       0x12 obj/EDIT_SetInsertMode.o
 .comment       0x0022152a       0x12 obj/EDIT_SetpfAddKeyEx.o
 .comment       0x0022153c       0x12 obj/EDIT_SetpfUpdateBuffer.o
 .comment       0x0022154e       0x12 obj/EDIT_SetSel.o
 .comment       0x00221560       0x12 obj/FRAMEWIN.o
 .comment       0x00221572       0x12 obj/FRAMEWIN_AddMenu.o
 .comment       0x00221584       0x12 obj/FRAMEWIN_Button.o
 .comment       0x00221596       0x12 obj/FRAMEWIN_ButtonClose.o
 .comment       0x002215a8       0x12 obj/FRAMEWIN_ButtonMax.o
 .comment       0x002215ba       0x12 obj/FRAMEWIN_ButtonMin.o
 .comment       0x002215cc       0x12 obj/FRAMEWIN_Create.o
 .comment       0x002215de       0x12 obj/FRAMEWIN_CreateIndirect.o
 .comment       0x002215f0       0x12 obj/FRAMEWIN_Default.o
 .comment       0x00221602       0x12 obj/FRAMEWIN_Get.o
 .comment       0x00221614       0x12 obj/FRAMEWIN_IsMinMax.o
 .comment       0x00221626       0x12 obj/FRAMEWIN_MinMaxRest.o
 .comment       0x00221638       0x12 obj/FRAMEWIN_SetBorderSize.o
 .comment       0x0022164a       0x12 obj/FRAMEWIN_SetColors.o
 .comment       0x0022165c       0x12 obj/FRAMEWIN_SetFont.o
 .comment       0x0022166e       0x12 obj/FRAMEWIN_SetResizeable.o
 .comment       0x00221680       0x12 obj/FRAMEWIN_SetTitleHeight.o
 .comment       0x00221692       0x12 obj/FRAMEWIN_SetTitleVis.o
 .comment       0x002216a4       0x12 obj/FRAMEWIN__UpdateButtons.o
 .comment       0x002216b6       0x12 obj/GUI_ARRAY.o
 .comment       0x002216c8       0x12 obj/GUI_ARRAY_DeleteItem.o
 .comment       0x002216da       0x12 obj/GUI_ARRAY_InsertItem.o
 .comment       0x002216ec       0x12 obj/GUI_ARRAY_ResizeItem.o
 .comment       0x002216fe       0x12 obj/GUI_DRAW.o
 .comment       0x00221710       0x12 obj/GUI_DRAW_BITMAP.o
 .comment       0x00221722       0x12 obj/GUI_DRAW_BMP.o
 .comment       0x00221734       0x12 obj/GUI_DRAW_Self.o
 .comment       0x00221746       0x12 obj/GUI_DRAW_STREAMED.o
 .comment       0x00221758       0x12 obj/GUI_EditBin.o
 .comment       0x0022176a       0x12 obj/GUI_EditDec.o
 .comment       0x0022177c       0x12 obj/GUI_EditFloat.o
 .comment       0x0022178e       0x12 obj/GUI_EditHex.o
 .comment       0x002217a0       0x12 obj/GUI_EditString.o
 .comment       0x002217b2       0x12 obj/GUI_HOOK.o
 .comment       0x002217c4       0x12 obj/HEADER.o
 .comment       0x002217d6       0x12 obj/HEADER_Bitmap.o
 .comment       0x002217e8       0x12 obj/HEADER_BMP.o
 .comment       0x002217fa       0x12 obj/HEADER_Create.o
 .comment       0x0022180c       0x12 obj/HEADER_CreateIndirect.o
 .comment       0x0022181e       0x12 obj/HEADER_StreamedBitmap.o
 .comment       0x00221830       0x12 obj/HEADER__SetDrawObj.o
 .comment       0x00221842       0x12 obj/LISTBOX.o
 .comment       0x00221854       0x12 obj/LISTBOX_Create.o
 .comment       0x00221866       0x12 obj/LISTBOX_CreateIndirect.o
 .comment       0x00221878       0x12 obj/LISTBOX_Default.o
 .comment       0x0022188a       0x12 obj/LISTBOX_DeleteItem.o
 .comment       0x0022189c       0x12 obj/LISTBOX_Font.o
 .comment       0x002218ae       0x12 obj/LISTBOX_GetItemText.o
 .comment       0x002218c0       0x12 obj/LISTBOX_GetNumItems.o
 .comment       0x002218d2       0x12 obj/LISTBOX_InsertString.o
 .comment       0x002218e4       0x12 obj/LISTBOX_ItemDisabled.o
 .comment       0x002218f6       0x12 obj/LISTBOX_ItemSpacing.o
 .comment       0x00221908       0x12 obj/LISTBOX_MultiSel.o
 .comment       0x0022191a       0x12 obj/LISTBOX_ScrollStep.o
 .comment       0x0022192c       0x12 obj/LISTBOX_SetAutoScroll.o
 .comment       0x0022193e       0x12 obj/LISTBOX_SetBkColor.o
 .comment       0x00221950       0x12 obj/LISTBOX_SetOwner.o
 .comment       0x00221962       0x12 obj/LISTBOX_SetOwnerDraw.o
 .comment       0x00221974       0x12 obj/LISTBOX_SetScrollbarWidth.o
 .comment       0x00221986       0x12 obj/LISTBOX_SetString.o
 .comment       0x00221998       0x12 obj/LISTBOX_SetTextColor.o
 .comment       0x002219aa       0x12 obj/LISTVIEW.o
 .comment       0x002219bc       0x12 obj/LISTVIEW_Create.o
 .comment       0x002219ce       0x12 obj/LISTVIEW_CreateIndirect.o
 .comment       0x002219e0       0x12 obj/LISTVIEW_Default.o
 .comment       0x002219f2       0x12 obj/LISTVIEW_DeleteColumn.o
 .comment       0x00221a04       0x12 obj/LISTVIEW_DeleteRow.o
 .comment       0x00221a16       0x12 obj/LISTVIEW_GetBkColor.o
 .comment       0x00221a28       0x12 obj/LISTVIEW_GetFont.o
 .comment       0x00221a3a       0x12 obj/LISTVIEW_GetHeader.o
 .comment       0x00221a4c       0x12 obj/LISTVIEW_GetNumColumns.o
 .comment       0x00221a5e       0x12 obj/LISTVIEW_GetNumRows.o
 .comment       0x00221a70       0x12 obj/LISTVIEW_GetSel.o
 .comment       0x00221a82       0x12 obj/LISTVIEW_GetTextColor.o
 .comment       0x00221a94       0x12 obj/LISTVIEW_SetBkColor.o
 .comment       0x00221aa6       0x12 obj/LISTVIEW_SetColumnWidth.o
 .comment       0x00221ab8       0x12 obj/LISTVIEW_SetFont.o
 .comment       0x00221aca       0x12 obj/LISTVIEW_SetGridVis.o
 .comment       0x00221adc       0x12 obj/LISTVIEW_SetItemColor.o
 .comment       0x00221aee       0x12 obj/LISTVIEW_SetItemText.o
 .comment       0x00221b00       0x12 obj/LISTVIEW_SetLBorder.o
 .comment       0x00221b12       0x12 obj/LISTVIEW_SetRBorder.o
 .comment       0x00221b24       0x12 obj/LISTVIEW_SetRowHeight.o
 .comment       0x00221b36       0x12 obj/LISTVIEW_SetSel.o
 .comment       0x00221b48       0x12 obj/LISTVIEW_SetTextAlign.o
 .comment       0x00221b5a       0x12 obj/LISTVIEW_SetTextColor.o
 .comment       0x00221b6c       0x12 obj/MENU.o
 .comment       0x00221b7e       0x12 obj/MENU_Attach.o
 .comment       0x00221b90       0x12 obj/MENU_CreateIndirect.o
 .comment       0x00221ba2       0x12 obj/MENU_Default.o
 .comment       0x00221bb4       0x12 obj/MENU_DeleteItem.o
 .comment       0x00221bc6       0x12 obj/MENU_DisableItem.o
 .comment       0x00221bd8       0x12 obj/MENU_EnableItem.o
 .comment       0x00221bea       0x12 obj/MENU_GetItem.o
 .comment       0x00221bfc       0x12 obj/MENU_GetItemText.o
 .comment       0x00221c0e       0x12 obj/MENU_GetNumItems.o
 .comment       0x00221c20       0x12 obj/MENU_InsertItem.o
 .comment       0x00221c32       0x12 obj/MENU_Popup.o
 .comment       0x00221c44       0x12 obj/MENU_SetBkColor.o
 .comment       0x00221c56       0x12 obj/MENU_SetBorderSize.o
 .comment       0x00221c68       0x12 obj/MENU_SetFont.o
 .comment       0x00221c7a       0x12 obj/MENU_SetItem.o
 .comment       0x00221c8c       0x12 obj/MENU_SetTextColor.o
 .comment       0x00221c9e       0x12 obj/MENU__FindItem.o
 .comment       0x00221cb0       0x12 obj/MESSAGEBOX.o
 .comment       0x00221cc2       0x12 obj/MULTIEDIT.o
 .comment       0x00221cd4       0x12 obj/MULTIEDIT_Create.o
 .comment       0x00221ce6       0x12 obj/MULTIEDIT_CreateIndirect.o
 .comment       0x00221cf8       0x12 obj/MULTIPAGE.o
 .comment       0x00221d0a       0x12 obj/MULTIPAGE_Create.o
 .comment       0x00221d1c       0x12 obj/MULTIPAGE_CreateIndirect.o
 .comment       0x00221d2e       0x12 obj/MULTIPAGE_Default.o
 .comment       0x00221d40       0x12 obj/PROGBAR.o
 .comment       0x00221d52       0x12 obj/PROGBAR_Create.o
 .comment       0x00221d64       0x12 obj/PROGBAR_CreateIndirect.o
 .comment       0x00221d76       0x12 obj/RADIO.o
 .comment       0x00221d88       0x12 obj/RADIO_Create.o
 .comment       0x00221d9a       0x12 obj/RADIO_CreateIndirect.o
 .comment       0x00221dac       0x12 obj/RADIO_Default.o
 .comment       0x00221dbe       0x12 obj/RADIO_Image.o
 .comment       0x00221dd0       0x12 obj/RADIO_SetBkColor.o
 .comment       0x00221de2       0x12 obj/RADIO_SetDefaultImage.o
 .comment       0x00221df4       0x12 obj/RADIO_SetFont.o
 .comment       0x00221e06       0x12 obj/RADIO_SetGroupId.o
 .comment       0x00221e18       0x12 obj/RADIO_SetImage.o
 .comment       0x00221e2a       0x12 obj/RADIO_SetText.o
 .comment       0x00221e3c       0x12 obj/RADIO_SetTextColor.o
 .comment       0x00221e4e       0x12 obj/SCROLLBAR.o
 .comment       0x00221e60       0x12 obj/SCROLLBAR_Create.o
 .comment       0x00221e72       0x12 obj/SCROLLBAR_CreateIndirect.o
 .comment       0x00221e84       0x12 obj/SCROLLBAR_Defaults.o
 .comment       0x00221e96       0x12 obj/SCROLLBAR_GetValue.o
 .comment       0x00221ea8       0x12 obj/SCROLLBAR_SetWidth.o
 .comment       0x00221eba       0x12 obj/SLIDER.o
 .comment       0x00221ecc       0x12 obj/SLIDER_Create.o
 .comment       0x00221ede       0x12 obj/SLIDER_CreateIndirect.o
 .comment       0x00221ef0       0x12 obj/TEXT.o
 .comment       0x00221f02       0x12 obj/TEXT_Create.o
 .comment       0x00221f14       0x12 obj/TEXT_CreateIndirect.o
 .comment       0x00221f26       0x12 obj/TEXT_SetBkColor.o
 .comment       0x00221f38       0x12 obj/TEXT_SetFont.o
 .comment       0x00221f4a       0x12 obj/TEXT_SetText.o
 .comment       0x00221f5c       0x12 obj/TEXT_SetTextAlign.o
 .comment       0x00221f6e       0x12 obj/TEXT_SetTextColor.o
 .comment       0x00221f80       0x12 obj/WIDGET.o
 .comment       0x00221f92       0x12 obj/WIDGET_Effect_3D.o
 .comment       0x00221fa4       0x12 obj/WIDGET_Effect_3D1L.o
 .comment       0x00221fb6       0x12 obj/WIDGET_Effect_3D2L.o
 .comment       0x00221fc8       0x12 obj/WIDGET_Effect_None.o
 .comment       0x00221fda       0x12 obj/WIDGET_Effect_Simple.o
 .comment       0x00221fec       0x12 obj/WIDGET_FillStringInRect.o
 .comment       0x00221ffe       0x12 obj/WIDGET_SetEffect.o
 .comment       0x00222010       0x12 obj/WIDGET_SetWidth.o
 .comment       0x00222022       0x12 obj/WINDOW.o
 .comment       0x00222034       0x12 obj/WINDOW_Default.o
 .comment       0x00222046       0x12 obj/WM.o
 .comment       0x00222058       0x12 obj/WMMemDev.o
 .comment       0x0022206a       0x12 obj/WMTouch.o
 .comment       0x0022207c       0x12 obj/WM_AttachWindow.o
 .comment       0x0022208e       0x12 obj/WM_BringToBottom.o
 .comment       0x002220a0       0x12 obj/WM_BringToTop.o
 .comment       0x002220b2       0x12 obj/WM_Broadcast.o
 .comment       0x002220c4       0x12 obj/WM_CheckScrollPos.o
 .comment       0x002220d6       0x12 obj/WM_CriticalHandle.o
 .comment       0x002220e8       0x12 obj/WM_DIAG.o
 .comment       0x002220fa       0x12 obj/WM_EnableWindow.o
 .comment       0x0022210c       0x12 obj/WM_ForEachDesc.o
 .comment       0x0022211e       0x12 obj/WM_GetBkColor.o
 .comment       0x00222130       0x12 obj/WM_GetClientRect.o
 .comment       0x00222142       0x12 obj/WM_GetClientWindow.o
 .comment       0x00222154       0x12 obj/WM_GetDesktopWindow.o
 .comment       0x00222166       0x12 obj/WM_GetDesktopWindowEx.o
 .comment       0x00222178       0x12 obj/WM_GetDiagInfo.o
 .comment       0x0022218a       0x12 obj/WM_GetDialogItem.o
 .comment       0x0022219c       0x12 obj/WM_GetFirstChild.o
 .comment       0x002221ae       0x12 obj/WM_GetFlags.o
 .comment       0x002221c0       0x12 obj/WM_GetFocussedWindow.o
 .comment       0x002221d2       0x12 obj/WM_GetId.o
 .comment       0x002221e4       0x12 obj/WM_GetInsideRect.o
 .comment       0x002221f6       0x12 obj/WM_GetInsideRectExScrollbar.o
 .comment       0x00222208       0x12 obj/WM_GetInvalidRect.o
 .comment       0x0022221a       0x12 obj/WM_GetNextSibling.o
 .comment       0x0022222c       0x12 obj/WM_GetOrg.o
 .comment       0x0022223e       0x12 obj/WM_GetParent.o
 .comment       0x00222250       0x12 obj/WM_GetPrevSibling.o
 .comment       0x00222262       0x12 obj/WM_GetScrollbar.o
 .comment       0x00222274       0x12 obj/WM_GetScrollPartner.o
 .comment       0x00222286       0x12 obj/WM_GetScrollState.o
 .comment       0x00222298       0x12 obj/WM_GetWindowRect.o
 .comment       0x002222aa       0x12 obj/WM_GetWindowSize.o
 .comment       0x002222bc       0x12 obj/WM_HasCaptured.o
 .comment       0x002222ce       0x12 obj/WM_HasFocus.o
 .comment       0x002222e0       0x12 obj/WM_Hide.o
 .comment       0x002222f2       0x12 obj/WM_IsCompletelyVisible.o
 .comment       0x00222304       0x12 obj/WM_IsEnabled.o
 .comment       0x00222316       0x12 obj/WM_IsFocussable.o
 .comment       0x00222328       0x12 obj/WM_IsVisible.o
 .comment       0x0022233a       0x12 obj/WM_IsWindow.o
 .comment       0x0022234c       0x12 obj/WM_MakeModal.o
 .comment       0x0022235e       0x12 obj/WM_Move.o
 .comment       0x00222370       0x12 obj/WM_MoveChildTo.o
 .comment       0x00222382       0x12 obj/WM_NotifyParent.o
 .comment       0x00222394       0x12 obj/WM_OnKey.o
 .comment       0x002223a6       0x12 obj/WM_Paint.o
 .comment       0x002223b8       0x12 obj/WM_PID__GetPrevState.o
 .comment       0x002223ca       0x12 obj/WM_ResizeWindow.o
 .comment       0x002223dc       0x12 obj/WM_Screen2Win.o
 .comment       0x002223ee       0x12 obj/WM_SendMessageNoPara.o
 .comment       0x00222400       0x12 obj/WM_SendToParent.o
 .comment       0x00222412       0x12 obj/WM_SetAnchor.o
 .comment       0x00222424       0x12 obj/WM_SetCallback.o
 .comment       0x00222436       0x12 obj/WM_SetCapture.o
 .comment       0x00222448       0x12 obj/WM_SetCaptureMove.o
 .comment       0x0022245a       0x12 obj/WM_SetCreateFlags.o
 .comment       0x0022246c       0x12 obj/WM_SetDesktopColor.o
 .comment       0x0022247e       0x12 obj/WM_SetFocus.o
 .comment       0x00222490       0x12 obj/WM_SetFocusOnNextChild.o
 .comment       0x002224a2       0x12 obj/WM_SetFocusOnPrevChild.o
 .comment       0x002224b4       0x12 obj/WM_SetId.o
 .comment       0x002224c6       0x12 obj/WM_SetpfPollPID.o
 .comment       0x002224d8       0x12 obj/WM_SetScrollbar.o
 .comment       0x002224ea       0x12 obj/WM_SetScrollState.o
 .comment       0x002224fc       0x12 obj/WM_SetSize.o
 .comment       0x0022250e       0x12 obj/WM_SetTrans.o
 .comment       0x00222520       0x12 obj/WM_SetTransState.o
 .comment       0x00222532       0x12 obj/WM_SetUserClipRect.o
 .comment       0x00222544       0x12 obj/WM_SetXSize.o
 .comment       0x00222556       0x12 obj/WM_SetYSize.o
 .comment       0x00222568       0x12 obj/WM_Show.o
 .comment       0x0022257a       0x12 obj/WM_StayOnTop.o
 .comment       0x0022258c       0x12 obj/WM_Timer.o
 .comment       0x0022259e       0x12 obj/WM_TimerExternal.o
 .comment       0x002225b0       0x12 obj/WM_UserData.o
 .comment       0x002225c2       0x12 obj/WM_Validate.o
 .comment       0x002225d4       0x12 obj/WM_ValidateWindow.o
 .comment       0x002225e6       0x12 obj/WM__ForEachDesc.o
 .comment       0x002225f8       0x12 obj/WM__GetFirstSibling.o
 .comment       0x0022260a       0x12 obj/WM__GetFocussedChild.o
 .comment       0x0022261c       0x12 obj/WM__GetLastSibling.o
 .comment       0x0022262e       0x12 obj/WM__GetOrg_AA.o
 .comment       0x00222640       0x12 obj/WM__GetPrevSibling.o
 .comment       0x00222652       0x12 obj/WM__IsAncestor.o
 .comment       0x00222664       0x12 obj/WM__IsChild.o
 .comment       0x00222676       0x12 obj/WM__IsEnabled.o
 .comment       0x00222688       0x12 obj/WM__NotifyVisChanged.o
 .comment       0x0022269a       0x12 obj/WM__Screen2Client.o
 .comment       0x002226ac       0x12 obj/WM__SendMessage.o
 .comment       0x002226be       0x12 obj/WM__SendMessageIfEnabled.o
 .comment       0x002226d0       0x12 obj/WM__SendMessageNoPara.o
 .comment       0x002226e2       0x12 obj/WM__UpdateChildPositions.o
 .comment       0x002226f4       0x12 obj/dialog_all.o
 .comment       0x00222706       0x12 obj/GUI_X_Touch.o
 .comment       0x00222718       0x12 obj/GUI_X_uCOS.o
 .comment       0x0022272a       0x12 obj/l32_screen.o
 .comment       0x0022273c       0x12 obj/syscall.o
 .comment       0x0022274e       0x12 obj/uart.o
 .comment       0x00222760       0x12 obj/main.o
 .comment       0x00222772       0x12 obj/hooks.o
 .comment       0x00222784       0x12 obj/BSP.o
 .comment       0x00222796       0x12 obj/led.o
 .comment       0x002227a8       0x12 obj/app.o
 .comment       0x002227ba       0x12 obj/os_core.o
 .comment       0x002227cc       0x12 obj/os_q.o
 .comment       0x002227de       0x12 obj/os_flag.o
 .comment       0x002227f0       0x12 obj/os_sem.o
 .comment       0x00222802       0x12 obj/os_tmr.o
 .comment       0x00222814       0x12 obj/os_task.o
 .comment       0x00222826       0x12 obj/os_time.o
 .comment       0x00222838       0x12 obj/os_mbox.o
 .comment       0x0022284a       0x12 obj/os_mem.o
 .comment       0x0022285c       0x12 obj/os_mutex.o
 .comment       0x0022286e       0x12 obj/os_cpu_c.o
 .comment       0x00222880       0x12 /home/jialiang/logic32-elf/lib/gcc/logic32-elf/3.4.2/../../../../logic32-elf/lib/libc.a(memcpy.o)
 .comment       0x00222892       0x12 /home/jialiang/logic32-elf/lib/gcc/logic32-elf/3.4.2/../../../../logic32-elf/lib/libc.a(memmove.o)
 .comment       0x002228a4       0x12 /home/jialiang/logic32-elf/lib/gcc/logic32-elf/3.4.2/../../../../logic32-elf/lib/libc.a(strlen.o)
 .comment       0x002228b6       0x12 /home/jialiang/logic32-elf/lib/gcc/logic32-elf/3.4.2/../../../../logic32-elf/lib/libc.a(memset.o)
 .comment       0x002228c8       0x12 /home/jialiang/logic32-elf/lib/gcc/logic32-elf/3.4.2/../../../../logic32-elf/lib/libc.a(memcmp.o)
 .comment       0x002228da       0x12 /home/jialiang/logic32-elf/lib/gcc/logic32-elf/3.4.2/../../../../logic32-elf/lib/libc.a(strcpy.o)
 .comment       0x002228ec       0x12 /home/jialiang/logic32-elf/lib/gcc/logic32-elf/3.4.2/../../../../logic32-elf/lib/libc.a(strncpy.o)
 .comment       0x002228fe       0x12 /home/jialiang/logic32-elf/lib/gcc/logic32-elf/3.4.2/../../../../logic32-elf/lib/libc.a(printf.o)
 .comment       0x00222910       0x12 /home/jialiang/logic32-elf/lib/gcc/logic32-elf/3.4.2/../../../../logic32-elf/lib/libc.a(puts.o)
 .comment       0x00222922       0x12 /home/jialiang/logic32-elf/lib/gcc/logic32-elf/3.4.2/../../../../logic32-elf/lib/libc.a(vfprintf.o)
 .comment       0x00222934       0x12 /home/jialiang/logic32-elf/lib/gcc/logic32-elf/3.4.2/../../../../logic32-elf/lib/libc.a(impure.o)
 .comment       0x00222946       0x12 /home/jialiang/logic32-elf/lib/gcc/logic32-elf/3.4.2/../../../../logic32-elf/lib/libc.a(fvwrite.o)
 .comment       0x00222958       0x12 /home/jialiang/logic32-elf/lib/gcc/logic32-elf/3.4.2/../../../../logic32-elf/lib/libc.a(locale.o)
 .comment       0x0022296a       0x12 /home/jialiang/logic32-elf/lib/gcc/logic32-elf/3.4.2/../../../../logic32-elf/lib/libc.a(wsetup.o)
 .comment       0x0022297c       0x12 /home/jialiang/logic32-elf/lib/gcc/logic32-elf/3.4.2/../../../../logic32-elf/lib/libc.a(malloc.o)
 .comment       0x0022298e       0x12 /home/jialiang/logic32-elf/lib/gcc/logic32-elf/3.4.2/../../../../logic32-elf/lib/libc.a(s_isinf.o)
 .comment       0x002229a0       0x12 /home/jialiang/logic32-elf/lib/gcc/logic32-elf/3.4.2/../../../../logic32-elf/lib/libc.a(wcrtomb.o)
 .comment       0x002229b2       0x12 /home/jialiang/logic32-elf/lib/gcc/logic32-elf/3.4.2/../../../../logic32-elf/lib/libc.a(mallocr.o)
 .comment       0x002229c4       0x12 /home/jialiang/logic32-elf/lib/gcc/logic32-elf/3.4.2/../../../../logic32-elf/lib/libc.a(wcsrtombs.o)
 .comment       0x002229d6       0x12 /home/jialiang/logic32-elf/lib/gcc/logic32-elf/3.4.2/../../../../logic32-elf/lib/libc.a(memchr.o)
 .comment       0x002229e8       0x12 /home/jialiang/logic32-elf/lib/gcc/logic32-elf/3.4.2/../../../../logic32-elf/lib/libc.a(s_isnan.o)
 .comment       0x002229fa       0x12 /home/jialiang/logic32-elf/lib/gcc/logic32-elf/3.4.2/../../../../logic32-elf/lib/libc.a(fflush.o)
 .comment       0x00222a0c       0x12 /home/jialiang/logic32-elf/lib/gcc/logic32-elf/3.4.2/../../../../logic32-elf/lib/libc.a(findfp.o)
 .comment       0x00222a1e       0x12 /home/jialiang/logic32-elf/lib/gcc/logic32-elf/3.4.2/../../../../logic32-elf/lib/libc.a(dtoa.o)
 .comment       0x00222a30       0x12 /home/jialiang/logic32-elf/lib/gcc/logic32-elf/3.4.2/../../../../logic32-elf/lib/libc.a(reallocr.o)
 .comment       0x00222a42       0x12 /home/jialiang/logic32-elf/lib/gcc/logic32-elf/3.4.2/../../../../logic32-elf/lib/libc.a(strcmp.o)
 .comment       0x00222a54       0x12 /home/jialiang/logic32-elf/lib/gcc/logic32-elf/3.4.2/../../../../logic32-elf/lib/libc.a(freer.o)
 .comment       0x00222a66       0x12 /home/jialiang/logic32-elf/lib/gcc/logic32-elf/3.4.2/../../../../logic32-elf/lib/libc.a(makebuf.o)
 .comment       0x00222a78       0x12 /home/jialiang/logic32-elf/lib/gcc/logic32-elf/3.4.2/../../../../logic32-elf/lib/libc.a(wctomb_r.o)
 .comment       0x00222a8a       0x12 /home/jialiang/logic32-elf/lib/gcc/logic32-elf/3.4.2/../../../../logic32-elf/lib/libc.a(mlock.o)
 .comment       0x00222a9c       0x12 /home/jialiang/logic32-elf/lib/gcc/logic32-elf/3.4.2/../../../../logic32-elf/lib/libc.a(sbrkr.o)
 .comment       0x00222aae       0x12 /home/jialiang/logic32-elf/lib/gcc/logic32-elf/3.4.2/../../../../logic32-elf/lib/libc.a(fwalk.o)
 .comment       0x00222ac0       0x12 /home/jialiang/logic32-elf/lib/gcc/logic32-elf/3.4.2/../../../../logic32-elf/lib/libc.a(stdio.o)
 .comment       0x00222ad2       0x12 /home/jialiang/logic32-elf/lib/gcc/logic32-elf/3.4.2/../../../../logic32-elf/lib/libc.a(mprec.o)
 .comment       0x00222ae4       0x12 /home/jialiang/logic32-elf/lib/gcc/logic32-elf/3.4.2/../../../../logic32-elf/lib/libc.a(fstatr.o)
 .comment       0x00222af6       0x12 /home/jialiang/logic32-elf/lib/gcc/logic32-elf/3.4.2/../../../../logic32-elf/lib/libc.a(readr.o)
 .comment       0x00222b08       0x12 /home/jialiang/logic32-elf/lib/gcc/logic32-elf/3.4.2/../../../../logic32-elf/lib/libc.a(lseekr.o)
 .comment       0x00222b1a       0x12 /home/jialiang/logic32-elf/lib/gcc/logic32-elf/3.4.2/../../../../logic32-elf/lib/libc.a(writer.o)
 .comment       0x00222b2c       0x12 /home/jialiang/logic32-elf/lib/gcc/logic32-elf/3.4.2/../../../../logic32-elf/lib/libc.a(closer.o)
 .comment       0x00222b3e       0x12 /home/jialiang/logic32-elf/lib/gcc/logic32-elf/3.4.2/../../../../logic32-elf/lib/libc.a(callocr.o)
 .comment       0x00222b50       0x12 /home/jialiang/logic32-elf/lib/gcc/logic32-elf/3.4.2/../../../../logic32-elf/lib/libm.a(s_sin.o)
 .comment       0x00222b62       0x12 /home/jialiang/logic32-elf/lib/gcc/logic32-elf/3.4.2/../../../../logic32-elf/lib/libm.a(s_cos.o)
 .comment       0x00222b74       0x12 /home/jialiang/logic32-elf/lib/gcc/logic32-elf/3.4.2/../../../../logic32-elf/lib/libm.a(s_ceil.o)
 .comment       0x00222b86       0x12 /home/jialiang/logic32-elf/lib/gcc/logic32-elf/3.4.2/../../../../logic32-elf/lib/libm.a(s_floor.o)
 .comment       0x00222b98       0x12 /home/jialiang/logic32-elf/lib/gcc/logic32-elf/3.4.2/../../../../logic32-elf/lib/libm.a(w_sqrt.o)
 .comment       0x00222baa       0x12 /home/jialiang/logic32-elf/lib/gcc/logic32-elf/3.4.2/../../../../logic32-elf/lib/libm.a(e_rem_pio2.o)
 .comment       0x00222bbc       0x12 /home/jialiang/logic32-elf/lib/gcc/logic32-elf/3.4.2/../../../../logic32-elf/lib/libm.a(k_cos.o)
 .comment       0x00222bce       0x12 /home/jialiang/logic32-elf/lib/gcc/logic32-elf/3.4.2/../../../../logic32-elf/lib/libm.a(k_sin.o)
 .comment       0x00222be0       0x12 /home/jialiang/logic32-elf/lib/gcc/logic32-elf/3.4.2/../../../../logic32-elf/lib/libm.a(e_sqrt.o)
 .comment       0x00222bf2       0x12 /home/jialiang/logic32-elf/lib/gcc/logic32-elf/3.4.2/../../../../logic32-elf/lib/libm.a(s_lib_ver.o)
 .comment       0x00222c04       0x12 /home/jialiang/logic32-elf/lib/gcc/logic32-elf/3.4.2/../../../../logic32-elf/lib/libm.a(s_matherr.o)
 .comment       0x00222c16       0x12 /home/jialiang/logic32-elf/lib/gcc/logic32-elf/3.4.2/../../../../logic32-elf/lib/libm.a(k_rem_pio2.o)
 .comment       0x00222c28       0x12 /home/jialiang/logic32-elf/lib/gcc/logic32-elf/3.4.2/../../../../logic32-elf/lib/libm.a(s_fabs.o)
 .comment       0x00222c3a       0x12 /home/jialiang/logic32-elf/lib/gcc/logic32-elf/3.4.2/../../../../logic32-elf/lib/libm.a(s_scalbn.o)
 .comment       0x00222c4c       0x12 /home/jialiang/logic32-elf/lib/gcc/logic32-elf/3.4.2/../../../../logic32-elf/lib/libm.a(s_copysign.o)
 .comment       0x00222c5e       0x12 /home/jialiang/logic32-elf/lib/gcc/logic32-elf/3.4.2/libgcc.a(_si_to_df.o)
 .comment       0x00222c70       0x12 /home/jialiang/logic32-elf/lib/gcc/logic32-elf/3.4.2/libgcc.a(_addsub_df.o)
 .comment       0x00222c82       0x12 /home/jialiang/logic32-elf/lib/gcc/logic32-elf/3.4.2/libgcc.a(_mul_df.o)
 .comment       0x00222c94       0x12 /home/jialiang/logic32-elf/lib/gcc/logic32-elf/3.4.2/libgcc.a(_df_to_sf.o)
 .comment       0x00222ca6       0x12 /home/jialiang/logic32-elf/lib/gcc/logic32-elf/3.4.2/libgcc.a(_div_df.o)
 .comment       0x00222cb8       0x12 /home/jialiang/logic32-elf/lib/gcc/logic32-elf/3.4.2/libgcc.a(_sf_to_df.o)
 .comment       0x00222cca       0x12 /home/jialiang/logic32-elf/lib/gcc/logic32-elf/3.4.2/libgcc.a(_mul_sf.o)
 .comment       0x00222cdc       0x12 /home/jialiang/logic32-elf/lib/gcc/logic32-elf/3.4.2/libgcc.a(_fixunssfsi.o)
 .comment       0x00222cee       0x12 /home/jialiang/logic32-elf/lib/gcc/logic32-elf/3.4.2/libgcc.a(_df_to_si.o)
 .comment       0x00222d00       0x12 /home/jialiang/logic32-elf/lib/gcc/logic32-elf/3.4.2/libgcc.a(_si_to_sf.o)
 .comment       0x00222d12       0x12 /home/jialiang/logic32-elf/lib/gcc/logic32-elf/3.4.2/libgcc.a(_lt_sf.o)
 .comment       0x00222d24       0x12 /home/jialiang/logic32-elf/lib/gcc/logic32-elf/3.4.2/libgcc.a(_eq_sf.o)
 .comment       0x00222d36       0x12 /home/jialiang/logic32-elf/lib/gcc/logic32-elf/3.4.2/libgcc.a(_addsub_sf.o)
 .comment       0x00222d48       0x12 /home/jialiang/logic32-elf/lib/gcc/logic32-elf/3.4.2/libgcc.a(_div_sf.o)
 .comment       0x00222d5a       0x12 /home/jialiang/logic32-elf/lib/gcc/logic32-elf/3.4.2/libgcc.a(_sf_to_si.o)
 .comment       0x00222d6c       0x12 /home/jialiang/logic32-elf/lib/gcc/logic32-elf/3.4.2/libgcc.a(_gt_sf.o)
 .comment       0x00222d7e       0x12 /home/jialiang/logic32-elf/lib/gcc/logic32-elf/3.4.2/libgcc.a(_ge_sf.o)
 .comment       0x00222d90       0x12 /home/jialiang/logic32-elf/lib/gcc/logic32-elf/3.4.2/libgcc.a(_lt_df.o)
 .comment       0x00222da2       0x12 /home/jialiang/logic32-elf/lib/gcc/logic32-elf/3.4.2/libgcc.a(_ne_df.o)
 .comment       0x00222db4       0x12 /home/jialiang/logic32-elf/lib/gcc/logic32-elf/3.4.2/libgcc.a(_eq_df.o)
 .comment       0x00222dc6       0x12 /home/jialiang/logic32-elf/lib/gcc/logic32-elf/3.4.2/libgcc.a(_gt_df.o)
 .comment       0x00222dd8       0x12 /home/jialiang/logic32-elf/lib/gcc/logic32-elf/3.4.2/libgcc.a(_ge_df.o)
 .comment       0x00222dea       0x12 /home/jialiang/logic32-elf/lib/gcc/logic32-elf/3.4.2/libgcc.a(_pack_df.o)
 .comment       0x00222dfc       0x12 /home/jialiang/logic32-elf/lib/gcc/logic32-elf/3.4.2/libgcc.a(_negdi2.o)
 .comment       0x00222e0e       0x12 /home/jialiang/logic32-elf/lib/gcc/logic32-elf/3.4.2/libgcc.a(_thenan_df.o)
 .comment       0x00222e20       0x12 /home/jialiang/logic32-elf/lib/gcc/logic32-elf/3.4.2/libgcc.a(_unpack_df.o)
 .comment       0x00222e32       0x12 /home/jialiang/logic32-elf/lib/gcc/logic32-elf/3.4.2/libgcc.a(_muldi3.o)
 .comment       0x00222e44       0x12 /home/jialiang/logic32-elf/lib/gcc/logic32-elf/3.4.2/libgcc.a(_make_sf.o)
 .comment       0x00222e56       0x12 /home/jialiang/logic32-elf/lib/gcc/logic32-elf/3.4.2/libgcc.a(_unpack_sf.o)
 .comment       0x00222e68       0x12 /home/jialiang/logic32-elf/lib/gcc/logic32-elf/3.4.2/libgcc.a(_make_df.o)
 .comment       0x00222e7a       0x12 /home/jialiang/logic32-elf/lib/gcc/logic32-elf/3.4.2/libgcc.a(_pack_sf.o)
 .comment       0x00222e8c       0x12 /home/jialiang/logic32-elf/lib/gcc/logic32-elf/3.4.2/libgcc.a(_thenan_sf.o)
 .comment       0x00222e9e       0x12 /home/jialiang/logic32-elf/lib/gcc/logic32-elf/3.4.2/libgcc.a(_lshrdi3.o)
 .comment       0x00222eb0       0x12 /home/jialiang/logic32-elf/lib/gcc/logic32-elf/3.4.2/libgcc.a(_fpcmp_parts_sf.o)
 .comment       0x00222ec2       0x12 /home/jialiang/logic32-elf/lib/gcc/logic32-elf/3.4.2/libgcc.a(_fpcmp_parts_df.o)
 .comment       0x00222ed4       0x12 /home/jialiang/logic32-elf/lib/gcc/logic32-elf/3.4.2/libgcc.a(_ashldi3.o)

.rodata         0x00222ef0    0x2d2a0
 .rodata        0x00222ef0        0x8 obj/GUIAAChar.o
 *fill*         0x00222ef8        0x8 00
 .rodata        0x00222f00       0x10 obj/GUIAAChar2.o
 .rodata        0x00222f10        0xc obj/LCDP8666.o
                0x00222f10                LCD_API_ColorConv_8666
 *fill*         0x00222f1c        0x4 00
 .rodata        0x00222f20        0xc obj/LCDP2.o
                0x00222f20                LCD_API_ColorConv_2
 *fill*         0x00222f2c        0x4 00
 .rodata        0x00222f30        0xc obj/LCDP4.o
                0x00222f30                LCD_API_ColorConv_4
 .rodata        0x00222f3c       0x46 obj/GUI2DLib.o
                0x00222f3c                aTan
 *fill*         0x00222f82        0xe 00
 .rodata        0x00222f90        0x8 obj/GUICore.o
 *fill*         0x00222f98        0x8 00
 .rodata        0x00222fa0        0xc obj/GUIEncJS.o
                0x00222fa0                GUI_ENC_APIList_SJIS
 *fill*         0x00222fac        0x4 00
 .rodata        0x00222fb0       0x28 obj/GUI_AddDecShift.o
                0x00222fb0                GUI_Pow10
 .rodata        0x00222fd8       0x10 obj/GUI_AddHex.o
 *fill*         0x00222fe8        0x8 00
 .rodata        0x00222ff0       0x64 obj/GUI_BMP.o
 *fill*         0x00223054        0xc 00
 .rodata        0x00223060       0x24 obj/GUI_CursorArrowL.o
                0x00223070                GUI_BitmapArrowL
                0x00223060                GUI_CursorArrowL
 *fill*         0x00223084        0xc 00
 .rodata        0x00223090       0x24 obj/GUI_CursorArrowLI.o
                0x00223090                GUI_CursorArrowLI
                0x002230a0                GUI_BitmapArrowLI
 .rodata        0x002230b4       0x96 obj/GUI_CursorArrowLPx.o
                0x002230b4                GUI_Pixels_ArrowL
 *fill*         0x0022314a        0x6 00
 .rodata        0x00223150       0x24 obj/GUI_CursorArrowM.o
                0x00223150                GUI_CursorArrowM
                0x00223160                GUI_BitmapArrowM
 *fill*         0x00223174        0xc 00
 .rodata        0x00223180       0x24 obj/GUI_CursorArrowMI.o
                0x00223190                GUI_BitmapArrowMI
                0x00223180                GUI_CursorArrowMI
 .rodata        0x002231a4       0x3c obj/GUI_CursorArrowMPx.o
                0x002231a4                GUI_Pixels_ArrowM
 .rodata        0x002231e0       0x24 obj/GUI_CursorArrowS.o
                0x002231e0                GUI_CursorArrowS
                0x002231f0                GUI_BitmapArrowS
 *fill*         0x00223204        0xc 00
 .rodata        0x00223210       0x24 obj/GUI_CursorArrowSI.o
                0x00223210                GUI_CursorArrowSI
                0x00223220                GUI_BitmapArrowSI
 .rodata        0x00223234       0x2d obj/GUI_CursorArrowSPx.o
                0x00223234                GUI_Pixels_ArrowS
 *fill*         0x00223261        0xf 00
 .rodata        0x00223270       0x24 obj/GUI_CursorCrossL.o
                0x00223270                GUI_CursorCrossL
                0x00223280                GUI_BitmapCrossL
 *fill*         0x00223294        0xc 00
 .rodata        0x002232a0       0x24 obj/GUI_CursorCrossLI.o
                0x002232a0                GUI_CursorCrossLI
                0x002232b0                GUI_BitmapCrossLI
 .rodata        0x002232c4       0xf8 obj/GUI_CursorCrossLPx.o
                0x002232c4                GUI_Pixels_CrossL
 *fill*         0x002233bc        0x4 00
 .rodata        0x002233c0       0x24 obj/GUI_CursorCrossM.o
                0x002233c0                GUI_CursorCrossM
                0x002233d0                GUI_BitmapCrossM
 *fill*         0x002233e4        0xc 00
 .rodata        0x002233f0       0x24 obj/GUI_CursorCrossMI.o
                0x002233f0                GUI_CursorCrossMI
                0x00223400                GUI_BitmapCrossMI
 .rodata        0x00223414       0x7e obj/GUI_CursorCrossMPx.o
                0x00223414                GUI_Pixels_CrossM
 *fill*         0x00223492        0xe 00
 .rodata        0x002234a0       0x24 obj/GUI_CursorCrossS.o
                0x002234a0                GUI_CursorCrossS
                0x002234b0                GUI_BitmapCrossS
 *fill*         0x002234c4        0xc 00
 .rodata        0x002234d0       0x24 obj/GUI_CursorCrossSI.o
                0x002234e0                GUI_BitmapCrossSI
                0x002234d0                GUI_CursorCrossSI
 .rodata        0x002234f4       0x21 obj/GUI_CursorCrossSPx.o
                0x002234f4                GUI_Pixels_CrossS
 *fill*         0x00223515        0xb 00
 .rodata        0x00223520       0x24 obj/GUI_CursorHeaderM.o
                0x00223520                GUI_CursorHeaderM
 *fill*         0x00223544        0xc 00
 .rodata        0x00223550       0x24 obj/GUI_CursorHeaderMI.o
                0x00223550                GUI_CursorHeaderMI
 .rodata        0x00223574       0x55 obj/GUI_CursorHeaderMPx.o
                0x00223574                GUI_PixelsHeaderM
 *fill*         0x002235c9        0x7 00
 .rodata        0x002235d0       0x1c obj/GUI_CursorPal.o
                0x002235d0                GUI_CursorPal
 *fill*         0x002235ec        0x4 00
 .rodata        0x002235f0       0x1c obj/GUI_CursorPalI.o
                0x002235f0                GUI_CursorPalI
 *fill*         0x0022360c        0x4 00
 .rodata        0x00223610       0x44 obj/GUI_GetBitmapPixelIndex.o
 *fill*         0x00223654        0xc 00
 .rodata        0x00223660        0x8 obj/GUI_SetLUTColorEx.o
 *fill*         0x00223668        0x8 00
 .rodata        0x00223670       0x10 obj/GUI_SIF_Prop.o
                0x00223670                GUI_SIF_APIList_Prop
 .rodata        0x00223680       0x10 obj/GUI_UC_EncodeNone.o
                0x00223680                GUI__API_TableNone
 .rodata        0x00223690       0x10 obj/GUI_UC_EncodeUTF8.o
 .rodata        0x002236a0       0x44 obj/LCD.o
 *fill*         0x002236e4        0xc 00
 .rodata        0x002236f0       0x24 obj/LCDInfo.o
 *fill*         0x00223714        0xc 00
 .rodata        0x00223720        0xc obj/LCDP1.o
                0x00223720                LCD_API_ColorConv_1
 *fill*         0x0022372c        0x4 00
 .rodata        0x00223730        0x8 obj/LCDRLE4.o
                0x00223730                GUI_BitmapMethodsRLE4
 *fill*         0x00223738        0x8 00
 .rodata        0x00223740        0x8 obj/LCDRLE8.o
                0x00223740                GUI_BitmapMethodsRLE8
 *fill*         0x00223748        0x8 00
 .rodata        0x00223750       0x40 obj/LCD_API.o
                0x00223750                LCD_L0_APIList
 .rodata        0x00223790        0x8 obj/LCD_DrawBitmap_565.o
                0x00223790                GUI_BitmapMethods565
 *fill*         0x00223798        0x8 00
 .rodata        0x002237a0        0x8 obj/LCD_DrawBitmap_M565.o
                0x002237a0                GUI_BitmapMethodsM565
 .rodata        0x002237a8      0x100 obj/LCD_Mirror.o
                0x002237a8                LCD_aMirror
 *fill*         0x002238a8        0x8 00
 .rodata        0x002238b0      0x638 obj/F08_1.o
                0x00223ee0                acFont8_1_160
                0x00223ea0                acFont8_1_168
                0x00223e48                acFont8_1_179
                0x00223e38                acFont8_1_181
                0x00223cd8                acFont8_1_225
                0x00223d68                acFont8_1_207
                0x00223dc8                acFont8_1_195
                0x00223bf8                acFont8_1_252
                0x00223d18                acFont8_1_217
                0x00223de8                acFont8_1_191
                0x00223ce8                acFont8_1_223
                0x00223cc0                acFont8_1_228
                0x00223e70                acFont8_1_174
                0x00223cc8                acFont8_1_227
                0x00223d80                acFont8_1_204
                0x00223ca0                acFont8_1_231
                0x00223e28                acFont8_1_183
                0x00223e00                acFont8_1_188
                0x00223ec0                acFont8_1_164
                0x00223db0                acFont8_1_198
                0x00223d48                acFont8_1_211
                0x00223c80                acFont8_1_235
                0x002238d0                GUI_Font8_1_Prop
                0x00223d88                acFont8_1_203
                0x00223d58                acFont8_1_209
                0x00223c28                acFont8_1_246
                0x00223c88                acFont8_1_234
                0x00223ea8                acFont8_1_167
                0x00223ce0                acFont8_1_224
                0x00223c68                acFont8_1_238
                0x00223e50                acFont8_1_178
                0x00223d38                acFont8_1_213
                0x00223c98                acFont8_1_232
                0x00223dd8                acFont8_1_193
                0x00223ed0                acFont8_1_162
                0x00223eb0                acFont8_1_166
                0x00223d70                acFont8_1_206
                0x00223d40                acFont8_1_212
                0x00223dc0                acFont8_1_196
                0x00223de0                acFont8_1_192
                0x00223e90                acFont8_1_170
                0x00223c60                acFont8_1_239
                0x00223e20                acFont8_1_184
                0x00223d90                acFont8_1_202
                0x00223c48                acFont8_1_242
                0x00223c00                acFont8_1_251
                0x00223be0                acFont8_1_255
                0x00223d20                acFont8_1_216
                0x00223ec8                acFont8_1_163
                0x00223d30                acFont8_1_214
                0x00223db8                acFont8_1_197
                0x00223c78                acFont8_1_236
                0x00223da8                acFont8_1_199
                0x00223df0                acFont8_1_190
                0x00223c58                acFont8_1_240
                0x00223e58                acFont8_1_177
                0x00223e78                acFont8_1_173
                0x00223c10                acFont8_1_249
                0x00223ca8                acFont8_1_230
                0x00223d00                acFont8_1_220
                0x00223d50                acFont8_1_210
                0x002238b0                GUI_Font8_1
                0x00223cd0                acFont8_1_226
                0x00223e40                acFont8_1_180
                0x00223df8                acFont8_1_189
                0x00223c20                acFont8_1_247
                0x00223d78                acFont8_1_205
                0x00223be8                acFont8_1_254
                0x00223d08                acFont8_1_219
                0x00223da0                acFont8_1_200
                0x00223bf0                acFont8_1_253
                0x00223d10                acFont8_1_218
                0x00223eb8                acFont8_1_165
                0x00223e88                acFont8_1_171
                0x00223e98                acFont8_1_169
                0x00223cf0                acFont8_1_222
                0x00223c08                acFont8_1_250
                0x00223d28                acFont8_1_215
                0x00223d60                acFont8_1_208
                0x00223dd0                acFont8_1_194
                0x00223e08                acFont8_1_187
                0x00223c38                acFont8_1_244
                0x00223cf8                acFont8_1_221
                0x00223e18                acFont8_1_185
                0x00223ed8                acFont8_1_161
                0x00223e60                acFont8_1_176
                0x00223c40                acFont8_1_243
                0x00223c18                acFont8_1_248
                0x002238e0                Font8_1_CharInfo
                0x00223c90                acFont8_1_233
                0x00223e80                acFont8_1_172
                0x00223c70                acFont8_1_237
                0x00223cb8                acFont8_1_229
                0x00223d98                acFont8_1_201
                0x00223e30                acFont8_1_182
                0x00223c50                acFont8_1_241
                0x00223e68                acFont8_1_175
                0x00223c30                acFont8_1_245
                0x00223e10                acFont8_1_186
 *fill*         0x00223ee8        0x8 00
 .rodata        0x00223ef0      0x620 obj/F08_ASCII.o
                0x00223f10                GUI_Font8ASCII_Prop
                0x00223f20                GUI_Font8_ASCII_CharInfo
                0x00224218                acFont8ASCII
                0x00223ef0                GUI_Font8_ASCII
 .rodata        0x00224510      0x6f0 obj/F10S_1.o
                0x0022498a                acFont10S_1_222
                0x00224b1a                acFont10S_1_182
                0x00224a02                acFont10S_1_210
                0x00224ae8                acFont10S_1_187
                0x00224908                acFont10S_1_235
                0x00224912                acFont10S_1_234
                0x00224530                Font10S_1_FontProp1
                0x00224b7e                acFont10S_1_172
                0x00224930                acFont10S_1_231
                0x00224980                acFont10S_1_223
                0x00224b56                acFont10S_1_176
                0x00224b4c                acFont10S_1_177
                0x002248cc                acFont10S_1_241
                0x00224a48                acFont10S_1_203
                0x0022489a                acFont10S_1_246
                0x00224b74                acFont10S_1_173
                0x002249d0                acFont10S_1_215
                0x00224b24                acFont10S_1_181
                0x00224a2a                acFont10S_1_206
                0x00224a66                acFont10S_1_200
                0x0022487c                acFont10S_1_249
                0x00224a70                acFont10S_1_199
                0x00224b9c                acFont10S_1_169
                0x00224bf6                acFont10S_1_160
                0x00224976                acFont10S_1_224
                0x002248fe                acFont10S_1_236
                0x00224b38                acFont10S_1_179
                0x0022485e                acFont10S_1_252
                0x00224b60                acFont10S_1_175
                0x00224aca                acFont10S_1_190
                0x00224a98                acFont10S_1_195
                0x0022493a                acFont10S_1_230
                0x0022496c                acFont10S_1_225
                0x0022499e                acFont10S_1_220
                0x00224bd8                acFont10S_1_163
                0x0022494e                acFont10S_1_228
                0x00224540                Font10S_1_CharInfo
                0x00224b2e                acFont10S_1_180
                0x00224510                GUI_Font10S_1
                0x0022484a                acFont10S_1_254
                0x00224a8e                acFont10S_1_196
                0x00224a52                acFont10S_1_202
                0x002249f8                acFont10S_1_211
                0x002248c2                acFont10S_1_242
                0x002249a8                acFont10S_1_219
                0x00224aac                acFont10S_1_193
                0x00224a84                acFont10S_1_197
                0x00224886                acFont10S_1_248
                0x002248b8                acFont10S_1_243
                0x002248ae                acFont10S_1_244
                0x00224bec                acFont10S_1_161
                0x002249ee                acFont10S_1_212
                0x00224944                acFont10S_1_229
                0x00224b10                acFont10S_1_183
                0x00224890                acFont10S_1_247
                0x00224926                acFont10S_1_232
                0x00224b92                acFont10S_1_170
                0x00224840                acFont10S_1_255
                0x00224b42                acFont10S_1_178
                0x00224be2                acFont10S_1_162
                0x00224962                acFont10S_1_226
                0x002249c6                acFont10S_1_216
                0x00224ab6                acFont10S_1_192
                0x00224ade                acFont10S_1_188
                0x00224994                acFont10S_1_221
                0x002248a4                acFont10S_1_245
                0x00224ba6                acFont10S_1_168
                0x00224a7a                acFont10S_1_198
                0x00224868                acFont10S_1_251
                0x002248d6                acFont10S_1_240
                0x00224bc4                acFont10S_1_165
                0x00224bba                acFont10S_1_166
                0x00224872                acFont10S_1_250
                0x00224a20                acFont10S_1_207
                0x00224a0c                acFont10S_1_209
                0x002248f4                acFont10S_1_237
                0x00224a3e                acFont10S_1_204
                0x00224b6a                acFont10S_1_174
                0x002249bc                acFont10S_1_217
                0x00224afc                acFont10S_1_185
                0x00224a34                acFont10S_1_205
                0x00224b88                acFont10S_1_171
                0x002249e4                acFont10S_1_213
                0x00224bce                acFont10S_1_164
                0x0022491c                acFont10S_1_233
                0x00224af2                acFont10S_1_186
                0x00224ad4                acFont10S_1_189
                0x00224a16                acFont10S_1_208
                0x002248e0                acFont10S_1_239
                0x00224b06                acFont10S_1_184
                0x00224854                acFont10S_1_253
                0x002249da                acFont10S_1_214
                0x00224a5c                acFont10S_1_201
                0x002249b2                acFont10S_1_218
                0x00224aa2                acFont10S_1_194
                0x002248ea                acFont10S_1_238
                0x00224bb0                acFont10S_1_167
                0x00224958                acFont10S_1_227
                0x00224ac0                acFont10S_1_191
 .rodata        0x00224c00      0x6e6 obj/F10S_ASCII.o
                0x0022525a                acFont10S_ASCII_45
                0x002250e8                acFont10S_ASCII_82
                0x002252c8                acFont10S_ASCII_34
                0x00224f62                acFont10S_ASCII_121
                0x0022511a                acFont10S_ASCII_77
                0x002251c4                acFont10S_ASCII_60
                0x00225228                acFont10S_ASCII_50
                0x00225264                acFont10S_ASCII_44
                0x002250f2                acFont10S_ASCII_81
                0x0022512e                acFont10S_ASCII_75
                0x00225188                acFont10S_ASCII_66
                0x00224f3a                acFont10S_ASCII_125
                0x0022507a                acFont10S_ASCII_93
                0x00224f9e                acFont10S_ASCII_115
                0x002251ec                acFont10S_ASCII_56
                0x002250a2                acFont10S_ASCII_89
                0x00224fc6                acFont10S_ASCII_111
                0x00225002                acFont10S_ASCII_105
                0x00224fee                acFont10S_ASCII_107
                0x0022520a                acFont10S_ASCII_53
                0x00224f30                acFont10S_ASCII_126
                0x00224fda                acFont10S_ASCII_109
                0x00225192                acFont10S_ASCII_65
                0x0022521e                acFont10S_ASCII_51
                0x00225246                acFont10S_ASCII_47
                0x002251d8                acFont10S_ASCII_58
                0x00225278                acFont10S_ASCII_42
                0x00225052                acFont10S_ASCII_97
                0x002250d4                acFont10S_ASCII_84
                0x00224f76                acFont10S_ASCII_119
                0x00225296                acFont10S_ASCII_39
                0x00224fe4                acFont10S_ASCII_108
                0x002251a6                acFont10S_ASCII_63
                0x0022502a                acFont10S_ASCII_101
                0x00225106                acFont10S_ASCII_79
                0x00225174                acFont10S_ASCII_68
                0x00225250                acFont10S_ASCII_46
                0x002250de                acFont10S_ASCII_83
                0x00225138                acFont10S_ASCII_74
                0x00224f58                acFont10S_ASCII_122
                0x00224fbc                acFont10S_ASCII_112
                0x002252b4                acFont10S_ASCII_36
                0x0022503e                acFont10S_ASCII_99
                0x0022500c                acFont10S_ASCII_104
                0x00225084                acFont10S_ASCII_92
                0x0022526e                acFont10S_ASCII_43
                0x002250fc                acFont10S_ASCII_80
                0x00225156                acFont10S_ASCII_71
                0x00225070                acFont10S_ASCII_94
                0x002251ba                acFont10S_ASCII_61
                0x00225232                acFont10S_ASCII_49
                0x00225098                acFont10S_ASCII_90
                0x00225124                acFont10S_ASCII_76
                0x002251f6                acFont10S_ASCII_55
                0x002250ac                acFont10S_ASCII_88
                0x00224f4e                acFont10S_ASCII_123
                0x002250c0                acFont10S_ASCII_86
                0x002252dc                acFont10S_ASCII_32
                0x00224c00                GUI_Font10S_ASCII
                0x00225034                acFont10S_ASCII_100
                0x00224c20                GUI_Font10S_ASCII_FontProp1
                0x00224f44                acFont10S_ASCII_124
                0x00225200                acFont10S_ASCII_54
                0x00224fa8                acFont10S_ASCII_114
                0x002252a0                acFont10S_ASCII_38
                0x00224ff8                acFont10S_ASCII_106
                0x002251b0                acFont10S_ASCII_62
                0x002252be                acFont10S_ASCII_35
                0x00225160                acFont10S_ASCII_70
                0x00225142                acFont10S_ASCII_73
                0x00224f6c                acFont10S_ASCII_120
                0x00224f94                acFont10S_ASCII_116
                0x0022516a                acFont10S_ASCII_69
                0x00224f80                acFont10S_ASCII_118
                0x00225048                acFont10S_ASCII_98
                0x00225110                acFont10S_ASCII_78
                0x00225020                acFont10S_ASCII_102
                0x002252aa                acFont10S_ASCII_37
                0x0022517e                acFont10S_ASCII_67
                0x0022528c                acFont10S_ASCII_40
                0x0022514c                acFont10S_ASCII_72
                0x00224f8a                acFont10S_ASCII_117
                0x00224c30                GUI_Font10S_ASCII_CharInfo
                0x00225066                acFont10S_ASCII_95
                0x00224fb2                acFont10S_ASCII_113
                0x0022508e                acFont10S_ASCII_91
                0x0022519c                acFont10S_ASCII_64
                0x00225214                acFont10S_ASCII_52
                0x002251ce                acFont10S_ASCII_59
                0x002251e2                acFont10S_ASCII_57
                0x002250b6                acFont10S_ASCII_87
                0x00225282                acFont10S_ASCII_41
                0x002252d2                acFont10S_ASCII_33
                0x0022505c                acFont10S_ASCII_96
                0x0022523c                acFont10S_ASCII_48
                0x00224fd0                acFont10S_ASCII_110
                0x00225016                acFont10S_ASCII_103
                0x002250ca                acFont10S_ASCII_85
 *fill*         0x002252e6        0xa 00
 .rodata        0x002252f0      0x722 obj/F10_1.o
                0x00225742                acFont10_1_227
                0x002259c2                acFont10_1_167
                0x00225792                acFont10_1_219
                0x0022562a                acFont10_1_254
                0x00225846                acFont10_1_201
                0x0022580a                acFont10_1_207
                0x0022568e                acFont10_1_244
                0x002257d8                acFont10_1_212
                0x002259fe                acFont10_1_161
                0x00225882                acFont10_1_196
                0x0022585a                acFont10_1_199
                0x00225774                acFont10_1_222
                0x002259ae                acFont10_1_169
                0x00225896                acFont10_1_194
                0x002256d4                acFont10_1_237
                0x00225710                acFont10_1_231
                0x00225878                acFont10_1_197
                0x00225968                acFont10_1_176
                0x0022599a                acFont10_1_171
                0x00225788                acFont10_1_220
                0x00225756                acFont10_1_225
                0x002256e8                acFont10_1_235
                0x0022594a                acFont10_1_179
                0x0022597c                acFont10_1_174
                0x00225828                acFont10_1_204
                0x002256ac                acFont10_1_241
                0x00225652                acFont10_1_250
                0x002257ba                acFont10_1_215
                0x002257ec                acFont10_1_210
                0x00225904                acFont10_1_186
                0x00225620                acFont10_1_255
                0x00225936                acFont10_1_181
                0x0022576a                acFont10_1_223
                0x002258aa                acFont10_1_192
                0x0022583c                acFont10_1_202
                0x00225800                acFont10_1_208
                0x00225684                acFont10_1_245
                0x0022592c                acFont10_1_182
                0x002258d2                acFont10_1_189
                0x0022579c                acFont10_1_218
                0x00225634                acFont10_1_253
                0x002258a0                acFont10_1_193
                0x00225670                acFont10_1_247
                0x002259f4                acFont10_1_162
                0x0022577e                acFont10_1_221
                0x002256ca                acFont10_1_238
                0x002256fc                acFont10_1_233
                0x00225706                acFont10_1_232
                0x00225990                acFont10_1_172
                0x00225850                acFont10_1_200
                0x002252f0                GUI_Font10_1
                0x0022590e                acFont10_1_185
                0x002259e0                acFont10_1_164
                0x0022595e                acFont10_1_177
                0x00225666                acFont10_1_248
                0x0022581e                acFont10_1_205
                0x002256a2                acFont10_1_242
                0x0022574c                acFont10_1_226
                0x002259d6                acFont10_1_165
                0x002256c0                acFont10_1_239
                0x00225a08                acFont10_1_160
                0x00225954                acFont10_1_178
                0x002257e2                acFont10_1_211
                0x00225738                acFont10_1_228
                0x00225648                acFont10_1_251
                0x002257b0                acFont10_1_216
                0x00225832                acFont10_1_203
                0x002256b6                acFont10_1_240
                0x002258fa                acFont10_1_187
                0x002259b8                acFont10_1_168
                0x00225940                acFont10_1_180
                0x002257ce                acFont10_1_213
                0x00225760                acFont10_1_224
                0x0022588c                acFont10_1_195
                0x0022572e                acFont10_1_229
                0x002258e6                acFont10_1_188
                0x00225310                Font10_1Prop1
                0x002258be                acFont10_1_190
                0x00225922                acFont10_1_183
                0x002259a4                acFont10_1_170
                0x002256f2                acFont10_1_234
                0x00225864                acFont10_1_198
                0x0022567a                acFont10_1_246
                0x002257f6                acFont10_1_209
                0x00225918                acFont10_1_184
                0x002259ea                acFont10_1_163
                0x00225986                acFont10_1_173
                0x002256de                acFont10_1_236
                0x0022571a                acFont10_1_230
                0x0022565c                acFont10_1_249
                0x00225814                acFont10_1_206
                0x00225698                acFont10_1_243
                0x00225320                Font10_1_CharInfo
                0x00225972                acFont10_1_175
                0x002259cc                acFont10_1_166
                0x002257c4                acFont10_1_214
                0x002257a6                acFont10_1_217
                0x0022563e                acFont10_1_252
                0x002258b4                acFont10_1_191
 *fill*         0x00225a12        0xe 00
 .rodata        0x00225a20      0x70e obj/F10_ASCII.o
                0x00225e18                acFont10_ASCII_107
                0x00225e5e                acFont10_ASCII_100
                0x00225e86                acFont10_ASCII_96
                0x0022605c                acFont10_ASCII_51
                0x00225dbe                acFont10_ASCII_116
                0x00225d96                acFont10_ASCII_119
                0x00225d6e                acFont10_ASCII_123
                0x00225f26                acFont10_ASCII_81
                0x00225ee0                acFont10_ASCII_87
                0x002260a2                acFont10_ASCII_44
                0x00225e4a                acFont10_ASCII_102
                0x00225dfa                acFont10_ASCII_110
                0x00225fb2                acFont10_ASCII_67
                0x00225f1c                acFont10_ASCII_82
                0x0022600c                acFont10_ASCII_59
                0x0022602a                acFont10_ASCII_56
                0x00225e04                acFont10_ASCII_109
                0x00225e68                acFont10_ASCII_99
                0x0022603e                acFont10_ASCII_54
                0x00225f94                acFont10_ASCII_70
                0x00225d8c                acFont10_ASCII_120
                0x00226110                acFont10_ASCII_34
                0x00225f44                acFont10_ASCII_78
                0x00225d5a                acFont10_ASCII_125
                0x00225dd2                acFont10_ASCII_114
                0x00225fbc                acFont10_ASCII_66
                0x00225f08                acFont10_ASCII_84
                0x002260c0                acFont10_ASCII_41
                0x00225fee                acFont10_ASCII_62
                0x00225f30                acFont10_ASCII_80
                0x00225e36                acFont10_ASCII_104
                0x00226016                acFont10_ASCII_58
                0x00226034                acFont10_ASCII_55
                0x00225e7c                acFont10_ASCII_97
                0x00226052                acFont10_ASCII_52
                0x00225fc6                acFont10_ASCII_65
                0x00225fe4                acFont10_ASCII_63
                0x00225f3a                acFont10_ASCII_79
                0x00225db4                acFont10_ASCII_117
                0x002260fc                acFont10_ASCII_36
                0x0022607a                acFont10_ASCII_48
                0x00225daa                acFont10_ASCII_118
                0x00225d78                acFont10_ASCII_122
                0x00225f12                acFont10_ASCII_83
                0x002260ca                acFont10_ASCII_40
                0x00225df0                acFont10_ASCII_111
                0x00225e2c                acFont10_ASCII_105
                0x00225e54                acFont10_ASCII_101
                0x00225f76                acFont10_ASCII_73
                0x00225f58                acFont10_ASCII_76
                0x00225d82                acFont10_ASCII_121
                0x00225ddc                acFont10_ASCII_113
                0x00226084                acFont10_ASCII_47
                0x00225ed6                acFont10_ASCII_88
                0x00226098                acFont10_ASCII_45
                0x00225fa8                acFont10_ASCII_68
                0x00225d50                acFont10_ASCII_126
                0x002260e8                acFont10_ASCII_37
                0x00225a50                GUI_Font10_ASCII_CharInfo
                0x00225f62                acFont10_ASCII_75
                0x00225efe                acFont10_ASCII_85
                0x002260b6                acFont10_ASCII_42
                0x00225e0e                acFont10_ASCII_108
                0x00225e40                acFont10_ASCII_103
                0x00225eae                acFont10_ASCII_92
                0x00225e90                acFont10_ASCII_95
                0x00226066                acFont10_ASCII_50
                0x00225e72                acFont10_ASCII_98
                0x00226048                acFont10_ASCII_53
                0x00225ea4                acFont10_ASCII_93
                0x00225ff8                acFont10_ASCII_61
                0x00225ecc                acFont10_ASCII_89
                0x0022608e                acFont10_ASCII_46
                0x00225a40                GUI_Font10ASCIIProp1
                0x00225f9e                acFont10_ASCII_69
                0x00226124                acFont10_ASCII_32
                0x00225e22                acFont10_ASCII_106
                0x00226002                acFont10_ASCII_60
                0x00226020                acFont10_ASCII_57
                0x00225a20                GUI_Font10_ASCII
                0x00225f8a                acFont10_ASCII_71
                0x002260d4                acFont10_ASCII_39
                0x00225eb8                acFont10_ASCII_91
                0x00225e9a                acFont10_ASCII_94
                0x00225dc8                acFont10_ASCII_115
                0x00225d64                acFont10_ASCII_124
                0x00225de6                acFont10_ASCII_112
                0x0022611a                acFont10_ASCII_33
                0x00225fd0                acFont10_ASCII_64
                0x00226070                acFont10_ASCII_49
                0x00225ef4                acFont10_ASCII_86
                0x002260ac                acFont10_ASCII_43
                0x00225f6c                acFont10_ASCII_74
                0x00225f4e                acFont10_ASCII_77
                0x00225f80                acFont10_ASCII_72
                0x002260de                acFont10_ASCII_38
                0x00226106                acFont10_ASCII_35
                0x00225ec2                acFont10_ASCII_90
 *fill*         0x0022612e        0x2 00
 .rodata        0x00226130      0x8ac obj/F13B_1.o
                0x0022669c                acFont13B_1_00D6
                0x00226704                acFont13B_1_00CF
                0x00226793                acFont13B_1_00C5
                0x002264a1                acFont13B_1_00FA
                0x002267ba                acFont13B_1_00C2
                0x002267e1                acFont13B_1_00BF
                0x0022647a                acFont13B_1_00FD
                0x00226849                acFont13B_1_00BA
                0x00226516                acFont13B_1_00F2
                0x002265f3                acFont13B_1_00E2
                0x00226460                acFont13B_1_00FF
                0x00226822                acFont13B_1_00BC
                0x002265b2                acFont13B_1_00E6
                0x002269c2                acFont13B_1_00A1
                0x0022658b                acFont13B_1_00E9
                0x0022699b                acFont13B_1_00A4
                0x00226752                acFont13B_1_00C9
                0x00226870                acFont13B_1_00B7
                0x0022690c                acFont13B_1_00AD
                0x00226160                GUI_Font13B_1_CharInfo
                0x00226745                acFont13B_1_00CA
                0x002265e6                acFont13B_1_00E3
                0x0022671e                acFont13B_1_00CD
                0x002264c8                acFont13B_1_00F7
                0x00226897                acFont13B_1_00B4
                0x0022661a                acFont13B_1_00DF
                0x00226641                acFont13B_1_00DC
                0x002266dd                acFont13B_1_00D1
                0x00226675                acFont13B_1_00D8
                0x002267a0                acFont13B_1_00C4
                0x0022676c                acFont13B_1_00C7
                0x00226981                acFont13B_1_00A6
                0x00226557                acFont13B_1_00ED
                0x0022694d                acFont13B_1_00A9
                0x002264fc                acFont13B_1_00F4
                0x002268be                acFont13B_1_00B1
                0x00226856                acFont13B_1_00B9
                0x002267c7                acFont13B_1_00C1
                0x00226808                acFont13B_1_00BD
                0x00226130                GUI_Font13B_1
                0x00226494                acFont13B_1_00FB
                0x00226523                acFont13B_1_00F1
                0x002265cc                acFont13B_1_00E5
                0x002269cf                acFont13B_1_00A0
                0x00226600                acFont13B_1_00E1
                0x002264ae                acFont13B_1_00F9
                0x0022687d                acFont13B_1_00B6
                0x002266a9                acFont13B_1_00D5
                0x00226933                acFont13B_1_00AB
                0x0022657e                acFont13B_1_00EA
                0x002268e5                acFont13B_1_00AF
                0x002266c3                acFont13B_1_00D3
                0x002268f2                acFont13B_1_00AE
                0x00226738                acFont13B_1_00CB
                0x00226598                acFont13B_1_00E8
                0x002269a8                acFont13B_1_00A3
                0x00226634                acFont13B_1_00DD
                0x0022665b                acFont13B_1_00DA
                0x002266ea                acFont13B_1_00D0
                0x002267ad                acFont13B_1_00C3
                0x0022654a                acFont13B_1_00EE
                0x002264e2                acFont13B_1_00F6
                0x002268a4                acFont13B_1_00B3
                0x00226711                acFont13B_1_00CE
                0x00226974                acFont13B_1_00A7
                0x00226509                acFont13B_1_00F3
                0x002268d8                acFont13B_1_00B0
                0x00226682                acFont13B_1_00D7
                0x00226863                acFont13B_1_00B8
                0x00226487                acFont13B_1_00FC
                0x00226779                acFont13B_1_00C6
                0x0022646d                acFont13B_1_00FE
                0x0022683c                acFont13B_1_00BB
                0x002266b6                acFont13B_1_00D4
                0x002267ee                acFont13B_1_00BE
                0x0022698e                acFont13B_1_00A5
                0x00226150                GUI_Font13B_1_Prop1
                0x0022672b                acFont13B_1_00CC
                0x002266d0                acFont13B_1_00D2
                0x00226919                acFont13B_1_00AC
                0x00226571                acFont13B_1_00EB
                0x00226530                acFont13B_1_00F0
                0x002265d9                acFont13B_1_00E4
                0x0022660d                acFont13B_1_00E0
                0x002265a5                acFont13B_1_00E7
                0x002269b5                acFont13B_1_00A2
                0x002264bb                acFont13B_1_00F8
                0x0022688a                acFont13B_1_00B5
                0x0022664e                acFont13B_1_00DB
                0x00226627                acFont13B_1_00DE
                0x002267d4                acFont13B_1_00C0
                0x00226668                acFont13B_1_00D9
                0x00226564                acFont13B_1_00EC
                0x002264ef                acFont13B_1_00F5
                0x002268b1                acFont13B_1_00B2
                0x00226967                acFont13B_1_00A8
                0x0022675f                acFont13B_1_00C8
                0x0022653d                acFont13B_1_00EF
                0x00226940                acFont13B_1_00AA
 *fill*         0x002269dc        0x4 00
 .rodata        0x002269e0      0x8b1 obj/F13B_ASCII.o
                0x00226d2f                acFont13B_ASCII_007C
                0x002271c1                acFont13B_ASCII_002B
                0x0022706f                acFont13B_ASCII_0041
                0x00226e67                acFont13B_ASCII_0066
                0x00226e74                acFont13B_ASCII_0065
                0x002271e8                acFont13B_ASCII_0029
                0x002271f5                acFont13B_ASCII_0028
                0x00226d22                acFont13B_ASCII_007D
                0x00227277                acFont13B_ASCII_0021
                0x00227132                acFont13B_ASCII_0036
                0x00227014                acFont13B_ASCII_0048
                0x00226de5                acFont13B_ASCII_006F
                0x00226fac                acFont13B_ASCII_004F
                0x00226dcb                acFont13B_ASCII_0071
                0x002270bd                acFont13B_ASCII_003D
                0x00227173                acFont13B_ASCII_0031
                0x00226dbe                acFont13B_ASCII_0072
                0x0022710b                acFont13B_ASCII_0039
                0x00226d56                acFont13B_ASCII_0079
                0x00226a00                GUI_Font13B_ASCII_Prop1
                0x00227096                acFont13B_ASCII_003F
                0x002270fe                acFont13B_ASCII_003A
                0x00226fe0                acFont13B_ASCII_004C
                0x0022703b                acFont13B_ASCII_0045
                0x00226e26                acFont13B_ASCII_006B
                0x0022719a                acFont13B_ASCII_002E
                0x00226d97                acFont13B_ASCII_0075
                0x00226e9b                acFont13B_ASCII_0062
                0x00227229                acFont13B_ASCII_0025
                0x00226f2a                acFont13B_ASCII_0058
                0x00226f85                acFont13B_ASCII_0052
                0x00226ec2                acFont13B_ASCII_005F
                0x00226f78                acFont13B_ASCII_0053
                0x0022702e                acFont13B_ASCII_0046
                0x00226ef6                acFont13B_ASCII_005C
                0x00226df2                acFont13B_ASCII_006E
                0x00226e5a                acFont13B_ASCII_0067
                0x00226d3c                acFont13B_ASCII_007B
                0x00227007                acFont13B_ASCII_0049
                0x0022707c                acFont13B_ASCII_0040
                0x00227159                acFont13B_ASCII_0033
                0x00227166                acFont13B_ASCII_0032
                0x00226db1                acFont13B_ASCII_0073
                0x00227180                acFont13B_ASCII_0030
                0x00226a10                GUI_Font13B_ASCII_CharInfo
                0x002271b4                acFont13B_ASCII_002C
                0x002270d7                acFont13B_ASCII_003C
                0x00227125                acFont13B_ASCII_0037
                0x00226e4d                acFont13B_ASCII_0068
                0x00226fb9                acFont13B_ASCII_004E
                0x00227062                acFont13B_ASCII_0042
                0x002270a3                acFont13B_ASCII_003E
                0x00226ea8                acFont13B_ASCII_0061
                0x00227243                acFont13B_ASCII_0024
                0x00226fed                acFont13B_ASCII_004B
                0x00226e19                acFont13B_ASCII_006C
                0x0022718d                acFont13B_ASCII_002F
                0x00226f5e                acFont13B_ASCII_0055
                0x00226f6b                acFont13B_ASCII_0054
                0x00226f10                acFont13B_ASCII_005A
                0x00227021                acFont13B_ASCII_0047
                0x00226f92                acFont13B_ASCII_0051
                0x00226d08                acFont13B_ASCII_007E
                0x00226d8a                acFont13B_ASCII_0076
                0x0022726a                acFont13B_ASCII_0022
                0x00226ecf                acFont13B_ASCII_005E
                0x00226f1d                acFont13B_ASCII_0059
                0x00226d49                acFont13B_ASCII_007A
                0x002271db                acFont13B_ASCII_002A
                0x00226e81                acFont13B_ASCII_0064
                0x00227202                acFont13B_ASCII_0027
                0x00226ffa                acFont13B_ASCII_004A
                0x0022713f                acFont13B_ASCII_0035
                0x00226dff                acFont13B_ASCII_006D
                0x002270f1                acFont13B_ASCII_003B
                0x0022714c                acFont13B_ASCII_0034
                0x00226dd8                acFont13B_ASCII_0070
                0x00226d63                acFont13B_ASCII_0078
                0x00226e33                acFont13B_ASCII_006A
                0x002271a7                acFont13B_ASCII_002D
                0x00227118                acFont13B_ASCII_0038
                0x00226e40                acFont13B_ASCII_0069
                0x00227048                acFont13B_ASCII_0044
                0x00227055                acFont13B_ASCII_0043
                0x00226e8e                acFont13B_ASCII_0063
                0x0022720f                acFont13B_ASCII_0026
                0x00226fc6                acFont13B_ASCII_004D
                0x00226da4                acFont13B_ASCII_0074
                0x00226eb5                acFont13B_ASCII_0060
                0x00227250                acFont13B_ASCII_0023
                0x00227284                acFont13B_ASCII_0020
                0x00226f37                acFont13B_ASCII_0057
                0x002269e0                GUI_Font13B_ASCII
                0x00226f9f                acFont13B_ASCII_0050
                0x00226ee9                acFont13B_ASCII_005D
                0x00226f51                acFont13B_ASCII_0056
                0x00226f03                acFont13B_ASCII_005B
                0x00226d70                acFont13B_ASCII_0077
 *fill*         0x00227291        0xf 00
 .rodata        0x002272a0      0x98c obj/F13HB_1.o
                0x00227696                acFont13HB_1_00F2
                0x00227913                acFont13HB_1_00CC
                0x002272c0                GUI_Font13HB_1_Prop1
                0x00227621                acFont13HB_1_00FA
                0x00227beb                acFont13HB_1_00A4
                0x0022770b                acFont13HB_1_00E9
                0x00227732                acFont13HB_1_00E6
                0x00227c12                acFont13HB_1_00A1
                0x00227766                acFont13HB_1_00E3
                0x002279e3                acFont13HB_1_00C1
                0x00227bc4                acFont13HB_1_00A7
                0x00227802                acFont13HB_1_00D9
                0x002278c5                acFont13HB_1_00D1
                0x002275ed                acFont13HB_1_00FE
                0x00227a99                acFont13HB_1_00B9
                0x00227a72                acFont13HB_1_00BB
                0x002276e4                acFont13HB_1_00EC
                0x00227b76                acFont13HB_1_00AB
                0x002276bd                acFont13HB_1_00EF
                0x00227b90                acFont13HB_1_00AA
                0x002279fd                acFont13HB_1_00C0
                0x00227906                acFont13HB_1_00CD
                0x002276f1                acFont13HB_1_00EB
                0x00227877                acFont13HB_1_00D4
                0x00227920                acFont13HB_1_00CB
                0x002278d2                acFont13HB_1_00D0
                0x00227614                acFont13HB_1_00FB
                0x002278f9                acFont13HB_1_00CE
                0x002272a0                GUI_Font13HB_1
                0x00227ada                acFont13HB_1_00B4
                0x00227648                acFont13HB_1_00F7
                0x00227954                acFont13HB_1_00C7
                0x00227995                acFont13HB_1_00C4
                0x00227ae7                acFont13HB_1_00B3
                0x00227662                acFont13HB_1_00F6
                0x002276d7                acFont13HB_1_00ED
                0x00227829                acFont13HB_1_00D7
                0x00227c05                acFont13HB_1_00A2
                0x00227725                acFont13HB_1_00E7
                0x00227ab3                acFont13HB_1_00B7
                0x002272d0                GUI_Font13HB_1_Prop2
                0x00227b28                acFont13HB_1_00AF
                0x00227b4f                acFont13HB_1_00AD
                0x00227891                acFont13HB_1_00D3
                0x002277c1                acFont13HB_1_00DD
                0x00227a3e                acFont13HB_1_00BD
                0x0022762e                acFont13HB_1_00F9
                0x0022780f                acFont13HB_1_00D8
                0x00227bd1                acFont13HB_1_00A6
                0x002278ab                acFont13HB_1_00D2
                0x00227b9d                acFont13HB_1_00A9
                0x00227ac0                acFont13HB_1_00B6
                0x0022766f                acFont13HB_1_00F5
                0x00227af4                acFont13HB_1_00B2
                0x00227947                acFont13HB_1_00C8
                0x002272e0                GUI_Font13HB_1_CharInfo
                0x00227b5c                acFont13HB_1_00AC
                0x002277e8                acFont13HB_1_00DB
                0x00227a8c                acFont13HB_1_00BA
                0x002275fa                acFont13HB_1_00FD
                0x002276a3                acFont13HB_1_00F1
                0x002276fe                acFont13HB_1_00EA
                0x00227bb7                acFont13HB_1_00A8
                0x00227a24                acFont13HB_1_00BE
                0x00227c1f                acFont13HB_1_00A0
                0x0022774c                acFont13HB_1_00E5
                0x002277f5                acFont13HB_1_00DA
                0x002275e0                acFont13HB_1_00FF
                0x00227a58                acFont13HB_1_00BC
                0x002276b0                acFont13HB_1_00F0
                0x002278ec                acFont13HB_1_00CF
                0x0022793a                acFont13HB_1_00C9
                0x0022785d                acFont13HB_1_00D5
                0x00227bde                acFont13HB_1_00A5
                0x00227773                acFont13HB_1_00E2
                0x0022792d                acFont13HB_1_00CA
                0x00227acd                acFont13HB_1_00B5
                0x0022763b                acFont13HB_1_00F8
                0x0022779a                acFont13HB_1_00DF
                0x00227961                acFont13HB_1_00C6
                0x002277a7                acFont13HB_1_00DE
                0x00227b01                acFont13HB_1_00B1
                0x0022767c                acFont13HB_1_00F4
                0x00227759                acFont13HB_1_00E4
                0x00227780                acFont13HB_1_00E1
                0x002276ca                acFont13HB_1_00EE
                0x00227b1b                acFont13HB_1_00B0
                0x00227689                acFont13HB_1_00F3
                0x00227a17                acFont13HB_1_00BF
                0x002279af                acFont13HB_1_00C3
                0x00227b35                acFont13HB_1_00AE
                0x002279c9                acFont13HB_1_00C2
                0x0022797b                acFont13HB_1_00C5
                0x00227aa6                acFont13HB_1_00B8
                0x002277db                acFont13HB_1_00DC
                0x00227607                acFont13HB_1_00FC
                0x00227bf8                acFont13HB_1_00A3
                0x00227718                acFont13HB_1_00E8
                0x0022778d                acFont13HB_1_00E0
                0x00227843                acFont13HB_1_00D6
 *fill*         0x00227c2c        0x4 00
 .rodata        0x00227c30      0x926 obj/F13HB_ASCII.o
                0x00228090                acFont13HB_ASCII_0069
                0x002283dd                acFont13HB_ASCII_0038
                0x00227fe7                acFont13HB_ASCII_0075
                0x00228257                acFont13HB_ASCII_004E
                0x002280d1                acFont13HB_ASCII_0064
                0x00227c30                GUI_Font13HB_ASCII
                0x0022853c                acFont13HB_ASCII_0021
                0x00227fc0                acFont13HB_ASCII_0077
                0x00227f8c                acFont13HB_ASCII_007B
                0x00227c50                GUI_Font13HB_ASCII_Prop1
                0x00228230                acFont13HB_ASCII_0050
                0x0022845f                acFont13HB_ASCII_002E
                0x0022828b                acFont13HB_ASCII_004B
                0x002282b2                acFont13HB_ASCII_0048
                0x00228549                acFont13HB_ASCII_0020
                0x00228508                acFont13HB_ASCII_0024
                0x0022811f                acFont13HB_ASCII_005E
                0x002282e6                acFont13HB_ASCII_0045
                0x002283d0                acFont13HB_ASCII_0039
                0x0022841e                acFont13HB_ASCII_0033
                0x00227fb3                acFont13HB_ASCII_0078
                0x0022800e                acFont13HB_ASCII_0072
                0x00228445                acFont13HB_ASCII_0030
                0x00228105                acFont13HB_ASCII_0060
                0x002284ee                acFont13HB_ASCII_0025
                0x00228139                acFont13HB_ASCII_005D
                0x002280eb                acFont13HB_ASCII_0062
                0x0022842b                acFont13HB_ASCII_0032
                0x00228042                acFont13HB_ASCII_006E
                0x002280b7                acFont13HB_ASCII_0066
                0x0022831a                acFont13HB_ASCII_0042
                0x002284d4                acFont13HB_ASCII_0026
                0x00227f7f                acFont13HB_ASCII_007C
                0x0022839c                acFont13HB_ASCII_003C
                0x002280aa                acFont13HB_ASCII_0067
                0x002280f8                acFont13HB_ASCII_0061
                0x00228298                acFont13HB_ASCII_004A
                0x0022823d                acFont13HB_ASCII_004F
                0x00227fa6                acFont13HB_ASCII_0079
                0x002280c4                acFont13HB_ASCII_0065
                0x00228153                acFont13HB_ASCII_005B
                0x002281e2                acFont13HB_ASCII_0054
                0x002282cc                acFont13HB_ASCII_0047
                0x00228076                acFont13HB_ASCII_006B
                0x002284c7                acFont13HB_ASCII_0027
                0x0022801b                acFont13HB_ASCII_0071
                0x0022809d                acFont13HB_ASCII_0068
                0x002283c3                acFont13HB_ASCII_003A
                0x002283ea                acFont13HB_ASCII_0037
                0x0022827e                acFont13HB_ASCII_004C
                0x0022846c                acFont13HB_ASCII_002D
                0x00228404                acFont13HB_ASCII_0035
                0x00227fda                acFont13HB_ASCII_0076
                0x00227f58                acFont13HB_ASCII_007E
                0x0022804f                acFont13HB_ASCII_006D
                0x00228382                acFont13HB_ASCII_003D
                0x00228452                acFont13HB_ASCII_002F
                0x002282f3                acFont13HB_ASCII_0044
                0x002281d5                acFont13HB_ASCII_0055
                0x002282a5                acFont13HB_ASCII_0049
                0x00228341                acFont13HB_ASCII_0040
                0x00228216                acFont13HB_ASCII_0051
                0x00227f99                acFont13HB_ASCII_007A
                0x00227f72                acFont13HB_ASCII_007D
                0x002281ef                acFont13HB_ASCII_0053
                0x00228069                acFont13HB_ASCII_006C
                0x00228438                acFont13HB_ASCII_0031
                0x00227c60                GUI_Font13HB_ASCII_CharInfo
                0x002284a0                acFont13HB_ASCII_002A
                0x002281fc                acFont13HB_ASCII_0052
                0x00228187                acFont13HB_ASCII_0058
                0x00228411                acFont13HB_ASCII_0034
                0x002284ad                acFont13HB_ASCII_0029
                0x00228264                acFont13HB_ASCII_004D
                0x00227ff4                acFont13HB_ASCII_0074
                0x00228001                acFont13HB_ASCII_0073
                0x0022852f                acFont13HB_ASCII_0022
                0x00228035                acFont13HB_ASCII_006F
                0x00228327                acFont13HB_ASCII_0041
                0x002280de                acFont13HB_ASCII_0063
                0x0022835b                acFont13HB_ASCII_003F
                0x00228479                acFont13HB_ASCII_002C
                0x0022830d                acFont13HB_ASCII_0043
                0x00228112                acFont13HB_ASCII_005F
                0x00228146                acFont13HB_ASCII_005C
                0x002281a1                acFont13HB_ASCII_0057
                0x0022816d                acFont13HB_ASCII_0059
                0x00228028                acFont13HB_ASCII_0070
                0x002283b6                acFont13HB_ASCII_003B
                0x00228368                acFont13HB_ASCII_003E
                0x00228486                acFont13HB_ASCII_002B
                0x002281bb                acFont13HB_ASCII_0056
                0x002282d9                acFont13HB_ASCII_0046
                0x00228083                acFont13HB_ASCII_006A
                0x00228160                acFont13HB_ASCII_005A
                0x002284ba                acFont13HB_ASCII_0028
                0x002283f7                acFont13HB_ASCII_0036
                0x00228515                acFont13HB_ASCII_0023
 *fill*         0x00228556        0xa 00
 .rodata        0x00228560      0x8fd obj/F13H_1.o
                0x002289a4                acFont13H_1_00EC
                0x00228e02                acFont13H_1_00A6
                0x00228c3b                acFont13H_1_00C3
                0x00228c62                acFont13H_1_00C0
                0x00228580                GUI_Font13H_1_Prop1
                0x00228e1c                acFont13H_1_00A4
                0x00228cca                acFont13H_1_00BB
                0x00228cf1                acFont13H_1_00B8
                0x00228963                acFont13H_1_00F1
                0x002285a0                GUI_Font13H_1_CharInfo
                0x002289b1                acFont13H_1_00EB
                0x00228cb0                acFont13H_1_00BC
                0x002289cb                acFont13H_1_00E9
                0x00228ce4                acFont13H_1_00B9
                0x00228956                acFont13H_1_00F2
                0x00228d9a                acFont13H_1_00AC
                0x00228a19                acFont13H_1_00E4
                0x00228d8d                acFont13H_1_00AD
                0x002288ad                acFont13H_1_00FE
                0x00228a0c                acFont13H_1_00E5
                0x002289d8                acFont13H_1_00E8
                0x00228c07                acFont13H_1_00C6
                0x00228acf                acFont13H_1_00D7
                0x00228b6b                acFont13H_1_00D1
                0x00228590                GUI_Font13H_1_Prop2
                0x00228922                acFont13H_1_00F6
                0x0022898a                acFont13H_1_00EE
                0x00228b51                acFont13H_1_00D2
                0x00228dc1                acFont13H_1_00AA
                0x00228a33                acFont13H_1_00E2
                0x00228b9f                acFont13H_1_00CE
                0x00228d25                acFont13H_1_00B4
                0x00228d4c                acFont13H_1_00B1
                0x00228dce                acFont13H_1_00A9
                0x00228b92                acFont13H_1_00CF
                0x00228a8e                acFont13H_1_00DB
                0x00228997                acFont13H_1_00ED
                0x00228c55                acFont13H_1_00C1
                0x00228e0f                acFont13H_1_00A5
                0x00228c6f                acFont13H_1_00BF
                0x00228e36                acFont13H_1_00A2
                0x0022892f                acFont13H_1_00F5
                0x00228cd7                acFont13H_1_00BA
                0x00228cfe                acFont13H_1_00B7
                0x00228970                acFont13H_1_00F0
                0x00228a9b                acFont13H_1_00DA
                0x00228a74                acFont13H_1_00DD
                0x00228ab5                acFont13H_1_00D8
                0x00228bb9                acFont13H_1_00CC
                0x00228be0                acFont13H_1_00C9
                0x002288fb                acFont13H_1_00F8
                0x00228db4                acFont13H_1_00AB
                0x00228a26                acFont13H_1_00E3
                0x00228e50                acFont13H_1_00A0
                0x00228bfa                acFont13H_1_00C7
                0x00228c2e                acFont13H_1_00C4
                0x00228b03                acFont13H_1_00D5
                0x00228908                acFont13H_1_00F7
                0x0022897d                acFont13H_1_00EF
                0x00228ae9                acFont13H_1_00D6
                0x00228b78                acFont13H_1_00D0
                0x002288d4                acFont13H_1_00FB
                0x00228d18                acFont13H_1_00B5
                0x00228a4d                acFont13H_1_00E0
                0x00228d3f                acFont13H_1_00B2
                0x00228df5                acFont13H_1_00A7
                0x00228a40                acFont13H_1_00E1
                0x00228bac                acFont13H_1_00CD
                0x00228a5a                acFont13H_1_00DF
                0x00228a81                acFont13H_1_00DC
                0x00228de8                acFont13H_1_00A8
                0x00228c48                acFont13H_1_00C2
                0x00228c96                acFont13H_1_00BD
                0x00228e29                acFont13H_1_00A3
                0x00228560                GUI_Font13H_1
                0x00228949                acFont13H_1_00F3
                0x002289be                acFont13H_1_00EA
                0x00228c7c                acFont13H_1_00BE
                0x002288a0                acFont13H_1_00FF
                0x0022893c                acFont13H_1_00F4
                0x00228a67                acFont13H_1_00DE
                0x00228aa8                acFont13H_1_00D9
                0x00228bd3                acFont13H_1_00CA
                0x00228d73                acFont13H_1_00AE
                0x002289f2                acFont13H_1_00E6
                0x00228bc6                acFont13H_1_00CB
                0x002288ee                acFont13H_1_00F9
                0x00228bed                acFont13H_1_00C8
                0x00228d66                acFont13H_1_00AF
                0x002288e1                acFont13H_1_00FA
                0x002288ba                acFont13H_1_00FD
                0x002289e5                acFont13H_1_00E7
                0x00228e43                acFont13H_1_00A1
                0x00228c21                acFont13H_1_00C5
                0x00228b37                acFont13H_1_00D3
                0x00228b1d                acFont13H_1_00D4
                0x002288c7                acFont13H_1_00FC
                0x00228d0b                acFont13H_1_00B6
                0x00228d32                acFont13H_1_00B3
                0x00228d59                acFont13H_1_00B0
 *fill*         0x00228e5d        0x3 00
 .rodata        0x00228e60      0x8be obj/F13H_ASCII.o
                0x0022958b                acFont13H_ASCII_003B
                0x002294e2                acFont13H_ASCII_0044
                0x0022953d                acFont13H_ASCII_003E
                0x0022931b                acFont13H_ASCII_0062
                0x00229412                acFont13H_ASCII_0051
                0x0022964e                acFont13H_ASCII_002C
                0x00229369                acFont13H_ASCII_005D
                0x00229453                acFont13H_ASCII_004E
                0x002294ae                acFont13H_ASCII_0048
                0x002295a5                acFont13H_ASCII_0039
                0x002295e6                acFont13H_ASCII_0034
                0x0022923e                acFont13H_ASCII_0072
                0x002291e3                acFont13H_ASCII_0078
                0x00229704                acFont13H_ASCII_0021
                0x002294d5                acFont13H_ASCII_0045
                0x002292cd                acFont13H_ASCII_0068
                0x002296b6                acFont13H_ASCII_0025
                0x002296d0                acFont13H_ASCII_0024
                0x0022927f                acFont13H_ASCII_006D
                0x00229376                acFont13H_ASCII_005C
                0x00229390                acFont13H_ASCII_005A
                0x00229335                acFont13H_ASCII_0060
                0x00229494                acFont13H_ASCII_004A
                0x002295f3                acFont13H_ASCII_0033
                0x00229675                acFont13H_ASCII_0029
                0x002293b7                acFont13H_ASCII_0057
                0x00229405                acFont13H_ASCII_0052
                0x00229301                acFont13H_ASCII_0064
                0x002292b3                acFont13H_ASCII_006A
                0x00229634                acFont13H_ASCII_002E
                0x002292da                acFont13H_ASCII_0067
                0x002291bc                acFont13H_ASCII_007B
                0x0022961a                acFont13H_ASCII_0030
                0x002294ef                acFont13H_ASCII_0043
                0x002294fc                acFont13H_ASCII_0042
                0x00229224                acFont13H_ASCII_0074
                0x0022942c                acFont13H_ASCII_0050
                0x00229571                acFont13H_ASCII_003C
                0x00228e90                GUI_Font13H_ASCII_CharInfo
                0x002294bb                acFont13H_ASCII_0047
                0x002295b2                acFont13H_ASCII_0038
                0x00229641                acFont13H_ASCII_002D
                0x002295bf                acFont13H_ASCII_0037
                0x0022934f                acFont13H_ASCII_005E
                0x00229439                acFont13H_ASCII_004F
                0x0022924b                acFont13H_ASCII_0071
                0x0022947a                acFont13H_ASCII_004C
                0x00229258                acFont13H_ASCII_0070
                0x00229342                acFont13H_ASCII_005F
                0x00228e60                GUI_Font13H_ASCII
                0x0022939d                acFont13H_ASCII_0059
                0x002296dd                acFont13H_ASCII_0023
                0x002292a6                acFont13H_ASCII_006B
                0x00229217                acFont13H_ASCII_0075
                0x00229188                acFont13H_ASCII_007E
                0x002292c0                acFont13H_ASCII_0069
                0x00229272                acFont13H_ASCII_006E
                0x00229600                acFont13H_ASCII_0032
                0x00229711                acFont13H_ASCII_0020
                0x002293d1                acFont13H_ASCII_0056
                0x00229668                acFont13H_ASCII_002A
                0x002291af                acFont13H_ASCII_007C
                0x00229487                acFont13H_ASCII_004B
                0x002293de                acFont13H_ASCII_0055
                0x00229516                acFont13H_ASCII_0040
                0x00228e80                GUI_Font13H_ASCII_Prop1
                0x00229557                acFont13H_ASCII_003D
                0x00229682                acFont13H_ASCII_0028
                0x00229627                acFont13H_ASCII_002F
                0x00229509                acFont13H_ASCII_0041
                0x002294a1                acFont13H_ASCII_0049
                0x00229231                acFont13H_ASCII_0073
                0x0022930e                acFont13H_ASCII_0063
                0x00229598                acFont13H_ASCII_003A
                0x002291f0                acFont13H_ASCII_0077
                0x002295cc                acFont13H_ASCII_0036
                0x002295d9                acFont13H_ASCII_0035
                0x00229383                acFont13H_ASCII_005B
                0x002296f7                acFont13H_ASCII_0022
                0x002293aa                acFont13H_ASCII_0058
                0x002294c8                acFont13H_ASCII_0046
                0x0022969c                acFont13H_ASCII_0026
                0x00229460                acFont13H_ASCII_004D
                0x00229328                acFont13H_ASCII_0061
                0x00229530                acFont13H_ASCII_003F
                0x00229299                acFont13H_ASCII_006C
                0x0022920a                acFont13H_ASCII_0076
                0x002292e7                acFont13H_ASCII_0066
                0x002291c9                acFont13H_ASCII_007A
                0x00229265                acFont13H_ASCII_006F
                0x002293eb                acFont13H_ASCII_0054
                0x002293f8                acFont13H_ASCII_0053
                0x002292f4                acFont13H_ASCII_0065
                0x0022965b                acFont13H_ASCII_002B
                0x002291a2                acFont13H_ASCII_007D
                0x002291d6                acFont13H_ASCII_0079
                0x0022960d                acFont13H_ASCII_0031
                0x0022968f                acFont13H_ASCII_0027
 *fill*         0x0022971e        0x2 00
 .rodata        0x00229720      0x86b obj/F13_1.o
                0x00229aec                acFont13_1_00F3
                0x00229b3a                acFont13_1_00ED
                0x00229c8c                acFont13_1_00D4
                0x00229d28                acFont13_1_00C8
                0x00229eef                acFont13_1_00AA
                0x00229bc9                acFont13_1_00E3
                0x00229e7a                acFont13_1_00B2
                0x00229e2c                acFont13_1_00B8
                0x00229e53                acFont13_1_00B5
                0x00229f64                acFont13_1_00A2
                0x00229c31                acFont13_1_00DB
                0x00229c17                acFont13_1_00DD
                0x00229a50                acFont13_1_00FF
                0x00229c7f                acFont13_1_00D5
                0x00229e05                acFont13_1_00BB
                0x00229ec8                acFont13_1_00AD
                0x00229b7b                acFont13_1_00E8
                0x00229ad2                acFont13_1_00F5
                0x00229cb3                acFont13_1_00D1
                0x00229740                GUI_Font13_1_Prop1
                0x00229aab                acFont13_1_00F8
                0x00229af9                acFont13_1_00F2
                0x00229c24                acFont13_1_00DC
                0x00229f23                acFont13_1_00A7
                0x00229c4b                acFont13_1_00D9
                0x00229c72                acFont13_1_00D6
                0x00229d9d                acFont13_1_00C0
                0x00229e39                acFont13_1_00B7
                0x00229b54                acFont13_1_00EB
                0x00229d69                acFont13_1_00C4
                0x00229b6e                acFont13_1_00E9
                0x00229eae                acFont13_1_00AE
                0x00229ccd                acFont13_1_00CF
                0x00229baf                acFont13_1_00E5
                0x00229e60                acFont13_1_00B4
                0x00229e6d                acFont13_1_00B3
                0x00229e94                acFont13_1_00B0
                0x00229a84                acFont13_1_00FB
                0x00229db7                acFont13_1_00BE
                0x00229bd6                acFont13_1_00E2
                0x00229a5d                acFont13_1_00FE
                0x00229d5c                acFont13_1_00C5
                0x00229ee2                acFont13_1_00AB
                0x00229adf                acFont13_1_00F4
                0x00229c65                acFont13_1_00D7
                0x00229f30                acFont13_1_00A6
                0x00229b95                acFont13_1_00E6
                0x00229d90                acFont13_1_00C1
                0x00229cda                acFont13_1_00CE
                0x00229cf4                acFont13_1_00CC
                0x00229d1b                acFont13_1_00C9
                0x00229e87                acFont13_1_00B1
                0x00229b47                acFont13_1_00EC
                0x00229d0e                acFont13_1_00CA
                0x00229b06                acFont13_1_00F1
                0x00229ca6                acFont13_1_00D2
                0x00229b13                acFont13_1_00F0
                0x00229c3e                acFont13_1_00DA
                0x00229e1f                acFont13_1_00B9
                0x00229bfd                acFont13_1_00DF
                0x00229b88                acFont13_1_00E7
                0x00229d83                acFont13_1_00C2
                0x00229be3                acFont13_1_00E1
                0x00229f57                acFont13_1_00A3
                0x00229ce7                acFont13_1_00CD
                0x00229b20                acFont13_1_00EF
                0x00229750                GUI_Font13_1_CharInfo
                0x00229d42                acFont13_1_00C6
                0x00229b2d                acFont13_1_00EE
                0x00229ed5                acFont13_1_00AC
                0x00229deb                acFont13_1_00BC
                0x00229f3d                acFont13_1_00A5
                0x00229a9e                acFont13_1_00F9
                0x00229c0a                acFont13_1_00DE
                0x00229ac5                acFont13_1_00F6
                0x00229f4a                acFont13_1_00A4
                0x00229b61                acFont13_1_00EA
                0x00229bbc                acFont13_1_00E4
                0x00229efc                acFont13_1_00A9
                0x00229ea1                acFont13_1_00AF
                0x00229d35                acFont13_1_00C7
                0x00229e46                acFont13_1_00B6
                0x00229e12                acFont13_1_00BA
                0x00229f16                acFont13_1_00A8
                0x00229a91                acFont13_1_00FA
                0x00229ab8                acFont13_1_00F7
                0x00229a77                acFont13_1_00FC
                0x00229cc0                acFont13_1_00D0
                0x00229c99                acFont13_1_00D3
                0x00229dd1                acFont13_1_00BD
                0x00229daa                acFont13_1_00BF
                0x00229720                GUI_Font13_1
                0x00229c58                acFont13_1_00D8
                0x00229f7e                acFont13_1_00A0
                0x00229a6a                acFont13_1_00FD
                0x00229bf0                acFont13_1_00E0
                0x00229d76                acFont13_1_00C3
                0x00229f71                acFont13_1_00A1
                0x00229d01                acFont13_1_00CB
 *fill*         0x00229f8b        0x5 00
 .rodata        0x00229f90      0x822 obj/F13_ASCII.o
                0x0022a5c4                acFont13ASCII_0043
                0x0022a431                acFont13ASCII_0061
                0x0022a3f0                acFont13ASCII_0066
                0x0022a50e                acFont13ASCII_0051
                0x0022a4f4                acFont13ASCII_0053
                0x0022a3e3                acFont13ASCII_0067
                0x0022a6d5                acFont13ASCII_002F
                0x0022a2f9                acFont13ASCII_0079
                0x0022a6e2                acFont13ASCII_002E
                0x0022a639                acFont13ASCII_003B
                0x0022a77e                acFont13ASCII_0023
                0x0022a2ec                acFont13ASCII_007A
                0x0022a499                acFont13ASCII_0059
                0x0022a583                acFont13ASCII_0048
                0x0022a48c                acFont13ASCII_005A
                0x0022a5de                acFont13ASCII_0041
                0x0022a612                acFont13ASCII_003E
                0x0022a6a1                acFont13ASCII_0033
                0x0022a687                acFont13ASCII_0035
                0x0022a2b8                acFont13ASCII_007E
                0x0022a6fc                acFont13ASCII_002C
                0x0022a395                acFont13ASCII_006D
                0x0022a7a5                acFont13ASCII_0020
                0x0022a3c9                acFont13ASCII_0069
                0x0022a653                acFont13ASCII_0039
                0x0022a417                acFont13ASCII_0063
                0x0022a590                acFont13ASCII_0047
                0x0022a36e                acFont13ASCII_0070
                0x0022a74a                acFont13ASCII_0026
                0x0022a313                acFont13ASCII_0077
                0x0022a4cd                acFont13ASCII_0056
                0x0022a472                acFont13ASCII_005C
                0x0022a55c                acFont13ASCII_004B
                0x0022a44b                acFont13ASCII_005F
                0x0022a6ae                acFont13ASCII_0032
                0x0022a542                acFont13ASCII_004D
                0x0022a5d1                acFont13ASCII_0042
                0x0022a757                acFont13ASCII_0025
                0x0022a37b                acFont13ASCII_006F
                0x0022a501                acFont13ASCII_0052
                0x0022a4da                acFont13ASCII_0055
                0x0022a576                acFont13ASCII_0049
                0x0022a465                acFont13ASCII_005D
                0x0022a33a                acFont13ASCII_0074
                0x0022a605                acFont13ASCII_003F
                0x0022a4a6                acFont13ASCII_0058
                0x0022a694                acFont13ASCII_0034
                0x0022a66d                acFont13ASCII_0037
                0x0022a6c8                acFont13ASCII_0030
                0x0022a716                acFont13ASCII_002A
                0x0022a2c5                acFont13ASCII_007D
                0x0022a3bc                acFont13ASCII_006A
                0x0022a528                acFont13ASCII_004F
                0x00229fb0                GUI_Font13ASCII_Prop1
                0x0022a709                acFont13ASCII_002B
                0x0022a61f                acFont13ASCII_003D
                0x0022a5b7                acFont13ASCII_0044
                0x0022a73d                acFont13ASCII_0027
                0x0022a347                acFont13ASCII_0073
                0x0022a2df                acFont13ASCII_007B
                0x0022a4b3                acFont13ASCII_0057
                0x0022a59d                acFont13ASCII_0046
                0x0022a723                acFont13ASCII_0029
                0x0022a43e                acFont13ASCII_0060
                0x0022a320                acFont13ASCII_0076
                0x0022a424                acFont13ASCII_0062
                0x0022a54f                acFont13ASCII_004C
                0x0022a3fd                acFont13ASCII_0065
                0x0022a3d6                acFont13ASCII_0068
                0x0022a51b                acFont13ASCII_0050
                0x00229f90                GUI_Font13_ASCII
                0x0022a6ef                acFont13ASCII_002D
                0x0022a78b                acFont13ASCII_0022
                0x0022a646                acFont13ASCII_003A
                0x0022a6bb                acFont13ASCII_0031
                0x0022a458                acFont13ASCII_005E
                0x0022a32d                acFont13ASCII_0075
                0x0022a771                acFont13ASCII_0024
                0x0022a306                acFont13ASCII_0078
                0x00229fc0                GUI_Font13ASCII_CharInfo
                0x0022a5eb                acFont13ASCII_0040
                0x0022a388                acFont13ASCII_006E
                0x0022a67a                acFont13ASCII_0036
                0x0022a798                acFont13ASCII_0021
                0x0022a4e7                acFont13ASCII_0054
                0x0022a660                acFont13ASCII_0038
                0x0022a569                acFont13ASCII_004A
                0x0022a40a                acFont13ASCII_0064
                0x0022a3a2                acFont13ASCII_006C
                0x0022a361                acFont13ASCII_0071
                0x0022a3af                acFont13ASCII_006B
                0x0022a5aa                acFont13ASCII_0045
                0x0022a2d2                acFont13ASCII_007C
                0x0022a47f                acFont13ASCII_005B
                0x0022a62c                acFont13ASCII_003C
                0x0022a354                acFont13ASCII_0072
                0x0022a730                acFont13ASCII_0028
                0x0022a535                acFont13ASCII_004E
 *fill*         0x0022a7b2        0xe 00
 .rodata        0x0022a7c0      0xaf0 obj/F16B_1.o
                0x0022b270                acFont16B_1_00A3
                0x0022b100                acFont16B_1_00B8
                0x0022b020                acFont16B_1_00C1
                0x0022ac90                acFont16B_1_00E6
                0x0022ab40                acFont16B_1_00FB
                0x0022b1f0                acFont16B_1_00AA
                0x0022ab90                acFont16B_1_00F6
                0x0022b150                acFont16B_1_00B3
                0x0022af00                acFont16B_1_00CD
                0x0022aef0                acFont16B_1_00CE
                0x0022ae40                acFont16B_1_00D4
                0x0022b200                acFont16B_1_00A9
                0x0022acc0                acFont16B_1_00E4
                0x0022af20                acFont16B_1_00CB
                0x0022ad70                acFont16B_1_00DB
                0x0022ab70                acFont16B_1_00F8
                0x0022b130                acFont16B_1_00B5
                0x0022b240                acFont16B_1_00A6
                0x0022ac80                acFont16B_1_00E7
                0x0022a7c0                GUI_Font16B_1
                0x0022adb0                acFont16B_1_00D9
                0x0022ab10                acFont16B_1_00FE
                0x0022ab20                acFont16B_1_00FD
                0x0022b0d0                acFont16B_1_00BB
                0x0022b0e0                acFont16B_1_00BA
                0x0022ac20                acFont16B_1_00ED
                0x0022ac10                acFont16B_1_00EE
                0x0022af50                acFont16B_1_00C8
                0x0022aea0                acFont16B_1_00D1
                0x0022b1a0                acFont16B_1_00AE
                0x0022ab60                acFont16B_1_00F9
                0x0022b120                acFont16B_1_00B6
                0x0022af80                acFont16B_1_00C6
                0x0022abb0                acFont16B_1_00F4
                0x0022b170                acFont16B_1_00B1
                0x0022b2a0                acFont16B_1_00A0
                0x0022b090                acFont16B_1_00BD
                0x0022ae80                acFont16B_1_00D2
                0x0022af40                acFont16B_1_00C9
                0x0022ace0                acFont16B_1_00E2
                0x0022b1d0                acFont16B_1_00AC
                0x0022aee0                acFont16B_1_00CF
                0x0022acb0                acFont16B_1_00E5
                0x0022b250                acFont16B_1_00A5
                0x0022aba0                acFont16B_1_00F5
                0x0022b160                acFont16B_1_00B2
                0x0022adf0                acFont16B_1_00D7
                0x0022ad50                acFont16B_1_00DC
                0x0022ad40                acFont16B_1_00DD
                0x0022b220                acFont16B_1_00A8
                0x0022acd0                acFont16B_1_00E3
                0x0022ab80                acFont16B_1_00F7
                0x0022b140                acFont16B_1_00B4
                0x0022a7e0                GUI_Font16B_1_Prop1
                0x0022ab00                acFont16B_1_00FF
                0x0022b0b0                acFont16B_1_00BC
                0x0022ac50                acFont16B_1_00EA
                0x0022ac00                acFont16B_1_00EF
                0x0022afc0                acFont16B_1_00C4
                0x0022a800                GUI_Font16B_1_CharInfo
                0x0022add0                acFont16B_1_00D8
                0x0022abd0                acFont16B_1_00F2
                0x0022af60                acFont16B_1_00C7
                0x0022aec0                acFont16B_1_00D0
                0x0022ad10                acFont16B_1_00DF
                0x0022b0f0                acFont16B_1_00B9
                0x0022b000                acFont16B_1_00C2
                0x0022b290                acFont16B_1_00A1
                0x0022b280                acFont16B_1_00A2
                0x0022b070                acFont16B_1_00BE
                0x0022b060                acFont16B_1_00BF
                0x0022afa0                acFont16B_1_00C5
                0x0022b190                acFont16B_1_00AF
                0x0022abc0                acFont16B_1_00F3
                0x0022b180                acFont16B_1_00B0
                0x0022ad90                acFont16B_1_00DA
                0x0022ae20                acFont16B_1_00D5
                0x0022ab50                acFont16B_1_00FA
                0x0022af10                acFont16B_1_00CC
                0x0022acf0                acFont16B_1_00E1
                0x0022b230                acFont16B_1_00A7
                0x0022b1e0                acFont16B_1_00AB
                0x0022ac70                acFont16B_1_00E8
                0x0022af30                acFont16B_1_00CA
                0x0022ad20                acFont16B_1_00DE
                0x0022b260                acFont16B_1_00A4
                0x0022ad00                acFont16B_1_00E0
                0x0022ae00                acFont16B_1_00D6
                0x0022abf0                acFont16B_1_00F0
                0x0022a7f0                GUI_Font16B_1_Prop2
                0x0022ab30                acFont16B_1_00FC
                0x0022ac40                acFont16B_1_00EB
                0x0022ac30                acFont16B_1_00EC
                0x0022b040                acFont16B_1_00C0
                0x0022b110                acFont16B_1_00B7
                0x0022afe0                acFont16B_1_00C3
                0x0022b1c0                acFont16B_1_00AD
                0x0022abe0                acFont16B_1_00F1
                0x0022ae60                acFont16B_1_00D3
                0x0022ac60                acFont16B_1_00E9
 .rodata        0x0022b2b0      0xa88 obj/F16B_ASCII.o
                0x0022b698                acFont16B_ASCII_0073
                0x0022b718                acFont16B_ASCII_006C
                0x0022b9c8                acFont16B_ASCII_004C
                0x0022b898                acFont16B_ASCII_0056
                0x0022b6d8                acFont16B_ASCII_006F
                0x0022ba78                acFont16B_ASCII_0044
                0x0022ba38                acFont16B_ASCII_0047
                0x0022bb68                acFont16B_ASCII_003A
                0x0022b968                acFont16B_ASCII_004F
                0x0022b7e8                acFont16B_ASCII_005F
                0x0022b6b8                acFont16B_ASCII_0071
                0x0022b6c8                acFont16B_ASCII_0070
                0x0022bd28                acFont16B_ASCII_0020
                0x0022bce8                acFont16B_ASCII_0024
                0x0022b908                acFont16B_ASCII_0052
                0x0022bb88                acFont16B_ASCII_0038
                0x0022bb98                acFont16B_ASCII_0037
                0x0022b5e8                acFont16B_ASCII_007D
                0x0022b758                acFont16B_ASCII_0068
                0x0022b7a8                acFont16B_ASCII_0063
                0x0022b828                acFont16B_ASCII_005B
                0x0022b838                acFont16B_ASCII_005A
                0x0022bd18                acFont16B_ASCII_0021
                0x0022b678                acFont16B_ASCII_0075
                0x0022bc88                acFont16B_ASCII_0028
                0x0022b618                acFont16B_ASCII_007A
                0x0022bc58                acFont16B_ASCII_002B
                0x0022b788                acFont16B_ASCII_0065
                0x0022baf8                acFont16B_ASCII_0040
                0x0022bb58                acFont16B_ASCII_003B
                0x0022b9d8                acFont16B_ASCII_004B
                0x0022bbd8                acFont16B_ASCII_0033
                0x0022ba58                acFont16B_ASCII_0046
                0x0022b848                acFont16B_ASCII_0059
                0x0022bb28                acFont16B_ASCII_003E
                0x0022bc08                acFont16B_ASCII_0030
                0x0022b2b0                GUI_Font16B_ASCII
                0x0022bc28                acFont16B_ASCII_002E
                0x0022b6f8                acFont16B_ASCII_006D
                0x0022ba98                acFont16B_ASCII_0043
                0x0022b9a8                acFont16B_ASCII_004D
                0x0022b808                acFont16B_ASCII_005D
                0x0022b628                acFont16B_ASCII_0079
                0x0022b638                acFont16B_ASCII_0078
                0x0022b5d8                acFont16B_ASCII_007E
                0x0022b8b8                acFont16B_ASCII_0055
                0x0022bcf8                acFont16B_ASCII_0023
                0x0022b948                acFont16B_ASCII_0050
                0x0022bba8                acFont16B_ASCII_0036
                0x0022b768                acFont16B_ASCII_0067
                0x0022b8e8                acFont16B_ASCII_0053
                0x0022b2e0                GUI_Font16B_ASCII_CharInfo
                0x0022bc78                acFont16B_ASCII_0029
                0x0022bc48                acFont16B_ASCII_002C
                0x0022b7b8                acFont16B_ASCII_0062
                0x0022b7c8                acFont16B_ASCII_0061
                0x0022bbb8                acFont16B_ASCII_0035
                0x0022bad8                acFont16B_ASCII_0041
                0x0022bc98                acFont16B_ASCII_0027
                0x0022bca8                acFont16B_ASCII_0026
                0x0022b798                acFont16B_ASCII_0064
                0x0022b608                acFont16B_ASCII_007B
                0x0022b9f8                acFont16B_ASCII_004A
                0x0022bbe8                acFont16B_ASCII_0032
                0x0022ba68                acFont16B_ASCII_0045
                0x0022b858                acFont16B_ASCII_0058
                0x0022bb48                acFont16B_ASCII_003C
                0x0022b688                acFont16B_ASCII_0074
                0x0022b728                acFont16B_ASCII_006B
                0x0022b2d0                GUI_Font16B_ASCII_Prop1
                0x0022b988                acFont16B_ASCII_004E
                0x0022bbf8                acFont16B_ASCII_0031
                0x0022b878                acFont16B_ASCII_0057
                0x0022ba08                acFont16B_ASCII_0049
                0x0022ba18                acFont16B_ASCII_0048
                0x0022bc18                acFont16B_ASCII_002F
                0x0022b6e8                acFont16B_ASCII_006E
                0x0022b648                acFont16B_ASCII_0077
                0x0022b6a8                acFont16B_ASCII_0072
                0x0022b738                acFont16B_ASCII_006A
                0x0022b5f8                acFont16B_ASCII_007C
                0x0022b8d8                acFont16B_ASCII_0054
                0x0022bb78                acFont16B_ASCII_0039
                0x0022b7f8                acFont16B_ASCII_005E
                0x0022b778                acFont16B_ASCII_0066
                0x0022b928                acFont16B_ASCII_0051
                0x0022bc68                acFont16B_ASCII_002A
                0x0022b748                acFont16B_ASCII_0069
                0x0022b7d8                acFont16B_ASCII_0060
                0x0022bbc8                acFont16B_ASCII_0034
                0x0022b818                acFont16B_ASCII_005C
                0x0022bd08                acFont16B_ASCII_0022
                0x0022b668                acFont16B_ASCII_0076
                0x0022bcc8                acFont16B_ASCII_0025
                0x0022bc38                acFont16B_ASCII_002D
                0x0022bab8                acFont16B_ASCII_0042
                0x0022bb38                acFont16B_ASCII_003D
                0x0022bb18                acFont16B_ASCII_003F
 *fill*         0x0022bd38        0x8 00
 .rodata        0x0022bd40      0xb40 obj/F16_1.o
                0x0022c750                acFont16_1_176
                0x0022c820                acFont16_1_165
                0x0022c3f0                acFont16_1_211
                0x0022c6b0                acFont16_1_186
                0x0022c0b0                acFont16_1_251
                0x0022c530                acFont16_1_199
                0x0022c360                acFont16_1_216
                0x0022c230                acFont16_1_228
                0x0022c250                acFont16_1_226
                0x0022c190                acFont16_1_237
                0x0022c6f0                acFont16_1_182
                0x0022bd70                GUI_CharInfo_Font16_1
                0x0022c7a0                acFont16_1_172
                0x0022c850                acFont16_1_162
                0x0022c280                acFont16_1_223
                0x0022c630                acFont16_1_191
                0x0022c5d0                acFont16_1_194
                0x0022c1d0                acFont16_1_233
                0x0022c740                acFont16_1_177
                0x0022c2c0                acFont16_1_221
                0x0022c810                acFont16_1_166
                0x0022c3b0                acFont16_1_213
                0x0022c6a0                acFont16_1_187
                0x0022c150                acFont16_1_241
                0x0022c4a0                acFont16_1_204
                0x0022c7d0                acFont16_1_169
                0x0022c0f0                acFont16_1_247
                0x0022c200                acFont16_1_230
                0x0022bd40                GUI_Font16_1
                0x0022c090                acFont16_1_253
                0x0022c320                acFont16_1_218
                0x0022c160                acFont16_1_240
                0x0022c110                acFont16_1_245
                0x0022c4b0                acFont16_1_203
                0x0022c450                acFont16_1_208
                0x0022c860                acFont16_1_161
                0x0022c830                acFont16_1_164
                0x0022c6c0                acFont16_1_185
                0x0022c130                acFont16_1_243
                0x0022c510                acFont16_1_200
                0x0022c720                acFont16_1_179
                0x0022c480                acFont16_1_206
                0x0022c220                acFont16_1_229
                0x0022c700                acFont16_1_181
                0x0022c1b0                acFont16_1_235
                0x0022c2e0                acFont16_1_220
                0x0022c770                acFont16_1_174
                0x0022c260                acFont16_1_225
                0x0022c570                acFont16_1_197
                0x0022c170                acFont16_1_239
                0x0022c270                acFont16_1_224
                0x0022c840                acFont16_1_163
                0x0022c0d0                acFont16_1_249
                0x0022c5b0                acFont16_1_195
                0x0022c390                acFont16_1_214
                0x0022c6e0                acFont16_1_183
                0x0022c140                acFont16_1_242
                0x0022c7f0                acFont16_1_168
                0x0022c490                acFont16_1_205
                0x0022c800                acFont16_1_167
                0x0022c3d0                acFont16_1_212
                0x0022c760                acFont16_1_175
                0x0022c680                acFont16_1_188
                0x0022c080                acFont16_1_254
                0x0022c300                acFont16_1_219
                0x0022c100                acFont16_1_246
                0x0022c430                acFont16_1_209
                0x0022c0a0                acFont16_1_252
                0x0022c550                acFont16_1_198
                0x0022c5f0                acFont16_1_193
                0x0022c340                acFont16_1_217
                0x0022c870                acFont16_1_160
                0x0022c410                acFont16_1_210
                0x0022c4d0                acFont16_1_202
                0x0022c240                acFont16_1_227
                0x0022c1a0                acFont16_1_236
                0x0022c7b0                acFont16_1_171
                0x0022c710                acFont16_1_180
                0x0022c790                acFont16_1_173
                0x0022c590                acFont16_1_196
                0x0022c1c0                acFont16_1_234
                0x0022c640                acFont16_1_190
                0x0022c2a0                acFont16_1_222
                0x0022c070                acFont16_1_255
                0x0022c1e0                acFont16_1_232
                0x0022c180                acFont16_1_238
                0x0022c730                acFont16_1_178
                0x0022c0e0                acFont16_1_248
                0x0022bd60                GUI_Font16_1_FontProp1
                0x0022c0c0                acFont16_1_250
                0x0022c380                acFont16_1_215
                0x0022c1f0                acFont16_1_231
                0x0022c660                acFont16_1_189
                0x0022c7c0                acFont16_1_170
                0x0022c6d0                acFont16_1_184
                0x0022c120                acFont16_1_244
                0x0022c4f0                acFont16_1_201
                0x0022c470                acFont16_1_207
                0x0022c610                acFont16_1_192
 .rodata        0x0022c880       0x3c obj/F16_1HK.o
                0x0022c8b0                GUI_Font16_1HK_Prop2
                0x0022c880                GUI_Font16_1HK
                0x0022c8a0                GUI_Font16_1HK_Prop1
 *fill*         0x0022c8bc        0x4 00
 .rodata        0x0022c8c0      0xaa0 obj/F16_ASCII.o
                0x0022d210                acFont16ASCII_50
                0x0022cd50                acFont16ASCII_106
                0x0022d080                acFont16ASCII_69
                0x0022d050                acFont16ASCII_71
                0x0022cdf0                acFont16ASCII_96
                0x0022ce30                acFont16ASCII_92
                0x0022d1a0                acFont16ASCII_57
                0x0022cda0                acFont16ASCII_101
                0x0022cd60                acFont16ASCII_105
                0x0022d2a0                acFont16ASCII_41
                0x0022cd30                acFont16ASCII_108
                0x0022ce80                acFont16ASCII_88
                0x0022cfe0                acFont16ASCII_76
                0x0022ce20                acFont16ASCII_93
                0x0022d150                acFont16ASCII_62
                0x0022d100                acFont16ASCII_65
                0x0022d190                acFont16ASCII_58
                0x0022cf00                acFont16ASCII_83
                0x0022d250                acFont16ASCII_46
                0x0022cd10                acFont16ASCII_109
                0x0022cd70                acFont16ASCII_104
                0x0022d320                acFont16ASCII_35
                0x0022cc80                acFont16ASCII_118
                0x0022d2d0                acFont16ASCII_38
                0x0022cc10                acFont16ASCII_124
                0x0022d1f0                acFont16ASCII_52
                0x0022d070                acFont16ASCII_70
                0x0022d120                acFont16ASCII_64
                0x0022d020                acFont16ASCII_73
                0x0022cf60                acFont16ASCII_80
                0x0022ccf0                acFont16ASCII_111
                0x0022cc60                acFont16ASCII_119
                0x0022cbf0                acFont16ASCII_126
                0x0022cdd0                acFont16ASCII_98
                0x0022cf80                acFont16ASCII_79
                0x0022d200                acFont16ASCII_51
                0x0022d2b0                acFont16ASCII_40
                0x0022d280                acFont16ASCII_43
                0x0022cc20                acFont16ASCII_123
                0x0022cfa0                acFont16ASCII_78
                0x0022d0a0                acFont16ASCII_68
                0x0022ce00                acFont16ASCII_95
                0x0022d290                acFont16ASCII_42
                0x0022ced0                acFont16ASCII_85
                0x0022d230                acFont16ASCII_48
                0x0022cd90                acFont16ASCII_102
                0x0022cd40                acFont16ASCII_107
                0x0022cca0                acFont16ASCII_116
                0x0022cc40                acFont16ASCII_121
                0x0022d0e0                acFont16ASCII_66
                0x0022d1d0                acFont16ASCII_54
                0x0022ce90                acFont16ASCII_87
                0x0022cff0                acFont16ASCII_75
                0x0022cc30                acFont16ASCII_122
                0x0022cf20                acFont16ASCII_82
                0x0022d1e0                acFont16ASCII_53
                0x0022d260                acFont16ASCII_45
                0x0022cdb0                acFont16ASCII_100
                0x0022c8c0                GUI_Font16_ASCII
                0x0022d2f0                acFont16ASCII_37
                0x0022cf40                acFont16ASCII_81
                0x0022cd00                acFont16ASCII_110
                0x0022d030                acFont16ASCII_72
                0x0022ccb0                acFont16ASCII_115
                0x0022d270                acFont16ASCII_44
                0x0022cd80                acFont16ASCII_103
                0x0022d350                acFont16ASCII_32
                0x0022cde0                acFont16ASCII_97
                0x0022cc50                acFont16ASCII_120
                0x0022ce40                acFont16ASCII_91
                0x0022d1b0                acFont16ASCII_56
                0x0022c8f0                GUI_CharInfo_Font16ASCII
                0x0022ccc0                acFont16ASCII_114
                0x0022d0c0                acFont16ASCII_67
                0x0022ce60                acFont16ASCII_89
                0x0022cfc0                acFont16ASCII_77
                0x0022ce10                acFont16ASCII_94
                0x0022ce50                acFont16ASCII_90
                0x0022d180                acFont16ASCII_59
                0x0022cef0                acFont16ASCII_84
                0x0022d240                acFont16ASCII_47
                0x0022d160                acFont16ASCII_61
                0x0022d1c0                acFont16ASCII_55
                0x0022d2c0                acFont16ASCII_39
                0x0022cc00                acFont16ASCII_125
                0x0022d330                acFont16ASCII_34
                0x0022cce0                acFont16ASCII_112
                0x0022cc90                acFont16ASCII_117
                0x0022d010                acFont16ASCII_74
                0x0022ceb0                acFont16ASCII_86
                0x0022d220                acFont16ASCII_49
                0x0022d170                acFont16ASCII_60
                0x0022d140                acFont16ASCII_63
                0x0022cdc0                acFont16ASCII_99
                0x0022d340                acFont16ASCII_33
                0x0022d310                acFont16ASCII_36
                0x0022ccd0                acFont16ASCII_113
                0x0022c8e0                GUI_Font16ASCIIProp1
 .rodata        0x0022d360     0x1aa8 obj/F16_HK.o
                0x0022db68                acFont16_HK_30E2
                0x0022e2c8                acFont16_HK_30A7
                0x0022dec8                acFont16_HK_30C7
                0x0022d928                acFont16_HK_30F4
                0x0022e028                acFont16_HK_30BC
                0x0022ed08                acFont16_HK_3048
                0x0022e608                acFont16_HK_3080
                0x0022e0c8                acFont16_HK_30B7
                0x0022e868                acFont16_HK_306D
                0x0022e628                acFont16_HK_307F
                0x0022e468                acFont16_HK_308D
                0x0022dd68                acFont16_HK_30D2
                0x0022dba8                acFont16_HK_30E0
                0x0022e308                acFont16_HK_30A5
                0x0022e3c8                acFont16_HK_3092
                0x0022e3e8                acFont16_HK_3091
                0x0022ebe8                acFont16_HK_3051
                0x0022dd28                acFont16_HK_30D4
                0x0022e368                acFont16_HK_30A2
                0x0022e668                acFont16_HK_307D
                0x0022da08                acFont16_HK_30ED
                0x0022de48                acFont16_HK_30CB
                0x0022e6e8                acFont16_HK_3079
                0x0022ec48                acFont16_HK_304E
                0x0022ec88                acFont16_HK_304C
                0x0022e168                acFont16_HK_30B2
                0x0022e908                acFont16_HK_3068
                0x0022e928                acFont16_HK_3067
                0x0022e968                acFont16_HK_3065
                0x0022dc08                acFont16_HK_30DD
                0x0022e748                acFont16_HK_3076
                0x0022db08                acFont16_HK_30E5
                0x0022e228                acFont16_HK_30AC
                0x0022d380                GUI_Font16_HK_Prop1
                0x0022d3a0                GUI_Font16_HK_CharInfo
                0x0022dcc8                acFont16_HK_30D7
                0x0022de08                acFont16_HK_30CD
                0x0022dc48                acFont16_HK_30DB
                0x0022e548                acFont16_HK_3086
                0x0022e588                acFont16_HK_3084
                0x0022ea68                acFont16_HK_305D
                0x0022eb68                acFont16_HK_3055
                0x0022ec08                acFont16_HK_3050
                0x0022d9e8                acFont16_HK_30EE
                0x0022df08                acFont16_HK_30C5
                0x0022e5e8                acFont16_HK_3081
                0x0022df68                acFont16_HK_30C2
                0x0022d968                acFont16_HK_30F2
                0x0022e068                acFont16_HK_30BA
                0x0022e108                acFont16_HK_30B5
                0x0022daa8                acFont16_HK_30E8
                0x0022e808                acFont16_HK_3070
                0x0022dfe8                acFont16_HK_30BE
                0x0022eac8                acFont16_HK_305A
                0x0022e7a8                acFont16_HK_3073
                0x0022e4a8                acFont16_HK_308B
                0x0022e888                acFont16_HK_306C
                0x0022e8c8                acFont16_HK_306A
                0x0022ed88                acFont16_HK_3044
                0x0022edc8                acFont16_HK_3042
                0x0022ede8                acFont16_HK_3041
                0x0022dde8                acFont16_HK_30CE
                0x0022da88                acFont16_HK_30E9
                0x0022e828                acFont16_HK_306F
                0x0022dd88                acFont16_HK_30D1
                0x0022dea8                acFont16_HK_30C8
                0x0022d908                acFont16_HK_30F5
                0x0022e008                acFont16_HK_30BD
                0x0022ece8                acFont16_HK_3049
                0x0022e0a8                acFont16_HK_30B8
                0x0022e6a8                acFont16_HK_307B
                0x0022da48                acFont16_HK_30EB
                0x0022ea28                acFont16_HK_305F
                0x0022e6c8                acFont16_HK_307A
                0x0022e388                acFont16_HK_30A1
                0x0022e3a8                acFont16_HK_3093
                0x0022ebc8                acFont16_HK_3052
                0x0022eba8                acFont16_HK_3053
                0x0022db48                acFont16_HK_30E3
                0x0022e268                acFont16_HK_30AA
                0x0022e2a8                acFont16_HK_30A8
                0x0022dd08                acFont16_HK_30D5
                0x0022dca8                acFont16_HK_30D8
                0x0022e448                acFont16_HK_308E
                0x0022e328                acFont16_HK_30A4
                0x0022e648                acFont16_HK_307E
                0x0022d390                GUI_Font16_HK_Prop2
                0x0022d988                acFont16_HK_30F1
                0x0022e128                acFont16_HK_30B4
                0x0022e8e8                acFont16_HK_3069
                0x0022e9c8                acFont16_HK_3062
                0x0022ea08                acFont16_HK_3060
                0x0022da28                acFont16_HK_30EC
                0x0022df48                acFont16_HK_30C3
                0x0022e708                acFont16_HK_3078
                0x0022dae8                acFont16_HK_30E6
                0x0022ec68                acFont16_HK_304D
                0x0022eca8                acFont16_HK_304B
                0x0022e4e8                acFont16_HK_3089
                0x0022e188                acFont16_HK_30B1
                0x0022dc28                acFont16_HK_30DC
                0x0022e508                acFont16_HK_3088
                0x0022eb48                acFont16_HK_3056
                0x0022eb28                acFont16_HK_3057
                0x0022de28                acFont16_HK_30CC
                0x0022e568                acFont16_HK_3085
                0x0022e5a8                acFont16_HK_3083
                0x0022d948                acFont16_HK_30F3
                0x0022dee8                acFont16_HK_30C6
                0x0022d8e8                acFont16_HK_30F6
                0x0022e048                acFont16_HK_30BB
                0x0022e088                acFont16_HK_30B9
                0x0022e0e8                acFont16_HK_30B6
                0x0022e208                acFont16_HK_30AD
                0x0022e7e8                acFont16_HK_3071
                0x0022ea88                acFont16_HK_305C
                0x0022e768                acFont16_HK_3075
                0x0022df88                acFont16_HK_30C1
                0x0022e848                acFont16_HK_306E
                0x0022ed48                acFont16_HK_3046
                0x0022ed68                acFont16_HK_3045
                0x0022eda8                acFont16_HK_3043
                0x0022e7c8                acFont16_HK_3072
                0x0022db88                acFont16_HK_30E1
                0x0022e2e8                acFont16_HK_30A6
                0x0022dd48                acFont16_HK_30D3
                0x0022e688                acFont16_HK_307C
                0x0022e8a8                acFont16_HK_306B
                0x0022e488                acFont16_HK_308C
                0x0022dda8                acFont16_HK_30D0
                0x0022e348                acFont16_HK_30A3
                0x0022e1c8                acFont16_HK_30AF
                0x0022da68                acFont16_HK_30EA
                0x0022eae8                acFont16_HK_3059
                0x0022e408                acFont16_HK_3090
                0x0022ea48                acFont16_HK_305E
                0x0022eb88                acFont16_HK_3054
                0x0022db28                acFont16_HK_30E4
                0x0022e288                acFont16_HK_30A9
                0x0022dc88                acFont16_HK_30D9
                0x0022de88                acFont16_HK_30C9
                0x0022e428                acFont16_HK_308F
                0x0022dc68                acFont16_HK_30DA
                0x0022de68                acFont16_HK_30CA
                0x0022d360                GUI_Font16_HK
                0x0022dbe8                acFont16_HK_30DE
                0x0022e728                acFont16_HK_3077
                0x0022ecc8                acFont16_HK_304A
                0x0022e948                acFont16_HK_3066
                0x0022e988                acFont16_HK_3064
                0x0022e9a8                acFont16_HK_3063
                0x0022e9e8                acFont16_HK_3061
                0x0022df28                acFont16_HK_30C4
                0x0022e248                acFont16_HK_30AB
                0x0022dce8                acFont16_HK_30D6
                0x0022d9a8                acFont16_HK_30F0
                0x0022ec28                acFont16_HK_304F
                0x0022e148                acFont16_HK_30B3
                0x0022d9c8                acFont16_HK_30EF
                0x0022e5c8                acFont16_HK_3082
                0x0022ddc8                acFont16_HK_30CF
                0x0022dfc8                acFont16_HK_30BF
                0x0022eaa8                acFont16_HK_305B
                0x0022eb08                acFont16_HK_3058
                0x0022e528                acFont16_HK_3087
                0x0022dfa8                acFont16_HK_30C0
                0x0022dbc8                acFont16_HK_30DF
                0x0022dac8                acFont16_HK_30E7
                0x0022e1e8                acFont16_HK_30AE
                0x0022e4c8                acFont16_HK_308A
                0x0022ed28                acFont16_HK_3047
                0x0022e1a8                acFont16_HK_30B0
                0x0022e788                acFont16_HK_3074
 *fill*         0x0022ee08        0x8 00
 .rodata        0x0022ee10     0x13a8 obj/F24B_1.o
                0x0022f9a8                acFont24B_1_00D1
                0x0022fcc0                acFont24B_1_00BF
                0x0022f918                acFont24B_1_00D4
                0x0022f390                acFont24B_1_00F3
                0x0022fd80                acFont24B_1_00BC
                0x0022f9d8                acFont24B_1_00D0
                0x0022ffa8                acFont24B_1_00AD
                0x0022f4e0                acFont24B_1_00EA
                0x00230020                acFont24B_1_00AA
                0x0022fa50                acFont24B_1_00CC
                0x0022f510                acFont24B_1_00E9
                0x00230038                acFont24B_1_00A9
                0x0022f5a0                acFont24B_1_00E6
                0x0022f330                acFont24B_1_00F5
                0x0022fc60                acFont24B_1_00C1
                0x0022f7f8                acFont24B_1_00DA
                0x0022feb8                acFont24B_1_00B4
                0x0022ff00                acFont24B_1_00B1
                0x0022f210                acFont24B_1_00FB
                0x0022f828                acFont24B_1_00D9
                0x0022f240                acFont24B_1_00FA
                0x0022ee40                GUI_Font24B_1_Prop2
                0x0022fa08                acFont24B_1_00CF
                0x0022f300                acFont24B_1_00F6
                0x0022fb58                acFont24B_1_00C6
                0x0022fac8                acFont24B_1_00C9
                0x0022fc00                acFont24B_1_00C3
                0x0022f738                acFont24B_1_00DE
                0x0022f6d8                acFont24B_1_00E0
                0x00230128                acFont24B_1_00A3
                0x0022f468                acFont24B_1_00EE
                0x0022f3f0                acFont24B_1_00F1
                0x0022fdf8                acFont24B_1_00BA
                0x00230158                acFont24B_1_00A2
                0x0022fe58                acFont24B_1_00B6
                0x0022ee10                GUI_Font24B_1
                0x0022f8b8                acFont24B_1_00D6
                0x0022f948                acFont24B_1_00D3
                0x0022f1b0                acFont24B_1_00FD
                0x0022f3c0                acFont24B_1_00F2
                0x0022f978                acFont24B_1_00D2
                0x0022ff48                acFont24B_1_00AF
                0x0022ffc0                acFont24B_1_00AC
                0x0022f498                acFont24B_1_00EC
                0x0022f540                acFont24B_1_00E8
                0x00230068                acFont24B_1_00A8
                0x0022f5e8                acFont24B_1_00E5
                0x0022fd38                acFont24B_1_00BD
                0x0022ee30                GUI_Font24B_1_Prop1
                0x0022fa38                acFont24B_1_00CD
                0x0022f360                acFont24B_1_00F4
                0x0022f798                acFont24B_1_00DC
                0x0022fe10                acFont24B_1_00B9
                0x0022fed0                acFont24B_1_00B3
                0x0022f858                acFont24B_1_00D8
                0x0022f1e0                acFont24B_1_00FC
                0x0022ff30                acFont24B_1_00B0
                0x0022faf8                acFont24B_1_00C8
                0x0022fc30                acFont24B_1_00C2
                0x0022fba0                acFont24B_1_00C5
                0x0022fa98                acFont24B_1_00CA
                0x002300c8                acFont24B_1_00A5
                0x0022f678                acFont24B_1_00E2
                0x0022f270                acFont24B_1_00F9
                0x0022f420                acFont24B_1_00F0
                0x0022f708                acFont24B_1_00DF
                0x0022fcf0                acFont24B_1_00BE
                0x002300f8                acFont24B_1_00A4
                0x0022f6a8                acFont24B_1_00E1
                0x0022fe28                acFont24B_1_00B8
                0x0022fe88                acFont24B_1_00B5
                0x0022f450                acFont24B_1_00EF
                0x0022ee50                GUI_Font24B_1_CharInfo
                0x0022f8e8                acFont24B_1_00D5
                0x0022fdc8                acFont24B_1_00BB
                0x0022f150                acFont24B_1_00FF
                0x0022fa68                acFont24B_1_00CB
                0x0022ff78                acFont24B_1_00AE
                0x0022f4b0                acFont24B_1_00EB
                0x0022fff0                acFont24B_1_00AB
                0x0022f180                acFont24B_1_00FE
                0x0022f570                acFont24B_1_00E7
                0x0022f618                acFont24B_1_00E4
                0x00230080                acFont24B_1_00A7
                0x0022fc90                acFont24B_1_00C0
                0x0022f7c8                acFont24B_1_00DB
                0x0022fee8                acFont24B_1_00B2
                0x0022f888                acFont24B_1_00D7
                0x0022fa20                acFont24B_1_00CE
                0x0022f768                acFont24B_1_00DD
                0x0022f2d0                acFont24B_1_00F7
                0x0022fb28                acFont24B_1_00C7
                0x0022fbd0                acFont24B_1_00C4
                0x0022f480                acFont24B_1_00ED
                0x00230188                acFont24B_1_00A1
                0x0022f2a0                acFont24B_1_00F8
                0x0022f648                acFont24B_1_00E3
                0x002300b0                acFont24B_1_00A6
                0x002301a0                acFont24B_1_00A0
                0x0022fe40                acFont24B_1_00B7
 *fill*         0x002301b8        0x8 00
 .rodata        0x002301c0     0x1300 obj/F24B_ASCII.o
                0x00231148                acFont24B_ASCII_0036
                0x00230560                acFont24B_ASCII_007A
                0x00230a70                acFont24B_ASCII_005B
                0x00230590                acFont24B_ASCII_0079
                0x00230698                acFont24B_ASCII_0073
                0x002312c8                acFont24B_ASCII_002D
                0x00230740                acFont24B_ASCII_006F
                0x002307e8                acFont24B_ASCII_006C
                0x00231430                acFont24B_ASCII_0023
                0x00230ec0                acFont24B_ASCII_0044
                0x00230968                acFont24B_ASCII_0062
                0x002309e0                acFont24B_ASCII_005F
                0x00230ef0                acFont24B_ASCII_0043
                0x00230c80                acFont24B_ASCII_0050
                0x00231358                acFont24B_ASCII_0028
                0x00230890                acFont24B_ASCII_0067
                0x00230fc8                acFont24B_ASCII_003F
                0x00230b90                acFont24B_ASCII_0055
                0x00230530                acFont24B_ASCII_007C
                0x00230c50                acFont24B_ASCII_0051
                0x00230cb0                acFont24B_ASCII_004F
                0x00230db8                acFont24B_ASCII_004A
                0x00230e30                acFont24B_ASCII_0047
                0x00230d10                acFont24B_ASCII_004D
                0x002310e8                acFont24B_ASCII_0038
                0x00230f80                acFont24B_ASCII_0040
                0x00230a40                acFont24B_ASCII_005D
                0x00230650                acFont24B_ASCII_0075
                0x00230e00                acFont24B_ASCII_0048
                0x002311d8                acFont24B_ASCII_0033
                0x00230710                acFont24B_ASCII_0070
                0x00231088                acFont24B_ASCII_003B
                0x00231118                acFont24B_ASCII_0037
                0x002305f0                acFont24B_ASCII_0077
                0x00230680                acFont24B_ASCII_0074
                0x002312f8                acFont24B_ASCII_002B
                0x00230830                acFont24B_ASCII_006A
                0x00231400                acFont24B_ASCII_0024
                0x00230848                acFont24B_ASCII_0069
                0x00230e90                acFont24B_ASCII_0045
                0x00230ab8                acFont24B_ASCII_0059
                0x002309c8                acFont24B_ASCII_0060
                0x00230a88                acFont24B_ASCII_005A
                0x00230938                acFont24B_ASCII_0063
                0x00231490                acFont24B_ASCII_0021
                0x00231298                acFont24B_ASCII_002F
                0x002312e0                acFont24B_ASCII_002C
                0x00230770                acFont24B_ASCII_006E
                0x002310a0                acFont24B_ASCII_003A
                0x00230800                acFont24B_ASCII_006B
                0x00230bf0                acFont24B_ASCII_0053
                0x002304e8                acFont24B_ASCII_007E
                0x00230ae8                acFont24B_ASCII_0058
                0x002314a8                acFont24B_ASCII_0020
                0x00230c20                acFont24B_ASCII_0052
                0x00230f50                acFont24B_ASCII_0041
                0x002310b8                acFont24B_ASCII_0039
                0x00230620                acFont24B_ASCII_0076
                0x002313b8                acFont24B_ASCII_0025
                0x00231268                acFont24B_ASCII_0030
                0x00230ff8                acFont24B_ASCII_003E
                0x00230d58                acFont24B_ASCII_004C
                0x00230908                acFont24B_ASCII_0064
                0x00230e60                acFont24B_ASCII_0046
                0x00230548                acFont24B_ASCII_007B
                0x002311a8                acFont24B_ASCII_0034
                0x00230a58                acFont24B_ASCII_005C
                0x002306e0                acFont24B_ASCII_0071
                0x00231460                acFont24B_ASCII_0022
                0x00230998                acFont24B_ASCII_0061
                0x002301f0                GUI_Font24B_ASCII_CharInfo
                0x00231328                acFont24B_ASCII_002A
                0x00231340                acFont24B_ASCII_0029
                0x002301c0                GUI_Font24B_ASCII
                0x00230860                acFont24B_ASCII_0068
                0x00230bc0                acFont24B_ASCII_0054
                0x002312b0                acFont24B_ASCII_002E
                0x00230a10                acFont24B_ASCII_005E
                0x00230f20                acFont24B_ASCII_0042
                0x002307a0                acFont24B_ASCII_006D
                0x002301e0                GUI_Font24B_ASCII_Prop1
                0x00230b60                acFont24B_ASCII_0056
                0x00230518                acFont24B_ASCII_007D
                0x00231370                acFont24B_ASCII_0027
                0x002308c0                acFont24B_ASCII_0066
                0x00230ce0                acFont24B_ASCII_004E
                0x00230b18                acFont24B_ASCII_0057
                0x00230de8                acFont24B_ASCII_0049
                0x00231238                acFont24B_ASCII_0031
                0x00231388                acFont24B_ASCII_0026
                0x002308d8                acFont24B_ASCII_0065
                0x00231058                acFont24B_ASCII_003C
                0x00231178                acFont24B_ASCII_0035
                0x00231208                acFont24B_ASCII_0032
                0x002305c0                acFont24B_ASCII_0078
                0x002306c8                acFont24B_ASCII_0072
                0x00230d88                acFont24B_ASCII_004B
                0x00231028                acFont24B_ASCII_003D
 .rodata        0x002314c0     0x13a8 obj/F24_1.o
                0x00231de8                acFont24_1_00DE
                0x00232838                acFont24_1_00A1
                0x00231cc8                acFont24_1_00E4
                0x00231890                acFont24_1_00FC
                0x00232478                acFont24_1_00BB
                0x00231f98                acFont24_1_00D5
                0x00231e18                acFont24_1_00DD
                0x002327a8                acFont24_1_00A4
                0x00231c20                acFont24_1_00E7
                0x00231b00                acFont24_1_00EF
                0x00231b48                acFont24_1_00EC
                0x00232670                acFont24_1_00AC
                0x002324d8                acFont24_1_00B8
                0x00231920                acFont24_1_00F9
                0x00232058                acFont24_1_00D1
                0x00231500                GUI_Font24_1_CharInfo
                0x00231d28                acFont24_1_00E2
                0x00232718                acFont24_1_00A8
                0x00231f08                acFont24_1_00D8
                0x00232310                acFont24_1_00C1
                0x002321a8                acFont24_1_00C8
                0x00231db8                acFont24_1_00DF
                0x00231b90                acFont24_1_00EA
                0x00231b60                acFont24_1_00EB
                0x00232778                acFont24_1_00A5
                0x00231bf0                acFont24_1_00E8
                0x00232088                acFont24_1_00D0
                0x00232148                acFont24_1_00CA
                0x00231f68                acFont24_1_00D6
                0x002324f0                acFont24_1_00B7
                0x00231950                acFont24_1_00F8
                0x00232850                acFont24_1_00A0
                0x00231e48                acFont24_1_00DC
                0x00231cf8                acFont24_1_00E3
                0x00231ad0                acFont24_1_00F0
                0x00231b18                acFont24_1_00EE
                0x002326a0                acFont24_1_00AB
                0x00232628                acFont24_1_00AE
                0x00231f38                acFont24_1_00D7
                0x002322b0                acFont24_1_00C3
                0x002320b8                acFont24_1_00CF
                0x00232598                acFont24_1_00B2
                0x00231a40                acFont24_1_00F3
                0x002320e8                acFont24_1_00CD
                0x00231800                acFont24_1_00FF
                0x002323a0                acFont24_1_00BE
                0x00231ff8                acFont24_1_00D3
                0x00232280                acFont24_1_00C4
                0x002318c0                acFont24_1_00FB
                0x002324a8                acFont24_1_00BA
                0x00232100                acFont24_1_00CC
                0x00232808                acFont24_1_00A2
                0x00231c98                acFont24_1_00E5
                0x002325e0                acFont24_1_00B0
                0x00231aa0                acFont24_1_00F1
                0x002324c0                acFont24_1_00B9
                0x002314f0                GUI_Font24_1_Prop2
                0x00231d88                acFont24_1_00E0
                0x002326e8                acFont24_1_00A9
                0x00232568                acFont24_1_00B4
                0x002319e0                acFont24_1_00F5
                0x00231ed8                acFont24_1_00D9
                0x002318f0                acFont24_1_00FA
                0x002325f8                acFont24_1_00AF
                0x00231b30                acFont24_1_00ED
                0x00232538                acFont24_1_00B5
                0x002326d0                acFont24_1_00AA
                0x002319b0                acFont24_1_00F6
                0x00231830                acFont24_1_00FE
                0x002323e8                acFont24_1_00BD
                0x00232760                acFont24_1_00A6
                0x00231bc0                acFont24_1_00E9
                0x00232730                acFont24_1_00A7
                0x002325b0                acFont24_1_00B1
                0x00231a70                acFont24_1_00F2
                0x00232340                acFont24_1_00C0
                0x00232118                acFont24_1_00CB
                0x00231d58                acFont24_1_00E1
                0x00231860                acFont24_1_00FD
                0x00232430                acFont24_1_00BC
                0x002321d8                acFont24_1_00C7
                0x00232028                acFont24_1_00D2
                0x002320d0                acFont24_1_00CE
                0x00232508                acFont24_1_00B6
                0x00231980                acFont24_1_00F7
                0x00231e78                acFont24_1_00DB
                0x00232250                acFont24_1_00C5
                0x002314c0                GUI_Font24_1
                0x00232658                acFont24_1_00AD
                0x002322e0                acFont24_1_00C2
                0x00231ea8                acFont24_1_00DA
                0x002314e0                GUI_Font24_1_Prop1
                0x00232370                acFont24_1_00BF
                0x00232580                acFont24_1_00B3
                0x00231a10                acFont24_1_00F4
                0x00232178                acFont24_1_00C9
                0x00232208                acFont24_1_00C6
                0x00231fc8                acFont24_1_00D4
                0x002327d8                acFont24_1_00A3
                0x00231c50                acFont24_1_00E6
 *fill*         0x00232868        0x8 00
 .rodata        0x00232870     0x12b8 obj/F24_ASCII.o
                0x00233408                acFont24_ASCII_004B
                0x00232d00                acFont24_ASCII_0075
                0x00233af8                acFont24_ASCII_0021
                0x00232ef8                acFont24_ASCII_0068
                0x002338e8                acFont24_ASCII_0030
                0x00232dc0                acFont24_ASCII_0070
                0x00233570                acFont24_ASCII_0043
                0x00233198                acFont24_ASCII_0057
                0x002339c0                acFont24_ASCII_0029
                0x00232890                GUI_Font24_ASCII_Prop1
                0x002330d8                acFont24_ASCII_005C
                0x002328a0                GUI_Font24_ASCII_CharInfo
                0x00232c70                acFont24_ASCII_0078
                0x00232cd0                acFont24_ASCII_0076
                0x00233360                acFont24_ASCII_004E
                0x00233960                acFont24_ASCII_002C
                0x002335a0                acFont24_ASCII_0042
                0x00233a08                acFont24_ASCII_0026
                0x00232e20                acFont24_ASCII_006E
                0x00233b10                acFont24_ASCII_0020
                0x00233918                acFont24_ASCII_002F
                0x00233168                acFont24_ASCII_0058
                0x002334e0                acFont24_ASCII_0046
                0x00232e80                acFont24_ASCII_006C
                0x00233a80                acFont24_ASCII_0024
                0x00233270                acFont24_ASCII_0053
                0x00233720                acFont24_ASCII_003A
                0x002336d8                acFont24_ASCII_003C
                0x00233138                acFont24_ASCII_0059
                0x00233330                acFont24_ASCII_004F
                0x002337c8                acFont24_ASCII_0036
                0x00232be0                acFont24_ASCII_007C
                0x00232f70                acFont24_ASCII_0065
                0x00233948                acFont24_ASCII_002D
                0x00233930                acFont24_ASCII_002E
                0x00232d78                acFont24_ASCII_0072
                0x002339d8                acFont24_ASCII_0028
                0x002339a8                acFont24_ASCII_002A
                0x00233828                acFont24_ASCII_0034
                0x00232c10                acFont24_ASCII_007A
                0x002334b0                acFont24_ASCII_0047
                0x00233438                acFont24_ASCII_004A
                0x002330f0                acFont24_ASCII_005B
                0x00232d48                acFont24_ASCII_0073
                0x00233060                acFont24_ASCII_0060
                0x00233108                acFont24_ASCII_005A
                0x002332a0                acFont24_ASCII_0052
                0x00233300                acFont24_ASCII_0050
                0x00233030                acFont24_ASCII_0061
                0x00233480                acFont24_ASCII_0048
                0x00232df0                acFont24_ASCII_006F
                0x002339f0                acFont24_ASCII_0027
                0x00232ee0                acFont24_ASCII_0069
                0x002330c0                acFont24_ASCII_005D
                0x00233510                acFont24_ASCII_0045
                0x002332d0                acFont24_ASCII_0051
                0x00233858                acFont24_ASCII_0033
                0x00233798                acFont24_ASCII_0037
                0x00232bc8                acFont24_ASCII_007D
                0x002338b8                acFont24_ASCII_0031
                0x00232d90                acFont24_ASCII_0071
                0x00233468                acFont24_ASCII_0049
                0x00233888                acFont24_ASCII_0032
                0x00232f58                acFont24_ASCII_0066
                0x00232ca0                acFont24_ASCII_0077
                0x00233978                acFont24_ASCII_002B
                0x00232d30                acFont24_ASCII_0074
                0x00233390                acFont24_ASCII_004D
                0x00233078                acFont24_ASCII_005F
                0x00232f28                acFont24_ASCII_0067
                0x00233648                acFont24_ASCII_003F
                0x002336a8                acFont24_ASCII_003D
                0x00233738                acFont24_ASCII_0039
                0x00232fd0                acFont24_ASCII_0063
                0x00233ab0                acFont24_ASCII_0023
                0x00232e98                acFont24_ASCII_006B
                0x00233210                acFont24_ASCII_0055
                0x00232bf8                acFont24_ASCII_007B
                0x002337f8                acFont24_ASCII_0035
                0x00233540                acFont24_ASCII_0044
                0x00233600                acFont24_ASCII_0040
                0x002330a8                acFont24_ASCII_005E
                0x00232870                GUI_Font24_ASCII
                0x00233a38                acFont24_ASCII_0025
                0x00232e50                acFont24_ASCII_006D
                0x00233678                acFont24_ASCII_003E
                0x002335d0                acFont24_ASCII_0041
                0x00233708                acFont24_ASCII_003B
                0x00232c40                acFont24_ASCII_0079
                0x00232b98                acFont24_ASCII_007E
                0x00233768                acFont24_ASCII_0038
                0x00233240                acFont24_ASCII_0054
                0x002331e0                acFont24_ASCII_0056
                0x00232ec8                acFont24_ASCII_006A
                0x00233ae0                acFont24_ASCII_0022
                0x002333d8                acFont24_ASCII_004C
                0x00232fa0                acFont24_ASCII_0064
                0x00233000                acFont24_ASCII_0062
 *fill*         0x00233b28        0x8 00
 .rodata        0x00233b30     0x1fc0 obj/F32B_1.o
                0x002355d0                acFont32B_1_00B4
                0x00234d30                acFont32B_1_00D0
                0x00233f50                acFont32B_1_00FC
                0x00234070                acFont32B_1_00F9
                0x00233b70                GUI_Font32B_1_CharInfo
                0x00234c10                acFont32B_1_00D3
                0x00234f30                acFont32B_1_00C8
                0x00233b50                GUI_Font32B_1_Prop1
                0x00234df0                acFont32B_1_00CC
                0x00234e10                acFont32B_1_00CB
                0x00234ed0                acFont32B_1_00C9
                0x00235a70                acFont32B_1_00A2
                0x00233fb0                acFont32B_1_00FB
                0x002341d0                acFont32B_1_00F5
                0x00234230                acFont32B_1_00F4
                0x00235370                acFont32B_1_00BD
                0x002353d0                acFont32B_1_00BC
                0x002340d0                acFont32B_1_00F8
                0x00234af0                acFont32B_1_00D6
                0x002346f0                acFont32B_1_00E2
                0x00234730                acFont32B_1_00E1
                0x00234590                acFont32B_1_00E7
                0x00235950                acFont32B_1_00A7
                0x00235990                acFont32B_1_00A6
                0x002357b0                acFont32B_1_00AD
                0x00233eb0                acFont32B_1_00FE
                0x002351f0                acFont32B_1_00C1
                0x002342f0                acFont32B_1_00F2
                0x002354b0                acFont32B_1_00B9
                0x002350d0                acFont32B_1_00C4
                0x00235470                acFont32B_1_00BA
                0x00235650                acFont32B_1_00B2
                0x00234490                acFont32B_1_00EB
                0x002347b0                acFont32B_1_00DF
                0x00234810                acFont32B_1_00DE
                0x00235590                acFont32B_1_00B5
                0x00234cd0                acFont32B_1_00D1
                0x00233f10                acFont32B_1_00FD
                0x00234550                acFont32B_1_00E8
                0x00234f90                acFont32B_1_00C7
                0x00235a30                acFont32B_1_00A3
                0x00234450                acFont32B_1_00ED
                0x00235750                acFont32B_1_00AE
                0x00234d90                acFont32B_1_00CF
                0x00234e70                acFont32B_1_00CA
                0x00235ad0                acFont32B_1_00A0
                0x00234290                acFont32B_1_00F3
                0x002344d0                acFont32B_1_00EA
                0x002349f0                acFont32B_1_00D9
                0x002356d0                acFont32B_1_00B0
                0x00235430                acFont32B_1_00BB
                0x002348d0                acFont32B_1_00DC
                0x00234bb0                acFont32B_1_00D4
                0x002345d0                acFont32B_1_00E6
                0x00234770                acFont32B_1_00E0
                0x00234630                acFont32B_1_00E5
                0x00234ab0                acFont32B_1_00D7
                0x002359b0                acFont32B_1_00A5
                0x002357f0                acFont32B_1_00AC
                0x00235830                acFont32B_1_00AB
                0x00235070                acFont32B_1_00C5
                0x00234350                acFont32B_1_00F1
                0x002343b0                acFont32B_1_00F0
                0x00233e70                acFont32B_1_00FF
                0x002354f0                acFont32B_1_00B8
                0x00235530                acFont32B_1_00B7
                0x00235190                acFont32B_1_00C2
                0x00234410                acFont32B_1_00EF
                0x00234c70                acFont32B_1_00D2
                0x00234870                acFont32B_1_00DD
                0x00235610                acFont32B_1_00B3
                0x00234470                acFont32B_1_00EC
                0x00235ab0                acFont32B_1_00A1
                0x00234010                acFont32B_1_00FA
                0x00233b30                GUI_Font32B_1
                0x00234db0                acFont32B_1_00CE
                0x00234dd0                acFont32B_1_00CD
                0x00234510                acFont32B_1_00E9
                0x002359f0                acFont32B_1_00A4
                0x00234170                acFont32B_1_00F6
                0x00234130                acFont32B_1_00F7
                0x00234430                acFont32B_1_00EE
                0x00235710                acFont32B_1_00AF
                0x00234a50                acFont32B_1_00D8
                0x00235310                acFont32B_1_00BE
                0x002352b0                acFont32B_1_00BF
                0x00234930                acFont32B_1_00DB
                0x00234990                acFont32B_1_00DA
                0x00235690                acFont32B_1_00B1
                0x00234670                acFont32B_1_00E4
                0x002346b0                acFont32B_1_00E3
                0x00234b50                acFont32B_1_00D5
                0x002358b0                acFont32B_1_00A9
                0x00235910                acFont32B_1_00A8
                0x00235870                acFont32B_1_00AA
                0x00235130                acFont32B_1_00C3
                0x00233b60                GUI_Font32B_1_Prop2
                0x00235550                acFont32B_1_00B6
                0x00235250                acFont32B_1_00C0
                0x00234ff0                acFont32B_1_00C6
 .rodata        0x00235af0     0x1ea8 obj/F32B_ASCII.o
                0x00235ef8                acFont32B_ASCII_007A
                0x00236058                acFont32B_ASCII_0075
                0x00237558                acFont32B_ASCII_0032
                0x00236998                acFont32B_ASCII_0056
                0x00236378                acFont32B_ASCII_006C
                0x00237738                acFont32B_ASCII_0029
                0x00237658                acFont32B_ASCII_002D
                0x00237638                acFont32B_ASCII_002E
                0x00235f78                acFont32B_ASCII_0078
                0x00237498                acFont32B_ASCII_0035
                0x002364d8                acFont32B_ASCII_0066
                0x00237958                acFont32B_ASCII_0021
                0x002366d8                acFont32B_ASCII_005F
                0x00237838                acFont32B_ASCII_0025
                0x002361d8                acFont32B_ASCII_0070
                0x00235b20                GUI_Font32B_ASCII_CharInfo
                0x00237398                acFont32B_ASCII_0039
                0x00237778                acFont32B_ASCII_0028
                0x00236798                acFont32B_ASCII_005C
                0x00236518                acFont32B_ASCII_0065
                0x00237978                acFont32B_ASCII_0020
                0x00236ed8                acFont32B_ASCII_0047
                0x00236db8                acFont32B_ASCII_004B
                0x00236d58                acFont32B_ASCII_004C
                0x00236178                acFont32B_ASCII_0071
                0x002368b8                acFont32B_ASCII_0058
                0x00235e98                acFont32B_ASCII_007C
                0x00237178                acFont32B_ASCII_0040
                0x00236298                acFont32B_ASCII_006E
                0x00236658                acFont32B_ASCII_0061
                0x00237058                acFont32B_ASCII_0043
                0x00237258                acFont32B_ASCII_003E
                0x00235b10                GUI_Font32B_ASCII_Prop1
                0x00236b18                acFont32B_ASCII_0052
                0x00236f38                acFont32B_ASCII_0046
                0x00236398                acFont32B_ASCII_006B
                0x002363d8                acFont32B_ASCII_006A
                0x00237698                acFont32B_ASCII_002C
                0x00236018                acFont32B_ASCII_0076
                0x00237518                acFont32B_ASCII_0033
                0x00236ab8                acFont32B_ASCII_0053
                0x00236718                acFont32B_ASCII_005E
                0x00236418                acFont32B_ASCII_0068
                0x002378d8                acFont32B_ASCII_0023
                0x002371f8                acFont32B_ASCII_003F
                0x002367b8                acFont32B_ASCII_005B
                0x00236478                acFont32B_ASCII_0067
                0x00237918                acFont32B_ASCII_0022
                0x002360f8                acFont32B_ASCII_0073
                0x002375d8                acFont32B_ASCII_0030
                0x002377d8                acFont32B_ASCII_0026
                0x002376b8                acFont32B_ASCII_002B
                0x00236858                acFont32B_ASCII_0059
                0x00236e58                acFont32B_ASCII_0049
                0x00236c38                acFont32B_ASCII_004F
                0x00235f38                acFont32B_ASCII_0079
                0x00237458                acFont32B_ASCII_0036
                0x00236e18                acFont32B_ASCII_004A
                0x002365f8                acFont32B_ASCII_0062
                0x00235af0                GUI_Font32B_ASCII
                0x00236e78                acFont32B_ASCII_0048
                0x00236138                acFont32B_ASCII_0072
                0x002362f8                acFont32B_ASCII_006D
                0x00237118                acFont32B_ASCII_0041
                0x002372d8                acFont32B_ASCII_003C
                0x00237298                acFont32B_ASCII_003D
                0x00236ff8                acFont32B_ASCII_0044
                0x002369f8                acFont32B_ASCII_0055
                0x00235eb8                acFont32B_ASCII_007B
                0x00236bd8                acFont32B_ASCII_0050
                0x00235fb8                acFont32B_ASCII_0077
                0x002374d8                acFont32B_ASCII_0034
                0x00237618                acFont32B_ASCII_002F
                0x002367f8                acFont32B_ASCII_005A
                0x00236a58                acFont32B_ASCII_0054
                0x002373d8                acFont32B_ASCII_0038
                0x002377b8                acFont32B_ASCII_0027
                0x002363f8                acFont32B_ASCII_0069
                0x00237898                acFont32B_ASCII_0024
                0x00236558                acFont32B_ASCII_0064
                0x002360b8                acFont32B_ASCII_0074
                0x00237598                acFont32B_ASCII_0031
                0x00236238                acFont32B_ASCII_006F
                0x002376f8                acFont32B_ASCII_002A
                0x00236918                acFont32B_ASCII_0057
                0x00236758                acFont32B_ASCII_005D
                0x00236c98                acFont32B_ASCII_004E
                0x00236cf8                acFont32B_ASCII_004D
                0x00236698                acFont32B_ASCII_0060
                0x00235e58                acFont32B_ASCII_007D
                0x00237358                acFont32B_ASCII_003A
                0x00237418                acFont32B_ASCII_0037
                0x002365b8                acFont32B_ASCII_0063
                0x00235e18                acFont32B_ASCII_007E
                0x00237318                acFont32B_ASCII_003B
                0x00236b78                acFont32B_ASCII_0051
                0x00236f98                acFont32B_ASCII_0045
                0x002370b8                acFont32B_ASCII_0042
 *fill*         0x00237998        0x8 00
 .rodata        0x002379a0     0x1e40 obj/F32_1.o
                0x00239120                acFont32_1_00BB
                0x00237d60                acFont32_1_00FD
                0x00238360                acFont32_1_00E4
                0x00239680                acFont32_1_00A6
                0x00239520                acFont32_1_00AB
                0x00238560                acFont32_1_00DD
                0x00238080                acFont32_1_00F1
                0x002379e0                GUI_Font32_1_CharInfo
                0x00237e60                acFont32_1_00F9
                0x002392c0                acFont32_1_00B4
                0x00238dc0                acFont32_1_00C4
                0x00237fc0                acFont32_1_00F4
                0x00237de0                acFont32_1_00FB
                0x002381c0                acFont32_1_00EA
                0x00239760                acFont32_1_00A2
                0x002383a0                acFont32_1_00E3
                0x00238200                acFont32_1_00E9
                0x00239280                acFont32_1_00B5
                0x002388a0                acFont32_1_00D4
                0x00238140                acFont32_1_00ED
                0x00239000                acFont32_1_00BE
                0x002379c0                GUI_Font32_1_Prop1
                0x00238e80                acFont32_1_00C2
                0x002395a0                acFont32_1_00A9
                0x00237d20                acFont32_1_00FE
                0x00238ae0                acFont32_1_00CC
                0x00239060                acFont32_1_00BD
                0x00237ce0                acFont32_1_00FF
                0x00238ce0                acFont32_1_00C6
                0x00239160                acFont32_1_00BA
                0x00239600                acFont32_1_00A8
                0x00238c80                acFont32_1_00C7
                0x00238740                acFont32_1_00D8
                0x002386e0                acFont32_1_00D9
                0x00238e20                acFont32_1_00C3
                0x00238b00                acFont32_1_00CB
                0x00239380                acFont32_1_00B1
                0x00237f40                acFont32_1_00F6
                0x00238a20                acFont32_1_00D0
                0x002385c0                acFont32_1_00DC
                0x00238a80                acFont32_1_00CF
                0x00238460                acFont32_1_00E0
                0x00238120                acFont32_1_00EE
                0x002391e0                acFont32_1_00B8
                0x002397a0                acFont32_1_00A1
                0x00238420                acFont32_1_00E1
                0x00238240                acFont32_1_00E8
                0x002390c0                acFont32_1_00BC
                0x00238aa0                acFont32_1_00CE
                0x00238c20                acFont32_1_00C8
                0x002379a0                GUI_Font32_1
                0x00238180                acFont32_1_00EB
                0x002393c0                acFont32_1_00B0
                0x00239240                acFont32_1_00B6
                0x00237f80                acFont32_1_00F5
                0x00238fa0                acFont32_1_00BF
                0x00238b60                acFont32_1_00CA
                0x00238320                acFont32_1_00E5
                0x00238040                acFont32_1_00F2
                0x00237ea0                acFont32_1_00F8
                0x00239300                acFont32_1_00B3
                0x002379d0                GUI_Font32_1_Prop2
                0x00239400                acFont32_1_00AF
                0x00239560                acFont32_1_00AA
                0x00238d60                acFont32_1_00C5
                0x002384a0                acFont32_1_00DF
                0x00238000                acFont32_1_00F3
                0x00239220                acFont32_1_00B7
                0x00238100                acFont32_1_00EF
                0x00238840                acFont32_1_00D5
                0x002383e0                acFont32_1_00E2
                0x00239720                acFont32_1_00A3
                0x00238900                acFont32_1_00D3
                0x00238160                acFont32_1_00EC
                0x002387e0                acFont32_1_00D6
                0x002396e0                acFont32_1_00A4
                0x00237da0                acFont32_1_00FC
                0x002389c0                acFont32_1_00D1
                0x00238280                acFont32_1_00E7
                0x002397c0                acFont32_1_00A0
                0x002394a0                acFont32_1_00AD
                0x00238ac0                acFont32_1_00CD
                0x00238500                acFont32_1_00DE
                0x00238620                acFont32_1_00DB
                0x00238f40                acFont32_1_00C0
                0x00239640                acFont32_1_00A7
                0x002394e0                acFont32_1_00AC
                0x002380c0                acFont32_1_00F0
                0x00239340                acFont32_1_00B2
                0x00237f00                acFont32_1_00F7
                0x002391a0                acFont32_1_00B9
                0x002387a0                acFont32_1_00D7
                0x00237e20                acFont32_1_00FA
                0x00238960                acFont32_1_00D2
                0x002382c0                acFont32_1_00E6
                0x00238680                acFont32_1_00DA
                0x00239440                acFont32_1_00AE
                0x002396a0                acFont32_1_00A5
                0x00238ee0                acFont32_1_00C1
                0x00238bc0                acFont32_1_00C9
 .rodata        0x002397e0     0x1c48 obj/F32_ASCII.o
                0x0023ada8                acFont32_ASCII_003C
                0x0023a528                acFont32_ASCII_0055
                0x0023aa88                acFont32_ASCII_0045
                0x0023a948                acFont32_ASCII_0049
                0x0023b3a8                acFont32_ASCII_0022
                0x0023a908                acFont32_ASCII_004A
                0x0023a248                acFont32_ASCII_005F
                0x0023b128                acFont32_ASCII_002C
                0x00239b88                acFont32_ASCII_007C
                0x0023ace8                acFont32_ASCII_003F
                0x00239800                GUI_Font32_ASCII_Prop1
                0x0023ab48                acFont32_ASCII_0043
                0x0023a028                acFont32_ASCII_0068
                0x00239e28                acFont32_ASCII_0071
                0x0023af68                acFont32_ASCII_0034
                0x0023a1c8                acFont32_ASCII_0061
                0x0023b268                acFont32_ASCII_0026
                0x00239ba8                acFont32_ASCII_007B
                0x0023ad28                acFont32_ASCII_003E
                0x0023a288                acFont32_ASCII_005E
                0x0023b368                acFont32_ASCII_0023
                0x0023a188                acFont32_ASCII_0062
                0x0023b248                acFont32_ASCII_0027
                0x0023a068                acFont32_ASCII_0067
                0x0023ac68                acFont32_ASCII_0040
                0x0023b148                acFont32_ASCII_002B
                0x0023aae8                acFont32_ASCII_0044
                0x00239be8                acFont32_ASCII_007A
                0x0023ad68                acFont32_ASCII_003D
                0x0023a688                acFont32_ASCII_0051
                0x00239d88                acFont32_ASCII_0074
                0x0023aea8                acFont32_ASCII_0037
                0x00239b48                acFont32_ASCII_007D
                0x00239d08                acFont32_ASCII_0076
                0x0023ae28                acFont32_ASCII_0039
                0x0023a968                acFont32_ASCII_0048
                0x0023a2c8                acFont32_ASCII_005D
                0x0023a8a8                acFont32_ASCII_004B
                0x0023ac08                acFont32_ASCII_0041
                0x0023a008                acFont32_ASCII_0069
                0x0023b328                acFont32_ASCII_0024
                0x0023a308                acFont32_ASCII_005B
                0x0023a808                acFont32_ASCII_004D
                0x00239b08                acFont32_ASCII_007E
                0x0023a588                acFont32_ASCII_0054
                0x0023b028                acFont32_ASCII_0031
                0x0023a0a8                acFont32_ASCII_0066
                0x0023a388                acFont32_ASCII_0059
                0x00239ee8                acFont32_ASCII_006E
                0x0023ade8                acFont32_ASCII_003B
                0x00239fa8                acFont32_ASCII_006B
                0x0023b068                acFont32_ASCII_0030
                0x00239c28                acFont32_ASCII_0079
                0x00239d48                acFont32_ASCII_0075
                0x0023a9c8                acFont32_ASCII_0047
                0x0023ae68                acFont32_ASCII_0038
                0x00239fe8                acFont32_ASCII_006A
                0x0023b0a8                acFont32_ASCII_002F
                0x0023b0e8                acFont32_ASCII_002D
                0x0023aa28                acFont32_ASCII_0046
                0x0023afe8                acFont32_ASCII_0032
                0x00239ea8                acFont32_ASCII_006F
                0x0023a3e8                acFont32_ASCII_0058
                0x0023b188                acFont32_ASCII_002A
                0x00239c68                acFont32_ASCII_0078
                0x0023ae08                acFont32_ASCII_003A
                0x0023a5c8                acFont32_ASCII_0053
                0x002397e0                GUI_Font32_ASCII
                0x0023aba8                acFont32_ASCII_0042
                0x0023a148                acFont32_ASCII_0063
                0x0023b208                acFont32_ASCII_0028
                0x00239f88                acFont32_ASCII_006C
                0x00239810                GUI_Font32_ASCII_CharInfo
                0x0023a208                acFont32_ASCII_0060
                0x0023b2c8                acFont32_ASCII_0025
                0x0023a628                acFont32_ASCII_0052
                0x00239de8                acFont32_ASCII_0072
                0x0023af28                acFont32_ASCII_0035
                0x0023a748                acFont32_ASCII_004F
                0x00239da8                acFont32_ASCII_0073
                0x0023aee8                acFont32_ASCII_0036
                0x00239e68                acFont32_ASCII_0070
                0x0023afa8                acFont32_ASCII_0033
                0x0023a868                acFont32_ASCII_004C
                0x0023b408                acFont32_ASCII_0020
                0x0023b0c8                acFont32_ASCII_002E
                0x00239f28                acFont32_ASCII_006D
                0x0023a2e8                acFont32_ASCII_005C
                0x00239ca8                acFont32_ASCII_0077
                0x0023a0c8                acFont32_ASCII_0065
                0x0023a7a8                acFont32_ASCII_004E
                0x0023a448                acFont32_ASCII_0057
                0x0023a328                acFont32_ASCII_005A
                0x0023b3e8                acFont32_ASCII_0021
                0x0023a108                acFont32_ASCII_0064
                0x0023b1c8                acFont32_ASCII_0029
                0x0023a6e8                acFont32_ASCII_0050
                0x0023a4c8                acFont32_ASCII_0056
 *fill*         0x0023b428        0x8 00
 .rodata        0x0023b430      0x26e obj/F4x6.o
                0x0023b464                acFont4x6
                0x0023b430                GUI_Font4x6
                0x0023b450                FontMono4x6
 *fill*         0x0023b69e        0x2 00
 .rodata        0x0023b6a0      0x748 obj/F6x8.o
                0x0023b6c0                GUI_Font6x8
                0x0023b710                GUI_F6x8_TL8859_1
                0x0023b6e0                GUI_F6x8_Mono
                0x0023b6a0                GUI_Font6x9
                0x0023b8d0                GUI_acFont6x8
                0x0023b700                GUI_F6x8_TI8859_1
 *fill*         0x0023bde8        0x8 00
 .rodata        0x0023bdf0      0x6f0 obj/F8x10_ASCII.o
                0x0023c1d4                acFont8x10ASCII_006D
                0x0023c3aa                acFont8x10ASCII_003E
                0x0023c472                acFont8x10ASCII_002A
                0x0023c18e                acFont8x10ASCII_0074
                0x0023c3dc                acFont8x10ASCII_0039
                0x0023c1c0                acFont8x10ASCII_006F
                0x0023c440                acFont8x10ASCII_002F
                0x0023c256                acFont8x10ASCII_0060
                0x0023c3be                acFont8x10ASCII_003C
                0x0023c120                acFont8x10ASCII_007F
                0x0023c13e                acFont8x10ASCII_007C
                0x0023c33c                acFont8x10ASCII_0049
                0x0023c2d8                acFont8x10ASCII_0053
                0x0023c40e                acFont8x10ASCII_0034
                0x0023c35a                acFont8x10ASCII_0046
                0x0023bdf0                GUI_Font8x10_ASCII
                0x0023be20                GUI_Font8x10ASCII_CharInfo
                0x0023c170                acFont8x10ASCII_0077
                0x0023c2e2                acFont8x10ASCII_0052
                0x0023c242                acFont8x10ASCII_0062
                0x0023c29c                acFont8x10ASCII_0059
                0x0023c31e                acFont8x10ASCII_004C
                0x0023c4c2                acFont8x10ASCII_0022
                0x0023c210                acFont8x10ASCII_0067
                0x0023c148                acFont8x10ASCII_007B
                0x0023c49a                acFont8x10ASCII_0026
                0x0023c292                acFont8x10ASCII_005A
                0x0023c274                acFont8x10ASCII_005D
                0x0023c4b8                acFont8x10ASCII_0023
                0x0023c1ac                acFont8x10ASCII_0071
                0x0023be10                GUI_Font8x10ASCII_Prop1
                0x0023c206                acFont8x10ASCII_0068
                0x0023c1de                acFont8x10ASCII_006C
                0x0023c418                acFont8x10ASCII_0033
                0x0023c45e                acFont8x10ASCII_002C
                0x0023c38c                acFont8x10ASCII_0041
                0x0023c17a                acFont8x10ASCII_0076
                0x0023c3e6                acFont8x10ASCII_0038
                0x0023c36e                acFont8x10ASCII_0044
                0x0023c2a6                acFont8x10ASCII_0058
                0x0023c468                acFont8x10ASCII_002B
                0x0023c396                acFont8x10ASCII_0040
                0x0023c3c8                acFont8x10ASCII_003B
                0x0023c12a                acFont8x10ASCII_007E
                0x0023c24c                acFont8x10ASCII_0061
                0x0023c346                acFont8x10ASCII_0048
                0x0023c26a                acFont8x10ASCII_005E
                0x0023c328                acFont8x10ASCII_004B
                0x0023c364                acFont8x10ASCII_0045
                0x0023c2ce                acFont8x10ASCII_0054
                0x0023c4cc                acFont8x10ASCII_0021
                0x0023c22e                acFont8x10ASCII_0064
                0x0023c21a                acFont8x10ASCII_0066
                0x0023c30a                acFont8x10ASCII_004E
                0x0023c47c                acFont8x10ASCII_0029
                0x0023c3f0                acFont8x10ASCII_0037
                0x0023c4a4                acFont8x10ASCII_0025
                0x0023c238                acFont8x10ASCII_0063
                0x0023c152                acFont8x10ASCII_007A
                0x0023c486                acFont8x10ASCII_0028
                0x0023c314                acFont8x10ASCII_004D
                0x0023c27e                acFont8x10ASCII_005C
                0x0023c436                acFont8x10ASCII_0030
                0x0023c2ba                acFont8x10ASCII_0056
                0x0023c3b4                acFont8x10ASCII_003D
                0x0023c198                acFont8x10ASCII_0073
                0x0023c44a                acFont8x10ASCII_002E
                0x0023c1e8                acFont8x10ASCII_006B
                0x0023c1ca                acFont8x10ASCII_006E
                0x0023c1a2                acFont8x10ASCII_0072
                0x0023c2b0                acFont8x10ASCII_0057
                0x0023c378                acFont8x10ASCII_0043
                0x0023c454                acFont8x10ASCII_002D
                0x0023c3d2                acFont8x10ASCII_003A
                0x0023c382                acFont8x10ASCII_0042
                0x0023c134                acFont8x10ASCII_007D
                0x0023c350                acFont8x10ASCII_0047
                0x0023c2ec                acFont8x10ASCII_0051
                0x0023c404                acFont8x10ASCII_0035
                0x0023c332                acFont8x10ASCII_004A
                0x0023c166                acFont8x10ASCII_0078
                0x0023c260                acFont8x10ASCII_005F
                0x0023c2f6                acFont8x10ASCII_0050
                0x0023c3fa                acFont8x10ASCII_0036
                0x0023c4d6                acFont8x10ASCII_0020
                0x0023c224                acFont8x10ASCII_0065
                0x0023c15c                acFont8x10ASCII_0079
                0x0023c490                acFont8x10ASCII_0027
                0x0023c300                acFont8x10ASCII_004F
                0x0023c288                acFont8x10ASCII_005B
                0x0023c1b6                acFont8x10ASCII_0070
                0x0023c422                acFont8x10ASCII_0032
                0x0023c4ae                acFont8x10ASCII_0024
                0x0023c2c4                acFont8x10ASCII_0055
                0x0023c3a0                acFont8x10ASCII_003F
                0x0023c184                acFont8x10ASCII_0075
                0x0023c1fc                acFont8x10ASCII_0069
                0x0023c42c                acFont8x10ASCII_0031
                0x0023c1f2                acFont8x10ASCII_006A
 .rodata        0x0023c4e0      0x7b0 obj/F8x12_ASCII.o
                0x0023ca2c                acFont8x12ASCII_0052
                0x0023c960                acFont8x12ASCII_0063
                0x0023cc24                acFont8x12ASCII_0028
                0x0023c500                GUI_Font8x12ASCII_Prop1
                0x0023cc18                acFont8x12ASCII_0029
                0x0023c8c4                acFont8x12ASCII_0070
                0x0023cb70                acFont8x12ASCII_0037
                0x0023ca80                acFont8x12ASCII_004B
                0x0023caec                acFont8x12ASCII_0042
                0x0023c954                acFont8x12ASCII_0064
                0x0023cb34                acFont8x12ASCII_003C
                0x0023c828                acFont8x12ASCII_007D
                0x0023c894                acFont8x12ASCII_0074
                0x0023ca98                acFont8x12ASCII_0049
                0x0023c900                acFont8x12ASCII_006B
                0x0023c810                acFont8x12ASCII_007F
                0x0023cb10                acFont8x12ASCII_003F
                0x0023cbb8                acFont8x12ASCII_0031
                0x0023c870                acFont8x12ASCII_0077
                0x0023cb94                acFont8x12ASCII_0034
                0x0023cbac                acFont8x12ASCII_0032
                0x0023cc54                acFont8x12ASCII_0024
                0x0023cac8                acFont8x12ASCII_0045
                0x0023cbe8                acFont8x12ASCII_002D
                0x0023c9f0                acFont8x12ASCII_0057
                0x0023c9cc                acFont8x12ASCII_005A
                0x0023ca14                acFont8x12ASCII_0054
                0x0023c930                acFont8x12ASCII_0067
                0x0023ca50                acFont8x12ASCII_004F
                0x0023c9e4                acFont8x12ASCII_0058
                0x0023cad4                acFont8x12ASCII_0044
                0x0023c9c0                acFont8x12ASCII_005B
                0x0023c99c                acFont8x12ASCII_005E
                0x0023cc0c                acFont8x12ASCII_002A
                0x0023c990                acFont8x12ASCII_005F
                0x0023c8e8                acFont8x12ASCII_006D
                0x0023c510                GUI_Font8x12ASCII_CharInfo
                0x0023ca44                acFont8x12ASCII_0050
                0x0023ca74                acFont8x12ASCII_004C
                0x0023c96c                acFont8x12ASCII_0062
                0x0023cc6c                acFont8x12ASCII_0022
                0x0023cc30                acFont8x12ASCII_0027
                0x0023c8ac                acFont8x12ASCII_0072
                0x0023cb58                acFont8x12ASCII_0039
                0x0023cb7c                acFont8x12ASCII_0036
                0x0023caf8                acFont8x12ASCII_0041
                0x0023c8f4                acFont8x12ASCII_006C
                0x0023c978                acFont8x12ASCII_0061
                0x0023cc3c                acFont8x12ASCII_0026
                0x0023c8a0                acFont8x12ASCII_0073
                0x0023cb28                acFont8x12ASCII_003D
                0x0023c858                acFont8x12ASCII_0079
                0x0023c864                acFont8x12ASCII_0078
                0x0023caa4                acFont8x12ASCII_0048
                0x0023c81c                acFont8x12ASCII_007E
                0x0023cbc4                acFont8x12ASCII_0030
                0x0023c888                acFont8x12ASCII_0075
                0x0023c84c                acFont8x12ASCII_007A
                0x0023cbdc                acFont8x12ASCII_002E
                0x0023c924                acFont8x12ASCII_0068
                0x0023cb04                acFont8x12ASCII_0040
                0x0023cc60                acFont8x12ASCII_0023
                0x0023c9fc                acFont8x12ASCII_0056
                0x0023c9b4                acFont8x12ASCII_005C
                0x0023ca20                acFont8x12ASCII_0053
                0x0023c4e0                GUI_Font8x12_ASCII
                0x0023cae0                acFont8x12ASCII_0043
                0x0023cc00                acFont8x12ASCII_002B
                0x0023c8dc                acFont8x12ASCII_006E
                0x0023c948                acFont8x12ASCII_0065
                0x0023ca68                acFont8x12ASCII_004D
                0x0023cc84                acFont8x12ASCII_0020
                0x0023ca8c                acFont8x12ASCII_004A
                0x0023cb40                acFont8x12ASCII_003B
                0x0023c834                acFont8x12ASCII_007C
                0x0023cc78                acFont8x12ASCII_0021
                0x0023c8b8                acFont8x12ASCII_0071
                0x0023cb88                acFont8x12ASCII_0035
                0x0023cba0                acFont8x12ASCII_0033
                0x0023cb64                acFont8x12ASCII_0038
                0x0023cb1c                acFont8x12ASCII_003E
                0x0023cb4c                acFont8x12ASCII_003A
                0x0023cabc                acFont8x12ASCII_0046
                0x0023c984                acFont8x12ASCII_0060
                0x0023cc48                acFont8x12ASCII_0025
                0x0023c87c                acFont8x12ASCII_0076
                0x0023c840                acFont8x12ASCII_007B
                0x0023ca08                acFont8x12ASCII_0055
                0x0023cab0                acFont8x12ASCII_0047
                0x0023cbd0                acFont8x12ASCII_002F
                0x0023cbf4                acFont8x12ASCII_002C
                0x0023c90c                acFont8x12ASCII_006A
                0x0023c9d8                acFont8x12ASCII_0059
                0x0023c918                acFont8x12ASCII_0069
                0x0023c8d0                acFont8x12ASCII_006F
                0x0023c93c                acFont8x12ASCII_0066
                0x0023ca5c                acFont8x12ASCII_004E
                0x0023c9a8                acFont8x12ASCII_005D
                0x0023ca38                acFont8x12ASCII_0051
 .rodata        0x0023cc90      0x820 obj/F8x13_1.o
                0x0023d385                acF8x13_1_182
                0x0023d351                acF8x13_1_186
                0x0023d06c                acF8x13_1_243
                0x0023d1be                acF8x13_1_217
                0x0023d233                acF8x13_1_208
                0x0023d20c                acF8x13_1_211
                0x0023d4a3                acF8x13_1_160
                0x0023d122                acF8x13_1_229
                0x0023d149                acF8x13_1_226
                0x0023d038                acF8x13_1_247
                0x0023d39f                acF8x13_1_180
                0x0023d2c2                acF8x13_1_197
                0x0023d32a                acF8x13_1_189
                0x0023d2dc                acF8x13_1_195
                0x0023d344                acF8x13_1_187
                0x0023d0e1                acF8x13_1_234
                0x0023d045                acF8x13_1_246
                0x0023d0fb                acF8x13_1_232
                0x0023d25a                acF8x13_1_205
                0x0023d1e5                acF8x13_1_214
                0x0023d2b5                acF8x13_1_198
                0x0023d421                acF8x13_1_170
                0x0023d448                acF8x13_1_167
                0x0023d05f                acF8x13_1_244
                0x0023d47c                acF8x13_1_163
                0x0023ccb0                GUI_FontPropF8x13_1_1
                0x0023d0ee                acF8x13_1_233
                0x0023d267                acF8x13_1_204
                0x0023d496                acF8x13_1_161
                0x0023d36b                acF8x13_1_184
                0x0023d3ac                acF8x13_1_179
                0x0023cc90                GUI_Font8x13_1
                0x0023d3c6                acF8x13_1_177
                0x0023d1b1                acF8x13_1_218
                0x0023d0d4                acF8x13_1_235
                0x0023d13c                acF8x13_1_227
                0x0023d31d                acF8x13_1_190
                0x0023d011                acF8x13_1_250
                0x0023d2e9                acF8x13_1_194
                0x0023d0c7                acF8x13_1_236
                0x0023d219                acF8x13_1_210
                0x0023cfdd                acF8x13_1_254
                0x0023ccd0                GUI_CharInfoF8x13_1
                0x0023d28e                acF8x13_1_201
                0x0023d02b                acF8x13_1_248
                0x0023d455                acF8x13_1_166
                0x0023d115                acF8x13_1_230
                0x0023d489                acF8x13_1_162
                0x0023cff7                acF8x13_1_252
                0x0023d3e0                acF8x13_1_175
                0x0023d1a4                acF8x13_1_219
                0x0023d462                acF8x13_1_165
                0x0023d12f                acF8x13_1_228
                0x0023d079                acF8x13_1_242
                0x0023d1f2                acF8x13_1_213
                0x0023d407                acF8x13_1_172
                0x0023d42e                acF8x13_1_169
                0x0023d170                acF8x13_1_223
                0x0023d3d3                acF8x13_1_176
                0x0023d197                acF8x13_1_220
                0x0023d1cb                acF8x13_1_216
                0x0023d35e                acF8x13_1_185
                0x0023d226                acF8x13_1_209
                0x0023d274                acF8x13_1_203
                0x0023d2f6                acF8x13_1_193
                0x0023d392                acF8x13_1_181
                0x0023d414                acF8x13_1_171
                0x0023d24d                acF8x13_1_206
                0x0023d29b                acF8x13_1_200
                0x0023d0ba                acF8x13_1_237
                0x0023d3b9                acF8x13_1_178
                0x0023d3fa                acF8x13_1_173
                0x0023d01e                acF8x13_1_249
                0x0023d0ad                acF8x13_1_238
                0x0023d093                acF8x13_1_240
                0x0023d337                acF8x13_1_188
                0x0023cfd0                acF8x13_1_255
                0x0023d163                acF8x13_1_224
                0x0023d18a                acF8x13_1_221
                0x0023d156                acF8x13_1_225
                0x0023d46f                acF8x13_1_164
                0x0023d052                acF8x13_1_245
                0x0023d303                acF8x13_1_192
                0x0023cfea                acF8x13_1_253
                0x0023d17d                acF8x13_1_222
                0x0023d1d8                acF8x13_1_215
                0x0023d310                acF8x13_1_191
                0x0023d2cf                acF8x13_1_196
                0x0023d2a8                acF8x13_1_199
                0x0023d0a0                acF8x13_1_239
                0x0023d004                acF8x13_1_251
                0x0023d240                acF8x13_1_207
                0x0023d086                acF8x13_1_241
                0x0023d281                acF8x13_1_202
                0x0023d43b                acF8x13_1_168
                0x0023d378                acF8x13_1_183
                0x0023d108                acF8x13_1_231
                0x0023d1ff                acF8x13_1_212
                0x0023d3ed                acF8x13_1_174
                0x0023ccc0                GUI_FontPropF8x13_1_2
 .rodata        0x0023d4b0      0x810 obj/F8x13_ASCII.o
                0x0023d4e0                GUI_CharInfoF8x13_ASCII
                0x0023da91                acF8x13_ASCII_74
                0x0023d93f                acF8x13_ASCII_100
                0x0023dc99                acF8x13_ASCII_34
                0x0023dca6                acF8x13_ASCII_33
                0x0023dbe3                acF8x13_ASCII_48
                0x0023d8bd                acF8x13_ASCII_110
                0x0023d7fa                acF8x13_ASCII_125
                0x0023db61                acF8x13_ASCII_58
                0x0023db6e                acF8x13_ASCII_57
                0x0023da43                acF8x13_ASCII_80
                0x0023da36                acF8x13_ASCII_81
                0x0023dbc9                acF8x13_ASCII_50
                0x0023d980                acF8x13_ASCII_95
                0x0023daec                acF8x13_ASCII_67
                0x0023d83b                acF8x13_ASCII_120
                0x0023dc7f                acF8x13_ASCII_36
                0x0023db95                acF8x13_ASCII_54
                0x0023db3a                acF8x13_ASCII_61
                0x0023db2d                acF8x13_ASCII_62
                0x0023d8e4                acF8x13_ASCII_107
                0x0023dbbc                acF8x13_ASCII_51
                0x0023d973                acF8x13_ASCII_96
                0x0023d918                acF8x13_ASCII_103
                0x0023da6a                acF8x13_ASCII_77
                0x0023d9f5                acF8x13_ASCII_86
                0x0023dc24                acF8x13_ASCII_43
                0x0023d889                acF8x13_ASCII_114
                0x0023d9ce                acF8x13_ASCII_89
                0x0023dbf0                acF8x13_ASCII_47
                0x0023dbfd                acF8x13_ASCII_46
                0x0023d9c1                acF8x13_ASCII_90
                0x0023d8d7                acF8x13_ASCII_108
                0x0023d925                acF8x13_ASCII_102
                0x0023db7b                acF8x13_ASCII_56
                0x0023dc8c                acF8x13_ASCII_35
                0x0023d8f1                acF8x13_ASCII_106
                0x0023da9e                acF8x13_ASCII_73
                0x0023da29                acF8x13_ASCII_82
                0x0023da1c                acF8x13_ASCII_83
                0x0023dc4b                acF8x13_ASCII_40
                0x0023d82e                acF8x13_ASCII_121
                0x0023d932                acF8x13_ASCII_101
                0x0023d855                acF8x13_ASCII_118
                0x0023d9a7                acF8x13_ASCII_92
                0x0023dad2                acF8x13_ASCII_69
                0x0023d7ed                acF8x13_ASCII_126
                0x0023dc65                acF8x13_ASCII_38
                0x0023dc72                acF8x13_ASCII_37
                0x0023daf9                acF8x13_ASCII_66
                0x0023d807                acF8x13_ASCII_124
                0x0023db20                acF8x13_ASCII_63
                0x0023d90b                acF8x13_ASCII_104
                0x0023dba2                acF8x13_ASCII_53
                0x0023d94c                acF8x13_ASCII_99
                0x0023d959                acF8x13_ASCII_98
                0x0023da50                acF8x13_ASCII_79
                0x0023d9db                acF8x13_ASCII_88
                0x0023dc0a                acF8x13_ASCII_45
                0x0023d86f                acF8x13_ASCII_116
                0x0023dac5                acF8x13_ASCII_70
                0x0023dab8                acF8x13_ASCII_71
                0x0023db54                acF8x13_ASCII_59
                0x0023da02                acF8x13_ASCII_85
                0x0023dc31                acF8x13_ASCII_42
                0x0023dbd6                acF8x13_ASCII_49
                0x0023d4b0                GUI_Font8x13_ASCII
                0x0023d9b4                acF8x13_ASCII_91
                0x0023d848                acF8x13_ASCII_119
                0x0023d7e0                acF8x13_ASCII_127
                0x0023dcb3                acF8x13_ASCII_32
                0x0023d4d0                GUI_FontPropF8x13_ASCII_1
                0x0023db88                acF8x13_ASCII_55
                0x0023d814                acF8x13_ASCII_123
                0x0023da77                acF8x13_ASCII_76
                0x0023da84                acF8x13_ASCII_75
                0x0023da0f                acF8x13_ASCII_84
                0x0023dc3e                acF8x13_ASCII_41
                0x0023d821                acF8x13_ASCII_122
                0x0023d87c                acF8x13_ASCII_115
                0x0023d99a                acF8x13_ASCII_93
                0x0023d98d                acF8x13_ASCII_94
                0x0023db06                acF8x13_ASCII_65
                0x0023db13                acF8x13_ASCII_64
                0x0023dc58                acF8x13_ASCII_39
                0x0023d8a3                acF8x13_ASCII_112
                0x0023dbaf                acF8x13_ASCII_52
                0x0023d966                acF8x13_ASCII_97
                0x0023dadf                acF8x13_ASCII_68
                0x0023d8ca                acF8x13_ASCII_109
                0x0023d8fe                acF8x13_ASCII_105
                0x0023db47                acF8x13_ASCII_60
                0x0023da5d                acF8x13_ASCII_78
                0x0023d862                acF8x13_ASCII_117
                0x0023d8b0                acF8x13_ASCII_111
                0x0023daab                acF8x13_ASCII_72
                0x0023d896                acF8x13_ASCII_113
                0x0023d9e8                acF8x13_ASCII_87
                0x0023dc17                acF8x13_ASCII_44
 .rodata        0x0023dcc0      0x8e0 obj/F8x15B_1.o
                0x0023e4b0                acF8x15B_1_175
                0x0023e1d1                acF8x15B_1_224
                0x0023e393                acF8x15B_1_194
                0x0023e294                acF8x15B_1_211
                0x0023e267                acF8x15B_1_214
                0x0023e0b4                acF8x15B_1_243
                0x0023e21c                acF8x15B_1_219
                0x0023e12c                acF8x15B_1_235
                0x0023e1b3                acF8x15B_1_226
                0x0023e2c1                acF8x15B_1_208
                0x0023e447                acF8x15B_1_182
                0x0023e2df                acF8x15B_1_206
                0x0023e00f                acF8x15B_1_254
                0x0023e546                acF8x15B_1_165
                0x0023e0ff                acF8x15B_1_238
                0x0023e3b1                acF8x15B_1_192
                0x0023e087                acF8x15B_1_246
                0x0023e375                acF8x15B_1_196
                0x0023e4dd                acF8x15B_1_172
                0x0023e2ee                acF8x15B_1_205
                0x0023e483                acF8x15B_1_178
                0x0023dcf0                GUI_FontPropF8x15B_1_2
                0x0023e186                acF8x15B_1_229
                0x0023e285                acF8x15B_1_212
                0x0023e30c                acF8x15B_1_203
                0x0023e40b                acF8x15B_1_186
                0x0023e11d                acF8x15B_1_236
                0x0023e14a                acF8x15B_1_233
                0x0023e249                acF8x15B_1_216
                0x0023dd00                GUI_CharInfoF8x15B_1
                0x0023e3cf                acF8x15B_1_190
                0x0023e4ec                acF8x15B_1_171
                0x0023e3ed                acF8x15B_1_188
                0x0023e03c                acF8x15B_1_251
                0x0023e4bf                acF8x15B_1_174
                0x0023e357                acF8x15B_1_198
                0x0023e0d2                acF8x15B_1_241
                0x0023e258                acF8x15B_1_215
                0x0023e384                acF8x15B_1_195
                0x0023e32a                acF8x15B_1_201
                0x0023e555                acF8x15B_1_164
                0x0023e519                acF8x15B_1_168
                0x0023e04b                acF8x15B_1_250
                0x0023e22b                acF8x15B_1_218
                0x0023e438                acF8x15B_1_183
                0x0023e2d0                acF8x15B_1_207
                0x0023e537                acF8x15B_1_166
                0x0023e0f0                acF8x15B_1_239
                0x0023e13b                acF8x15B_1_234
                0x0023e168                acF8x15B_1_231
                0x0023e195                acF8x15B_1_228
                0x0023e01e                acF8x15B_1_253
                0x0023e1ef                acF8x15B_1_222
                0x0023e3a2                acF8x15B_1_193
                0x0023e20d                acF8x15B_1_220
                0x0023e4a1                acF8x15B_1_176
                0x0023e078                acF8x15B_1_247
                0x0023dce0                GUI_FontPropF8x15B_1_1
                0x0023e50a                acF8x15B_1_169
                0x0023e4ce                acF8x15B_1_173
                0x0023e465                acF8x15B_1_180
                0x0023e2fd                acF8x15B_1_204
                0x0023dcc0                GUI_Font8x15B_1
                0x0023e41a                acF8x15B_1_185
                0x0023e3de                acF8x15B_1_189
                0x0023e582                acF8x15B_1_161
                0x0023e10e                acF8x15B_1_237
                0x0023e23a                acF8x15B_1_217
                0x0023e02d                acF8x15B_1_252
                0x0023e000                acF8x15B_1_255
                0x0023e0a5                acF8x15B_1_244
                0x0023e1e0                acF8x15B_1_223
                0x0023e05a                acF8x15B_1_249
                0x0023e0c3                acF8x15B_1_242
                0x0023e2b2                acF8x15B_1_209
                0x0023e456                acF8x15B_1_181
                0x0023e348                acF8x15B_1_199
                0x0023e1c2                acF8x15B_1_225
                0x0023e564                acF8x15B_1_163
                0x0023e528                acF8x15B_1_167
                0x0023e2a3                acF8x15B_1_210
                0x0023e339                acF8x15B_1_200
                0x0023e429                acF8x15B_1_184
                0x0023e096                acF8x15B_1_245
                0x0023e177                acF8x15B_1_230
                0x0023e366                acF8x15B_1_197
                0x0023e276                acF8x15B_1_213
                0x0023e1a4                acF8x15B_1_227
                0x0023e1fe                acF8x15B_1_221
                0x0023e069                acF8x15B_1_248
                0x0023e0e1                acF8x15B_1_240
                0x0023e474                acF8x15B_1_179
                0x0023e31b                acF8x15B_1_202
                0x0023e492                acF8x15B_1_177
                0x0023e591                acF8x15B_1_160
                0x0023e4fb                acF8x15B_1_170
                0x0023e159                acF8x15B_1_232
                0x0023e3fc                acF8x15B_1_187
                0x0023e3c0                acF8x15B_1_191
                0x0023e573                acF8x15B_1_162
 .rodata        0x0023e5a0      0x8d0 obj/F8x15B_ASCII.o
                0x0023eb82                acF8x15B_ASCII_81
                0x0023ec90                acF8x15B_ASCII_63
                0x0023ec63                acF8x15B_ASCII_66
                0x0023ebaf                acF8x15B_ASCII_78
                0x0023ed17                acF8x15B_ASCII_54
                0x0023e91b                acF8x15B_ASCII_122
                0x0023ee34                acF8x15B_ASCII_35
                0x0023ee25                acF8x15B_ASCII_36
                0x0023e9c0                acF8x15B_ASCII_111
                0x0023e9de                acF8x15B_ASCII_109
                0x0023ec54                acF8x15B_ASCII_67
                0x0023ec18                acF8x15B_ASCII_71
                0x0023edf8                acF8x15B_ASCII_39
                0x0023ebdc                acF8x15B_ASCII_75
                0x0023ebbe                acF8x15B_ASCII_77
                0x0023ed62                acF8x15B_ASCII_49
                0x0023eb19                acF8x15B_ASCII_88
                0x0023ed44                acF8x15B_ASCII_51
                0x0023ea83                acF8x15B_ASCII_98
                0x0023eaec                acF8x15B_ASCII_91
                0x0023edad                acF8x15B_ASCII_44
                0x0023e9cf                acF8x15B_ASCII_110
                0x0023eb64                acF8x15B_ASCII_83
                0x0023e984                acF8x15B_ASCII_115
                0x0023ecbd                acF8x15B_ASCII_60
                0x0023ee16                acF8x15B_ASCII_37
                0x0023e8df                acF8x15B_ASCII_126
                0x0023ecea                acF8x15B_ASCII_57
                0x0023e948                acF8x15B_ASCII_119
                0x0023ebcd                acF8x15B_ASCII_76
                0x0023e9fc                acF8x15B_ASCII_107
                0x0023ec36                acF8x15B_ASCII_69
                0x0023ecae                acF8x15B_ASCII_61
                0x0023ea38                acF8x15B_ASCII_103
                0x0023ec81                acF8x15B_ASCII_64
                0x0023ea1a                acF8x15B_ASCII_105
                0x0023ebfa                acF8x15B_ASCII_73
                0x0023ee43                acF8x15B_ASCII_34
                0x0023eccc                acF8x15B_ASCII_59
                0x0023ea65                acF8x15B_ASCII_100
                0x0023eb28                acF8x15B_ASCII_87
                0x0023ed08                acF8x15B_ASCII_55
                0x0023e9ed                acF8x15B_ASCII_108
                0x0023e90c                acF8x15B_ASCII_123
                0x0023eabf                acF8x15B_ASCII_94
                0x0023edbc                acF8x15B_ASCII_43
                0x0023e8ee                acF8x15B_ASCII_125
                0x0023ed80                acF8x15B_ASCII_47
                0x0023ed8f                acF8x15B_ASCII_46
                0x0023e92a                acF8x15B_ASCII_121
                0x0023e957                acF8x15B_ASCII_118
                0x0023ecf9                acF8x15B_ASCII_56
                0x0023edcb                acF8x15B_ASCII_42
                0x0023e5a0                GUI_Font8x15B_ASCII
                0x0023eb91                acF8x15B_ASCII_80
                0x0023ec09                acF8x15B_ASCII_72
                0x0023e9a2                acF8x15B_ASCII_113
                0x0023ec9f                acF8x15B_ASCII_62
                0x0023ea74                acF8x15B_ASCII_99
                0x0023ed35                acF8x15B_ASCII_52
                0x0023ebeb                acF8x15B_ASCII_74
                0x0023ee52                acF8x15B_ASCII_33
                0x0023ec72                acF8x15B_ASCII_65
                0x0023ea0b                acF8x15B_ASCII_106
                0x0023ed71                acF8x15B_ASCII_48
                0x0023ec45                acF8x15B_ASCII_68
                0x0023ec27                acF8x15B_ASCII_70
                0x0023ea47                acF8x15B_ASCII_102
                0x0023e5d0                GUI_CharInfoF8x15B_ASCII
                0x0023eb55                acF8x15B_ASCII_84
                0x0023eb37                acF8x15B_ASCII_86
                0x0023eafb                acF8x15B_ASCII_90
                0x0023eba0                acF8x15B_ASCII_79
                0x0023ee07                acF8x15B_ASCII_38
                0x0023ede9                acF8x15B_ASCII_40
                0x0023eb0a                acF8x15B_ASCII_89
                0x0023e9b1                acF8x15B_ASCII_112
                0x0023ed26                acF8x15B_ASCII_53
                0x0023eb73                acF8x15B_ASCII_82
                0x0023ea56                acF8x15B_ASCII_101
                0x0023e5c0                GUI_FontPropF8x15B_ASCII_1
                0x0023e8fd                acF8x15B_ASCII_124
                0x0023eadd                acF8x15B_ASCII_92
                0x0023edda                acF8x15B_ASCII_41
                0x0023eaa1                acF8x15B_ASCII_96
                0x0023e939                acF8x15B_ASCII_120
                0x0023e966                acF8x15B_ASCII_117
                0x0023eb46                acF8x15B_ASCII_85
                0x0023ee61                acF8x15B_ASCII_32
                0x0023e975                acF8x15B_ASCII_116
                0x0023ecdb                acF8x15B_ASCII_58
                0x0023ea29                acF8x15B_ASCII_104
                0x0023e8d0                acF8x15B_ASCII_127
                0x0023ed53                acF8x15B_ASCII_50
                0x0023ea92                acF8x15B_ASCII_97
                0x0023ed9e                acF8x15B_ASCII_45
                0x0023e993                acF8x15B_ASCII_114
                0x0023eace                acF8x15B_ASCII_93
                0x0023eab0                acF8x15B_ASCII_95
 .rodata        0x0023ee70      0xd20 obj/F8x16.o
                0x0023ef90                TransInfo8x16
                0x0023ef50                GUI_Font8x16
                0x0023ef10                GUI_Font8x18
                0x0023f160                acFont8x16
                0x0023ee70                GUI_Font8x16x3x3
                0x0023eef0                GUI_Font8x16x1x2
                0x0023efa0                TransList8x16
                0x0023ef30                GUI_Font8x17
                0x0023ef70                FontMono8x16
                0x0023eeb0                GUI_Font8x16x2x2
 .rodata        0x0023fb90      0x748 obj/F8x8.o
                0x0023fbb0                GUI_Font8x8
                0x0023fbf0                GUI_F8x8_TransInfo
                0x0023fdc0                GUI_F8x8_acFont
                0x0023fc00                GUI_F8x8_TransList
                0x0023fb90                GUI_Font8x9
                0x0023fbd0                GUI_F8x8_Mono
 *fill*         0x002402d8        0x8 00
 .rodata        0x002402e0     0x10f8 obj/FComic18B_1.o
                0x002412ca                acFontComic18B_1_168
                0x00241162                acFontComic18B_1_181
                0x002409ca                acFontComic18B_1_249
                0x002412a6                acFontComic18B_1_169
                0x00241390                acFontComic18B_1_162
                0x00240ab4                acFontComic18B_1_237
                0x00240cbe                acFontComic18B_1_215
                0x002409a6                acFontComic18B_1_251
                0x00240f46                acFontComic18B_1_197
                0x00240970                acFontComic18B_1_253
                0x00240b20                acFontComic18B_1_231
                0x00240b8c                acFontComic18B_1_226
                0x00240f8e                acFontComic18B_1_195
                0x00240310                FontComic18BProp_1_160
                0x002411aa                acFontComic18B_1_178
                0x00240bc2                acFontComic18B_1_223
                0x00241348                acFontComic18B_1_164
                0x00240a90                acFontComic18B_1_239
                0x00240d3c                acFontComic18B_1_211
                0x0024112c                acFontComic18B_1_183
                0x00240e14                acFontComic18B_1_205
                0x00240d60                acFontComic18B_1_210
                0x00240c2e                acFontComic18B_1_219
                0x00240aea                acFontComic18B_1_234
                0x00240e5c                acFontComic18B_1_203
                0x002409dc                acFontComic18B_1_248
                0x00241216                acFontComic18B_1_174
                0x00241270                acFontComic18B_1_171
                0x002411f2                acFontComic18B_1_175
                0x00240c52                acFontComic18B_1_218
                0x00240a36                acFontComic18B_1_244
                0x002410ae                acFontComic18B_1_187
                0x00240a6c                acFontComic18B_1_241
                0x00240e80                acFontComic18B_1_202
                0x002409ee                acFontComic18B_1_247
                0x00240cd0                acFontComic18B_1_214
                0x00240dcc                acFontComic18B_1_207
                0x00240ad8                acFontComic18B_1_235
                0x00240eec                acFontComic18B_1_199
                0x002412ee                acFontComic18B_1_167
                0x00240bb0                acFontComic18B_1_224
                0x002413c6                acFontComic18B_1_160
                0x00241312                acFontComic18B_1_166
                0x00240aa2                acFontComic18B_1_238
                0x00240c0a                acFontComic18B_1_220
                0x00240994                acFontComic18B_1_252
                0x00240928                acFontComic18B_1_255
                0x0024101e                acFontComic18B_1_191
                0x00240f6a                acFontComic18B_1_196
                0x00240fd6                acFontComic18B_1_193
                0x00240c9a                acFontComic18B_1_216
                0x00240b0e                acFontComic18B_1_232
                0x00240b7a                acFontComic18B_1_227
                0x00240b68                acFontComic18B_1_228
                0x002411ce                acFontComic18B_1_177
                0x0024136c                acFontComic18B_1_163
                0x00241108                acFontComic18B_1_184
                0x00240a5a                acFontComic18B_1_242
                0x00241042                acFontComic18B_1_190
                0x00241066                acFontComic18B_1_189
                0x00240d18                acFontComic18B_1_212
                0x00240d84                acFontComic18B_1_209
                0x00241294                acFontComic18B_1_170
                0x0024124c                acFontComic18B_1_172
                0x00240e38                acFontComic18B_1_204
                0x00240a24                acFontComic18B_1_245
                0x00241174                acFontComic18B_1_180
                0x00240ec8                acFontComic18B_1_200
                0x002410d2                acFontComic18B_1_186
                0x00240da8                acFontComic18B_1_208
                0x00240b32                acFontComic18B_1_230
                0x002413b4                acFontComic18B_1_161
                0x00240ac6                acFontComic18B_1_236
                0x002409b8                acFontComic18B_1_250
                0x00240f10                acFontComic18B_1_198
                0x00240b9e                acFontComic18B_1_225
                0x00241324                acFontComic18B_1_165
                0x00240bd4                acFontComic18B_1_222
                0x0024094c                acFontComic18B_1_254
                0x00240ffa                acFontComic18B_1_192
                0x00240fb2                acFontComic18B_1_194
                0x002402e0                GUI_FontComic18B_1
                0x00240be6                acFontComic18B_1_221
                0x002410e4                acFontComic18B_1_185
                0x00240320                CharInfoComic18B_1_160_255
                0x0024113e                acFontComic18B_1_182
                0x00240300                FontComic18BProp_1_32
                0x00240afc                acFontComic18B_1_233
                0x00240b56                acFontComic18B_1_229
                0x002411e0                acFontComic18B_1_176
                0x00240c76                acFontComic18B_1_217
                0x00240a48                acFontComic18B_1_243
                0x0024108a                acFontComic18B_1_188
                0x00240a7e                acFontComic18B_1_240
                0x00240a12                acFontComic18B_1_246
                0x00240ea4                acFontComic18B_1_201
                0x0024123a                acFontComic18B_1_173
                0x00241186                acFontComic18B_1_179
                0x00240cf4                acFontComic18B_1_213
                0x00240df0                acFontComic18B_1_206
 *fill*         0x002413d8        0x8 00
 .rodata        0x002413e0      0xdfa obj/FComic18B_ASCII.o
                0x0024196a                acFontComic18B_ASCII_104
                0x00241be0                acFontComic18B_ASCII_82
                0x00242084                acFontComic18B_ASCII_45
                0x00241da2                acFontComic18B_ASCII_69
                0x00241bbc                acFontComic18B_ASCII_83
                0x00241fac                acFontComic18B_ASCII_52
                0x00241880                acFontComic18B_ASCII_114
                0x00241ed4                acFontComic18B_ASCII_59
                0x00242018                acFontComic18B_ASCII_49
                0x00241a78                acFontComic18B_ASCII_93
                0x002421b6                acFontComic18B_ASCII_33
                0x00241d12                acFontComic18B_ASCII_73
                0x00241eb0                acFontComic18B_ASCII_61
                0x00241a66                acFontComic18B_ASCII_94
                0x00241f40                acFontComic18B_ASCII_55
                0x00241892                acFontComic18B_ASCII_113
                0x00241838                acFontComic18B_ASCII_118
                0x00242072                acFontComic18B_ASCII_46
                0x00241ca6                acFontComic18B_ASCII_76
                0x00241fd0                acFontComic18B_ASCII_51
                0x00241946                acFontComic18B_ASCII_106
                0x00241a8a                acFontComic18B_ASCII_92
                0x0024173c                acFontComic18B_ASCII_127
                0x002419a0                acFontComic18B_ASCII_101
                0x00242114                acFontComic18B_ASCII_38
                0x00241784                acFontComic18B_ASCII_124
                0x002417a8                acFontComic18B_ASCII_122
                0x00241c04                acFontComic18B_ASCII_81
                0x002420de                acFontComic18B_ASCII_41
                0x002420a8                acFontComic18B_ASCII_43
                0x00241a42                acFontComic18B_ASCII_95
                0x00241dc6                acFontComic18B_ASCII_68
                0x0024185c                acFontComic18B_ASCII_116
                0x00241cee                acFontComic18B_ASCII_74
                0x00241aae                acFontComic18B_ASCII_90
                0x002419b2                acFontComic18B_ASCII_100
                0x002419e8                acFontComic18B_ASCII_98
                0x00241f1c                acFontComic18B_ASCII_56
                0x00241b50                acFontComic18B_ASCII_86
                0x00241af6                acFontComic18B_ASCII_88
                0x0024186e                acFontComic18B_ASCII_115
                0x00241a9c                acFontComic18B_ASCII_91
                0x00242180                acFontComic18B_ASCII_35
                0x00241a0c                acFontComic18B_ASCII_97
                0x0024202a                acFontComic18B_ASCII_48
                0x00241814                acFontComic18B_ASCII_119
                0x00241c5e                acFontComic18B_ASCII_78
                0x00241e56                acFontComic18B_ASCII_64
                0x00241e0e                acFontComic18B_ASCII_66
                0x0024198e                acFontComic18B_ASCII_102
                0x002418da                acFontComic18B_ASCII_110
                0x00241d5a                acFontComic18B_ASCII_71
                0x0024215c                acFontComic18B_ASCII_36
                0x00241796                acFontComic18B_ASCII_123
                0x00241772                acFontComic18B_ASCII_125
                0x002417f0                acFontComic18B_ASCII_120
                0x00241922                acFontComic18B_ASCII_107
                0x00241ee6                acFontComic18B_ASCII_58
                0x00241d36                acFontComic18B_ASCII_72
                0x00241e32                acFontComic18B_ASCII_65
                0x002413e0                GUI_FontComic18B_ASCII
                0x0024184a                acFontComic18B_ASCII_117
                0x00241e7a                acFontComic18B_ASCII_63
                0x0024197c                acFontComic18B_ASCII_103
                0x002421c8                acFontComic18B_ASCII_32
                0x00241c3a                acFontComic18B_ASCII_79
                0x002420ba                acFontComic18B_ASCII_42
                0x00241b98                acFontComic18B_ASCII_84
                0x00241ff4                acFontComic18B_ASCII_50
                0x00242138                acFontComic18B_ASCII_37
                0x00241cca                acFontComic18B_ASCII_75
                0x00241dea                acFontComic18B_ASCII_67
                0x00241b1a                acFontComic18B_ASCII_87
                0x00241e9e                acFontComic18B_ASCII_62
                0x00241a1e                acFontComic18B_ASCII_96
                0x00241410                CharInfo18B_ASCII
                0x00241400                GUI_FontComic18BProp_ASCII_1
                0x00241c28                acFontComic18B_ASCII_80
                0x002420f0                acFontComic18B_ASCII_40
                0x002418a4                acFontComic18B_ASCII_112
                0x00241ec2                acFontComic18B_ASCII_60
                0x0024204e                acFontComic18B_ASCII_47
                0x00241718                acFontComic18B_ASCII_128
                0x00242096                acFontComic18B_ASCII_44
                0x002418ec                acFontComic18B_ASCII_109
                0x00241d7e                acFontComic18B_ASCII_70
                0x002421a4                acFontComic18B_ASCII_34
                0x00241f88                acFontComic18B_ASCII_53
                0x00241958                acFontComic18B_ASCII_105
                0x002419d6                acFontComic18B_ASCII_99
                0x00241ef8                acFontComic18B_ASCII_57
                0x00242102                acFontComic18B_ASCII_39
                0x002418c8                acFontComic18B_ASCII_111
                0x00241b74                acFontComic18B_ASCII_85
                0x00241f64                acFontComic18B_ASCII_54
                0x0024174e                acFontComic18B_ASCII_126
                0x002417cc                acFontComic18B_ASCII_121
                0x00241910                acFontComic18B_ASCII_108
                0x00241ad2                acFontComic18B_ASCII_89
                0x00241c82                acFontComic18B_ASCII_77
 *fill*         0x002421da        0x6 00
 .rodata        0x002421e0     0x15e8 obj/FComic24B_1.o
                0x00242a18                acFontComic24B_227
                0x00243678                acFontComic24B_166
                0x00242b08                acFontComic24B_222
                0x002425b0                acFontComic24B_252
                0x00242ca0                acFontComic24B_214
                0x00243288                acFontComic24B_186
                0x00242820                acFontComic24B_239
                0x00243000                acFontComic24B_199
                0x00242b68                acFontComic24B_220
                0x00242b98                acFontComic24B_219
                0x002433d8                acFontComic24B_179
                0x002436d8                acFontComic24B_164
                0x00242210                FontComic24BProp_1_160_255
                0x00243030                acFontComic24B_198
                0x00242d30                acFontComic24B_212
                0x00242730                acFontComic24B_244
                0x00242fa0                acFontComic24B_201
                0x002432e8                acFontComic24B_184
                0x00242bf8                acFontComic24B_217
                0x00243618                acFontComic24B_168
                0x00242850                acFontComic24B_237
                0x00243198                acFontComic24B_191
                0x00242790                acFontComic24B_242
                0x00242c70                acFontComic24B_215
                0x00243540                acFontComic24B_172
                0x00243570                acFontComic24B_171
                0x00242910                acFontComic24B_232
                0x002426a0                acFontComic24B_247
                0x00242f10                acFontComic24B_204
                0x00243780                acFontComic24B_161
                0x00243348                acFontComic24B_182
                0x002430a8                acFontComic24B_196
                0x00243258                acFontComic24B_187
                0x00242200                FontComic24BProp_1_ASCII
                0x002428b0                acFontComic24B_234
                0x002432b8                acFontComic24B_185
                0x00242aa8                acFontComic24B_224
                0x002434c8                acFontComic24B_174
                0x00243798                acFontComic24B_160
                0x00242838                acFontComic24B_238
                0x00242550                acFontComic24B_254
                0x00242e80                acFontComic24B_207
                0x00243438                acFontComic24B_177
                0x00243708                acFontComic24B_163
                0x002421e0                GUI_FontComic24B_1
                0x00242a78                acFontComic24B_225
                0x002427f0                acFontComic24B_240
                0x00243078                acFontComic24B_197
                0x00242940                acFontComic24B_231
                0x002435d0                acFontComic24B_169
                0x00242d78                acFontComic24B_211
                0x00242bc8                acFontComic24B_218
                0x00243648                acFontComic24B_167
                0x002426d0                acFontComic24B_246
                0x00242f40                acFontComic24B_203
                0x00242610                acFontComic24B_250
                0x002428e0                acFontComic24B_233
                0x00243168                acFontComic24B_192
                0x002427c0                acFontComic24B_241
                0x00242e50                acFontComic24B_208
                0x00242670                acFontComic24B_248
                0x00242ee0                acFontComic24B_205
                0x002436a8                acFontComic24B_165
                0x002429e8                acFontComic24B_228
                0x00242220                CharInfo24B_160_255
                0x00243378                acFontComic24B_181
                0x00243108                acFontComic24B_194
                0x00242580                acFontComic24B_253
                0x00243750                acFontComic24B_162
                0x00242b38                acFontComic24B_221
                0x00242ce8                acFontComic24B_213
                0x002431f8                acFontComic24B_189
                0x00243228                acFontComic24B_188
                0x002431c8                acFontComic24B_190
                0x00243408                acFontComic24B_178
                0x00242520                acFontComic24B_255
                0x00242dc0                acFontComic24B_210
                0x00243498                acFontComic24B_175
                0x00242ad8                acFontComic24B_223
                0x00243468                acFontComic24B_176
                0x00243318                acFontComic24B_183
                0x00242a48                acFontComic24B_226
                0x002429b8                acFontComic24B_229
                0x00242640                acFontComic24B_249
                0x00242eb0                acFontComic24B_206
                0x00242760                acFontComic24B_243
                0x00242fd0                acFontComic24B_200
                0x002433a8                acFontComic24B_180
                0x00242c28                acFontComic24B_216
                0x00242970                acFontComic24B_230
                0x002435a0                acFontComic24B_170
                0x00242868                acFontComic24B_236
                0x002425e0                acFontComic24B_251
                0x00243510                acFontComic24B_173
                0x002430d8                acFontComic24B_195
                0x00242700                acFontComic24B_245
                0x00242f70                acFontComic24B_202
                0x00242e08                acFontComic24B_209
                0x00243138                acFontComic24B_193
                0x00242880                acFontComic24B_235
 *fill*         0x002437c8        0x8 00
 .rodata        0x002437d0     0x1500 obj/FComic24B_ASCII.o
                0x00244250                acFontComic24B_85
                0x00244b20                acFontComic24B_40
                0x00244c88                acFontComic24B_33
                0x00244460                acFontComic24B_76
                0x002440e8                acFontComic24B_93
                0x00244958                acFontComic24B_50
                0x002449b8                acFontComic24B_48
                0x00243f68                acFontComic24B_101
                0x00244148                acFontComic24B_90
                0x002437d0                GUI_FontComic24B_ASCII
                0x00244778                acFontComic24B_60
                0x00244388                acFontComic24B_79
                0x002444f0                acFontComic24B_73
                0x002441a8                acFontComic24B_88
                0x00244aa8                acFontComic24B_43
                0x00243e60                acFontComic24B_108
                0x002449e8                acFontComic24B_47
                0x00244358                acFontComic24B_80
                0x00244be0                acFontComic24B_36
                0x00244028                acFontComic24B_97
                0x00244898                acFontComic24B_54
                0x00244580                acFontComic24B_70
                0x00243d40                acFontComic24B_114
                0x00243ba8                acFontComic24B_123
                0x00243800                CharInfo24B_ASCII
                0x00243c80                acFontComic24B_118
                0x00243bf0                acFontComic24B_121
                0x002446a0                acFontComic24B_64
                0x002442b0                acFontComic24B_83
                0x00244058                acFontComic24B_96
                0x002448c8                acFontComic24B_53
                0x00244a18                acFontComic24B_46
                0x00244088                acFontComic24B_95
                0x002448f8                acFontComic24B_52
                0x00244670                acFontComic24B_65
                0x00244100                acFontComic24B_92
                0x00243f98                acFontComic24B_100
                0x00244220                acFontComic24B_86
                0x00244b08                acFontComic24B_41
                0x00244808                acFontComic24B_57
                0x00243dd0                acFontComic24B_111
                0x00243ce0                acFontComic24B_116
                0x00243f08                acFontComic24B_103
                0x002442e0                acFontComic24B_82
                0x002441d8                acFontComic24B_87
                0x00244ad8                acFontComic24B_42
                0x002445e0                acFontComic24B_68
                0x002444c0                acFontComic24B_74
                0x00244b38                acFontComic24B_39
                0x00243d70                acFontComic24B_113
                0x002440b8                acFontComic24B_94
                0x00244928                acFontComic24B_51
                0x00244610                acFontComic24B_67
                0x00243c50                acFontComic24B_119
                0x00244b68                acFontComic24B_38
                0x002446e8                acFontComic24B_63
                0x00243cb0                acFontComic24B_117
                0x002443d0                acFontComic24B_78
                0x00244310                acFontComic24B_81
                0x00244130                acFontComic24B_91
                0x00243b60                acFontComic24B_125
                0x00243c20                acFontComic24B_120
                0x00244c10                acFontComic24B_35
                0x00243b30                acFontComic24B_126
                0x00243ea8                acFontComic24B_106
                0x00243e30                acFontComic24B_109
                0x00243e00                acFontComic24B_110
                0x00244520                acFontComic24B_72
                0x00244a48                acFontComic24B_45
                0x00244280                acFontComic24B_84
                0x00244b98                acFontComic24B_37
                0x00244c58                acFontComic24B_34
                0x00244418                acFontComic24B_77
                0x00243f38                acFontComic24B_102
                0x00243e78                acFontComic24B_107
                0x00243da0                acFontComic24B_112
                0x00243ed8                acFontComic24B_104
                0x00244640                acFontComic24B_66
                0x00243bc0                acFontComic24B_122
                0x00244550                acFontComic24B_71
                0x002447a8                acFontComic24B_59
                0x00244718                acFontComic24B_62
                0x00243ff8                acFontComic24B_98
                0x00244868                acFontComic24B_55
                0x00244748                acFontComic24B_61
                0x002437f0                FontComic24BProp_ASCII
                0x00243fc8                acFontComic24B_99
                0x00244838                acFontComic24B_56
                0x00243b78                acFontComic24B_124
                0x002447d8                acFontComic24B_58
                0x00243ec0                acFontComic24B_105
                0x00244988                acFontComic24B_49
                0x00244ca0                acFontComic24B_32
                0x00244490                acFontComic24B_75
                0x002445b0                acFontComic24B_69
                0x00244178                acFontComic24B_89
                0x00244a78                acFontComic24B_44
                0x00243b00                acFontComic24B_127
                0x00243d10                acFontComic24B_115
 .rodata        0x00244cd0      0x65c obj/FD24x32.o
                0x00244cd0                GUI_FontD24x32
                0x00244cf0                FontMono24x32
                0x00244d8c                acFont24x32
                0x00244d20                TLDigits24x32
                0x00244d10                TransInfo24x32
 *fill*         0x0024532c        0x4 00
 .rodata        0x00245330      0x638 obj/FD32.o
                0x00245408                acFont32_Space
                0x00245370                FontProp32_2
                0x00245468                acFont32_Colon
                0x002454e8                acFont32
                0x00245330                GUI_FontD32
                0x00245380                FontProp32_3
                0x002454a8                acFont32_DP
                0x00245350                FontProp32
                0x00245390                CharInfo32
                0x00245360                FontProp32_1
 *fill*         0x00245968        0x8 00
 .rodata        0x00245970      0xee8 obj/FD36x48.o
                0x002459d0                GUI_FontD36x48_CharInfo
                0x00245990                GUI_FontD36x48_Prop1
                0x002459b0                GUI_FontD36x48_Prop3
                0x00245970                GUI_FontD36x48
                0x002459c0                GUI_FontD36x48_Prop4
                0x00245a48                acFontD36x48
                0x002459a0                GUI_FontD36x48_Prop2
 *fill*         0x00246858        0x8 00
 .rodata        0x00246860      0xdc8 obj/FD48.o
                0x002468a0                GUI_FontD48_Prop3
                0x00246938                acFontD48_003A
                0x002468b0                GUI_FontD48_Prop4
                0x002468c0                GUI_FontD48_CharInfo
                0x00246880                GUI_FontD48_Prop1
                0x00246860                GUI_FontD48
                0x002469c8                acFontD48_002E
                0x00246a58                acFontD48_0020
                0x00246ae8                acFontD48
                0x00246890                GUI_FontD48_Prop2
 *fill*         0x00247628        0x8 00
 .rodata        0x00247630     0x1758 obj/FD48x64.o
                0x00247680                GUI_FontD48x64_Prop4
                0x00247650                GUI_FontD48x64_Prop1
                0x00247690                GUI_FontD48x64_CharInfo
                0x00247630                GUI_FontD48x64
                0x00247670                GUI_FontD48x64_Prop3
                0x00247708                acFontD48x64
                0x00247660                GUI_FontD48x64_Prop2
 *fill*         0x00248d88        0x8 00
 .rodata        0x00248d90     0x2658 obj/FD60x80.o
                0x00248dd0                GUI_FontD60x80_Prop3
                0x00248d90                GUI_FontD60x80
                0x00248dc0                GUI_FontD60x80_Prop2
                0x00248df0                GUI_FontD60x80_CharInfo
                0x00248de0                GUI_FontD60x80_Prop4
                0x00248e68                acFontD60x80
                0x00248db0                GUI_FontD60x80_Prop1
 *fill*         0x0024b3e8        0x8 00
 .rodata        0x0024b3f0     0x1518 obj/FD64.o
                0x0024b420                GUI_FontD64_Prop2
                0x0024b410                GUI_FontD64_Prop1
                0x0024b648                acFontD64_0020
                0x0024b3f0                GUI_FontD64
                0x0024b430                GUI_FontD64_Prop3
                0x0024b450                GUI_FontD64_CharInfo
                0x0024b4c8                acFontD64_003A
                0x0024b588                acFontD64_002E
                0x0024b708                acFontD64
                0x0024b440                GUI_FontD64_Prop4
 *fill*         0x0024c908        0x8 00
 .rodata        0x0024c910     0x2298 obj/FD80.o
                0x0024c960                GUI_FontD80_Prop4
                0x0024c940                GUI_FontD80_Prop2
                0x0024cb28                acFontD80_002E
                0x0024c970                GUI_FontD80_CharInfo
                0x0024cda8                acFontD80
                0x0024c930                GUI_FontD80_Prop1
                0x0024cc68                acFontD80_0020
                0x0024c950                GUI_FontD80_Prop3
                0x0024c9e8                acFontD80_003A
                0x0024c910                GUI_FontD80
 *fill*         0x0024eba8        0x8 00
 .rodata        0x0024ebb0       0x44 obj/LCDNull.o
 *fill*         0x0024ebf4        0xc 00
 .rodata        0x0024ec00       0x60 obj/GUIDEV_1.o
                0x0024ec00                GUI_MEMDEV__APIList1
 .rodata        0x0024ec60       0x60 obj/GUIDEV_16.o
                0x0024ec60                GUI_MEMDEV__APIList16
 .rodata        0x0024ecc0       0x60 obj/GUIDEV_8.o
                0x0024ecc0                GUI_MEMDEV__APIList8
 .rodata        0x0024ed20       0x40 obj/GUIDEV_Measure.o
 .rodata        0x0024ed60       0x18 obj/GUIDEV_UsageBM.o
 *fill*         0x0024ed78        0x8 00
 .rodata        0x0024ed80       0x7e obj/CHECKBOX_Image.o
                0x0024ed80                CHECKBOX__abmCheck
 *fill*         0x0024edfe        0x2 00
 .rodata        0x0024ee00       0x7e obj/CHECKBOX_SetNumStates.o
 *fill*         0x0024ee7e        0x2 00
 .rodata        0x0024ee80       0x70 obj/DROPDOWN.o
 .rodata        0x0024eef0       0x5c obj/EDIT.o
 *fill*         0x0024ef4c        0x4 00
 .rodata        0x0024ef50       0x78 obj/EDITDec.o
 *fill*         0x0024efc8        0x8 00
 .rodata        0x0024efd0       0xe0 obj/FRAMEWIN.o
 .rodata        0x0024f0b0      0x229 obj/FRAMEWIN_SetResizeable.o
 *fill*         0x0024f2d9        0x7 00
 .rodata        0x0024f2e0        0xc obj/GUI_DRAW_BITMAP.o
 *fill*         0x0024f2ec        0x4 00
 .rodata        0x0024f2f0        0xc obj/GUI_DRAW_BMP.o
 *fill*         0x0024f2fc        0x4 00
 .rodata        0x0024f300        0xc obj/GUI_DRAW_Self.o
 *fill*         0x0024f30c        0x4 00
 .rodata        0x0024f310        0xc obj/GUI_DRAW_STREAMED.o
 *fill*         0x0024f31c        0x4 00
 .rodata        0x0024f320       0xd8 obj/LISTBOX.o
 *fill*         0x0024f3f8        0x8 00
 .rodata        0x0024f400       0x88 obj/LISTVIEW.o
 *fill*         0x0024f488        0x8 00
 .rodata        0x0024f490       0x18 obj/MENU.o
 *fill*         0x0024f4a8        0x8 00
 .rodata        0x0024f4b0       0xe8 obj/MULTIEDIT.o
 *fill*         0x0024f598        0x8 00
 .rodata        0x0024f5a0       0x84 obj/RADIO.o
 *fill*         0x0024f624        0xc 00
 .rodata        0x0024f630       0xd4 obj/RADIO_Image.o
                0x0024f670                RADIO__abmRadio
                0x0024f630                RADIO__bmCheck
 *fill*         0x0024f704        0xc 00
 .rodata        0x0024f710       0x68 obj/SCROLLBAR.o
 *fill*         0x0024f778        0x8 00
 .rodata        0x0024f780       0x18 obj/WIDGET_Effect_3D.o
                0x0024f780                WIDGET_Effect_3D
 *fill*         0x0024f798        0x8 00
 .rodata        0x0024f7a0       0x18 obj/WIDGET_Effect_3D1L.o
                0x0024f7a0                WIDGET_Effect_3D1L
 *fill*         0x0024f7b8        0x8 00
 .rodata        0x0024f7c0       0x18 obj/WIDGET_Effect_3D2L.o
                0x0024f7c0                WIDGET_Effect_3D2L
 *fill*         0x0024f7d8        0x8 00
 .rodata        0x0024f7e0       0x18 obj/WIDGET_Effect_None.o
                0x0024f7e0                WIDGET_Effect_None
 *fill*         0x0024f7f8        0x8 00
 .rodata        0x0024f800       0x18 obj/WIDGET_Effect_Simple.o
                0x0024f800                WIDGET_Effect_Simple
 *fill*         0x0024f818        0x8 00
 .rodata        0x0024f820       0x74 obj/WINDOW.o
 *fill*         0x0024f894        0xc 00
 .rodata        0x0024f8a0       0xdc obj/WM.o
 *fill*         0x0024f97c        0x4 00
 .rodata        0x0024f980      0x1c8 obj/dialog_all.o
 .rodata        0x0024fb48      0x100 obj/os_core.o
                0x0024fb48                OSUnMapTbl
 *fill*         0x0024fc48        0x8 00
 .rodata        0x0024fc50      0x184 /home/jialiang/logic32-elf/lib/gcc/logic32-elf/3.4.2/../../../../logic32-elf/lib/libc.a(vfprintf.o)
 *fill*         0x0024fdd4        0xc 00
 .rodata        0x0024fde0       0x30 /home/jialiang/logic32-elf/lib/gcc/logic32-elf/3.4.2/../../../../logic32-elf/lib/libc.a(locale.o)
 .rodata        0x0024fe10       0x18 /home/jialiang/logic32-elf/lib/gcc/logic32-elf/3.4.2/../../../../logic32-elf/lib/libc.a(dtoa.o)
 *fill*         0x0024fe28        0x8 00
 .rodata        0x0024fe30      0x13c /home/jialiang/logic32-elf/lib/gcc/logic32-elf/3.4.2/../../../../logic32-elf/lib/libc.a(mprec.o)
                0x0024fe30                __mprec_tinytens
                0x0024fe90                __mprec_tens
                0x0024fe60                __mprec_bigtens
 *fill*         0x0024ff6c        0x4 00
 .rodata        0x0024ff70      0x190 /home/jialiang/logic32-elf/lib/gcc/logic32-elf/3.4.2/../../../../logic32-elf/lib/libm.a(e_rem_pio2.o)
 .rodata        0x00250100        0x4 /home/jialiang/logic32-elf/lib/gcc/logic32-elf/3.4.2/../../../../logic32-elf/lib/libm.a(s_lib_ver.o)
                0x00250100                __fdlib_version
 *fill*         0x00250104        0xc 00
 .rodata        0x00250110       0x50 /home/jialiang/logic32-elf/lib/gcc/logic32-elf/3.4.2/../../../../logic32-elf/lib/libm.a(k_rem_pio2.o)
 .rodata        0x00250160       0x14 /home/jialiang/logic32-elf/lib/gcc/logic32-elf/3.4.2/libgcc.a(_thenan_df.o)
                0x00250160                __thenan_df
 *fill*         0x00250174        0xc 00
 .rodata        0x00250180       0x10 /home/jialiang/logic32-elf/lib/gcc/logic32-elf/3.4.2/libgcc.a(_thenan_sf.o)
                0x00250180                __thenan_sf

.rodata.str1.1  0x00250190     0x1131
 .rodata.str1.1
                0x00250190      0x1b7 obj/GUIAlloc.o
 .rodata.str1.1
                0x00250347        0xc obj/GUICore.o
 .rodata.str1.1
                0x00250353       0x96 obj/GUITask.o
 .rodata.str1.1
                0x002503e9       0x29 obj/GUI_AddBin.o
 .rodata.str1.1
                0x00250412       0x28 obj/GUI_AddDecShift.o
 .rodata.str1.1
                0x0025043a       0x2c obj/GUI_ALLOC_AllocZero.o
 .rodata.str1.1
                0x00250466       0x1d obj/GUI_SIF.o
 .rodata.str1.1
                0x00250483       0x29 obj/GUI_UC_EncodeUTF8.o
 .rodata.str1.1
                0x002504ac        0x1 obj/GUI__strcmp.o
 .rodata.str1.1
                0x002504ad        0xd obj/LCD.o
 .rodata.str1.1
                0x002504ba       0x45 obj/GUIDEV.o
 .rodata.str1.1
                0x002504ff       0x5b obj/GUIDEV_1.o
 .rodata.str1.1
                0x0025055a       0x5b obj/GUIDEV_16.o
 .rodata.str1.1
                0x002505b5       0x5b obj/GUIDEV_8.o
 .rodata.str1.1
                0x00250610       0x28 obj/GUIDEV_Banding.o
 .rodata.str1.1
                0x00250638       0x21 obj/GUIDEV_Measure.o
 .rodata.str1.1
                0x00250659       0x9e obj/GUIDEV_UsageBM.o
 .rodata.str1.1
                0x002506f7       0x2d obj/GUIDEV_XY2PTR.o
 .rodata.str1.1
                0x00250724       0xb0 obj/BUTTON.o
 .rodata.str1.1
                0x002507d4       0x32 obj/BUTTON_SetTextAlign.o
 .rodata.str1.1
                0x00250806       0x32 obj/BUTTON__SetBitmapObj.o
 .rodata.str1.1
                0x00250838       0x45 obj/CHECKBOX.o
 .rodata.str1.1
                0x0025087d       0x34 obj/DROPDOWN.o
 .rodata.str1.1
                0x002508b1      0x117 obj/EDIT.o
 .rodata.str1.1
                0x002509c8       0x29 obj/FRAMEWIN.o
 .rodata.str1.1
                0x002509f1       0xe2 obj/GUI_ARRAY.o
 .rodata.str1.1
                0x00250ad3       0x5b obj/GUI_ARRAY_InsertItem.o
 .rodata.str1.1
                0x00250b2e       0x15 obj/HEADER.o
 .rodata.str1.1
                0x00250b43       0x30 obj/LISTBOX.o
 .rodata.str1.1
                0x00250b73       0x30 obj/LISTBOX_Font.o
 .rodata.str1.1
                0x00250ba3       0x30 obj/LISTBOX_GetNumItems.o
 .rodata.str1.1
                0x00250bd3       0x30 obj/LISTBOX_ItemSpacing.o
 .rodata.str1.1
                0x00250c03       0x30 obj/LISTBOX_SetBkColor.o
 .rodata.str1.1
                0x00250c33       0x30 obj/LISTBOX_SetOwner.o
 .rodata.str1.1
                0x00250c63       0x30 obj/LISTBOX_SetOwnerDraw.o
 .rodata.str1.1
                0x00250c93       0x30 obj/LISTBOX_SetScrollbarWidth.o
 .rodata.str1.1
                0x00250cc3       0x30 obj/LISTBOX_SetTextColor.o
 .rodata.str1.1
                0x00250cf3       0x17 obj/LISTVIEW.o
 .rodata.str1.1
                0x00250d0a       0x46 obj/MENU.o
 .rodata.str1.1
                0x00250d50        0x3 obj/MESSAGEBOX.o
 .rodata.str1.1
                0x00250d53       0x73 obj/MULTIEDIT.o
 .rodata.str1.1
                0x00250dc6       0x4d obj/MULTIPAGE.o
 .rodata.str1.1
                0x00250e13       0x33 obj/PROGBAR.o
 .rodata.str1.1
                0x00250e46       0x3c obj/RADIO.o
 .rodata.str1.1
                0x00250e82       0x38 obj/SCROLLBAR.o
 .rodata.str1.1
                0x00250eba       0x32 obj/SLIDER.o
 .rodata.str1.1
                0x00250eec       0x71 obj/TEXT.o
 .rodata.str1.1
                0x00250f5d       0x81 obj/WM.o
 .rodata.str1.1
                0x00250fde       0x31 obj/WMTouch.o
 .rodata.str1.1
                0x0025100f       0x35 obj/WM_Paint.o
 .rodata.str1.1
                0x00251044       0x23 obj/WM_SetAnchor.o
 .rodata.str1.1
                0x00251067       0xa3 obj/dialog_all.o
 .rodata.str1.1
                0x0025110a        0xa obj/GUI_X_uCOS.o
 .rodata.str1.1
                0x00251114       0x5f obj/hooks.o
 .rodata.str1.1
                0x00251173       0x15 obj/led.o
 .rodata.str1.1
                0x00251188       0x52 obj/app.o
 .rodata.str1.1
                0x002511da       0x2e obj/os_core.o
 .rodata.str1.1
                0x00251208        0x2 obj/os_task.o
 .rodata.str1.1
                0x0025120a       0x23 obj/os_cpu_c.o
 .rodata.str1.1
                0x0025122d        0x2 /home/jialiang/logic32-elf/lib/gcc/logic32-elf/3.4.2/../../../../logic32-elf/lib/libc.a(puts.o)
 .rodata.str1.1
                0x0025122f       0x4f /home/jialiang/logic32-elf/lib/gcc/logic32-elf/3.4.2/../../../../logic32-elf/lib/libc.a(vfprintf.o)
 .rodata.str1.1
                0x0025127e        0x2 /home/jialiang/logic32-elf/lib/gcc/logic32-elf/3.4.2/../../../../logic32-elf/lib/libc.a(impure.o)
 .rodata.str1.1
                0x00251280       0x10 /home/jialiang/logic32-elf/lib/gcc/logic32-elf/3.4.2/../../../../logic32-elf/lib/libc.a(locale.o)
 .rodata.str1.1
                0x00251290        0xf /home/jialiang/logic32-elf/lib/gcc/logic32-elf/3.4.2/../../../../logic32-elf/lib/libc.a(dtoa.o)
 .rodata.str1.1
                0x0025129f       0x1d /home/jialiang/logic32-elf/lib/gcc/logic32-elf/3.4.2/../../../../logic32-elf/lib/libc.a(wctomb_r.o)
 .rodata.str1.1
                0x002512bc        0x5 /home/jialiang/logic32-elf/lib/gcc/logic32-elf/3.4.2/../../../../logic32-elf/lib/libm.a(w_sqrt.o)

.debug_abbrev   0x002512c1     0x4645
 .debug_abbrev  0x002512c1       0x99 /home/jialiang/logic32-elf/lib/gcc/logic32-elf/3.4.2/../../../../logic32-elf/lib/libc.a(memcpy.o)
 .debug_abbrev  0x0025135a       0x99 /home/jialiang/logic32-elf/lib/gcc/logic32-elf/3.4.2/../../../../logic32-elf/lib/libc.a(memmove.o)
 .debug_abbrev  0x002513f3       0x7e /home/jialiang/logic32-elf/lib/gcc/logic32-elf/3.4.2/../../../../logic32-elf/lib/libc.a(strlen.o)
 .debug_abbrev  0x00251471       0x9a /home/jialiang/logic32-elf/lib/gcc/logic32-elf/3.4.2/../../../../logic32-elf/lib/libc.a(memset.o)
 .debug_abbrev  0x0025150b       0x7c /home/jialiang/logic32-elf/lib/gcc/logic32-elf/3.4.2/../../../../logic32-elf/lib/libc.a(memcmp.o)
 .debug_abbrev  0x00251587       0x80 /home/jialiang/logic32-elf/lib/gcc/logic32-elf/3.4.2/../../../../logic32-elf/lib/libc.a(strcpy.o)
 .debug_abbrev  0x00251607       0x8d /home/jialiang/logic32-elf/lib/gcc/logic32-elf/3.4.2/../../../../logic32-elf/lib/libc.a(strncpy.o)
 .debug_abbrev  0x00251694      0x182 /home/jialiang/logic32-elf/lib/gcc/logic32-elf/3.4.2/../../../../logic32-elf/lib/libc.a(printf.o)
 .debug_abbrev  0x00251816      0x1e5 /home/jialiang/logic32-elf/lib/gcc/logic32-elf/3.4.2/../../../../logic32-elf/lib/libc.a(puts.o)
 .debug_abbrev  0x002519fb      0x316 /home/jialiang/logic32-elf/lib/gcc/logic32-elf/3.4.2/../../../../logic32-elf/lib/libc.a(vfprintf.o)
 .debug_abbrev  0x00251d11      0x157 /home/jialiang/logic32-elf/lib/gcc/logic32-elf/3.4.2/../../../../logic32-elf/lib/libc.a(impure.o)
 .debug_abbrev  0x00251e68      0x1b6 /home/jialiang/logic32-elf/lib/gcc/logic32-elf/3.4.2/../../../../logic32-elf/lib/libc.a(fvwrite.o)
 .debug_abbrev  0x0025201e      0x222 /home/jialiang/logic32-elf/lib/gcc/logic32-elf/3.4.2/../../../../logic32-elf/lib/libc.a(locale.o)
 .debug_abbrev  0x00252240      0x170 /home/jialiang/logic32-elf/lib/gcc/logic32-elf/3.4.2/../../../../logic32-elf/lib/libc.a(wsetup.o)
 .debug_abbrev  0x002523b0      0x187 /home/jialiang/logic32-elf/lib/gcc/logic32-elf/3.4.2/../../../../logic32-elf/lib/libc.a(malloc.o)
 .debug_abbrev  0x00252537       0xd4 /home/jialiang/logic32-elf/lib/gcc/logic32-elf/3.4.2/../../../../logic32-elf/lib/libc.a(s_isinf.o)
 .debug_abbrev  0x0025260b      0x1e6 /home/jialiang/logic32-elf/lib/gcc/logic32-elf/3.4.2/../../../../logic32-elf/lib/libc.a(wcrtomb.o)
 .debug_abbrev  0x002527f1      0x214 /home/jialiang/logic32-elf/lib/gcc/logic32-elf/3.4.2/../../../../logic32-elf/lib/libc.a(mallocr.o)
 .debug_abbrev  0x00252a05      0x1eb /home/jialiang/logic32-elf/lib/gcc/logic32-elf/3.4.2/../../../../logic32-elf/lib/libc.a(wcsrtombs.o)
 .debug_abbrev  0x00252bf0       0xa8 /home/jialiang/logic32-elf/lib/gcc/logic32-elf/3.4.2/../../../../logic32-elf/lib/libc.a(memchr.o)
 .debug_abbrev  0x00252c98       0xd4 /home/jialiang/logic32-elf/lib/gcc/logic32-elf/3.4.2/../../../../logic32-elf/lib/libc.a(s_isnan.o)
 .debug_abbrev  0x00252d6c      0x17f /home/jialiang/logic32-elf/lib/gcc/logic32-elf/3.4.2/../../../../logic32-elf/lib/libc.a(fflush.o)
 .debug_abbrev  0x00252eeb      0x263 /home/jialiang/logic32-elf/lib/gcc/logic32-elf/3.4.2/../../../../logic32-elf/lib/libc.a(findfp.o)
 .debug_abbrev  0x0025314e      0x1fc /home/jialiang/logic32-elf/lib/gcc/logic32-elf/3.4.2/../../../../logic32-elf/lib/libc.a(dtoa.o)
 .debug_abbrev  0x0025334a      0x1cc /home/jialiang/logic32-elf/lib/gcc/logic32-elf/3.4.2/../../../../logic32-elf/lib/libc.a(reallocr.o)
 .debug_abbrev  0x00253516       0x71 /home/jialiang/logic32-elf/lib/gcc/logic32-elf/3.4.2/../../../../logic32-elf/lib/libc.a(strcmp.o)
 .debug_abbrev  0x00253587      0x1d9 /home/jialiang/logic32-elf/lib/gcc/logic32-elf/3.4.2/../../../../logic32-elf/lib/libc.a(freer.o)
 .debug_abbrev  0x00253760      0x1a6 /home/jialiang/logic32-elf/lib/gcc/logic32-elf/3.4.2/../../../../logic32-elf/lib/libc.a(makebuf.o)
 .debug_abbrev  0x00253906      0x1b6 /home/jialiang/logic32-elf/lib/gcc/logic32-elf/3.4.2/../../../../logic32-elf/lib/libc.a(wctomb_r.o)
 .debug_abbrev  0x00253abc      0x16e /home/jialiang/logic32-elf/lib/gcc/logic32-elf/3.4.2/../../../../logic32-elf/lib/libc.a(mlock.o)
 .debug_abbrev  0x00253c2a      0x1a1 /home/jialiang/logic32-elf/lib/gcc/logic32-elf/3.4.2/../../../../logic32-elf/lib/libc.a(sbrkr.o)
 .debug_abbrev  0x00253dcb      0x19c /home/jialiang/logic32-elf/lib/gcc/logic32-elf/3.4.2/../../../../logic32-elf/lib/libc.a(fwalk.o)
 .debug_abbrev  0x00253f67      0x19b /home/jialiang/logic32-elf/lib/gcc/logic32-elf/3.4.2/../../../../logic32-elf/lib/libc.a(stdio.o)
 .debug_abbrev  0x00254102      0x2d1 /home/jialiang/logic32-elf/lib/gcc/logic32-elf/3.4.2/../../../../logic32-elf/lib/libc.a(mprec.o)
 .debug_abbrev  0x002543d3      0x18e /home/jialiang/logic32-elf/lib/gcc/logic32-elf/3.4.2/../../../../logic32-elf/lib/libc.a(fstatr.o)
 .debug_abbrev  0x00254561      0x17f /home/jialiang/logic32-elf/lib/gcc/logic32-elf/3.4.2/../../../../logic32-elf/lib/libc.a(readr.o)
 .debug_abbrev  0x002546e0      0x18e /home/jialiang/logic32-elf/lib/gcc/logic32-elf/3.4.2/../../../../logic32-elf/lib/libc.a(lseekr.o)
 .debug_abbrev  0x0025486e      0x184 /home/jialiang/logic32-elf/lib/gcc/logic32-elf/3.4.2/../../../../logic32-elf/lib/libc.a(writer.o)
 .debug_abbrev  0x002549f2      0x17f /home/jialiang/logic32-elf/lib/gcc/logic32-elf/3.4.2/../../../../logic32-elf/lib/libc.a(closer.o)
 .debug_abbrev  0x00254b71      0x1b8 /home/jialiang/logic32-elf/lib/gcc/logic32-elf/3.4.2/../../../../logic32-elf/lib/libc.a(callocr.o)
 .debug_abbrev  0x00254d29       0x8b /home/jialiang/logic32-elf/lib/gcc/logic32-elf/3.4.2/../../../../logic32-elf/lib/libm.a(s_sin.o)
 .debug_abbrev  0x00254db4       0x8b /home/jialiang/logic32-elf/lib/gcc/logic32-elf/3.4.2/../../../../logic32-elf/lib/libm.a(s_cos.o)
 .debug_abbrev  0x00254e3f       0xe8 /home/jialiang/logic32-elf/lib/gcc/logic32-elf/3.4.2/../../../../logic32-elf/lib/libm.a(s_ceil.o)
 .debug_abbrev  0x00254f27       0xe8 /home/jialiang/logic32-elf/lib/gcc/logic32-elf/3.4.2/../../../../logic32-elf/lib/libm.a(s_floor.o)
 .debug_abbrev  0x0025500f       0xc7 /home/jialiang/logic32-elf/lib/gcc/logic32-elf/3.4.2/../../../../logic32-elf/lib/libm.a(w_sqrt.o)
 .debug_abbrev  0x002550d6      0x11f /home/jialiang/logic32-elf/lib/gcc/logic32-elf/3.4.2/../../../../logic32-elf/lib/libm.a(e_rem_pio2.o)
 .debug_abbrev  0x002551f5       0xdf /home/jialiang/logic32-elf/lib/gcc/logic32-elf/3.4.2/../../../../logic32-elf/lib/libm.a(k_cos.o)
 .debug_abbrev  0x002552d4       0xee /home/jialiang/logic32-elf/lib/gcc/logic32-elf/3.4.2/../../../../logic32-elf/lib/libm.a(k_sin.o)
 .debug_abbrev  0x002553c2       0xf9 /home/jialiang/logic32-elf/lib/gcc/logic32-elf/3.4.2/../../../../logic32-elf/lib/libm.a(e_sqrt.o)
 .debug_abbrev  0x002554bb       0x5a /home/jialiang/logic32-elf/lib/gcc/logic32-elf/3.4.2/../../../../logic32-elf/lib/libm.a(s_lib_ver.o)
 .debug_abbrev  0x00255515       0x95 /home/jialiang/logic32-elf/lib/gcc/logic32-elf/3.4.2/../../../../logic32-elf/lib/libm.a(s_matherr.o)
 .debug_abbrev  0x002555aa       0xe6 /home/jialiang/logic32-elf/lib/gcc/logic32-elf/3.4.2/../../../../logic32-elf/lib/libm.a(k_rem_pio2.o)
 .debug_abbrev  0x00255690       0xb8 /home/jialiang/logic32-elf/lib/gcc/logic32-elf/3.4.2/../../../../logic32-elf/lib/libm.a(s_fabs.o)
 .debug_abbrev  0x00255748       0xea /home/jialiang/logic32-elf/lib/gcc/logic32-elf/3.4.2/../../../../logic32-elf/lib/libm.a(s_scalbn.o)
 .debug_abbrev  0x00255832       0xd4 /home/jialiang/logic32-elf/lib/gcc/logic32-elf/3.4.2/../../../../logic32-elf/lib/libm.a(s_copysign.o)

.debug_info     0x00255906    0x162cf
 .debug_info    0x00255906       0xfc /home/jialiang/logic32-elf/lib/gcc/logic32-elf/3.4.2/../../../../logic32-elf/lib/libc.a(memcpy.o)
 .debug_info    0x00255a02      0x12d /home/jialiang/logic32-elf/lib/gcc/logic32-elf/3.4.2/../../../../logic32-elf/lib/libc.a(memmove.o)
 .debug_info    0x00255b2f       0xd2 /home/jialiang/logic32-elf/lib/gcc/logic32-elf/3.4.2/../../../../logic32-elf/lib/libc.a(strlen.o)
 .debug_info    0x00255c01      0x102 /home/jialiang/logic32-elf/lib/gcc/logic32-elf/3.4.2/../../../../logic32-elf/lib/libc.a(memset.o)
 .debug_info    0x00255d03      0x100 /home/jialiang/logic32-elf/lib/gcc/logic32-elf/3.4.2/../../../../logic32-elf/lib/libc.a(memcmp.o)
 .debug_info    0x00255e03       0xff /home/jialiang/logic32-elf/lib/gcc/logic32-elf/3.4.2/../../../../logic32-elf/lib/libc.a(strcpy.o)
 .debug_info    0x00255f02      0x117 /home/jialiang/logic32-elf/lib/gcc/logic32-elf/3.4.2/../../../../logic32-elf/lib/libc.a(strncpy.o)
 .debug_info    0x00256019      0x970 /home/jialiang/logic32-elf/lib/gcc/logic32-elf/3.4.2/../../../../logic32-elf/lib/libc.a(printf.o)
 .debug_info    0x00256989      0xa2c /home/jialiang/logic32-elf/lib/gcc/logic32-elf/3.4.2/../../../../logic32-elf/lib/libc.a(puts.o)
 .debug_info    0x002573b5     0x15b1 /home/jialiang/logic32-elf/lib/gcc/logic32-elf/3.4.2/../../../../logic32-elf/lib/libc.a(vfprintf.o)
 .debug_info    0x00258966      0x8e0 /home/jialiang/logic32-elf/lib/gcc/logic32-elf/3.4.2/../../../../logic32-elf/lib/libc.a(impure.o)
 .debug_info    0x00259246      0xa1b /home/jialiang/logic32-elf/lib/gcc/logic32-elf/3.4.2/../../../../logic32-elf/lib/libc.a(fvwrite.o)
 .debug_info    0x00259c61      0xba1 /home/jialiang/logic32-elf/lib/gcc/logic32-elf/3.4.2/../../../../logic32-elf/lib/libc.a(locale.o)
 .debug_info    0x0025a802      0x904 /home/jialiang/logic32-elf/lib/gcc/logic32-elf/3.4.2/../../../../logic32-elf/lib/libc.a(wsetup.o)
 .debug_info    0x0025b106      0x924 /home/jialiang/logic32-elf/lib/gcc/logic32-elf/3.4.2/../../../../logic32-elf/lib/libc.a(malloc.o)
 .debug_info    0x0025ba2a      0x13f /home/jialiang/logic32-elf/lib/gcc/logic32-elf/3.4.2/../../../../logic32-elf/lib/libc.a(s_isinf.o)
 .debug_info    0x0025bb69      0xa0b /home/jialiang/logic32-elf/lib/gcc/logic32-elf/3.4.2/../../../../logic32-elf/lib/libc.a(wcrtomb.o)
 .debug_info    0x0025c574      0xc65 /home/jialiang/logic32-elf/lib/gcc/logic32-elf/3.4.2/../../../../logic32-elf/lib/libc.a(mallocr.o)
 .debug_info    0x0025d1d9      0xaee /home/jialiang/logic32-elf/lib/gcc/logic32-elf/3.4.2/../../../../logic32-elf/lib/libc.a(wcsrtombs.o)
 .debug_info    0x0025dcc7      0x123 /home/jialiang/logic32-elf/lib/gcc/logic32-elf/3.4.2/../../../../logic32-elf/lib/libc.a(memchr.o)
 .debug_info    0x0025ddea      0x13f /home/jialiang/logic32-elf/lib/gcc/logic32-elf/3.4.2/../../../../logic32-elf/lib/libc.a(s_isnan.o)
 .debug_info    0x0025df29      0x925 /home/jialiang/logic32-elf/lib/gcc/logic32-elf/3.4.2/../../../../logic32-elf/lib/libc.a(fflush.o)
 .debug_info    0x0025e84e      0xbec /home/jialiang/logic32-elf/lib/gcc/logic32-elf/3.4.2/../../../../logic32-elf/lib/libc.a(findfp.o)
 .debug_info    0x0025f43a      0xd01 /home/jialiang/logic32-elf/lib/gcc/logic32-elf/3.4.2/../../../../logic32-elf/lib/libc.a(dtoa.o)
 .debug_info    0x0026013b      0xb1f /home/jialiang/logic32-elf/lib/gcc/logic32-elf/3.4.2/../../../../logic32-elf/lib/libc.a(reallocr.o)
 .debug_info    0x00260c5a       0xd0 /home/jialiang/logic32-elf/lib/gcc/logic32-elf/3.4.2/../../../../logic32-elf/lib/libc.a(strcmp.o)
 .debug_info    0x00260d2a      0xb61 /home/jialiang/logic32-elf/lib/gcc/logic32-elf/3.4.2/../../../../logic32-elf/lib/libc.a(freer.o)
 .debug_info    0x0026188b      0xa9c /home/jialiang/logic32-elf/lib/gcc/logic32-elf/3.4.2/../../../../logic32-elf/lib/libc.a(makebuf.o)
 .debug_info    0x00262327      0x9b0 /home/jialiang/logic32-elf/lib/gcc/logic32-elf/3.4.2/../../../../logic32-elf/lib/libc.a(wctomb_r.o)
 .debug_info    0x00262cd7      0x901 /home/jialiang/logic32-elf/lib/gcc/logic32-elf/3.4.2/../../../../logic32-elf/lib/libc.a(mlock.o)
 .debug_info    0x002635d8      0x92c /home/jialiang/logic32-elf/lib/gcc/logic32-elf/3.4.2/../../../../logic32-elf/lib/libc.a(sbrkr.o)
 .debug_info    0x00263f04      0x952 /home/jialiang/logic32-elf/lib/gcc/logic32-elf/3.4.2/../../../../logic32-elf/lib/libc.a(fwalk.o)
 .debug_info    0x00264856      0xa20 /home/jialiang/logic32-elf/lib/gcc/logic32-elf/3.4.2/../../../../logic32-elf/lib/libc.a(stdio.o)
 .debug_info    0x00265276     0x1706 /home/jialiang/logic32-elf/lib/gcc/logic32-elf/3.4.2/../../../../logic32-elf/lib/libc.a(mprec.o)
 .debug_info    0x0026697c      0xa82 /home/jialiang/logic32-elf/lib/gcc/logic32-elf/3.4.2/../../../../logic32-elf/lib/libc.a(fstatr.o)
 .debug_info    0x002673fe      0x93c /home/jialiang/logic32-elf/lib/gcc/logic32-elf/3.4.2/../../../../logic32-elf/lib/libc.a(readr.o)
 .debug_info    0x00267d3a      0x931 /home/jialiang/logic32-elf/lib/gcc/logic32-elf/3.4.2/../../../../logic32-elf/lib/libc.a(lseekr.o)
 .debug_info    0x0026866b      0x943 /home/jialiang/logic32-elf/lib/gcc/logic32-elf/3.4.2/../../../../logic32-elf/lib/libc.a(writer.o)
 .debug_info    0x00268fae      0x90c /home/jialiang/logic32-elf/lib/gcc/logic32-elf/3.4.2/../../../../logic32-elf/lib/libc.a(closer.o)
 .debug_info    0x002698ba      0x9c9 /home/jialiang/logic32-elf/lib/gcc/logic32-elf/3.4.2/../../../../logic32-elf/lib/libc.a(callocr.o)
 .debug_info    0x0026a283       0xf0 /home/jialiang/logic32-elf/lib/gcc/logic32-elf/3.4.2/../../../../logic32-elf/lib/libm.a(s_sin.o)
 .debug_info    0x0026a373       0xf0 /home/jialiang/logic32-elf/lib/gcc/logic32-elf/3.4.2/../../../../logic32-elf/lib/libm.a(s_cos.o)
 .debug_info    0x0026a463      0x198 /home/jialiang/logic32-elf/lib/gcc/logic32-elf/3.4.2/../../../../logic32-elf/lib/libm.a(s_ceil.o)
 .debug_info    0x0026a5fb      0x198 /home/jialiang/logic32-elf/lib/gcc/logic32-elf/3.4.2/../../../../logic32-elf/lib/libm.a(s_floor.o)
 .debug_info    0x0026a793      0x16b /home/jialiang/logic32-elf/lib/gcc/logic32-elf/3.4.2/../../../../logic32-elf/lib/libm.a(w_sqrt.o)
 .debug_info    0x0026a8fe      0x38a /home/jialiang/logic32-elf/lib/gcc/logic32-elf/3.4.2/../../../../logic32-elf/lib/libm.a(e_rem_pio2.o)
 .debug_info    0x0026ac88      0x216 /home/jialiang/logic32-elf/lib/gcc/logic32-elf/3.4.2/../../../../logic32-elf/lib/libm.a(k_cos.o)
 .debug_info    0x0026ae9e      0x206 /home/jialiang/logic32-elf/lib/gcc/logic32-elf/3.4.2/../../../../logic32-elf/lib/libm.a(k_sin.o)
 .debug_info    0x0026b0a4      0x211 /home/jialiang/logic32-elf/lib/gcc/logic32-elf/3.4.2/../../../../logic32-elf/lib/libm.a(e_sqrt.o)
 .debug_info    0x0026b2b5       0xbe /home/jialiang/logic32-elf/lib/gcc/logic32-elf/3.4.2/../../../../logic32-elf/lib/libm.a(s_lib_ver.o)
 .debug_info    0x0026b373      0x125 /home/jialiang/logic32-elf/lib/gcc/logic32-elf/3.4.2/../../../../logic32-elf/lib/libm.a(s_matherr.o)
 .debug_info    0x0026b498      0x2cb /home/jialiang/logic32-elf/lib/gcc/logic32-elf/3.4.2/../../../../logic32-elf/lib/libm.a(k_rem_pio2.o)
 .debug_info    0x0026b763      0x12b /home/jialiang/logic32-elf/lib/gcc/logic32-elf/3.4.2/../../../../logic32-elf/lib/libm.a(s_fabs.o)
 .debug_info    0x0026b88e      0x207 /home/jialiang/logic32-elf/lib/gcc/logic32-elf/3.4.2/../../../../logic32-elf/lib/libm.a(s_scalbn.o)
 .debug_info    0x0026ba95      0x140 /home/jialiang/logic32-elf/lib/gcc/logic32-elf/3.4.2/../../../../logic32-elf/lib/libm.a(s_copysign.o)

.debug_line     0x0026bbd5     0xbfad
 .debug_line    0x0026bbd5      0x158 /home/jialiang/logic32-elf/lib/gcc/logic32-elf/3.4.2/../../../../logic32-elf/lib/libc.a(memcpy.o)
 .debug_line    0x0026bd2d      0x210 /home/jialiang/logic32-elf/lib/gcc/logic32-elf/3.4.2/../../../../logic32-elf/lib/libc.a(memmove.o)
 .debug_line    0x0026bf3d      0x19d /home/jialiang/logic32-elf/lib/gcc/logic32-elf/3.4.2/../../../../logic32-elf/lib/libc.a(strlen.o)
 .debug_line    0x0026c0da      0x1ed /home/jialiang/logic32-elf/lib/gcc/logic32-elf/3.4.2/../../../../logic32-elf/lib/libc.a(memset.o)
 .debug_line    0x0026c2c7      0x1cd /home/jialiang/logic32-elf/lib/gcc/logic32-elf/3.4.2/../../../../logic32-elf/lib/libc.a(memcmp.o)
 .debug_line    0x0026c494      0x19d /home/jialiang/logic32-elf/lib/gcc/logic32-elf/3.4.2/../../../../logic32-elf/lib/libc.a(strcpy.o)
 .debug_line    0x0026c631      0x1d6 /home/jialiang/logic32-elf/lib/gcc/logic32-elf/3.4.2/../../../../logic32-elf/lib/libc.a(strncpy.o)
 .debug_line    0x0026c807      0x1b7 /home/jialiang/logic32-elf/lib/gcc/logic32-elf/3.4.2/../../../../logic32-elf/lib/libc.a(printf.o)
 .debug_line    0x0026c9be      0x266 /home/jialiang/logic32-elf/lib/gcc/logic32-elf/3.4.2/../../../../logic32-elf/lib/libc.a(puts.o)
 .debug_line    0x0026cc24     0x15fb /home/jialiang/logic32-elf/lib/gcc/logic32-elf/3.4.2/../../../../logic32-elf/lib/libc.a(vfprintf.o)
 .debug_line    0x0026e21f      0x1b5 /home/jialiang/logic32-elf/lib/gcc/logic32-elf/3.4.2/../../../../logic32-elf/lib/libc.a(impure.o)
 .debug_line    0x0026e3d4      0x48a /home/jialiang/logic32-elf/lib/gcc/logic32-elf/3.4.2/../../../../logic32-elf/lib/libc.a(fvwrite.o)
 .debug_line    0x0026e85e      0x24e /home/jialiang/logic32-elf/lib/gcc/logic32-elf/3.4.2/../../../../logic32-elf/lib/libc.a(locale.o)
 .debug_line    0x0026eaac      0x269 /home/jialiang/logic32-elf/lib/gcc/logic32-elf/3.4.2/../../../../logic32-elf/lib/libc.a(wsetup.o)
 .debug_line    0x0026ed15      0x1a2 /home/jialiang/logic32-elf/lib/gcc/logic32-elf/3.4.2/../../../../logic32-elf/lib/libc.a(malloc.o)
 .debug_line    0x0026eeb7      0x1c8 /home/jialiang/logic32-elf/lib/gcc/logic32-elf/3.4.2/../../../../logic32-elf/lib/libc.a(s_isinf.o)
 .debug_line    0x0026f07f      0x29b /home/jialiang/logic32-elf/lib/gcc/logic32-elf/3.4.2/../../../../logic32-elf/lib/libc.a(wcrtomb.o)
 .debug_line    0x0026f31a      0x641 /home/jialiang/logic32-elf/lib/gcc/logic32-elf/3.4.2/../../../../logic32-elf/lib/libc.a(mallocr.o)
 .debug_line    0x0026f95b      0x3d8 /home/jialiang/logic32-elf/lib/gcc/logic32-elf/3.4.2/../../../../logic32-elf/lib/libc.a(wcsrtombs.o)
 .debug_line    0x0026fd33      0x22f /home/jialiang/logic32-elf/lib/gcc/logic32-elf/3.4.2/../../../../logic32-elf/lib/libc.a(memchr.o)
 .debug_line    0x0026ff62      0x1c8 /home/jialiang/logic32-elf/lib/gcc/logic32-elf/3.4.2/../../../../logic32-elf/lib/libc.a(s_isnan.o)
 .debug_line    0x0027012a      0x265 /home/jialiang/logic32-elf/lib/gcc/logic32-elf/3.4.2/../../../../logic32-elf/lib/libc.a(fflush.o)
 .debug_line    0x0027038f      0x66e /home/jialiang/logic32-elf/lib/gcc/logic32-elf/3.4.2/../../../../logic32-elf/lib/libc.a(findfp.o)
 .debug_line    0x002709fd      0xe6f /home/jialiang/logic32-elf/lib/gcc/logic32-elf/3.4.2/../../../../logic32-elf/lib/libc.a(dtoa.o)
 .debug_line    0x0027186c      0x446 /home/jialiang/logic32-elf/lib/gcc/logic32-elf/3.4.2/../../../../logic32-elf/lib/libc.a(reallocr.o)
 .debug_line    0x00271cb2      0x1ef /home/jialiang/logic32-elf/lib/gcc/logic32-elf/3.4.2/../../../../logic32-elf/lib/libc.a(strcmp.o)
 .debug_line    0x00271ea1      0x41f /home/jialiang/logic32-elf/lib/gcc/logic32-elf/3.4.2/../../../../logic32-elf/lib/libc.a(freer.o)
 .debug_line    0x002722c0      0x2ac /home/jialiang/logic32-elf/lib/gcc/logic32-elf/3.4.2/../../../../logic32-elf/lib/libc.a(makebuf.o)
 .debug_line    0x0027256c      0x4bb /home/jialiang/logic32-elf/lib/gcc/logic32-elf/3.4.2/../../../../logic32-elf/lib/libc.a(wctomb_r.o)
 .debug_line    0x00272a27      0x17a /home/jialiang/logic32-elf/lib/gcc/logic32-elf/3.4.2/../../../../logic32-elf/lib/libc.a(mlock.o)
 .debug_line    0x00272ba1      0x1f9 /home/jialiang/logic32-elf/lib/gcc/logic32-elf/3.4.2/../../../../logic32-elf/lib/libc.a(sbrkr.o)
 .debug_line    0x00272d9a      0x21d /home/jialiang/logic32-elf/lib/gcc/logic32-elf/3.4.2/../../../../logic32-elf/lib/libc.a(fwalk.o)
 .debug_line    0x00272fb7      0x26d /home/jialiang/logic32-elf/lib/gcc/logic32-elf/3.4.2/../../../../logic32-elf/lib/libc.a(stdio.o)
 .debug_line    0x00273224     0x16bb /home/jialiang/logic32-elf/lib/gcc/logic32-elf/3.4.2/../../../../logic32-elf/lib/libc.a(mprec.o)
 .debug_line    0x002748df      0x1cb /home/jialiang/logic32-elf/lib/gcc/logic32-elf/3.4.2/../../../../logic32-elf/lib/libc.a(fstatr.o)
 .debug_line    0x00274aaa      0x1f9 /home/jialiang/logic32-elf/lib/gcc/logic32-elf/3.4.2/../../../../logic32-elf/lib/libc.a(readr.o)
 .debug_line    0x00274ca3      0x1fa /home/jialiang/logic32-elf/lib/gcc/logic32-elf/3.4.2/../../../../logic32-elf/lib/libc.a(lseekr.o)
 .debug_line    0x00274e9d      0x1fa /home/jialiang/logic32-elf/lib/gcc/logic32-elf/3.4.2/../../../../logic32-elf/lib/libc.a(writer.o)
 .debug_line    0x00275097      0x1fa /home/jialiang/logic32-elf/lib/gcc/logic32-elf/3.4.2/../../../../logic32-elf/lib/libc.a(closer.o)
 .debug_line    0x00275291      0x1e4 /home/jialiang/logic32-elf/lib/gcc/logic32-elf/3.4.2/../../../../logic32-elf/lib/libc.a(callocr.o)
 .debug_line    0x00275475      0x232 /home/jialiang/logic32-elf/lib/gcc/logic32-elf/3.4.2/../../../../logic32-elf/lib/libm.a(s_sin.o)
 .debug_line    0x002756a7      0x232 /home/jialiang/logic32-elf/lib/gcc/logic32-elf/3.4.2/../../../../logic32-elf/lib/libm.a(s_cos.o)
 .debug_line    0x002758d9      0x2d9 /home/jialiang/logic32-elf/lib/gcc/logic32-elf/3.4.2/../../../../logic32-elf/lib/libm.a(s_ceil.o)
 .debug_line    0x00275bb2      0x2ec /home/jialiang/logic32-elf/lib/gcc/logic32-elf/3.4.2/../../../../logic32-elf/lib/libm.a(s_floor.o)
 .debug_line    0x00275e9e      0x246 /home/jialiang/logic32-elf/lib/gcc/logic32-elf/3.4.2/../../../../logic32-elf/lib/libm.a(w_sqrt.o)
 .debug_line    0x002760e4      0x40c /home/jialiang/logic32-elf/lib/gcc/logic32-elf/3.4.2/../../../../logic32-elf/lib/libm.a(e_rem_pio2.o)
 .debug_line    0x002764f0      0x238 /home/jialiang/logic32-elf/lib/gcc/logic32-elf/3.4.2/../../../../logic32-elf/lib/libm.a(k_cos.o)
 .debug_line    0x00276728      0x216 /home/jialiang/logic32-elf/lib/gcc/logic32-elf/3.4.2/../../../../logic32-elf/lib/libm.a(k_sin.o)
 .debug_line    0x0027693e      0x3f6 /home/jialiang/logic32-elf/lib/gcc/logic32-elf/3.4.2/../../../../logic32-elf/lib/libm.a(e_sqrt.o)
 .debug_line    0x00276d34      0x188 /home/jialiang/logic32-elf/lib/gcc/logic32-elf/3.4.2/../../../../logic32-elf/lib/libm.a(s_lib_ver.o)
 .debug_line    0x00276ebc      0x19a /home/jialiang/logic32-elf/lib/gcc/logic32-elf/3.4.2/../../../../logic32-elf/lib/libm.a(s_matherr.o)
 .debug_line    0x00277056      0x543 /home/jialiang/logic32-elf/lib/gcc/logic32-elf/3.4.2/../../../../logic32-elf/lib/libm.a(k_rem_pio2.o)
 .debug_line    0x00277599      0x1af /home/jialiang/logic32-elf/lib/gcc/logic32-elf/3.4.2/../../../../logic32-elf/lib/libm.a(s_fabs.o)
 .debug_line    0x00277748      0x28f /home/jialiang/logic32-elf/lib/gcc/logic32-elf/3.4.2/../../../../logic32-elf/lib/libm.a(s_scalbn.o)
 .debug_line    0x002779d7      0x1ab /home/jialiang/logic32-elf/lib/gcc/logic32-elf/3.4.2/../../../../logic32-elf/lib/libm.a(s_copysign.o)

.debug_pubnames
                0x00277b82      0x9bb
 .debug_pubnames
                0x00277b82       0x1d /home/jialiang/logic32-elf/lib/gcc/logic32-elf/3.4.2/../../../../logic32-elf/lib/libc.a(memcpy.o)
 .debug_pubnames
                0x00277b9f       0x1e /home/jialiang/logic32-elf/lib/gcc/logic32-elf/3.4.2/../../../../logic32-elf/lib/libc.a(memmove.o)
 .debug_pubnames
                0x00277bbd       0x1d /home/jialiang/logic32-elf/lib/gcc/logic32-elf/3.4.2/../../../../logic32-elf/lib/libc.a(strlen.o)
 .debug_pubnames
                0x00277bda       0x1d /home/jialiang/logic32-elf/lib/gcc/logic32-elf/3.4.2/../../../../logic32-elf/lib/libc.a(memset.o)
 .debug_pubnames
                0x00277bf7       0x1d /home/jialiang/logic32-elf/lib/gcc/logic32-elf/3.4.2/../../../../logic32-elf/lib/libc.a(memcmp.o)
 .debug_pubnames
                0x00277c14       0x1d /home/jialiang/logic32-elf/lib/gcc/logic32-elf/3.4.2/../../../../logic32-elf/lib/libc.a(strcpy.o)
 .debug_pubnames
                0x00277c31       0x1e /home/jialiang/logic32-elf/lib/gcc/logic32-elf/3.4.2/../../../../logic32-elf/lib/libc.a(strncpy.o)
 .debug_pubnames
                0x00277c4f       0x2b /home/jialiang/logic32-elf/lib/gcc/logic32-elf/3.4.2/../../../../logic32-elf/lib/libc.a(printf.o)
 .debug_pubnames
                0x00277c7a       0x27 /home/jialiang/logic32-elf/lib/gcc/logic32-elf/3.4.2/../../../../logic32-elf/lib/libc.a(puts.o)
 .debug_pubnames
                0x00277ca1       0x2f /home/jialiang/logic32-elf/lib/gcc/logic32-elf/3.4.2/../../../../logic32-elf/lib/libc.a(vfprintf.o)
 .debug_pubnames
                0x00277cd0       0x22 /home/jialiang/logic32-elf/lib/gcc/logic32-elf/3.4.2/../../../../logic32-elf/lib/libc.a(impure.o)
 .debug_pubnames
                0x00277cf2       0x21 /home/jialiang/logic32-elf/lib/gcc/logic32-elf/3.4.2/../../../../logic32-elf/lib/libc.a(fvwrite.o)
 .debug_pubnames
                0x00277d13       0xc3 /home/jialiang/logic32-elf/lib/gcc/logic32-elf/3.4.2/../../../../logic32-elf/lib/libc.a(locale.o)
 .debug_pubnames
                0x00277dd6       0x20 /home/jialiang/logic32-elf/lib/gcc/logic32-elf/3.4.2/../../../../logic32-elf/lib/libc.a(wsetup.o)
 .debug_pubnames
                0x00277df6       0x26 /home/jialiang/logic32-elf/lib/gcc/logic32-elf/3.4.2/../../../../logic32-elf/lib/libc.a(malloc.o)
 .debug_pubnames
                0x00277e1c       0x1c /home/jialiang/logic32-elf/lib/gcc/logic32-elf/3.4.2/../../../../logic32-elf/lib/libc.a(s_isinf.o)
 .debug_pubnames
                0x00277e38       0x2d /home/jialiang/logic32-elf/lib/gcc/logic32-elf/3.4.2/../../../../logic32-elf/lib/libc.a(wcrtomb.o)
 .debug_pubnames
                0x00277e65       0xce /home/jialiang/logic32-elf/lib/gcc/logic32-elf/3.4.2/../../../../logic32-elf/lib/libc.a(mallocr.o)
 .debug_pubnames
                0x00277f33       0x31 /home/jialiang/logic32-elf/lib/gcc/logic32-elf/3.4.2/../../../../logic32-elf/lib/libc.a(wcsrtombs.o)
 .debug_pubnames
                0x00277f64       0x1d /home/jialiang/logic32-elf/lib/gcc/logic32-elf/3.4.2/../../../../logic32-elf/lib/libc.a(memchr.o)
 .debug_pubnames
                0x00277f81       0x1c /home/jialiang/logic32-elf/lib/gcc/logic32-elf/3.4.2/../../../../logic32-elf/lib/libc.a(s_isnan.o)
 .debug_pubnames
                0x00277f9d       0x1d /home/jialiang/logic32-elf/lib/gcc/logic32-elf/3.4.2/../../../../logic32-elf/lib/libc.a(fflush.o)
 .debug_pubnames
                0x00277fba       0x55 /home/jialiang/logic32-elf/lib/gcc/logic32-elf/3.4.2/../../../../logic32-elf/lib/libc.a(findfp.o)
 .debug_pubnames
                0x0027800f       0x1e /home/jialiang/logic32-elf/lib/gcc/logic32-elf/3.4.2/../../../../logic32-elf/lib/libc.a(dtoa.o)
 .debug_pubnames
                0x0027802d       0x21 /home/jialiang/logic32-elf/lib/gcc/logic32-elf/3.4.2/../../../../logic32-elf/lib/libc.a(reallocr.o)
 .debug_pubnames
                0x0027804e       0x1d /home/jialiang/logic32-elf/lib/gcc/logic32-elf/3.4.2/../../../../logic32-elf/lib/libc.a(strcmp.o)
 .debug_pubnames
                0x0027806b       0x31 /home/jialiang/logic32-elf/lib/gcc/logic32-elf/3.4.2/../../../../logic32-elf/lib/libc.a(freer.o)
 .debug_pubnames
                0x0027809c       0x21 /home/jialiang/logic32-elf/lib/gcc/logic32-elf/3.4.2/../../../../logic32-elf/lib/libc.a(makebuf.o)
 .debug_pubnames
                0x002780bd       0x20 /home/jialiang/logic32-elf/lib/gcc/logic32-elf/3.4.2/../../../../logic32-elf/lib/libc.a(wctomb_r.o)
 .debug_pubnames
                0x002780dd       0x38 /home/jialiang/logic32-elf/lib/gcc/logic32-elf/3.4.2/../../../../logic32-elf/lib/libc.a(mlock.o)
 .debug_pubnames
                0x00278115       0x1e /home/jialiang/logic32-elf/lib/gcc/logic32-elf/3.4.2/../../../../logic32-elf/lib/libc.a(sbrkr.o)
 .debug_pubnames
                0x00278133       0x1d /home/jialiang/logic32-elf/lib/gcc/logic32-elf/3.4.2/../../../../logic32-elf/lib/libc.a(fwalk.o)
 .debug_pubnames
                0x00278150       0x44 /home/jialiang/logic32-elf/lib/gcc/logic32-elf/3.4.2/../../../../logic32-elf/lib/libc.a(stdio.o)
 .debug_pubnames
                0x00278194      0x112 /home/jialiang/logic32-elf/lib/gcc/logic32-elf/3.4.2/../../../../logic32-elf/lib/libc.a(mprec.o)
 .debug_pubnames
                0x002782a6       0x1f /home/jialiang/logic32-elf/lib/gcc/logic32-elf/3.4.2/../../../../logic32-elf/lib/libc.a(fstatr.o)
 .debug_pubnames
                0x002782c5       0x1e /home/jialiang/logic32-elf/lib/gcc/logic32-elf/3.4.2/../../../../logic32-elf/lib/libc.a(readr.o)
 .debug_pubnames
                0x002782e3       0x1f /home/jialiang/logic32-elf/lib/gcc/logic32-elf/3.4.2/../../../../logic32-elf/lib/libc.a(lseekr.o)
 .debug_pubnames
                0x00278302       0x1f /home/jialiang/logic32-elf/lib/gcc/logic32-elf/3.4.2/../../../../logic32-elf/lib/libc.a(writer.o)
 .debug_pubnames
                0x00278321       0x1f /home/jialiang/logic32-elf/lib/gcc/logic32-elf/3.4.2/../../../../logic32-elf/lib/libc.a(closer.o)
 .debug_pubnames
                0x00278340       0x20 /home/jialiang/logic32-elf/lib/gcc/logic32-elf/3.4.2/../../../../logic32-elf/lib/libc.a(callocr.o)
 .debug_pubnames
                0x00278360       0x1a /home/jialiang/logic32-elf/lib/gcc/logic32-elf/3.4.2/../../../../logic32-elf/lib/libm.a(s_sin.o)
 .debug_pubnames
                0x0027837a       0x1a /home/jialiang/logic32-elf/lib/gcc/logic32-elf/3.4.2/../../../../logic32-elf/lib/libm.a(s_cos.o)
 .debug_pubnames
                0x00278394       0x1b /home/jialiang/logic32-elf/lib/gcc/logic32-elf/3.4.2/../../../../logic32-elf/lib/libm.a(s_ceil.o)
 .debug_pubnames
                0x002783af       0x1c /home/jialiang/logic32-elf/lib/gcc/logic32-elf/3.4.2/../../../../logic32-elf/lib/libm.a(s_floor.o)
 .debug_pubnames
                0x002783cb       0x1b /home/jialiang/logic32-elf/lib/gcc/logic32-elf/3.4.2/../../../../logic32-elf/lib/libm.a(w_sqrt.o)
 .debug_pubnames
                0x002783e6       0x29 /home/jialiang/logic32-elf/lib/gcc/logic32-elf/3.4.2/../../../../logic32-elf/lib/libm.a(e_rem_pio2.o)
 .debug_pubnames
                0x0027840f       0x23 /home/jialiang/logic32-elf/lib/gcc/logic32-elf/3.4.2/../../../../logic32-elf/lib/libm.a(k_cos.o)
 .debug_pubnames
                0x00278432       0x23 /home/jialiang/logic32-elf/lib/gcc/logic32-elf/3.4.2/../../../../logic32-elf/lib/libm.a(k_sin.o)
 .debug_pubnames
                0x00278455       0x25 /home/jialiang/logic32-elf/lib/gcc/logic32-elf/3.4.2/../../../../logic32-elf/lib/libm.a(e_sqrt.o)
 .debug_pubnames
                0x0027847a       0x26 /home/jialiang/logic32-elf/lib/gcc/logic32-elf/3.4.2/../../../../logic32-elf/lib/libm.a(s_lib_ver.o)
 .debug_pubnames
                0x002784a0       0x1e /home/jialiang/logic32-elf/lib/gcc/logic32-elf/3.4.2/../../../../logic32-elf/lib/libm.a(s_matherr.o)
 .debug_pubnames
                0x002784be       0x28 /home/jialiang/logic32-elf/lib/gcc/logic32-elf/3.4.2/../../../../logic32-elf/lib/libm.a(k_rem_pio2.o)
 .debug_pubnames
                0x002784e6       0x1b /home/jialiang/logic32-elf/lib/gcc/logic32-elf/3.4.2/../../../../logic32-elf/lib/libm.a(s_fabs.o)
 .debug_pubnames
                0x00278501       0x1d /home/jialiang/logic32-elf/lib/gcc/logic32-elf/3.4.2/../../../../logic32-elf/lib/libm.a(s_scalbn.o)
 .debug_pubnames
                0x0027851e       0x1f /home/jialiang/logic32-elf/lib/gcc/logic32-elf/3.4.2/../../../../logic32-elf/lib/libm.a(s_copysign.o)

.debug_aranges  0x0027853d      0x6a0
 .debug_aranges
                0x0027853d       0x20 /home/jialiang/logic32-elf/lib/gcc/logic32-elf/3.4.2/../../../../logic32-elf/lib/libc.a(memcpy.o)
 .debug_aranges
                0x0027855d       0x20 /home/jialiang/logic32-elf/lib/gcc/logic32-elf/3.4.2/../../../../logic32-elf/lib/libc.a(memmove.o)
 .debug_aranges
                0x0027857d       0x20 /home/jialiang/logic32-elf/lib/gcc/logic32-elf/3.4.2/../../../../logic32-elf/lib/libc.a(strlen.o)
 .debug_aranges
                0x0027859d       0x20 /home/jialiang/logic32-elf/lib/gcc/logic32-elf/3.4.2/../../../../logic32-elf/lib/libc.a(memset.o)
 .debug_aranges
                0x002785bd       0x20 /home/jialiang/logic32-elf/lib/gcc/logic32-elf/3.4.2/../../../../logic32-elf/lib/libc.a(memcmp.o)
 .debug_aranges
                0x002785dd       0x20 /home/jialiang/logic32-elf/lib/gcc/logic32-elf/3.4.2/../../../../logic32-elf/lib/libc.a(strcpy.o)
 .debug_aranges
                0x002785fd       0x20 /home/jialiang/logic32-elf/lib/gcc/logic32-elf/3.4.2/../../../../logic32-elf/lib/libc.a(strncpy.o)
 .debug_aranges
                0x0027861d       0x20 /home/jialiang/logic32-elf/lib/gcc/logic32-elf/3.4.2/../../../../logic32-elf/lib/libc.a(printf.o)
 .debug_aranges
                0x0027863d       0x20 /home/jialiang/logic32-elf/lib/gcc/logic32-elf/3.4.2/../../../../logic32-elf/lib/libc.a(puts.o)
 .debug_aranges
                0x0027865d       0x20 /home/jialiang/logic32-elf/lib/gcc/logic32-elf/3.4.2/../../../../logic32-elf/lib/libc.a(vfprintf.o)
 .debug_aranges
                0x0027867d       0x20 /home/jialiang/logic32-elf/lib/gcc/logic32-elf/3.4.2/../../../../logic32-elf/lib/libc.a(fvwrite.o)
 .debug_aranges
                0x0027869d       0x20 /home/jialiang/logic32-elf/lib/gcc/logic32-elf/3.4.2/../../../../logic32-elf/lib/libc.a(locale.o)
 .debug_aranges
                0x002786bd       0x20 /home/jialiang/logic32-elf/lib/gcc/logic32-elf/3.4.2/../../../../logic32-elf/lib/libc.a(wsetup.o)
 .debug_aranges
                0x002786dd       0x20 /home/jialiang/logic32-elf/lib/gcc/logic32-elf/3.4.2/../../../../logic32-elf/lib/libc.a(malloc.o)
 .debug_aranges
                0x002786fd       0x20 /home/jialiang/logic32-elf/lib/gcc/logic32-elf/3.4.2/../../../../logic32-elf/lib/libc.a(s_isinf.o)
 .debug_aranges
                0x0027871d       0x20 /home/jialiang/logic32-elf/lib/gcc/logic32-elf/3.4.2/../../../../logic32-elf/lib/libc.a(wcrtomb.o)
 .debug_aranges
                0x0027873d       0x20 /home/jialiang/logic32-elf/lib/gcc/logic32-elf/3.4.2/../../../../logic32-elf/lib/libc.a(mallocr.o)
 .debug_aranges
                0x0027875d       0x20 /home/jialiang/logic32-elf/lib/gcc/logic32-elf/3.4.2/../../../../logic32-elf/lib/libc.a(wcsrtombs.o)
 .debug_aranges
                0x0027877d       0x20 /home/jialiang/logic32-elf/lib/gcc/logic32-elf/3.4.2/../../../../logic32-elf/lib/libc.a(memchr.o)
 .debug_aranges
                0x0027879d       0x20 /home/jialiang/logic32-elf/lib/gcc/logic32-elf/3.4.2/../../../../logic32-elf/lib/libc.a(s_isnan.o)
 .debug_aranges
                0x002787bd       0x20 /home/jialiang/logic32-elf/lib/gcc/logic32-elf/3.4.2/../../../../logic32-elf/lib/libc.a(fflush.o)
 .debug_aranges
                0x002787dd       0x20 /home/jialiang/logic32-elf/lib/gcc/logic32-elf/3.4.2/../../../../logic32-elf/lib/libc.a(findfp.o)
 .debug_aranges
                0x002787fd       0x20 /home/jialiang/logic32-elf/lib/gcc/logic32-elf/3.4.2/../../../../logic32-elf/lib/libc.a(dtoa.o)
 .debug_aranges
                0x0027881d       0x20 /home/jialiang/logic32-elf/lib/gcc/logic32-elf/3.4.2/../../../../logic32-elf/lib/libc.a(reallocr.o)
 .debug_aranges
                0x0027883d       0x20 /home/jialiang/logic32-elf/lib/gcc/logic32-elf/3.4.2/../../../../logic32-elf/lib/libc.a(strcmp.o)
 .debug_aranges
                0x0027885d       0x20 /home/jialiang/logic32-elf/lib/gcc/logic32-elf/3.4.2/../../../../logic32-elf/lib/libc.a(freer.o)
 .debug_aranges
                0x0027887d       0x20 /home/jialiang/logic32-elf/lib/gcc/logic32-elf/3.4.2/../../../../logic32-elf/lib/libc.a(makebuf.o)
 .debug_aranges
                0x0027889d       0x20 /home/jialiang/logic32-elf/lib/gcc/logic32-elf/3.4.2/../../../../logic32-elf/lib/libc.a(wctomb_r.o)
 .debug_aranges
                0x002788bd       0x20 /home/jialiang/logic32-elf/lib/gcc/logic32-elf/3.4.2/../../../../logic32-elf/lib/libc.a(mlock.o)
 .debug_aranges
                0x002788dd       0x20 /home/jialiang/logic32-elf/lib/gcc/logic32-elf/3.4.2/../../../../logic32-elf/lib/libc.a(sbrkr.o)
 .debug_aranges
                0x002788fd       0x20 /home/jialiang/logic32-elf/lib/gcc/logic32-elf/3.4.2/../../../../logic32-elf/lib/libc.a(fwalk.o)
 .debug_aranges
                0x0027891d       0x20 /home/jialiang/logic32-elf/lib/gcc/logic32-elf/3.4.2/../../../../logic32-elf/lib/libc.a(stdio.o)
 .debug_aranges
                0x0027893d       0x20 /home/jialiang/logic32-elf/lib/gcc/logic32-elf/3.4.2/../../../../logic32-elf/lib/libc.a(mprec.o)
 .debug_aranges
                0x0027895d       0x20 /home/jialiang/logic32-elf/lib/gcc/logic32-elf/3.4.2/../../../../logic32-elf/lib/libc.a(fstatr.o)
 .debug_aranges
                0x0027897d       0x20 /home/jialiang/logic32-elf/lib/gcc/logic32-elf/3.4.2/../../../../logic32-elf/lib/libc.a(readr.o)
 .debug_aranges
                0x0027899d       0x20 /home/jialiang/logic32-elf/lib/gcc/logic32-elf/3.4.2/../../../../logic32-elf/lib/libc.a(lseekr.o)
 .debug_aranges
                0x002789bd       0x20 /home/jialiang/logic32-elf/lib/gcc/logic32-elf/3.4.2/../../../../logic32-elf/lib/libc.a(writer.o)
 .debug_aranges
                0x002789dd       0x20 /home/jialiang/logic32-elf/lib/gcc/logic32-elf/3.4.2/../../../../logic32-elf/lib/libc.a(closer.o)
 .debug_aranges
                0x002789fd       0x20 /home/jialiang/logic32-elf/lib/gcc/logic32-elf/3.4.2/../../../../logic32-elf/lib/libc.a(callocr.o)
 .debug_aranges
                0x00278a1d       0x20 /home/jialiang/logic32-elf/lib/gcc/logic32-elf/3.4.2/../../../../logic32-elf/lib/libm.a(s_sin.o)
 .debug_aranges
                0x00278a3d       0x20 /home/jialiang/logic32-elf/lib/gcc/logic32-elf/3.4.2/../../../../logic32-elf/lib/libm.a(s_cos.o)
 .debug_aranges
                0x00278a5d       0x20 /home/jialiang/logic32-elf/lib/gcc/logic32-elf/3.4.2/../../../../logic32-elf/lib/libm.a(s_ceil.o)
 .debug_aranges
                0x00278a7d       0x20 /home/jialiang/logic32-elf/lib/gcc/logic32-elf/3.4.2/../../../../logic32-elf/lib/libm.a(s_floor.o)
 .debug_aranges
                0x00278a9d       0x20 /home/jialiang/logic32-elf/lib/gcc/logic32-elf/3.4.2/../../../../logic32-elf/lib/libm.a(w_sqrt.o)
 .debug_aranges
                0x00278abd       0x20 /home/jialiang/logic32-elf/lib/gcc/logic32-elf/3.4.2/../../../../logic32-elf/lib/libm.a(e_rem_pio2.o)
 .debug_aranges
                0x00278add       0x20 /home/jialiang/logic32-elf/lib/gcc/logic32-elf/3.4.2/../../../../logic32-elf/lib/libm.a(k_cos.o)
 .debug_aranges
                0x00278afd       0x20 /home/jialiang/logic32-elf/lib/gcc/logic32-elf/3.4.2/../../../../logic32-elf/lib/libm.a(k_sin.o)
 .debug_aranges
                0x00278b1d       0x20 /home/jialiang/logic32-elf/lib/gcc/logic32-elf/3.4.2/../../../../logic32-elf/lib/libm.a(e_sqrt.o)
 .debug_aranges
                0x00278b3d       0x20 /home/jialiang/logic32-elf/lib/gcc/logic32-elf/3.4.2/../../../../logic32-elf/lib/libm.a(s_matherr.o)
 .debug_aranges
                0x00278b5d       0x20 /home/jialiang/logic32-elf/lib/gcc/logic32-elf/3.4.2/../../../../logic32-elf/lib/libm.a(k_rem_pio2.o)
 .debug_aranges
                0x00278b7d       0x20 /home/jialiang/logic32-elf/lib/gcc/logic32-elf/3.4.2/../../../../logic32-elf/lib/libm.a(s_fabs.o)
 .debug_aranges
                0x00278b9d       0x20 /home/jialiang/logic32-elf/lib/gcc/logic32-elf/3.4.2/../../../../logic32-elf/lib/libm.a(s_scalbn.o)
 .debug_aranges
                0x00278bbd       0x20 /home/jialiang/logic32-elf/lib/gcc/logic32-elf/3.4.2/../../../../logic32-elf/lib/libm.a(s_copysign.o)

.debug_str      0x00278bdd     0xb891
 .debug_str     0x00278bdd       0xf6 /home/jialiang/logic32-elf/lib/gcc/logic32-elf/3.4.2/../../../../logic32-elf/lib/libc.a(memcpy.o)
 .debug_str     0x00278cd3      0x164 /home/jialiang/logic32-elf/lib/gcc/logic32-elf/3.4.2/../../../../logic32-elf/lib/libc.a(memmove.o)
 .debug_str     0x00278e37      0x144 /home/jialiang/logic32-elf/lib/gcc/logic32-elf/3.4.2/../../../../logic32-elf/lib/libc.a(strlen.o)
 .debug_str     0x00278f7b      0x145 /home/jialiang/logic32-elf/lib/gcc/logic32-elf/3.4.2/../../../../logic32-elf/lib/libc.a(memset.o)
 .debug_str     0x002790c0      0x131 /home/jialiang/logic32-elf/lib/gcc/logic32-elf/3.4.2/../../../../logic32-elf/lib/libc.a(memcmp.o)
 .debug_str     0x002791f1      0x14c /home/jialiang/logic32-elf/lib/gcc/logic32-elf/3.4.2/../../../../logic32-elf/lib/libc.a(strcpy.o)
 .debug_str     0x0027933d      0x15b /home/jialiang/logic32-elf/lib/gcc/logic32-elf/3.4.2/../../../../logic32-elf/lib/libc.a(strncpy.o)
 .debug_str     0x00279498      0x4c4 /home/jialiang/logic32-elf/lib/gcc/logic32-elf/3.4.2/../../../../logic32-elf/lib/libc.a(printf.o)
 .debug_str     0x0027995c      0x4ea /home/jialiang/logic32-elf/lib/gcc/logic32-elf/3.4.2/../../../../logic32-elf/lib/libc.a(puts.o)
 .debug_str     0x00279e46      0x68c /home/jialiang/logic32-elf/lib/gcc/logic32-elf/3.4.2/../../../../logic32-elf/lib/libc.a(vfprintf.o)
 .debug_str     0x0027a4d2      0x4a8 /home/jialiang/logic32-elf/lib/gcc/logic32-elf/3.4.2/../../../../logic32-elf/lib/libc.a(impure.o)
 .debug_str     0x0027a97a      0x506 /home/jialiang/logic32-elf/lib/gcc/logic32-elf/3.4.2/../../../../logic32-elf/lib/libc.a(fvwrite.o)
 .debug_str     0x0027ae80      0x64a /home/jialiang/logic32-elf/lib/gcc/logic32-elf/3.4.2/../../../../logic32-elf/lib/libc.a(locale.o)
 .debug_str     0x0027b4ca      0x4ab /home/jialiang/logic32-elf/lib/gcc/logic32-elf/3.4.2/../../../../logic32-elf/lib/libc.a(wsetup.o)
 .debug_str     0x0027b975      0x4bd /home/jialiang/logic32-elf/lib/gcc/logic32-elf/3.4.2/../../../../logic32-elf/lib/libc.a(malloc.o)
 .debug_str     0x0027be32      0x170 /home/jialiang/logic32-elf/lib/gcc/logic32-elf/3.4.2/../../../../logic32-elf/lib/libc.a(s_isinf.o)
 .debug_str     0x0027bfa2      0x4d2 /home/jialiang/logic32-elf/lib/gcc/logic32-elf/3.4.2/../../../../logic32-elf/lib/libc.a(wcrtomb.o)
 .debug_str     0x0027c474      0x692 /home/jialiang/logic32-elf/lib/gcc/logic32-elf/3.4.2/../../../../logic32-elf/lib/libc.a(mallocr.o)
 .debug_str     0x0027cb06      0x4e7 /home/jialiang/logic32-elf/lib/gcc/logic32-elf/3.4.2/../../../../logic32-elf/lib/libc.a(wcsrtombs.o)
 .debug_str     0x0027cfed      0x152 /home/jialiang/logic32-elf/lib/gcc/logic32-elf/3.4.2/../../../../logic32-elf/lib/libc.a(memchr.o)
 .debug_str     0x0027d13f      0x170 /home/jialiang/logic32-elf/lib/gcc/logic32-elf/3.4.2/../../../../logic32-elf/lib/libc.a(s_isnan.o)
 .debug_str     0x0027d2af      0x4a8 /home/jialiang/logic32-elf/lib/gcc/logic32-elf/3.4.2/../../../../logic32-elf/lib/libc.a(fflush.o)
 .debug_str     0x0027d757      0x4eb /home/jialiang/logic32-elf/lib/gcc/logic32-elf/3.4.2/../../../../logic32-elf/lib/libc.a(findfp.o)
 .debug_str     0x0027dc42      0x596 /home/jialiang/logic32-elf/lib/gcc/logic32-elf/3.4.2/../../../../logic32-elf/lib/libc.a(dtoa.o)
 .debug_str     0x0027e1d8      0x564 /home/jialiang/logic32-elf/lib/gcc/logic32-elf/3.4.2/../../../../logic32-elf/lib/libc.a(reallocr.o)
 .debug_str     0x0027e73c      0x12a /home/jialiang/logic32-elf/lib/gcc/logic32-elf/3.4.2/../../../../logic32-elf/lib/libc.a(strcmp.o)
 .debug_str     0x0027e866      0x5e4 /home/jialiang/logic32-elf/lib/gcc/logic32-elf/3.4.2/../../../../logic32-elf/lib/libc.a(freer.o)
 .debug_str     0x0027ee4a      0x592 /home/jialiang/logic32-elf/lib/gcc/logic32-elf/3.4.2/../../../../logic32-elf/lib/libc.a(makebuf.o)
 .debug_str     0x0027f3dc      0x4d3 /home/jialiang/logic32-elf/lib/gcc/logic32-elf/3.4.2/../../../../logic32-elf/lib/libc.a(wctomb_r.o)
 .debug_str     0x0027f8af      0x4af /home/jialiang/logic32-elf/lib/gcc/logic32-elf/3.4.2/../../../../logic32-elf/lib/libc.a(mlock.o)
 .debug_str     0x0027fd5e      0x4b1 /home/jialiang/logic32-elf/lib/gcc/logic32-elf/3.4.2/../../../../logic32-elf/lib/libc.a(sbrkr.o)
 .debug_str     0x0028020f      0x4b0 /home/jialiang/logic32-elf/lib/gcc/logic32-elf/3.4.2/../../../../logic32-elf/lib/libc.a(fwalk.o)
 .debug_str     0x002806bf      0x4de /home/jialiang/logic32-elf/lib/gcc/logic32-elf/3.4.2/../../../../logic32-elf/lib/libc.a(stdio.o)
 .debug_str     0x00280b9d      0x57e /home/jialiang/logic32-elf/lib/gcc/logic32-elf/3.4.2/../../../../logic32-elf/lib/libc.a(mprec.o)
 .debug_str     0x0028111b      0x573 /home/jialiang/logic32-elf/lib/gcc/logic32-elf/3.4.2/../../../../logic32-elf/lib/libc.a(fstatr.o)
 .debug_str     0x0028168e      0x4ad /home/jialiang/logic32-elf/lib/gcc/logic32-elf/3.4.2/../../../../logic32-elf/lib/libc.a(readr.o)
 .debug_str     0x00281b3b      0x4ad /home/jialiang/logic32-elf/lib/gcc/logic32-elf/3.4.2/../../../../logic32-elf/lib/libc.a(lseekr.o)
 .debug_str     0x00281fe8      0x4af /home/jialiang/logic32-elf/lib/gcc/logic32-elf/3.4.2/../../../../logic32-elf/lib/libc.a(writer.o)
 .debug_str     0x00282497      0x49f /home/jialiang/logic32-elf/lib/gcc/logic32-elf/3.4.2/../../../../logic32-elf/lib/libc.a(closer.o)
 .debug_str     0x00282936      0x4e3 /home/jialiang/logic32-elf/lib/gcc/logic32-elf/3.4.2/../../../../logic32-elf/lib/libc.a(callocr.o)
 .debug_str     0x00282e19      0x135 /home/jialiang/logic32-elf/lib/gcc/logic32-elf/3.4.2/../../../../logic32-elf/lib/libm.a(s_sin.o)
 .debug_str     0x00282f4e      0x135 /home/jialiang/logic32-elf/lib/gcc/logic32-elf/3.4.2/../../../../logic32-elf/lib/libm.a(s_cos.o)
 .debug_str     0x00283083      0x178 /home/jialiang/logic32-elf/lib/gcc/logic32-elf/3.4.2/../../../../logic32-elf/lib/libm.a(s_ceil.o)
 .debug_str     0x002831fb      0x17a /home/jialiang/logic32-elf/lib/gcc/logic32-elf/3.4.2/../../../../logic32-elf/lib/libm.a(s_floor.o)
 .debug_str     0x00283375      0x1b1 /home/jialiang/logic32-elf/lib/gcc/logic32-elf/3.4.2/../../../../logic32-elf/lib/libm.a(w_sqrt.o)
 .debug_str     0x00283526      0x1ee /home/jialiang/logic32-elf/lib/gcc/logic32-elf/3.4.2/../../../../logic32-elf/lib/libm.a(e_rem_pio2.o)
 .debug_str     0x00283714      0x175 /home/jialiang/logic32-elf/lib/gcc/logic32-elf/3.4.2/../../../../logic32-elf/lib/libm.a(k_cos.o)
 .debug_str     0x00283889      0x17a /home/jialiang/logic32-elf/lib/gcc/logic32-elf/3.4.2/../../../../logic32-elf/lib/libm.a(k_sin.o)
 .debug_str     0x00283a03      0x187 /home/jialiang/logic32-elf/lib/gcc/logic32-elf/3.4.2/../../../../logic32-elf/lib/libm.a(e_sqrt.o)
 .debug_str     0x00283b8a      0x18e /home/jialiang/logic32-elf/lib/gcc/logic32-elf/3.4.2/../../../../logic32-elf/lib/libm.a(s_lib_ver.o)
 .debug_str     0x00283d18      0x160 /home/jialiang/logic32-elf/lib/gcc/logic32-elf/3.4.2/../../../../logic32-elf/lib/libm.a(s_matherr.o)
 .debug_str     0x00283e78      0x186 /home/jialiang/logic32-elf/lib/gcc/logic32-elf/3.4.2/../../../../logic32-elf/lib/libm.a(k_rem_pio2.o)
 .debug_str     0x00283ffe      0x169 /home/jialiang/logic32-elf/lib/gcc/logic32-elf/3.4.2/../../../../logic32-elf/lib/libm.a(s_fabs.o)
 .debug_str     0x00284167      0x197 /home/jialiang/logic32-elf/lib/gcc/logic32-elf/3.4.2/../../../../logic32-elf/lib/libm.a(s_scalbn.o)
 .debug_str     0x002842fe      0x170 /home/jialiang/logic32-elf/lib/gcc/logic32-elf/3.4.2/../../../../logic32-elf/lib/libm.a(s_copysign.o)

.debug_ranges   0x0028446e      0x680
 .debug_ranges  0x0028446e       0x18 /home/jialiang/logic32-elf/lib/gcc/logic32-elf/3.4.2/../../../../logic32-elf/lib/libc.a(puts.o)
 .debug_ranges  0x00284486      0x358 /home/jialiang/logic32-elf/lib/gcc/logic32-elf/3.4.2/../../../../logic32-elf/lib/libc.a(vfprintf.o)
 .debug_ranges  0x002847de       0x20 /home/jialiang/logic32-elf/lib/gcc/logic32-elf/3.4.2/../../../../logic32-elf/lib/libc.a(wcrtomb.o)
 .debug_ranges  0x002847fe       0x28 /home/jialiang/logic32-elf/lib/gcc/logic32-elf/3.4.2/../../../../logic32-elf/lib/libc.a(mallocr.o)
 .debug_ranges  0x00284826       0x70 /home/jialiang/logic32-elf/lib/gcc/logic32-elf/3.4.2/../../../../logic32-elf/lib/libc.a(wcsrtombs.o)
 .debug_ranges  0x00284896       0x48 /home/jialiang/logic32-elf/lib/gcc/logic32-elf/3.4.2/../../../../logic32-elf/lib/libc.a(reallocr.o)
 .debug_ranges  0x002848de       0x50 /home/jialiang/logic32-elf/lib/gcc/logic32-elf/3.4.2/../../../../logic32-elf/lib/libc.a(wctomb_r.o)
 .debug_ranges  0x0028492e      0x170 /home/jialiang/logic32-elf/lib/gcc/logic32-elf/3.4.2/../../../../logic32-elf/lib/libc.a(mprec.o)
 .debug_ranges  0x00284a9e       0x18 /home/jialiang/logic32-elf/lib/gcc/logic32-elf/3.4.2/../../../../logic32-elf/lib/libc.a(callocr.o)
 .debug_ranges  0x00284ab6       0x18 /home/jialiang/logic32-elf/lib/gcc/logic32-elf/3.4.2/../../../../logic32-elf/lib/libm.a(s_ceil.o)
 .debug_ranges  0x00284ace       0x20 /home/jialiang/logic32-elf/lib/gcc/logic32-elf/3.4.2/../../../../logic32-elf/lib/libm.a(s_floor.o)
