logic32-elf-objdump -d a.out

a.out:     file format elf32-logic32

Disassembly of section .text:

00000000 <halt-0x94>:
       0:	10 00 a0 2f 	ldih    r29,0x0010
       4:	00 00 bd 1b 	ori     r29,r29,0x0000
       8:	68 01 00 c0 	ajal    0x000005a0
       c:	03 00 00 6c 	halt    
      10:	c1 00 00 80 	ajmp    0x00000304
      14:	03 00 00 6c 	halt    
      18:	00 00 00 00 	nop
      1c:	00 00 00 00 	nop
      20:	03 00 00 6c 	halt    
      24:	00 00 00 00 	nop
      28:	00 00 00 00 	nop
      2c:	00 00 00 00 	nop
      30:	05 00 00 6c 	disi    
      34:	28 01 00 c0 	ajal    0x000004a0
      38:	03 00 00 6c 	halt    
      3c:	00 00 00 00 	nop
      40:	65 00 00 80 	ajmp    0x00000194
      44:	03 00 00 6c 	halt    
      48:	00 00 00 00 	nop
      4c:	00 00 00 00 	nop
      50:	03 00 00 6c 	halt    
      54:	00 00 00 00 	nop
      58:	00 00 00 00 	nop
      5c:	00 00 00 00 	nop
      60:	03 00 00 6c 	halt    
      64:	00 00 00 00 	nop
      68:	00 00 00 00 	nop
      6c:	00 00 00 00 	nop
      70:	03 00 00 6c 	halt    
      74:	00 00 00 00 	nop
      78:	00 00 00 00 	nop
      7c:	00 00 00 00 	nop
      80:	05 00 00 6c 	disi    
      84:	38 01 00 c0 	ajal    0x000004e0
      88:	03 00 00 6c 	halt    
      8c:	00 00 00 00 	nop
      90:	03 00 00 6c 	halt    

00000094 <halt>:
      94:	03 00 00 6c 	halt    

00000098 <sei>:
      98:	04 00 00 6c 	enai    
      9c:	00 00 e0 47 	jmpr    r31

000000a0 <cli>:
      a0:	05 00 00 6c 	disi    
      a4:	00 00 e0 47 	jmpr    r31

000000a8 <OS_CPU_SR_Save>:
      a8:	07 00 41 6c 	mfc     r2,psw
      ac:	05 00 00 6c 	disi    
      b0:	00 00 e0 47 	jmpr    r31

000000b4 <OS_CPU_SR_Restore>:
      b4:	06 00 24 6c 	mtc     psw,r4
      b8:	00 00 e0 47 	jmpr    r31

000000bc <OSStartHighRdy>:
      bc:	01 00 60 1b 	ori     r27,r0,0x0001
      c0:	01 00 40 2f 	ldih    r26,0x0001
      c4:	42 33 5a 1b 	ori     r26,r26,0x3342
      c8:	00 00 7a 3f 	sb      0x0000(r26),r27
      cc:	01 00 40 2f 	ldih    r26,0x0001
      d0:	70 4c 5a 1b 	ori     r26,r26,0x4c70
      d4:	00 00 7a 33 	lw      r27,0x0000(r26)
      d8:	00 00 bb 33 	lw      r29,0x0000(r27)
      dc:	00 04 60 1b 	ori     r27,r0,0x0400
      e0:	00 83 40 2f 	ldih    r26,0x8300
      e4:	04 00 5a 1b 	ori     r26,r26,0x0004
      e8:	00 00 7a 37 	sw      0x0000(r26),r27
      ec:	03 00 60 1b 	ori     r27,r0,0x0003
      f0:	00 83 40 2f 	ldih    r26,0x8300
      f4:	00 00 5a 1b 	ori     r26,r26,0x0000
      f8:	00 00 7a 37 	sw      0x0000(r26),r27
      fc:	04 00 3d 30 	lw      r1,0x0004(r29)
     100:	08 00 5d 30 	lw      r2,0x0008(r29)
     104:	0c 00 7d 30 	lw      r3,0x000c(r29)
     108:	10 00 9d 30 	lw      r4,0x0010(r29)
     10c:	14 00 bd 30 	lw      r5,0x0014(r29)
     110:	18 00 dd 30 	lw      r6,0x0018(r29)
     114:	1c 00 fd 30 	lw      r7,0x001c(r29)
     118:	20 00 1d 31 	lw      r8,0x0020(r29)
     11c:	24 00 3d 31 	lw      r9,0x0024(r29)
     120:	28 00 5d 31 	lw      r10,0x0028(r29)
     124:	2c 00 7d 31 	lw      r11,0x002c(r29)
     128:	30 00 9d 31 	lw      r12,0x0030(r29)
     12c:	34 00 bd 31 	lw      r13,0x0034(r29)
     130:	38 00 dd 31 	lw      r14,0x0038(r29)
     134:	3c 00 fd 31 	lw      r15,0x003c(r29)
     138:	40 00 1d 32 	lw      r16,0x0040(r29)
     13c:	44 00 3d 32 	lw      r17,0x0044(r29)
     140:	48 00 5d 32 	lw      r18,0x0048(r29)
     144:	4c 00 7d 32 	lw      r19,0x004c(r29)
     148:	50 00 9d 32 	lw      r20,0x0050(r29)
     14c:	54 00 bd 32 	lw      r21,0x0054(r29)
     150:	58 00 dd 32 	lw      r22,0x0058(r29)
     154:	5c 00 fd 32 	lw      r23,0x005c(r29)
     158:	60 00 1d 33 	lw      r24,0x0060(r29)
     15c:	64 00 3d 33 	lw      r25,0x0064(r29)
     160:	68 00 5d 33 	lw      r26,0x0068(r29)
     164:	6c 00 7d 33 	lw      r27,0x006c(r29)
     168:	70 00 9d 33 	lw      r28,0x0070(r29)
     16c:	78 00 dd 33 	lw      r30,0x0078(r29)
     170:	7c 00 fd 33 	lw      r31,0x007c(r29)
     174:	80 00 7d 33 	lw      r27,0x0080(r29)
     178:	06 00 9b 6c 	mtc     epc,r27
     17c:	84 00 7d 33 	lw      r27,0x0084(r29)
     180:	06 00 bb 6c 	mtc     esr,r27
     184:	88 00 bd 07 	addi    r29,r29,0x0088
     188:	01 00 00 6c 	reti    

0000018c <OSCtxSw>:
     18c:	02 00 00 6c 	trap    
     190:	00 00 e0 47 	jmpr    r31

00000194 <OSIntCtxSw_no_save>:
     194:	78 ff bd 07 	addi    r29,r29,0xff78
     198:	04 00 3d 34 	sw      0x0004(r29),r1
     19c:	08 00 5d 34 	sw      0x0008(r29),r2
     1a0:	0c 00 7d 34 	sw      0x000c(r29),r3
     1a4:	10 00 9d 34 	sw      0x0010(r29),r4
     1a8:	14 00 bd 34 	sw      0x0014(r29),r5
     1ac:	18 00 dd 34 	sw      0x0018(r29),r6
     1b0:	1c 00 fd 34 	sw      0x001c(r29),r7
     1b4:	20 00 1d 35 	sw      0x0020(r29),r8
     1b8:	24 00 3d 35 	sw      0x0024(r29),r9
     1bc:	28 00 5d 35 	sw      0x0028(r29),r10
     1c0:	2c 00 7d 35 	sw      0x002c(r29),r11
     1c4:	30 00 9d 35 	sw      0x0030(r29),r12
     1c8:	34 00 bd 35 	sw      0x0034(r29),r13
     1cc:	38 00 dd 35 	sw      0x0038(r29),r14
     1d0:	3c 00 fd 35 	sw      0x003c(r29),r15
     1d4:	40 00 1d 36 	sw      0x0040(r29),r16
     1d8:	44 00 3d 36 	sw      0x0044(r29),r17
     1dc:	48 00 5d 36 	sw      0x0048(r29),r18
     1e0:	4c 00 7d 36 	sw      0x004c(r29),r19
     1e4:	50 00 9d 36 	sw      0x0050(r29),r20
     1e8:	54 00 bd 36 	sw      0x0054(r29),r21
     1ec:	58 00 dd 36 	sw      0x0058(r29),r22
     1f0:	5c 00 fd 36 	sw      0x005c(r29),r23
     1f4:	60 00 1d 37 	sw      0x0060(r29),r24
     1f8:	64 00 3d 37 	sw      0x0064(r29),r25
     1fc:	68 00 5d 37 	sw      0x0068(r29),r26
     200:	6c 00 7d 37 	sw      0x006c(r29),r27
     204:	70 00 9d 37 	sw      0x0070(r29),r28
     208:	78 00 dd 37 	sw      0x0078(r29),r30
     20c:	7c 00 fd 37 	sw      0x007c(r29),r31
     210:	07 00 64 6f 	mfc     r27,epc
     214:	80 00 7d 37 	sw      0x0080(r29),r27
     218:	07 00 65 6f 	mfc     r27,esr
     21c:	84 00 7d 37 	sw      0x0084(r29),r27
     220:	01 00 40 2f 	ldih    r26,0x0001
     224:	88 4c 5a 1b 	ori     r26,r26,0x4c88
     228:	00 00 7a 33 	lw      r27,0x0000(r26)
     22c:	00 00 bb 37 	sw      0x0000(r27),r29

00000230 <OSIntCtxSw>:
     230:	01 00 40 2f 	ldih    r26,0x0001
     234:	70 4c 5a 1b 	ori     r26,r26,0x4c70
     238:	00 00 7a 33 	lw      r27,0x0000(r26)
     23c:	00 00 bb 33 	lw      r29,0x0000(r27)
     240:	60 28 00 c0 	ajal    0x0000a180
     244:	01 00 40 2f 	ldih    r26,0x0001
     248:	70 4c 5a 1b 	ori     r26,r26,0x4c70
     24c:	00 00 7a 33 	lw      r27,0x0000(r26)
     250:	01 00 40 2f 	ldih    r26,0x0001
     254:	88 4c 5a 1b 	ori     r26,r26,0x4c88
     258:	00 00 7a 37 	sw      0x0000(r26),r27
     25c:	01 00 40 2f 	ldih    r26,0x0001
     260:	48 33 5a 1b 	ori     r26,r26,0x3348
     264:	00 00 7a 3b 	lb      r27,0x0000(r26)
     268:	01 00 40 2f 	ldih    r26,0x0001
     26c:	49 33 5a 1b 	ori     r26,r26,0x3349
     270:	00 00 7a 3f 	sb      0x0000(r26),r27
     274:	04 00 3d 30 	lw      r1,0x0004(r29)
     278:	08 00 5d 30 	lw      r2,0x0008(r29)
     27c:	0c 00 7d 30 	lw      r3,0x000c(r29)
     280:	10 00 9d 30 	lw      r4,0x0010(r29)
     284:	14 00 bd 30 	lw      r5,0x0014(r29)
     288:	18 00 dd 30 	lw      r6,0x0018(r29)
     28c:	1c 00 fd 30 	lw      r7,0x001c(r29)
     290:	20 00 1d 31 	lw      r8,0x0020(r29)
     294:	24 00 3d 31 	lw      r9,0x0024(r29)
     298:	28 00 5d 31 	lw      r10,0x0028(r29)
     29c:	2c 00 7d 31 	lw      r11,0x002c(r29)
     2a0:	30 00 9d 31 	lw      r12,0x0030(r29)
     2a4:	34 00 bd 31 	lw      r13,0x0034(r29)
     2a8:	38 00 dd 31 	lw      r14,0x0038(r29)
     2ac:	3c 00 fd 31 	lw      r15,0x003c(r29)
     2b0:	40 00 1d 32 	lw      r16,0x0040(r29)
     2b4:	44 00 3d 32 	lw      r17,0x0044(r29)
     2b8:	48 00 5d 32 	lw      r18,0x0048(r29)
     2bc:	4c 00 7d 32 	lw      r19,0x004c(r29)
     2c0:	50 00 9d 32 	lw      r20,0x0050(r29)
     2c4:	54 00 bd 32 	lw      r21,0x0054(r29)
     2c8:	58 00 dd 32 	lw      r22,0x0058(r29)
     2cc:	5c 00 fd 32 	lw      r23,0x005c(r29)
     2d0:	60 00 1d 33 	lw      r24,0x0060(r29)
     2d4:	64 00 3d 33 	lw      r25,0x0064(r29)
     2d8:	68 00 5d 33 	lw      r26,0x0068(r29)
     2dc:	6c 00 7d 33 	lw      r27,0x006c(r29)
     2e0:	70 00 9d 33 	lw      r28,0x0070(r29)
     2e4:	78 00 dd 33 	lw      r30,0x0078(r29)
     2e8:	7c 00 fd 33 	lw      r31,0x007c(r29)
     2ec:	80 00 7d 33 	lw      r27,0x0080(r29)
     2f0:	06 00 9b 6c 	mtc     epc,r27
     2f4:	84 00 7d 33 	lw      r27,0x0084(r29)
     2f8:	06 00 bb 6c 	mtc     esr,r27
     2fc:	88 00 bd 07 	addi    r29,r29,0x0088
     300:	01 00 00 6c 	reti    

00000304 <systick_isr>:
     304:	78 ff bd 07 	addi    r29,r29,0xff78
     308:	04 00 3d 34 	sw      0x0004(r29),r1
     30c:	08 00 5d 34 	sw      0x0008(r29),r2
     310:	0c 00 7d 34 	sw      0x000c(r29),r3
     314:	10 00 9d 34 	sw      0x0010(r29),r4
     318:	14 00 bd 34 	sw      0x0014(r29),r5
     31c:	18 00 dd 34 	sw      0x0018(r29),r6
     320:	1c 00 fd 34 	sw      0x001c(r29),r7
     324:	20 00 1d 35 	sw      0x0020(r29),r8
     328:	24 00 3d 35 	sw      0x0024(r29),r9
     32c:	28 00 5d 35 	sw      0x0028(r29),r10
     330:	2c 00 7d 35 	sw      0x002c(r29),r11
     334:	30 00 9d 35 	sw      0x0030(r29),r12
     338:	34 00 bd 35 	sw      0x0034(r29),r13
     33c:	38 00 dd 35 	sw      0x0038(r29),r14
     340:	3c 00 fd 35 	sw      0x003c(r29),r15
     344:	40 00 1d 36 	sw      0x0040(r29),r16
     348:	44 00 3d 36 	sw      0x0044(r29),r17
     34c:	48 00 5d 36 	sw      0x0048(r29),r18
     350:	4c 00 7d 36 	sw      0x004c(r29),r19
     354:	50 00 9d 36 	sw      0x0050(r29),r20
     358:	54 00 bd 36 	sw      0x0054(r29),r21
     35c:	58 00 dd 36 	sw      0x0058(r29),r22
     360:	5c 00 fd 36 	sw      0x005c(r29),r23
     364:	60 00 1d 37 	sw      0x0060(r29),r24
     368:	64 00 3d 37 	sw      0x0064(r29),r25
     36c:	68 00 5d 37 	sw      0x0068(r29),r26
     370:	6c 00 7d 37 	sw      0x006c(r29),r27
     374:	70 00 9d 37 	sw      0x0070(r29),r28
     378:	78 00 dd 37 	sw      0x0078(r29),r30
     37c:	7c 00 fd 37 	sw      0x007c(r29),r31
     380:	07 00 64 6f 	mfc     r27,epc
     384:	80 00 7d 37 	sw      0x0080(r29),r27
     388:	07 00 65 6f 	mfc     r27,esr
     38c:	84 00 7d 37 	sw      0x0084(r29),r27
     390:	01 00 40 2f 	ldih    r26,0x0001
     394:	84 4c 5a 1b 	ori     r26,r26,0x4c84
     398:	00 00 7a 3b 	lb      r27,0x0000(r26)
     39c:	01 00 7b 07 	addi    r27,r27,0x0001
     3a0:	00 00 7a 3f 	sb      0x0000(r26),r27
     3a4:	ff ff 1b 04 	addi    r0,r27,0xffff
     3a8:	05 00 40 40 	bne     0x000003bc
     3ac:	01 00 40 2f 	ldih    r26,0x0001
     3b0:	88 4c 5a 1b 	ori     r26,r26,0x4c88
     3b4:	00 00 7a 33 	lw      r27,0x0000(r26)
     3b8:	00 00 bb 37 	sw      0x0000(r27),r29

000003bc <NO_SAVE_SP>:
     3bc:	7c 15 00 c0 	ajal    0x000055f0
     3c0:	48 14 00 c0 	ajal    0x00005120
     3c4:	04 00 3d 30 	lw      r1,0x0004(r29)
     3c8:	08 00 5d 30 	lw      r2,0x0008(r29)
     3cc:	0c 00 7d 30 	lw      r3,0x000c(r29)
     3d0:	10 00 9d 30 	lw      r4,0x0010(r29)
     3d4:	14 00 bd 30 	lw      r5,0x0014(r29)
     3d8:	18 00 dd 30 	lw      r6,0x0018(r29)
     3dc:	1c 00 fd 30 	lw      r7,0x001c(r29)
     3e0:	20 00 1d 31 	lw      r8,0x0020(r29)
     3e4:	24 00 3d 31 	lw      r9,0x0024(r29)
     3e8:	28 00 5d 31 	lw      r10,0x0028(r29)
     3ec:	2c 00 7d 31 	lw      r11,0x002c(r29)
     3f0:	30 00 9d 31 	lw      r12,0x0030(r29)
     3f4:	34 00 bd 31 	lw      r13,0x0034(r29)
     3f8:	38 00 dd 31 	lw      r14,0x0038(r29)
     3fc:	3c 00 fd 31 	lw      r15,0x003c(r29)
     400:	40 00 1d 32 	lw      r16,0x0040(r29)
     404:	44 00 3d 32 	lw      r17,0x0044(r29)
     408:	48 00 5d 32 	lw      r18,0x0048(r29)
     40c:	4c 00 7d 32 	lw      r19,0x004c(r29)
     410:	50 00 9d 32 	lw      r20,0x0050(r29)
     414:	54 00 bd 32 	lw      r21,0x0054(r29)
     418:	58 00 dd 32 	lw      r22,0x0058(r29)
     41c:	5c 00 fd 32 	lw      r23,0x005c(r29)
     420:	60 00 1d 33 	lw      r24,0x0060(r29)
     424:	64 00 3d 33 	lw      r25,0x0064(r29)
     428:	68 00 5d 33 	lw      r26,0x0068(r29)
     42c:	6c 00 7d 33 	lw      r27,0x006c(r29)
     430:	70 00 9d 33 	lw      r28,0x0070(r29)
     434:	78 00 dd 33 	lw      r30,0x0078(r29)
     438:	7c 00 fd 33 	lw      r31,0x007c(r29)
     43c:	80 00 7d 33 	lw      r27,0x0080(r29)
     440:	06 00 9b 6c 	mtc     epc,r27
     444:	84 00 7d 33 	lw      r27,0x0084(r29)
     448:	06 00 bb 6c 	mtc     esr,r27
     44c:	88 00 bd 07 	addi    r29,r29,0x0088
     450:	01 00 00 6c 	reti    
     454:	00 00 00 00 	nop
     458:	00 00 00 00 	nop
     45c:	00 00 00 00 	nop

00000460 <panic>:
     460:	f8 ff bd 07 	addi    r29,r29,0xfff8
     464:	00 00 dd 37 	sw      0x0000(r29),r30
     468:	04 00 fd 37 	sw      0x0004(r29),r31
     46c:	05 e8 c0 03 	orr     r30,r0,r29
     470:	28 00 00 c0 	ajal    0x000000a0
     474:	01 00 80 2c 	ldih    r4,0x0001
     478:	b0 6d 84 18 	ori     r4,r4,0x6db0
     47c:	d4 0c 00 c0 	ajal    0x00003350
     480:	25 00 00 c0 	ajal    0x00000094
     484:	05 f0 a0 03 	orr     r29,r0,r30
     488:	08 00 bd 07 	addi    r29,r29,0x0008
     48c:	fc ff fd 33 	lw      r31,0xfffc(r29)
     490:	f8 ff dd 33 	lw      r30,0xfff8(r29)
     494:	00 00 e0 47 	jmpr    r31
     498:	00 00 00 00 	nop
     49c:	00 00 00 00 	nop

000004a0 <panic_undef_inst>:
     4a0:	f8 ff bd 07 	addi    r29,r29,0xfff8
     4a4:	00 00 dd 37 	sw      0x0000(r29),r30
     4a8:	04 00 fd 37 	sw      0x0004(r29),r31
     4ac:	05 e8 c0 03 	orr     r30,r0,r29
     4b0:	28 00 00 c0 	ajal    0x000000a0
     4b4:	01 00 80 2c 	ldih    r4,0x0001
     4b8:	c4 6d 84 18 	ori     r4,r4,0x6dc4
     4bc:	d4 0c 00 c0 	ajal    0x00003350
     4c0:	25 00 00 c0 	ajal    0x00000094
     4c4:	05 f0 a0 03 	orr     r29,r0,r30
     4c8:	08 00 bd 07 	addi    r29,r29,0x0008
     4cc:	fc ff fd 33 	lw      r31,0xfffc(r29)
     4d0:	f8 ff dd 33 	lw      r30,0xfff8(r29)
     4d4:	00 00 e0 47 	jmpr    r31
     4d8:	00 00 00 00 	nop
     4dc:	00 00 00 00 	nop

000004e0 <panic_div_by_zero>:
     4e0:	f8 ff bd 07 	addi    r29,r29,0xfff8
     4e4:	00 00 dd 37 	sw      0x0000(r29),r30
     4e8:	04 00 fd 37 	sw      0x0004(r29),r31
     4ec:	05 e8 c0 03 	orr     r30,r0,r29
     4f0:	28 00 00 c0 	ajal    0x000000a0
     4f4:	01 00 80 2c 	ldih    r4,0x0001
     4f8:	e6 6d 84 18 	ori     r4,r4,0x6de6
     4fc:	d4 0c 00 c0 	ajal    0x00003350
     500:	25 00 00 c0 	ajal    0x00000094
     504:	05 f0 a0 03 	orr     r29,r0,r30
     508:	08 00 bd 07 	addi    r29,r29,0x0008
     50c:	fc ff fd 33 	lw      r31,0xfffc(r29)
     510:	f8 ff dd 33 	lw      r30,0xfff8(r29)
     514:	00 00 e0 47 	jmpr    r31
     518:	00 00 00 00 	nop
     51c:	00 00 00 00 	nop

00000520 <save_sp>:
     520:	fc ff bd 07 	addi    r29,r29,0xfffc
     524:	00 00 dd 37 	sw      0x0000(r29),r30
     528:	05 e8 c0 03 	orr     r30,r0,r29
     52c:	fc ff bd 07 	addi    r29,r29,0xfffc
     530:	fc ff 9e 34 	sw      0xfffc(r30),r4
     534:	01 00 a0 2c 	ldih    r5,0x0001
     538:	84 4c a5 18 	ori     r5,r5,0x4c84
     53c:	01 00 80 2c 	ldih    r4,0x0001
     540:	84 4c 84 18 	ori     r4,r4,0x4c84
     544:	00 00 84 38 	lb      r4,0x0000(r4)
     548:	01 00 84 04 	addi    r4,r4,0x0001
     54c:	00 00 85 3c 	sb      0x0000(r5),r4
     550:	01 00 80 2c 	ldih    r4,0x0001
     554:	84 4c 84 18 	ori     r4,r4,0x4c84
     558:	00 00 84 38 	lb      r4,0x0000(r4)
     55c:	18 00 84 20 	lsli    r4,r4,0x0018
     560:	18 00 84 24 	lsri    r4,r4,0x0018
     564:	01 00 a0 18 	ori     r5,r0,0x0001
     568:	02 28 04 00 	sub     r0,r4,r5
     56c:	06 00 40 40 	bne     0x00000584
     570:	01 00 80 2c 	ldih    r4,0x0001
     574:	88 4c 84 18 	ori     r4,r4,0x4c88
     578:	00 00 a4 30 	lw      r5,0x0000(r4)
     57c:	fc ff 9e 30 	lw      r4,0xfffc(r30)
     580:	00 00 85 34 	sw      0x0000(r5),r4
     584:	04 00 bd 07 	addi    r29,r29,0x0004
     588:	05 f0 a0 03 	orr     r29,r0,r30
     58c:	04 00 bd 07 	addi    r29,r29,0x0004
     590:	fc ff dd 33 	lw      r30,0xfffc(r29)
     594:	00 00 e0 47 	jmpr    r31
     598:	00 00 00 00 	nop
     59c:	00 00 00 00 	nop

000005a0 <main>:
     5a0:	f8 ff bd 07 	addi    r29,r29,0xfff8
     5a4:	00 00 dd 37 	sw      0x0000(r29),r30
     5a8:	04 00 fd 37 	sw      0x0004(r29),r31
     5ac:	05 e8 c0 03 	orr     r30,r0,r29
     5b0:	e0 01 00 c0 	ajal    0x00000780
     5b4:	14 14 00 c0 	ajal    0x00005050
     5b8:	00 00 80 2c 	ldih    r4,0x0000
     5bc:	60 08 84 18 	ori     r4,r4,0x0860
     5c0:	00 00 a0 18 	ori     r5,r0,0x0000
     5c4:	01 00 c0 2c 	ldih    r6,0x0001
     5c8:	0c 1a c6 18 	ori     r6,r6,0x1a0c
     5cc:	06 00 e0 18 	ori     r7,r0,0x0006
     5d0:	24 1c 00 c0 	ajal    0x00007090
     5d4:	00 00 80 2c 	ldih    r4,0x0000
     5d8:	50 09 84 18 	ori     r4,r4,0x0950
     5dc:	00 00 a0 18 	ori     r5,r0,0x0000
     5e0:	01 00 c0 2c 	ldih    r6,0x0001
     5e4:	0c 33 c6 18 	ori     r6,r6,0x330c
     5e8:	04 00 e0 18 	ori     r7,r0,0x0004
     5ec:	24 1c 00 c0 	ajal    0x00007090
     5f0:	24 15 00 c0 	ajal    0x00005490
     5f4:	00 00 80 18 	ori     r4,r0,0x0000
     5f8:	05 20 40 00 	orr     r2,r0,r4
     5fc:	05 f0 a0 03 	orr     r29,r0,r30
     600:	08 00 bd 07 	addi    r29,r29,0x0008
     604:	fc ff fd 33 	lw      r31,0xfffc(r29)
     608:	f8 ff dd 33 	lw      r30,0xfff8(r29)
     60c:	00 00 e0 47 	jmpr    r31

00000610 <App_TaskCreateHook>:
     610:	fc ff bd 07 	addi    r29,r29,0xfffc
     614:	00 00 dd 37 	sw      0x0000(r29),r30
     618:	05 e8 c0 03 	orr     r30,r0,r29
     61c:	fc ff bd 07 	addi    r29,r29,0xfffc
     620:	fc ff 9e 34 	sw      0xfffc(r30),r4
     624:	04 00 bd 07 	addi    r29,r29,0x0004
     628:	05 f0 a0 03 	orr     r29,r0,r30
     62c:	04 00 bd 07 	addi    r29,r29,0x0004
     630:	fc ff dd 33 	lw      r30,0xfffc(r29)
     634:	00 00 e0 47 	jmpr    r31
     638:	00 00 00 00 	nop
     63c:	00 00 00 00 	nop

00000640 <App_TaskDelHook>:
     640:	fc ff bd 07 	addi    r29,r29,0xfffc
     644:	00 00 dd 37 	sw      0x0000(r29),r30
     648:	05 e8 c0 03 	orr     r30,r0,r29
     64c:	fc ff bd 07 	addi    r29,r29,0xfffc
     650:	fc ff 9e 34 	sw      0xfffc(r30),r4
     654:	04 00 bd 07 	addi    r29,r29,0x0004
     658:	05 f0 a0 03 	orr     r29,r0,r30
     65c:	04 00 bd 07 	addi    r29,r29,0x0004
     660:	fc ff dd 33 	lw      r30,0xfffc(r29)
     664:	00 00 e0 47 	jmpr    r31
     668:	00 00 00 00 	nop
     66c:	00 00 00 00 	nop

00000670 <App_TaskIdleHook>:
     670:	fc ff bd 07 	addi    r29,r29,0xfffc
     674:	00 00 dd 37 	sw      0x0000(r29),r30
     678:	05 e8 c0 03 	orr     r30,r0,r29
     67c:	05 f0 a0 03 	orr     r29,r0,r30
     680:	04 00 bd 07 	addi    r29,r29,0x0004
     684:	fc ff dd 33 	lw      r30,0xfffc(r29)
     688:	00 00 e0 47 	jmpr    r31
     68c:	00 00 00 00 	nop

00000690 <App_TaskReturnHook>:
     690:	fc ff bd 07 	addi    r29,r29,0xfffc
     694:	00 00 dd 37 	sw      0x0000(r29),r30
     698:	05 e8 c0 03 	orr     r30,r0,r29
     69c:	fc ff bd 07 	addi    r29,r29,0xfffc
     6a0:	fc ff 9e 34 	sw      0xfffc(r30),r4
     6a4:	04 00 bd 07 	addi    r29,r29,0x0004
     6a8:	05 f0 a0 03 	orr     r29,r0,r30
     6ac:	04 00 bd 07 	addi    r29,r29,0x0004
     6b0:	fc ff dd 33 	lw      r30,0xfffc(r29)
     6b4:	00 00 e0 47 	jmpr    r31
     6b8:	00 00 00 00 	nop
     6bc:	00 00 00 00 	nop

000006c0 <App_TaskStatHook>:
     6c0:	fc ff bd 07 	addi    r29,r29,0xfffc
     6c4:	00 00 dd 37 	sw      0x0000(r29),r30
     6c8:	05 e8 c0 03 	orr     r30,r0,r29
     6cc:	05 f0 a0 03 	orr     r29,r0,r30
     6d0:	04 00 bd 07 	addi    r29,r29,0x0004
     6d4:	fc ff dd 33 	lw      r30,0xfffc(r29)
     6d8:	00 00 e0 47 	jmpr    r31
     6dc:	00 00 00 00 	nop

000006e0 <App_TaskSwHook>:
     6e0:	fc ff bd 07 	addi    r29,r29,0xfffc
     6e4:	00 00 dd 37 	sw      0x0000(r29),r30
     6e8:	05 e8 c0 03 	orr     r30,r0,r29
     6ec:	05 f0 a0 03 	orr     r29,r0,r30
     6f0:	04 00 bd 07 	addi    r29,r29,0x0004
     6f4:	fc ff dd 33 	lw      r30,0xfffc(r29)
     6f8:	00 00 e0 47 	jmpr    r31
     6fc:	00 00 00 00 	nop

00000700 <App_TCBInitHook>:
     700:	fc ff bd 07 	addi    r29,r29,0xfffc
     704:	00 00 dd 37 	sw      0x0000(r29),r30
     708:	05 e8 c0 03 	orr     r30,r0,r29
     70c:	fc ff bd 07 	addi    r29,r29,0xfffc
     710:	fc ff 9e 34 	sw      0xfffc(r30),r4
     714:	04 00 bd 07 	addi    r29,r29,0x0004
     718:	05 f0 a0 03 	orr     r29,r0,r30
     71c:	04 00 bd 07 	addi    r29,r29,0x0004
     720:	fc ff dd 33 	lw      r30,0xfffc(r29)
     724:	00 00 e0 47 	jmpr    r31
     728:	00 00 00 00 	nop
     72c:	00 00 00 00 	nop

00000730 <App_TimeTickHook>:
     730:	f8 ff bd 07 	addi    r29,r29,0xfff8
     734:	00 00 dd 37 	sw      0x0000(r29),r30
     738:	04 00 fd 37 	sw      0x0004(r29),r31
     73c:	05 e8 c0 03 	orr     r30,r0,r29
     740:	01 00 80 2c 	ldih    r4,0x0001
     744:	42 33 84 18 	ori     r4,r4,0x3342
     748:	00 00 84 38 	lb      r4,0x0000(r4)
     74c:	18 00 84 20 	lsli    r4,r4,0x0018
     750:	18 00 84 24 	lsri    r4,r4,0x0018
     754:	00 00 a0 18 	ori     r5,r0,0x0000
     758:	02 28 04 00 	sub     r0,r4,r5
     75c:	04 00 40 40 	bne     0x0000076c
     760:	01 00 80 2c 	ldih    r4,0x0001
     764:	fe 6d 84 18 	ori     r4,r4,0x6dfe
     768:	d4 0c 00 c0 	ajal    0x00003350
     76c:	05 f0 a0 03 	orr     r29,r0,r30
     770:	08 00 bd 07 	addi    r29,r29,0x0008
     774:	fc ff fd 33 	lw      r31,0xfffc(r29)
     778:	f8 ff dd 33 	lw      r30,0xfff8(r29)
     77c:	00 00 e0 47 	jmpr    r31

00000780 <BSP_Init>:
     780:	fc ff bd 07 	addi    r29,r29,0xfffc
     784:	00 00 dd 37 	sw      0x0000(r29),r30
     788:	05 e8 c0 03 	orr     r30,r0,r29
     78c:	05 f0 a0 03 	orr     r29,r0,r30
     790:	04 00 bd 07 	addi    r29,r29,0x0004
     794:	fc ff dd 33 	lw      r30,0xfffc(r29)
     798:	00 00 e0 47 	jmpr    r31
     79c:	00 00 00 00 	nop

000007a0 <SysTick_init>:
     7a0:	fc ff bd 07 	addi    r29,r29,0xfffc
     7a4:	00 00 dd 37 	sw      0x0000(r29),r30
     7a8:	05 e8 c0 03 	orr     r30,r0,r29
     7ac:	05 f0 a0 03 	orr     r29,r0,r30
     7b0:	04 00 bd 07 	addi    r29,r29,0x0004
     7b4:	fc ff dd 33 	lw      r30,0xfffc(r29)
     7b8:	00 00 e0 47 	jmpr    r31
     7bc:	00 00 00 00 	nop

000007c0 <LED_GPIO_Config>:
     7c0:	fc ff bd 07 	addi    r29,r29,0xfffc
     7c4:	00 00 dd 37 	sw      0x0000(r29),r30
     7c8:	05 e8 c0 03 	orr     r30,r0,r29
     7cc:	05 f0 a0 03 	orr     r29,r0,r30
     7d0:	04 00 bd 07 	addi    r29,r29,0x0004
     7d4:	fc ff dd 33 	lw      r30,0xfffc(r29)
     7d8:	00 00 e0 47 	jmpr    r31
     7dc:	00 00 00 00 	nop

000007e0 <LED>:
     7e0:	f8 ff bd 07 	addi    r29,r29,0xfff8
     7e4:	00 00 dd 37 	sw      0x0000(r29),r30
     7e8:	04 00 fd 37 	sw      0x0004(r29),r31
     7ec:	05 e8 c0 03 	orr     r30,r0,r29
     7f0:	f0 ff bd 07 	addi    r29,r29,0xfff0
     7f4:	fc ff 9e 34 	sw      0xfffc(r30),r4
     7f8:	f8 ff be 34 	sw      0xfff8(r30),r5
     7fc:	f8 ff be 30 	lw      r5,0xfff8(r30)
     800:	00 00 80 18 	ori     r4,r0,0x0000
     804:	02 20 05 00 	sub     r0,r5,r4
     808:	08 00 00 40 	beq     0x00000828
     80c:	01 00 80 2c 	ldih    r4,0x0001
     810:	23 6e 84 18 	ori     r4,r4,0x6e23
     814:	00 00 9d 34 	sw      0x0000(r29),r4
     818:	fc ff 9e 30 	lw      r4,0xfffc(r30)
     81c:	04 00 9d 34 	sw      0x0004(r29),r4
     820:	48 0c 00 c0 	ajal    0x00003120
     824:	10 02 00 80 	ajmp    0x00000840
     828:	01 00 80 2c 	ldih    r4,0x0001
     82c:	2d 6e 84 18 	ori     r4,r4,0x6e2d
     830:	00 00 9d 34 	sw      0x0000(r29),r4
     834:	fc ff 9e 30 	lw      r4,0xfffc(r30)
     838:	04 00 9d 34 	sw      0x0004(r29),r4
     83c:	48 0c 00 c0 	ajal    0x00003120
     840:	10 00 bd 07 	addi    r29,r29,0x0010
     844:	05 f0 a0 03 	orr     r29,r0,r30
     848:	08 00 bd 07 	addi    r29,r29,0x0008
     84c:	fc ff fd 33 	lw      r31,0xfffc(r29)
     850:	f8 ff dd 33 	lw      r30,0xfff8(r29)
     854:	00 00 e0 47 	jmpr    r31
     858:	00 00 00 00 	nop
     85c:	00 00 00 00 	nop

00000860 <Task_LED>:
     860:	f8 ff bd 07 	addi    r29,r29,0xfff8
     864:	00 00 dd 37 	sw      0x0000(r29),r30
     868:	04 00 fd 37 	sw      0x0004(r29),r31
     86c:	05 e8 c0 03 	orr     r30,r0,r29
     870:	f0 ff bd 07 	addi    r29,r29,0xfff0
     874:	fc ff 9e 34 	sw      0xfffc(r30),r4
     878:	34 16 00 c0 	ajal    0x000058d0
     87c:	05 10 80 00 	orr     r4,r0,r2
     880:	f8 ff 9e 68 	sh      0xfff8(r30),r4
     884:	01 00 80 18 	ori     r4,r0,0x0001
     888:	01 00 a0 18 	ori     r5,r0,0x0001
     88c:	f8 01 00 c0 	ajal    0x000007e0
     890:	00 00 80 18 	ori     r4,r0,0x0000
     894:	00 00 a0 18 	ori     r5,r0,0x0000
     898:	00 00 c0 18 	ori     r6,r0,0x0000
     89c:	64 00 e0 18 	ori     r7,r0,0x0064
     8a0:	6c 21 00 c0 	ajal    0x000085b0
     8a4:	05 10 80 00 	orr     r4,r0,r2
     8a8:	fb ff 9e 3c 	sb      0xfffb(r30),r4
     8ac:	fb ff 9e 38 	lb      r4,0xfffb(r30)
     8b0:	18 00 84 20 	lsli    r4,r4,0x0018
     8b4:	18 00 84 24 	lsri    r4,r4,0x0018
     8b8:	00 00 a0 18 	ori     r5,r0,0x0000
     8bc:	02 28 04 00 	sub     r0,r4,r5
     8c0:	0a 00 00 40 	beq     0x000008e8
     8c4:	01 00 80 2c 	ldih    r4,0x0001
     8c8:	38 6e 84 18 	ori     r4,r4,0x6e38
     8cc:	00 00 9d 34 	sw      0x0000(r29),r4
     8d0:	fb ff 9e 38 	lb      r4,0xfffb(r30)
     8d4:	18 00 84 20 	lsli    r4,r4,0x0018
     8d8:	18 00 84 24 	lsri    r4,r4,0x0018
     8dc:	04 00 9d 34 	sw      0x0004(r29),r4
     8e0:	48 0c 00 c0 	ajal    0x00003120
     8e4:	39 02 00 80 	ajmp    0x000008e4
     8e8:	01 00 80 18 	ori     r4,r0,0x0001
     8ec:	00 00 a0 18 	ori     r5,r0,0x0000
     8f0:	f8 01 00 c0 	ajal    0x000007e0
     8f4:	00 00 80 18 	ori     r4,r0,0x0000
     8f8:	00 00 a0 18 	ori     r5,r0,0x0000
     8fc:	00 00 c0 18 	ori     r6,r0,0x0000
     900:	64 00 e0 18 	ori     r7,r0,0x0064
     904:	6c 21 00 c0 	ajal    0x000085b0
     908:	05 10 80 00 	orr     r4,r0,r2
     90c:	fb ff 9e 3c 	sb      0xfffb(r30),r4
     910:	fb ff 9e 38 	lb      r4,0xfffb(r30)
     914:	18 00 84 20 	lsli    r4,r4,0x0018
     918:	18 00 84 24 	lsri    r4,r4,0x0018
     91c:	00 00 a0 18 	ori     r5,r0,0x0000
     920:	02 28 04 00 	sub     r0,r4,r5
     924:	d8 ff 3f 40 	beq     0x00000884
     928:	01 00 80 2c 	ldih    r4,0x0001
     92c:	55 6e 84 18 	ori     r4,r4,0x6e55
     930:	00 00 9d 34 	sw      0x0000(r29),r4
     934:	fb ff 9e 38 	lb      r4,0xfffb(r30)
     938:	18 00 84 20 	lsli    r4,r4,0x0018
     93c:	18 00 84 24 	lsri    r4,r4,0x0018
     940:	04 00 9d 34 	sw      0x0004(r29),r4
     944:	48 0c 00 c0 	ajal    0x00003120
     948:	52 02 00 80 	ajmp    0x00000948
     94c:	00 00 00 00 	nop

00000950 <Task_Key>:
     950:	f8 ff bd 07 	addi    r29,r29,0xfff8
     954:	00 00 dd 37 	sw      0x0000(r29),r30
     958:	04 00 fd 37 	sw      0x0004(r29),r31
     95c:	05 e8 c0 03 	orr     r30,r0,r29
     960:	e8 ff bd 07 	addi    r29,r29,0xffe8
     964:	fc ff 9e 34 	sw      0xfffc(r30),r4
     968:	00 00 80 18 	ori     r4,r0,0x0000
     96c:	f8 ff 9e 34 	sw      0xfff8(r30),r4
     970:	01 00 80 2c 	ldih    r4,0x0001
     974:	72 6e 84 18 	ori     r4,r4,0x6e72
     978:	00 00 9d 34 	sw      0x0000(r29),r4
     97c:	48 0c 00 c0 	ajal    0x00003120
     980:	f8 0c 00 c0 	ajal    0x000033e0
     984:	05 10 a0 00 	orr     r5,r0,r2
     988:	00 00 80 18 	ori     r4,r0,0x0000
     98c:	02 20 05 00 	sub     r0,r5,r4
     990:	0c 00 00 40 	beq     0x000009c0
     994:	0c 0d 00 c0 	ajal    0x00003430
     998:	05 10 80 00 	orr     r4,r0,r2
     99c:	f4 ff 9e 34 	sw      0xfff4(r30),r4
     9a0:	01 00 80 2c 	ldih    r4,0x0001
     9a4:	84 6e 84 18 	ori     r4,r4,0x6e84
     9a8:	00 00 9d 34 	sw      0x0000(r29),r4
     9ac:	f4 ff 9e 30 	lw      r4,0xfff4(r30)
     9b0:	04 00 9d 34 	sw      0x0004(r29),r4
     9b4:	f4 ff 9e 30 	lw      r4,0xfff4(r30)
     9b8:	08 00 9d 34 	sw      0x0008(r29),r4
     9bc:	48 0c 00 c0 	ajal    0x00003120
     9c0:	64 00 80 18 	ori     r4,r0,0x0064
     9c4:	08 21 00 c0 	ajal    0x00008420
     9c8:	5c 02 00 80 	ajmp    0x00000970
     9cc:	00 00 00 00 	nop

000009d0 <fifo_init>:
     9d0:	fc ff bd 07 	addi    r29,r29,0xfffc
     9d4:	00 00 dd 37 	sw      0x0000(r29),r30
     9d8:	05 e8 c0 03 	orr     r30,r0,r29
     9dc:	fc ff bd 07 	addi    r29,r29,0xfffc
     9e0:	fc ff 9e 34 	sw      0xfffc(r30),r4
     9e4:	fc ff be 30 	lw      r5,0xfffc(r30)
     9e8:	00 00 80 18 	ori     r4,r0,0x0000
     9ec:	00 00 85 34 	sw      0x0000(r5),r4
     9f0:	fc ff be 30 	lw      r5,0xfffc(r30)
     9f4:	01 00 80 18 	ori     r4,r0,0x0001
     9f8:	04 00 85 34 	sw      0x0004(r5),r4
     9fc:	fc ff be 30 	lw      r5,0xfffc(r30)
     a00:	fc ff 9e 30 	lw      r4,0xfffc(r30)
     a04:	10 00 84 04 	addi    r4,r4,0x0010
     a08:	08 00 85 34 	sw      0x0008(r5),r4
     a0c:	fc ff be 30 	lw      r5,0xfffc(r30)
     a10:	fc ff 9e 30 	lw      r4,0xfffc(r30)
     a14:	10 00 84 04 	addi    r4,r4,0x0010
     a18:	0c 00 85 34 	sw      0x000c(r5),r4
     a1c:	04 00 bd 07 	addi    r29,r29,0x0004
     a20:	05 f0 a0 03 	orr     r29,r0,r30
     a24:	04 00 bd 07 	addi    r29,r29,0x0004
     a28:	fc ff dd 33 	lw      r30,0xfffc(r29)
     a2c:	00 00 e0 47 	jmpr    r31

00000a30 <fifo_put>:
     a30:	fc ff bd 07 	addi    r29,r29,0xfffc
     a34:	00 00 dd 37 	sw      0x0000(r29),r30
     a38:	05 e8 c0 03 	orr     r30,r0,r29
     a3c:	f4 ff bd 07 	addi    r29,r29,0xfff4
     a40:	fc ff 9e 34 	sw      0xfffc(r30),r4
     a44:	fb ff be 3c 	sb      0xfffb(r30),r5
     a48:	fc ff 9e 30 	lw      r4,0xfffc(r30)
     a4c:	00 00 a4 30 	lw      r5,0x0000(r4)
     a50:	00 00 80 18 	ori     r4,r0,0x0000
     a54:	02 20 05 00 	sub     r0,r5,r4
     a58:	35 00 40 40 	bne     0x00000b2c
     a5c:	fc ff 9e 30 	lw      r4,0xfffc(r30)
     a60:	08 00 84 30 	lw      r4,0x0008(r4)
     a64:	fb ff be 38 	lb      r5,0xfffb(r30)
     a68:	00 00 a4 3c 	sb      0x0000(r4),r5
     a6c:	fc ff de 30 	lw      r6,0xfffc(r30)
     a70:	fc ff 9e 30 	lw      r4,0xfffc(r30)
     a74:	2f 00 a4 04 	addi    r5,r4,0x002f
     a78:	08 00 86 30 	lw      r4,0x0008(r6)
     a7c:	02 28 04 00 	sub     r0,r4,r5
     a80:	06 00 40 40 	bne     0x00000a98
     a84:	fc ff 9e 30 	lw      r4,0xfffc(r30)
     a88:	fc ff be 30 	lw      r5,0xfffc(r30)
     a8c:	10 00 a5 04 	addi    r5,r5,0x0010
     a90:	08 00 a4 34 	sw      0x0008(r4),r5
     a94:	ab 02 00 80 	ajmp    0x00000aac
     a98:	fc ff be 30 	lw      r5,0xfffc(r30)
     a9c:	fc ff 9e 30 	lw      r4,0xfffc(r30)
     aa0:	08 00 84 30 	lw      r4,0x0008(r4)
     aa4:	01 00 84 04 	addi    r4,r4,0x0001
     aa8:	08 00 85 34 	sw      0x0008(r5),r4
     aac:	fc ff de 30 	lw      r6,0xfffc(r30)
     ab0:	fc ff 9e 30 	lw      r4,0xfffc(r30)
     ab4:	2f 00 a4 04 	addi    r5,r4,0x002f
     ab8:	08 00 86 30 	lw      r4,0x0008(r6)
     abc:	02 28 04 00 	sub     r0,r4,r5
     ac0:	0b 00 40 40 	bne     0x00000aec
     ac4:	fc ff de 30 	lw      r6,0xfffc(r30)
     ac8:	fc ff 9e 30 	lw      r4,0xfffc(r30)
     acc:	10 00 a4 04 	addi    r5,r4,0x0010
     ad0:	0c 00 86 30 	lw      r4,0x000c(r6)
     ad4:	02 28 04 00 	sub     r0,r4,r5
     ad8:	05 00 40 40 	bne     0x00000aec
     adc:	fc ff be 30 	lw      r5,0xfffc(r30)
     ae0:	01 00 80 18 	ori     r4,r0,0x0001
     ae4:	00 00 85 34 	sw      0x0000(r5),r4
     ae8:	c5 02 00 80 	ajmp    0x00000b14
     aec:	fc ff 9e 30 	lw      r4,0xfffc(r30)
     af0:	08 00 84 30 	lw      r4,0x0008(r4)
     af4:	01 00 a4 04 	addi    r5,r4,0x0001
     af8:	fc ff 9e 30 	lw      r4,0xfffc(r30)
     afc:	0c 00 84 30 	lw      r4,0x000c(r4)
     b00:	02 20 05 00 	sub     r0,r5,r4
     b04:	04 00 40 40 	bne     0x00000b14
     b08:	fc ff be 30 	lw      r5,0xfffc(r30)
     b0c:	01 00 80 18 	ori     r4,r0,0x0001
     b10:	00 00 85 34 	sw      0x0000(r5),r4
     b14:	fc ff be 30 	lw      r5,0xfffc(r30)
     b18:	00 00 80 18 	ori     r4,r0,0x0000
     b1c:	04 00 85 34 	sw      0x0004(r5),r4
     b20:	00 00 80 18 	ori     r4,r0,0x0000
     b24:	f4 ff 9e 34 	sw      0xfff4(r30),r4
     b28:	cd 02 00 80 	ajmp    0x00000b34
     b2c:	ff 00 a0 18 	ori     r5,r0,0x00ff
     b30:	f4 ff be 34 	sw      0xfff4(r30),r5
     b34:	f4 ff 5e 30 	lw      r2,0xfff4(r30)
     b38:	0c 00 bd 07 	addi    r29,r29,0x000c
     b3c:	05 f0 a0 03 	orr     r29,r0,r30
     b40:	04 00 bd 07 	addi    r29,r29,0x0004
     b44:	fc ff dd 33 	lw      r30,0xfffc(r29)
     b48:	00 00 e0 47 	jmpr    r31
     b4c:	00 00 00 00 	nop

00000b50 <fifo_get>:
     b50:	fc ff bd 07 	addi    r29,r29,0xfffc
     b54:	00 00 dd 37 	sw      0x0000(r29),r30
     b58:	05 e8 c0 03 	orr     r30,r0,r29
     b5c:	ec ff bd 07 	addi    r29,r29,0xffec
     b60:	fc ff 9e 34 	sw      0xfffc(r30),r4
     b64:	f8 ff be 34 	sw      0xfff8(r30),r5
     b68:	fc ff 9e 30 	lw      r4,0xfffc(r30)
     b6c:	04 00 a4 30 	lw      r5,0x0004(r4)
     b70:	01 00 80 18 	ori     r4,r0,0x0001
     b74:	02 20 05 00 	sub     r0,r5,r4
     b78:	04 00 40 40 	bne     0x00000b88
     b7c:	ff 00 80 18 	ori     r4,r0,0x00ff
     b80:	f4 ff 9e 34 	sw      0xfff4(r30),r4
     b84:	08 03 00 80 	ajmp    0x00000c20
     b88:	f8 ff be 30 	lw      r5,0xfff8(r30)
     b8c:	fc ff 9e 30 	lw      r4,0xfffc(r30)
     b90:	0c 00 84 30 	lw      r4,0x000c(r4)
     b94:	00 00 84 38 	lb      r4,0x0000(r4)
     b98:	00 00 85 3c 	sb      0x0000(r5),r4
     b9c:	fc ff de 30 	lw      r6,0xfffc(r30)
     ba0:	fc ff 9e 30 	lw      r4,0xfffc(r30)
     ba4:	2f 00 a4 04 	addi    r5,r4,0x002f
     ba8:	0c 00 86 30 	lw      r4,0x000c(r6)
     bac:	02 28 04 00 	sub     r0,r4,r5
     bb0:	06 00 40 40 	bne     0x00000bc8
     bb4:	fc ff 9e 30 	lw      r4,0xfffc(r30)
     bb8:	fc ff be 30 	lw      r5,0xfffc(r30)
     bbc:	10 00 a5 04 	addi    r5,r5,0x0010
     bc0:	0c 00 a4 34 	sw      0x000c(r4),r5
     bc4:	f7 02 00 80 	ajmp    0x00000bdc
     bc8:	fc ff be 30 	lw      r5,0xfffc(r30)
     bcc:	fc ff 9e 30 	lw      r4,0xfffc(r30)
     bd0:	0c 00 84 30 	lw      r4,0x000c(r4)
     bd4:	01 00 84 04 	addi    r4,r4,0x0001
     bd8:	0c 00 85 34 	sw      0x000c(r5),r4
     bdc:	fc ff be 30 	lw      r5,0xfffc(r30)
     be0:	f0 ff be 34 	sw      0xfff0(r30),r5
     be4:	00 00 80 18 	ori     r4,r0,0x0000
     be8:	ec ff 9e 34 	sw      0xffec(r30),r4
     bec:	fc ff 9e 30 	lw      r4,0xfffc(r30)
     bf0:	fc ff be 30 	lw      r5,0xfffc(r30)
     bf4:	08 00 c4 30 	lw      r6,0x0008(r4)
     bf8:	0c 00 85 30 	lw      r4,0x000c(r5)
     bfc:	02 20 06 00 	sub     r0,r6,r4
     c00:	03 00 40 40 	bne     0x00000c0c
     c04:	01 00 a0 18 	ori     r5,r0,0x0001
     c08:	ec ff be 34 	sw      0xffec(r30),r5
     c0c:	ec ff be 30 	lw      r5,0xffec(r30)
     c10:	f0 ff 9e 30 	lw      r4,0xfff0(r30)
     c14:	04 00 a4 34 	sw      0x0004(r4),r5
     c18:	00 00 80 18 	ori     r4,r0,0x0000
     c1c:	f4 ff 9e 34 	sw      0xfff4(r30),r4
     c20:	f4 ff 5e 30 	lw      r2,0xfff4(r30)
     c24:	14 00 bd 07 	addi    r29,r29,0x0014
     c28:	05 f0 a0 03 	orr     r29,r0,r30
     c2c:	04 00 bd 07 	addi    r29,r29,0x0004
     c30:	fc ff dd 33 	lw      r30,0xfffc(r29)
     c34:	00 00 e0 47 	jmpr    r31
     c38:	00 00 00 00 	nop
     c3c:	00 00 00 00 	nop

00000c40 <OS_HeapCreate>:
     c40:	fc ff bd 07 	addi    r29,r29,0xfffc
     c44:	00 00 dd 37 	sw      0x0000(r29),r30
     c48:	05 e8 c0 03 	orr     r30,r0,r29
     c4c:	f0 ff bd 07 	addi    r29,r29,0xfff0
     c50:	fc ff 9e 34 	sw      0xfffc(r30),r4
     c54:	f8 ff be 34 	sw      0xfff8(r30),r5
     c58:	f4 ff de 34 	sw      0xfff4(r30),r6
     c5c:	f8 ff 9e 30 	lw      r4,0xfff8(r30)
     c60:	f0 ff 9e 34 	sw      0xfff0(r30),r4
     c64:	f0 ff be 30 	lw      r5,0xfff0(r30)
     c68:	34 12 80 2c 	ldih    r4,0x1234
     c6c:	cd ab 84 18 	ori     r4,r4,0xabcd
     c70:	00 00 85 34 	sw      0x0000(r5),r4
     c74:	f0 ff be 30 	lw      r5,0xfff0(r30)
     c78:	fc ff 9e 30 	lw      r4,0xfffc(r30)
     c7c:	04 00 85 34 	sw      0x0004(r5),r4
     c80:	f0 ff be 30 	lw      r5,0xfff0(r30)
     c84:	f0 ff 9e 30 	lw      r4,0xfff0(r30)
     c88:	1c 00 84 04 	addi    r4,r4,0x001c
     c8c:	08 00 85 34 	sw      0x0008(r5),r4
     c90:	f0 ff 9e 30 	lw      r4,0xfff0(r30)
     c94:	08 00 a4 30 	lw      r5,0x0008(r4)
     c98:	f0 ff 9e 30 	lw      r4,0xfff0(r30)
     c9c:	0c 00 84 04 	addi    r4,r4,0x000c
     ca0:	00 00 85 34 	sw      0x0000(r5),r4
     ca4:	f0 ff 9e 30 	lw      r4,0xfff0(r30)
     ca8:	08 00 a4 30 	lw      r5,0x0008(r4)
     cac:	f4 ff 9e 30 	lw      r4,0xfff4(r30)
     cb0:	e4 ff 84 04 	addi    r4,r4,0xffe4
     cb4:	03 00 84 24 	lsri    r4,r4,0x0003
     cb8:	04 00 85 34 	sw      0x0004(r5),r4
     cbc:	f0 ff be 30 	lw      r5,0xfff0(r30)
     cc0:	f0 ff 9e 30 	lw      r4,0xfff0(r30)
     cc4:	08 00 84 30 	lw      r4,0x0008(r4)
     cc8:	0c 00 85 34 	sw      0x000c(r5),r4
     ccc:	f0 ff be 30 	lw      r5,0xfff0(r30)
     cd0:	00 00 80 18 	ori     r4,r0,0x0000
     cd4:	10 00 85 34 	sw      0x0010(r5),r4
     cd8:	f0 ff be 30 	lw      r5,0xfff0(r30)
     cdc:	00 00 80 18 	ori     r4,r0,0x0000
     ce0:	14 00 85 34 	sw      0x0014(r5),r4
     ce4:	f0 ff be 30 	lw      r5,0xfff0(r30)
     ce8:	00 00 80 18 	ori     r4,r0,0x0000
     cec:	18 00 85 34 	sw      0x0018(r5),r4
     cf0:	f0 ff 9e 30 	lw      r4,0xfff0(r30)
     cf4:	05 20 40 00 	orr     r2,r0,r4
     cf8:	10 00 bd 07 	addi    r29,r29,0x0010
     cfc:	05 f0 a0 03 	orr     r29,r0,r30
     d00:	04 00 bd 07 	addi    r29,r29,0x0004
     d04:	fc ff dd 33 	lw      r30,0xfffc(r29)
     d08:	00 00 e0 47 	jmpr    r31
     d0c:	00 00 00 00 	nop

00000d10 <OS_HeapDestroy>:
     d10:	fc ff bd 07 	addi    r29,r29,0xfffc
     d14:	00 00 dd 37 	sw      0x0000(r29),r30
     d18:	05 e8 c0 03 	orr     r30,r0,r29
     d1c:	fc ff bd 07 	addi    r29,r29,0xfffc
     d20:	fc ff 9e 34 	sw      0xfffc(r30),r4
     d24:	04 00 bd 07 	addi    r29,r29,0x0004
     d28:	05 f0 a0 03 	orr     r29,r0,r30
     d2c:	04 00 bd 07 	addi    r29,r29,0x0004
     d30:	fc ff dd 33 	lw      r30,0xfffc(r29)
     d34:	00 00 e0 47 	jmpr    r31
     d38:	00 00 00 00 	nop
     d3c:	00 00 00 00 	nop

00000d40 <OS_HeapMalloc>:
     d40:	f8 ff bd 07 	addi    r29,r29,0xfff8
     d44:	00 00 dd 37 	sw      0x0000(r29),r30
     d48:	04 00 fd 37 	sw      0x0004(r29),r31
     d4c:	05 e8 c0 03 	orr     r30,r0,r29
     d50:	e8 ff bd 07 	addi    r29,r29,0xffe8
     d54:	fc ff 9e 34 	sw      0xfffc(r30),r4
     d58:	f8 ff be 34 	sw      0xfff8(r30),r5
     d5c:	fc ff be 30 	lw      r5,0xfffc(r30)
     d60:	07 00 80 18 	ori     r4,r0,0x0007
     d64:	02 20 05 00 	sub     r0,r5,r4
     d68:	08 00 00 42 	bhi     0x00000d88
     d6c:	01 00 a0 2c 	ldih    r5,0x0001
     d70:	10 33 a5 18 	ori     r5,r5,0x3310
     d74:	fc ff 9e 30 	lw      r4,0xfffc(r30)
     d78:	02 00 84 20 	lsli    r4,r4,0x0002
     d7c:	00 28 84 00 	add     r4,r4,r5
     d80:	00 00 84 30 	lw      r4,0x0000(r4)
     d84:	fc ff 9e 34 	sw      0xfffc(r30),r4
     d88:	f8 ff 9e 30 	lw      r4,0xfff8(r30)
     d8c:	07 00 84 04 	addi    r4,r4,0x0007
     d90:	03 00 84 24 	lsri    r4,r4,0x0003
     d94:	01 00 84 04 	addi    r4,r4,0x0001
     d98:	ec ff 9e 34 	sw      0xffec(r30),r4
     d9c:	fc ff 9e 30 	lw      r4,0xfffc(r30)
     da0:	08 00 84 30 	lw      r4,0x0008(r4)
     da4:	f0 ff 9e 34 	sw      0xfff0(r30),r4
     da8:	f0 ff 9e 30 	lw      r4,0xfff0(r30)
     dac:	00 00 84 30 	lw      r4,0x0000(r4)
     db0:	f4 ff 9e 34 	sw      0xfff4(r30),r4
     db4:	f4 ff 9e 30 	lw      r4,0xfff4(r30)
     db8:	04 00 a4 30 	lw      r5,0x0004(r4)
     dbc:	ec ff 9e 30 	lw      r4,0xffec(r30)
     dc0:	02 20 05 00 	sub     r0,r5,r4
     dc4:	29 00 c0 42 	blt     0x00000e68
     dc8:	f4 ff 9e 30 	lw      r4,0xfff4(r30)
     dcc:	04 00 a4 30 	lw      r5,0x0004(r4)
     dd0:	ec ff 9e 30 	lw      r4,0xffec(r30)
     dd4:	02 20 05 00 	sub     r0,r5,r4
     dd8:	06 00 40 40 	bne     0x00000df0
     ddc:	f0 ff 9e 30 	lw      r4,0xfff0(r30)
     de0:	f4 ff be 30 	lw      r5,0xfff4(r30)
     de4:	00 00 a5 30 	lw      r5,0x0000(r5)
     de8:	00 00 a4 34 	sw      0x0000(r4),r5
     dec:	8b 03 00 80 	ajmp    0x00000e2c
     df0:	f4 ff de 30 	lw      r6,0xfff4(r30)
     df4:	f4 ff 9e 30 	lw      r4,0xfff4(r30)
     df8:	04 00 a4 30 	lw      r5,0x0004(r4)
     dfc:	ec ff 9e 30 	lw      r4,0xffec(r30)
     e00:	02 20 85 00 	sub     r4,r5,r4
     e04:	04 00 86 34 	sw      0x0004(r6),r4
     e08:	f4 ff 9e 30 	lw      r4,0xfff4(r30)
     e0c:	04 00 84 30 	lw      r4,0x0004(r4)
     e10:	03 00 a4 20 	lsli    r5,r4,0x0003
     e14:	f4 ff 9e 30 	lw      r4,0xfff4(r30)
     e18:	00 28 84 00 	add     r4,r4,r5
     e1c:	f4 ff 9e 34 	sw      0xfff4(r30),r4
     e20:	f4 ff be 30 	lw      r5,0xfff4(r30)
     e24:	ec ff 9e 30 	lw      r4,0xffec(r30)
     e28:	04 00 85 34 	sw      0x0004(r5),r4
     e2c:	fc ff be 30 	lw      r5,0xfffc(r30)
     e30:	f0 ff 9e 30 	lw      r4,0xfff0(r30)
     e34:	08 00 85 34 	sw      0x0008(r5),r4
     e38:	f4 ff be 30 	lw      r5,0xfff4(r30)
     e3c:	fc ff 9e 30 	lw      r4,0xfffc(r30)
     e40:	00 00 85 34 	sw      0x0000(r5),r4
     e44:	fc ff be 30 	lw      r5,0xfffc(r30)
     e48:	fc ff 9e 30 	lw      r4,0xfffc(r30)
     e4c:	14 00 84 30 	lw      r4,0x0014(r4)
     e50:	01 00 84 04 	addi    r4,r4,0x0001
     e54:	14 00 85 34 	sw      0x0014(r5),r4
     e58:	f4 ff 9e 30 	lw      r4,0xfff4(r30)
     e5c:	08 00 84 04 	addi    r4,r4,0x0008
     e60:	e8 ff 9e 34 	sw      0xffe8(r30),r4
     e64:	b4 03 00 80 	ajmp    0x00000ed0
     e68:	fc ff 9e 30 	lw      r4,0xfffc(r30)
     e6c:	08 00 a4 30 	lw      r5,0x0008(r4)
     e70:	f4 ff 9e 30 	lw      r4,0xfff4(r30)
     e74:	02 20 05 00 	sub     r0,r5,r4
     e78:	10 00 40 40 	bne     0x00000eb8
     e7c:	fc ff 9e 30 	lw      r4,0xfffc(r30)
     e80:	18 00 a4 30 	lw      r5,0x0018(r4)
     e84:	00 00 80 18 	ori     r4,r0,0x0000
     e88:	02 20 05 00 	sub     r0,r5,r4
     e8c:	08 00 00 40 	beq     0x00000eac
     e90:	fc ff 9e 30 	lw      r4,0xfffc(r30)
     e94:	18 00 84 30 	lw      r4,0x0018(r4)
     e98:	f8 ff be 30 	lw      r5,0xfff8(r30)
     e9c:	50 03 00 c0 	ajal    0x00000d40
     ea0:	05 10 80 00 	orr     r4,r0,r2
     ea4:	e8 ff 9e 34 	sw      0xffe8(r30),r4
     ea8:	b4 03 00 80 	ajmp    0x00000ed0
     eac:	00 00 80 18 	ori     r4,r0,0x0000
     eb0:	e8 ff 9e 34 	sw      0xffe8(r30),r4
     eb4:	b4 03 00 80 	ajmp    0x00000ed0
     eb8:	f4 ff 9e 30 	lw      r4,0xfff4(r30)
     ebc:	f0 ff 9e 34 	sw      0xfff0(r30),r4
     ec0:	f4 ff 9e 30 	lw      r4,0xfff4(r30)
     ec4:	00 00 84 30 	lw      r4,0x0000(r4)
     ec8:	f4 ff 9e 34 	sw      0xfff4(r30),r4
     ecc:	6d 03 00 80 	ajmp    0x00000db4
     ed0:	e8 ff 5e 30 	lw      r2,0xffe8(r30)
     ed4:	18 00 bd 07 	addi    r29,r29,0x0018
     ed8:	05 f0 a0 03 	orr     r29,r0,r30
     edc:	08 00 bd 07 	addi    r29,r29,0x0008
     ee0:	fc ff fd 33 	lw      r31,0xfffc(r29)
     ee4:	f8 ff dd 33 	lw      r30,0xfff8(r29)
     ee8:	00 00 e0 47 	jmpr    r31
     eec:	00 00 00 00 	nop

00000ef0 <OS_HeapFree>:
     ef0:	fc ff bd 07 	addi    r29,r29,0xfffc
     ef4:	00 00 dd 37 	sw      0x0000(r29),r30
     ef8:	05 e8 c0 03 	orr     r30,r0,r29
     efc:	f0 ff bd 07 	addi    r29,r29,0xfff0
     f00:	fc ff 9e 34 	sw      0xfffc(r30),r4
     f04:	fc ff be 30 	lw      r5,0xfffc(r30)
     f08:	00 00 80 18 	ori     r4,r0,0x0000
     f0c:	02 20 05 00 	sub     r0,r5,r4
     f10:	02 00 40 40 	bne     0x00000f18
     f14:	2c 04 00 80 	ajmp    0x000010b0
     f18:	fc ff 9e 30 	lw      r4,0xfffc(r30)
     f1c:	f8 ff 84 04 	addi    r4,r4,0xfff8
     f20:	f4 ff 9e 34 	sw      0xfff4(r30),r4
     f24:	f4 ff 9e 30 	lw      r4,0xfff4(r30)
     f28:	00 00 84 30 	lw      r4,0x0000(r4)
     f2c:	f8 ff 9e 34 	sw      0xfff8(r30),r4
     f30:	f8 ff 9e 30 	lw      r4,0xfff8(r30)
     f34:	00 00 a4 30 	lw      r5,0x0000(r4)
     f38:	34 12 80 2c 	ldih    r4,0x1234
     f3c:	cd ab 84 18 	ori     r4,r4,0xabcd
     f40:	02 20 05 00 	sub     r0,r5,r4
     f44:	02 00 00 40 	beq     0x00000f4c
     f48:	2c 04 00 80 	ajmp    0x000010b0
     f4c:	f8 ff be 30 	lw      r5,0xfff8(r30)
     f50:	f8 ff 9e 30 	lw      r4,0xfff8(r30)
     f54:	14 00 84 30 	lw      r4,0x0014(r4)
     f58:	ff ff 84 04 	addi    r4,r4,0xffff
     f5c:	14 00 85 34 	sw      0x0014(r5),r4
     f60:	f8 ff 9e 30 	lw      r4,0xfff8(r30)
     f64:	08 00 84 30 	lw      r4,0x0008(r4)
     f68:	f0 ff 9e 34 	sw      0xfff0(r30),r4
     f6c:	f0 ff be 30 	lw      r5,0xfff0(r30)
     f70:	f4 ff 9e 30 	lw      r4,0xfff4(r30)
     f74:	02 20 05 00 	sub     r0,r5,r4
     f78:	07 00 00 41 	bhs     0x00000f94
     f7c:	f0 ff 9e 30 	lw      r4,0xfff0(r30)
     f80:	00 00 a4 30 	lw      r5,0x0000(r4)
     f84:	f4 ff 9e 30 	lw      r4,0xfff4(r30)
     f88:	02 20 05 00 	sub     r0,r5,r4
     f8c:	02 00 40 42 	bls     0x00000f94
     f90:	f7 03 00 80 	ajmp    0x00000fdc
     f94:	f0 ff 9e 30 	lw      r4,0xfff0(r30)
     f98:	00 00 a4 30 	lw      r5,0x0000(r4)
     f9c:	f0 ff 9e 30 	lw      r4,0xfff0(r30)
     fa0:	02 20 05 00 	sub     r0,r5,r4
     fa4:	0a 00 00 42 	bhi     0x00000fcc
     fa8:	f4 ff be 30 	lw      r5,0xfff4(r30)
     fac:	f0 ff 9e 30 	lw      r4,0xfff0(r30)
     fb0:	02 20 05 00 	sub     r0,r5,r4
     fb4:	0a 00 00 42 	bhi     0x00000fdc
     fb8:	f0 ff 9e 30 	lw      r4,0xfff0(r30)
     fbc:	00 00 a4 30 	lw      r5,0x0000(r4)
     fc0:	f4 ff 9e 30 	lw      r4,0xfff4(r30)
     fc4:	02 20 05 00 	sub     r0,r5,r4
     fc8:	05 00 00 42 	bhi     0x00000fdc
     fcc:	f0 ff 9e 30 	lw      r4,0xfff0(r30)
     fd0:	00 00 84 30 	lw      r4,0x0000(r4)
     fd4:	f0 ff 9e 34 	sw      0xfff0(r30),r4
     fd8:	db 03 00 80 	ajmp    0x00000f6c
     fdc:	f4 ff 9e 30 	lw      r4,0xfff4(r30)
     fe0:	04 00 84 30 	lw      r4,0x0004(r4)
     fe4:	03 00 a4 20 	lsli    r5,r4,0x0003
     fe8:	f4 ff 9e 30 	lw      r4,0xfff4(r30)
     fec:	00 20 a5 00 	add     r5,r5,r4
     ff0:	f0 ff 9e 30 	lw      r4,0xfff0(r30)
     ff4:	00 00 84 30 	lw      r4,0x0000(r4)
     ff8:	02 20 05 00 	sub     r0,r5,r4
     ffc:	0f 00 40 40 	bne     0x00001038
    1000:	f4 ff de 30 	lw      r6,0xfff4(r30)
    1004:	f4 ff be 30 	lw      r5,0xfff4(r30)
    1008:	f0 ff 9e 30 	lw      r4,0xfff0(r30)
    100c:	00 00 84 30 	lw      r4,0x0000(r4)
    1010:	04 00 a5 30 	lw      r5,0x0004(r5)
    1014:	04 00 84 30 	lw      r4,0x0004(r4)
    1018:	00 20 85 00 	add     r4,r5,r4
    101c:	04 00 86 34 	sw      0x0004(r6),r4
    1020:	f4 ff be 30 	lw      r5,0xfff4(r30)
    1024:	f0 ff 9e 30 	lw      r4,0xfff0(r30)
    1028:	00 00 84 30 	lw      r4,0x0000(r4)
    102c:	00 00 84 30 	lw      r4,0x0000(r4)
    1030:	00 00 85 34 	sw      0x0000(r5),r4
    1034:	12 04 00 80 	ajmp    0x00001048
    1038:	f4 ff 9e 30 	lw      r4,0xfff4(r30)
    103c:	f0 ff be 30 	lw      r5,0xfff0(r30)
    1040:	00 00 a5 30 	lw      r5,0x0000(r5)
    1044:	00 00 a4 34 	sw      0x0000(r4),r5
    1048:	f0 ff 9e 30 	lw      r4,0xfff0(r30)
    104c:	04 00 84 30 	lw      r4,0x0004(r4)
    1050:	03 00 a4 20 	lsli    r5,r4,0x0003
    1054:	f0 ff 9e 30 	lw      r4,0xfff0(r30)
    1058:	00 20 a5 00 	add     r5,r5,r4
    105c:	f4 ff 9e 30 	lw      r4,0xfff4(r30)
    1060:	02 20 05 00 	sub     r0,r5,r4
    1064:	0d 00 40 40 	bne     0x00001098
    1068:	f0 ff fe 30 	lw      r7,0xfff0(r30)
    106c:	f0 ff 9e 30 	lw      r4,0xfff0(r30)
    1070:	f4 ff be 30 	lw      r5,0xfff4(r30)
    1074:	04 00 c4 30 	lw      r6,0x0004(r4)
    1078:	04 00 85 30 	lw      r4,0x0004(r5)
    107c:	00 20 86 00 	add     r4,r6,r4
    1080:	04 00 87 34 	sw      0x0004(r7),r4
    1084:	f0 ff be 30 	lw      r5,0xfff0(r30)
    1088:	f4 ff 9e 30 	lw      r4,0xfff4(r30)
    108c:	00 00 84 30 	lw      r4,0x0000(r4)
    1090:	00 00 85 34 	sw      0x0000(r5),r4
    1094:	29 04 00 80 	ajmp    0x000010a4
    1098:	f0 ff be 30 	lw      r5,0xfff0(r30)
    109c:	f4 ff 9e 30 	lw      r4,0xfff4(r30)
    10a0:	00 00 85 34 	sw      0x0000(r5),r4
    10a4:	f8 ff be 30 	lw      r5,0xfff8(r30)
    10a8:	f0 ff 9e 30 	lw      r4,0xfff0(r30)
    10ac:	08 00 85 34 	sw      0x0008(r5),r4
    10b0:	10 00 bd 07 	addi    r29,r29,0x0010
    10b4:	05 f0 a0 03 	orr     r29,r0,r30
    10b8:	04 00 bd 07 	addi    r29,r29,0x0004
    10bc:	fc ff dd 33 	lw      r30,0xfffc(r29)
    10c0:	00 00 e0 47 	jmpr    r31
    10c4:	00 00 00 00 	nop
    10c8:	00 00 00 00 	nop
    10cc:	00 00 00 00 	nop

000010d0 <OS_HeapAlternate>:
    10d0:	fc ff bd 07 	addi    r29,r29,0xfffc
    10d4:	00 00 dd 37 	sw      0x0000(r29),r30
    10d8:	05 e8 c0 03 	orr     r30,r0,r29
    10dc:	f8 ff bd 07 	addi    r29,r29,0xfff8
    10e0:	fc ff 9e 34 	sw      0xfffc(r30),r4
    10e4:	f8 ff be 34 	sw      0xfff8(r30),r5
    10e8:	fc ff be 30 	lw      r5,0xfffc(r30)
    10ec:	f8 ff 9e 30 	lw      r4,0xfff8(r30)
    10f0:	18 00 85 34 	sw      0x0018(r5),r4
    10f4:	08 00 bd 07 	addi    r29,r29,0x0008
    10f8:	05 f0 a0 03 	orr     r29,r0,r30
    10fc:	04 00 bd 07 	addi    r29,r29,0x0004
    1100:	fc ff dd 33 	lw      r30,0xfffc(r29)
    1104:	00 00 e0 47 	jmpr    r31
    1108:	00 00 00 00 	nop
    110c:	00 00 00 00 	nop

00001110 <OS_HeapRegister>:
    1110:	fc ff bd 07 	addi    r29,r29,0xfffc
    1114:	00 00 dd 37 	sw      0x0000(r29),r30
    1118:	05 e8 c0 03 	orr     r30,r0,r29
    111c:	f8 ff bd 07 	addi    r29,r29,0xfff8
    1120:	fc ff 9e 34 	sw      0xfffc(r30),r4
    1124:	f8 ff be 34 	sw      0xfff8(r30),r5
    1128:	fc ff be 30 	lw      r5,0xfffc(r30)
    112c:	07 00 80 18 	ori     r4,r0,0x0007
    1130:	02 20 05 00 	sub     r0,r5,r4
    1134:	08 00 00 42 	bhi     0x00001154
    1138:	01 00 a0 2c 	ldih    r5,0x0001
    113c:	10 33 a5 18 	ori     r5,r5,0x3310
    1140:	fc ff 9e 30 	lw      r4,0xfffc(r30)
    1144:	02 00 84 20 	lsli    r4,r4,0x0002
    1148:	00 28 a4 00 	add     r5,r4,r5
    114c:	f8 ff 9e 30 	lw      r4,0xfff8(r30)
    1150:	00 00 85 34 	sw      0x0000(r5),r4
    1154:	08 00 bd 07 	addi    r29,r29,0x0008
    1158:	05 f0 a0 03 	orr     r29,r0,r30
    115c:	04 00 bd 07 	addi    r29,r29,0x0004
    1160:	fc ff dd 33 	lw      r30,0xfffc(r29)
    1164:	00 00 e0 47 	jmpr    r31
    1168:	00 00 00 00 	nop
    116c:	00 00 00 00 	nop

00001170 <_strlen>:
    1170:	fc ff bd 07 	addi    r29,r29,0xfffc
    1174:	00 00 dd 37 	sw      0x0000(r29),r30
    1178:	05 e8 c0 03 	orr     r30,r0,r29
    117c:	f8 ff bd 07 	addi    r29,r29,0xfff8
    1180:	fc ff 9e 34 	sw      0xfffc(r30),r4
    1184:	00 00 80 18 	ori     r4,r0,0x0000
    1188:	f8 ff 9e 34 	sw      0xfff8(r30),r4
    118c:	fc ff be 30 	lw      r5,0xfffc(r30)
    1190:	f8 ff 9e 30 	lw      r4,0xfff8(r30)
    1194:	00 20 85 00 	add     r4,r5,r4
    1198:	00 00 84 38 	lb      r4,0x0000(r4)
    119c:	18 00 84 20 	lsli    r4,r4,0x0018
    11a0:	18 00 84 24 	lsri    r4,r4,0x0018
    11a4:	00 00 a0 18 	ori     r5,r0,0x0000
    11a8:	02 28 04 00 	sub     r0,r4,r5
    11ac:	05 00 00 40 	beq     0x000011c0
    11b0:	f8 ff 9e 30 	lw      r4,0xfff8(r30)
    11b4:	01 00 84 04 	addi    r4,r4,0x0001
    11b8:	f8 ff 9e 34 	sw      0xfff8(r30),r4
    11bc:	63 04 00 80 	ajmp    0x0000118c
    11c0:	f8 ff 9e 30 	lw      r4,0xfff8(r30)
    11c4:	05 20 40 00 	orr     r2,r0,r4
    11c8:	08 00 bd 07 	addi    r29,r29,0x0008
    11cc:	05 f0 a0 03 	orr     r29,r0,r30
    11d0:	04 00 bd 07 	addi    r29,r29,0x0004
    11d4:	fc ff dd 33 	lw      r30,0xfffc(r29)
    11d8:	00 00 e0 47 	jmpr    r31
    11dc:	00 00 00 00 	nop

000011e0 <_is_digit>:
    11e0:	fc ff bd 07 	addi    r29,r29,0xfffc
    11e4:	00 00 dd 37 	sw      0x0000(r29),r30
    11e8:	05 e8 c0 03 	orr     r30,r0,r29
    11ec:	f8 ff bd 07 	addi    r29,r29,0xfff8
    11f0:	ff ff 9e 3c 	sb      0xffff(r30),r4
    11f4:	00 00 80 18 	ori     r4,r0,0x0000
    11f8:	f8 ff 9e 34 	sw      0xfff8(r30),r4
    11fc:	ff ff 9e 38 	lb      r4,0xffff(r30)
    1200:	18 00 84 20 	lsli    r4,r4,0x0018
    1204:	18 00 84 24 	lsri    r4,r4,0x0018
    1208:	2f 00 a0 18 	ori     r5,r0,0x002f
    120c:	02 28 04 00 	sub     r0,r4,r5
    1210:	09 00 40 42 	bls     0x00001234
    1214:	ff ff 9e 38 	lb      r4,0xffff(r30)
    1218:	18 00 84 20 	lsli    r4,r4,0x0018
    121c:	18 00 84 24 	lsri    r4,r4,0x0018
    1220:	39 00 a0 18 	ori     r5,r0,0x0039
    1224:	02 28 04 00 	sub     r0,r4,r5
    1228:	03 00 00 42 	bhi     0x00001234
    122c:	01 00 80 18 	ori     r4,r0,0x0001
    1230:	f8 ff 9e 34 	sw      0xfff8(r30),r4
    1234:	f8 ff 9e 30 	lw      r4,0xfff8(r30)
    1238:	05 20 40 00 	orr     r2,r0,r4
    123c:	08 00 bd 07 	addi    r29,r29,0x0008
    1240:	05 f0 a0 03 	orr     r29,r0,r30
    1244:	04 00 bd 07 	addi    r29,r29,0x0004
    1248:	fc ff dd 33 	lw      r30,0xfffc(r29)
    124c:	00 00 e0 47 	jmpr    r31

00001250 <_atoi>:
    1250:	f8 ff bd 07 	addi    r29,r29,0xfff8
    1254:	00 00 dd 37 	sw      0x0000(r29),r30
    1258:	04 00 fd 37 	sw      0x0004(r29),r31
    125c:	05 e8 c0 03 	orr     r30,r0,r29
    1260:	f8 ff bd 07 	addi    r29,r29,0xfff8
    1264:	fc ff 9e 34 	sw      0xfffc(r30),r4
    1268:	00 00 80 18 	ori     r4,r0,0x0000
    126c:	f8 ff 9e 34 	sw      0xfff8(r30),r4
    1270:	fc ff 9e 30 	lw      r4,0xfffc(r30)
    1274:	00 00 84 30 	lw      r4,0x0000(r4)
    1278:	00 00 84 38 	lb      r4,0x0000(r4)
    127c:	78 04 00 c0 	ajal    0x000011e0
    1280:	05 10 a0 00 	orr     r5,r0,r2
    1284:	00 00 80 18 	ori     r4,r0,0x0000
    1288:	02 20 05 00 	sub     r0,r5,r4
    128c:	12 00 00 40 	beq     0x000012d4
    1290:	f8 ff be 30 	lw      r5,0xfff8(r30)
    1294:	05 28 80 00 	orr     r4,r0,r5
    1298:	03 00 84 20 	lsli    r4,r4,0x0003
    129c:	00 28 84 00 	add     r4,r4,r5
    12a0:	00 28 c4 00 	add     r6,r4,r5
    12a4:	fc ff fe 30 	lw      r7,0xfffc(r30)
    12a8:	00 00 a7 30 	lw      r5,0x0000(r7)
    12ac:	05 28 80 00 	orr     r4,r0,r5
    12b0:	00 00 84 38 	lb      r4,0x0000(r4)
    12b4:	18 00 84 20 	lsli    r4,r4,0x0018
    12b8:	18 00 84 24 	lsri    r4,r4,0x0018
    12bc:	00 20 86 00 	add     r4,r6,r4
    12c0:	d0 ff 84 04 	addi    r4,r4,0xffd0
    12c4:	01 00 a5 04 	addi    r5,r5,0x0001
    12c8:	00 00 a7 34 	sw      0x0000(r7),r5
    12cc:	f8 ff 9e 34 	sw      0xfff8(r30),r4
    12d0:	9c 04 00 80 	ajmp    0x00001270
    12d4:	f8 ff 9e 30 	lw      r4,0xfff8(r30)
    12d8:	05 20 40 00 	orr     r2,r0,r4
    12dc:	08 00 bd 07 	addi    r29,r29,0x0008
    12e0:	05 f0 a0 03 	orr     r29,r0,r30
    12e4:	08 00 bd 07 	addi    r29,r29,0x0008
    12e8:	fc ff fd 33 	lw      r31,0xfffc(r29)
    12ec:	f8 ff dd 33 	lw      r30,0xfff8(r29)
    12f0:	00 00 e0 47 	jmpr    r31
    12f4:	00 00 00 00 	nop
    12f8:	00 00 00 00 	nop
    12fc:	00 00 00 00 	nop

00001300 <_ntoa>:
    1300:	fc ff bd 07 	addi    r29,r29,0xfffc
    1304:	00 00 dd 37 	sw      0x0000(r29),r30
    1308:	05 e8 c0 03 	orr     r30,r0,r29
    130c:	9c ff bd 07 	addi    r29,r29,0xff9c
    1310:	fc ff 9e 34 	sw      0xfffc(r30),r4
    1314:	f8 ff be 34 	sw      0xfff8(r30),r5
    1318:	f4 ff de 34 	sw      0xfff4(r30),r6
    131c:	f0 ff fe 34 	sw      0xfff0(r30),r7
    1320:	00 00 80 18 	ori     r4,r0,0x0000
    1324:	cc ff 9e 34 	sw      0xffcc(r30),r4
    1328:	00 00 80 18 	ori     r4,r0,0x0000
    132c:	c8 ff 9e 34 	sw      0xffc8(r30),r4
    1330:	f8 ff 9e 30 	lw      r4,0xfff8(r30)
    1334:	c0 ff 9e 34 	sw      0xffc0(r30),r4
    1338:	04 00 be 30 	lw      r5,0x0004(r30)
    133c:	00 00 80 18 	ori     r4,r0,0x0000
    1340:	02 20 05 00 	sub     r0,r5,r4
    1344:	04 00 40 40 	bne     0x00001354
    1348:	00 00 80 18 	ori     r4,r0,0x0000
    134c:	b4 ff 9e 34 	sw      0xffb4(r30),r4
    1350:	9c 06 00 80 	ajmp    0x00001a70
    1354:	f0 ff be 30 	lw      r5,0xfff0(r30)
    1358:	10 00 80 18 	ori     r4,r0,0x0010
    135c:	02 20 05 00 	sub     r0,r5,r4
    1360:	04 00 40 42 	bls     0x00001370
    1364:	00 00 a0 18 	ori     r5,r0,0x0000
    1368:	b4 ff be 34 	sw      0xffb4(r30),r5
    136c:	9c 06 00 80 	ajmp    0x00001a70
    1370:	fc ff be 30 	lw      r5,0xfffc(r30)
    1374:	00 00 80 18 	ori     r4,r0,0x0000
    1378:	02 20 05 00 	sub     r0,r5,r4
    137c:	4e 00 40 40 	bne     0x000014b4
    1380:	f8 ff be 30 	lw      r5,0xfff8(r30)
    1384:	00 00 80 18 	ori     r4,r0,0x0000
    1388:	02 20 05 00 	sub     r0,r5,r4
    138c:	06 00 80 42 	bge     0x000013a4
    1390:	01 00 80 18 	ori     r4,r0,0x0001
    1394:	c8 ff 9e 34 	sw      0xffc8(r30),r4
    1398:	f8 ff 9e 30 	lw      r4,0xfff8(r30)
    139c:	02 20 80 00 	sub     r4,r0,r4
    13a0:	f8 ff 9e 34 	sw      0xfff8(r30),r4
    13a4:	10 00 9e 30 	lw      r4,0x0010(r30)
    13a8:	08 00 84 24 	lsri    r4,r4,0x0008
    13ac:	01 00 a4 14 	andi    r5,r4,0x0001
    13b0:	00 00 80 18 	ori     r4,r0,0x0000
    13b4:	02 20 05 00 	sub     r0,r5,r4
    13b8:	06 00 00 40 	beq     0x000013d0
    13bc:	f8 ff be 30 	lw      r5,0xfff8(r30)
    13c0:	00 00 80 18 	ori     r4,r0,0x0000
    13c4:	02 20 05 00 	sub     r0,r5,r4
    13c8:	02 00 40 40 	bne     0x000013d0
    13cc:	73 05 00 80 	ajmp    0x000015cc
    13d0:	f8 ff be 30 	lw      r5,0xfff8(r30)
    13d4:	f0 ff 9e 30 	lw      r4,0xfff0(r30)
    13d8:	0c 20 85 00 	mod     r4,r5,r4
    13dc:	bf ff 9e 3c 	sb      0xffbf(r30),r4
    13e0:	cc ff de 04 	addi    r6,r30,0xffcc
    13e4:	00 00 86 30 	lw      r4,0x0000(r6)
    13e8:	05 20 a0 00 	orr     r5,r0,r4
    13ec:	00 f0 a5 00 	add     r5,r5,r30
    13f0:	d0 ff a5 04 	addi    r5,r5,0xffd0
    13f4:	b0 ff be 34 	sw      0xffb0(r30),r5
    13f8:	01 00 84 04 	addi    r4,r4,0x0001
    13fc:	00 00 86 34 	sw      0x0000(r6),r4
    1400:	bf ff 9e 38 	lb      r4,0xffbf(r30)
    1404:	18 00 84 20 	lsli    r4,r4,0x0018
    1408:	18 00 84 24 	lsri    r4,r4,0x0018
    140c:	09 00 a0 18 	ori     r5,r0,0x0009
    1410:	02 28 04 00 	sub     r0,r4,r5
    1414:	05 00 00 42 	bhi     0x00001428
    1418:	bf ff 9e 38 	lb      r4,0xffbf(r30)
    141c:	30 00 84 04 	addi    r4,r4,0x0030
    1420:	af ff 9e 3c 	sb      0xffaf(r30),r4
    1424:	1d 05 00 80 	ajmp    0x00001474
    1428:	bf ff 9e 38 	lb      r4,0xffbf(r30)
    142c:	18 00 84 20 	lsli    r4,r4,0x0018
    1430:	a8 ff 9e 34 	sw      0xffa8(r30),r4
    1434:	a8 ff de 30 	lw      r6,0xffa8(r30)
    1438:	18 00 c6 24 	lsri    r6,r6,0x0018
    143c:	a8 ff de 34 	sw      0xffa8(r30),r6
    1440:	10 00 9e 30 	lw      r4,0x0010(r30)
    1444:	05 00 84 24 	lsri    r4,r4,0x0005
    1448:	01 00 a4 14 	andi    r5,r4,0x0001
    144c:	00 00 80 18 	ori     r4,r0,0x0000
    1450:	02 20 05 00 	sub     r0,r5,r4
    1454:	05 00 00 40 	beq     0x00001468
    1458:	a8 ff fe 30 	lw      r7,0xffa8(r30)
    145c:	37 00 87 04 	addi    r4,r7,0x0037
    1460:	af ff 9e 3c 	sb      0xffaf(r30),r4
    1464:	1d 05 00 80 	ajmp    0x00001474
    1468:	a8 ff be 30 	lw      r5,0xffa8(r30)
    146c:	57 00 85 04 	addi    r4,r5,0x0057
    1470:	af ff 9e 3c 	sb      0xffaf(r30),r4
    1474:	af ff fe 38 	lb      r7,0xffaf(r30)
    1478:	b0 ff de 30 	lw      r6,0xffb0(r30)
    147c:	00 00 e6 3c 	sb      0x0000(r6),r7
    1480:	f8 ff be 30 	lw      r5,0xfff8(r30)
    1484:	f0 ff 9e 30 	lw      r4,0xfff0(r30)
    1488:	0b 20 85 00 	div     r4,r5,r4
    148c:	f8 ff 9e 34 	sw      0xfff8(r30),r4
    1490:	cc ff be 30 	lw      r5,0xffcc(r30)
    1494:	1f 00 80 18 	ori     r4,r0,0x001f
    1498:	02 20 05 00 	sub     r0,r5,r4
    149c:	4c 00 00 42 	bhi     0x000015cc
    14a0:	f8 ff be 30 	lw      r5,0xfff8(r30)
    14a4:	00 00 80 18 	ori     r4,r0,0x0000
    14a8:	02 20 05 00 	sub     r0,r5,r4
    14ac:	48 00 40 43 	ble     0x000015cc
    14b0:	f4 04 00 80 	ajmp    0x000013d0
    14b4:	c0 ff 9e 30 	lw      r4,0xffc0(r30)
    14b8:	b8 ff 9e 34 	sw      0xffb8(r30),r4
    14bc:	10 00 9e 30 	lw      r4,0x0010(r30)
    14c0:	08 00 84 24 	lsri    r4,r4,0x0008
    14c4:	01 00 a4 14 	andi    r5,r4,0x0001
    14c8:	00 00 80 18 	ori     r4,r0,0x0000
    14cc:	02 20 05 00 	sub     r0,r5,r4
    14d0:	06 00 00 40 	beq     0x000014e8
    14d4:	b8 ff be 30 	lw      r5,0xffb8(r30)
    14d8:	00 00 80 18 	ori     r4,r0,0x0000
    14dc:	02 20 05 00 	sub     r0,r5,r4
    14e0:	02 00 40 40 	bne     0x000014e8
    14e4:	73 05 00 80 	ajmp    0x000015cc
    14e8:	b8 ff be 30 	lw      r5,0xffb8(r30)
    14ec:	f0 ff 9e 30 	lw      r4,0xfff0(r30)
    14f0:	0f 20 85 00 	modu    r4,r5,r4
    14f4:	bf ff 9e 3c 	sb      0xffbf(r30),r4
    14f8:	cc ff de 04 	addi    r6,r30,0xffcc
    14fc:	00 00 86 30 	lw      r4,0x0000(r6)
    1500:	05 20 a0 00 	orr     r5,r0,r4
    1504:	00 f0 a5 00 	add     r5,r5,r30
    1508:	d0 ff a5 04 	addi    r5,r5,0xffd0
    150c:	a4 ff be 34 	sw      0xffa4(r30),r5
    1510:	01 00 84 04 	addi    r4,r4,0x0001
    1514:	00 00 86 34 	sw      0x0000(r6),r4
    1518:	bf ff 9e 38 	lb      r4,0xffbf(r30)
    151c:	18 00 84 20 	lsli    r4,r4,0x0018
    1520:	18 00 84 24 	lsri    r4,r4,0x0018
    1524:	09 00 a0 18 	ori     r5,r0,0x0009
    1528:	02 28 04 00 	sub     r0,r4,r5
    152c:	05 00 00 42 	bhi     0x00001540
    1530:	bf ff 9e 38 	lb      r4,0xffbf(r30)
    1534:	30 00 84 04 	addi    r4,r4,0x0030
    1538:	a3 ff 9e 3c 	sb      0xffa3(r30),r4
    153c:	63 05 00 80 	ajmp    0x0000158c
    1540:	bf ff 9e 38 	lb      r4,0xffbf(r30)
    1544:	18 00 84 20 	lsli    r4,r4,0x0018
    1548:	9c ff 9e 34 	sw      0xff9c(r30),r4
    154c:	9c ff 9e 30 	lw      r4,0xff9c(r30)
    1550:	18 00 84 24 	lsri    r4,r4,0x0018
    1554:	9c ff 9e 34 	sw      0xff9c(r30),r4
    1558:	10 00 9e 30 	lw      r4,0x0010(r30)
    155c:	05 00 84 24 	lsri    r4,r4,0x0005
    1560:	01 00 a4 14 	andi    r5,r4,0x0001
    1564:	00 00 80 18 	ori     r4,r0,0x0000
    1568:	02 20 05 00 	sub     r0,r5,r4
    156c:	05 00 00 40 	beq     0x00001580
    1570:	9c ff be 30 	lw      r5,0xff9c(r30)
    1574:	37 00 85 04 	addi    r4,r5,0x0037
    1578:	a3 ff 9e 3c 	sb      0xffa3(r30),r4
    157c:	63 05 00 80 	ajmp    0x0000158c
    1580:	9c ff de 30 	lw      r6,0xff9c(r30)
    1584:	57 00 86 04 	addi    r4,r6,0x0057
    1588:	a3 ff 9e 3c 	sb      0xffa3(r30),r4
    158c:	a3 ff 9e 38 	lb      r4,0xffa3(r30)
    1590:	a4 ff fe 30 	lw      r7,0xffa4(r30)
    1594:	00 00 87 3c 	sb      0x0000(r7),r4
    1598:	b8 ff be 30 	lw      r5,0xffb8(r30)
    159c:	f0 ff 9e 30 	lw      r4,0xfff0(r30)
    15a0:	0e 20 85 00 	divu    r4,r5,r4
    15a4:	b8 ff 9e 34 	sw      0xffb8(r30),r4
    15a8:	cc ff be 30 	lw      r5,0xffcc(r30)
    15ac:	1f 00 80 18 	ori     r4,r0,0x001f
    15b0:	02 20 05 00 	sub     r0,r5,r4
    15b4:	06 00 00 42 	bhi     0x000015cc
    15b8:	b8 ff be 30 	lw      r5,0xffb8(r30)
    15bc:	00 00 80 18 	ori     r4,r0,0x0000
    15c0:	02 20 05 00 	sub     r0,r5,r4
    15c4:	02 00 00 40 	beq     0x000015cc
    15c8:	3a 05 00 80 	ajmp    0x000014e8
    15cc:	10 00 9e 30 	lw      r4,0x0010(r30)
    15d0:	01 00 84 24 	lsri    r4,r4,0x0001
    15d4:	01 00 a4 14 	andi    r5,r4,0x0001
    15d8:	00 00 80 18 	ori     r4,r0,0x0000
    15dc:	02 20 05 00 	sub     r0,r5,r4
    15e0:	13 00 40 40 	bne     0x0000162c
    15e4:	cc ff be 30 	lw      r5,0xffcc(r30)
    15e8:	08 00 9e 30 	lw      r4,0x0008(r30)
    15ec:	02 20 05 00 	sub     r0,r5,r4
    15f0:	0f 00 00 41 	bhs     0x0000162c
    15f4:	cc ff be 30 	lw      r5,0xffcc(r30)
    15f8:	1f 00 80 18 	ori     r4,r0,0x001f
    15fc:	02 20 05 00 	sub     r0,r5,r4
    1600:	0b 00 00 42 	bhi     0x0000162c
    1604:	cc ff de 04 	addi    r6,r30,0xffcc
    1608:	00 00 a6 30 	lw      r5,0x0000(r6)
    160c:	05 28 80 00 	orr     r4,r0,r5
    1610:	00 f0 84 00 	add     r4,r4,r30
    1614:	d0 ff 84 04 	addi    r4,r4,0xffd0
    1618:	30 00 e0 18 	ori     r7,r0,0x0030
    161c:	00 00 e4 3c 	sb      0x0000(r4),r7
    1620:	01 00 a5 04 	addi    r5,r5,0x0001
    1624:	00 00 a6 34 	sw      0x0000(r6),r5
    1628:	73 05 00 80 	ajmp    0x000015cc
    162c:	10 00 9e 30 	lw      r4,0x0010(r30)
    1630:	01 00 84 24 	lsri    r4,r4,0x0001
    1634:	01 00 a4 14 	andi    r5,r4,0x0001
    1638:	00 00 80 18 	ori     r4,r0,0x0000
    163c:	02 20 05 00 	sub     r0,r5,r4
    1640:	18 00 40 40 	bne     0x000016a0
    1644:	10 00 9e 30 	lw      r4,0x0010(r30)
    1648:	01 00 a4 14 	andi    r5,r4,0x0001
    164c:	00 00 80 18 	ori     r4,r0,0x0000
    1650:	02 20 05 00 	sub     r0,r5,r4
    1654:	13 00 00 40 	beq     0x000016a0
    1658:	cc ff be 30 	lw      r5,0xffcc(r30)
    165c:	0c 00 9e 30 	lw      r4,0x000c(r30)
    1660:	02 20 05 00 	sub     r0,r5,r4
    1664:	0f 00 00 41 	bhs     0x000016a0
    1668:	cc ff be 30 	lw      r5,0xffcc(r30)
    166c:	1f 00 80 18 	ori     r4,r0,0x001f
    1670:	02 20 05 00 	sub     r0,r5,r4
    1674:	0b 00 00 42 	bhi     0x000016a0
    1678:	cc ff de 04 	addi    r6,r30,0xffcc
    167c:	00 00 a6 30 	lw      r5,0x0000(r6)
    1680:	05 28 80 00 	orr     r4,r0,r5
    1684:	00 f0 84 00 	add     r4,r4,r30
    1688:	d0 ff 84 04 	addi    r4,r4,0xffd0
    168c:	30 00 e0 18 	ori     r7,r0,0x0030
    1690:	00 00 e4 3c 	sb      0x0000(r4),r7
    1694:	01 00 a5 04 	addi    r5,r5,0x0001
    1698:	00 00 a6 34 	sw      0x0000(r6),r5
    169c:	8b 05 00 80 	ajmp    0x0000162c
    16a0:	10 00 9e 30 	lw      r4,0x0010(r30)
    16a4:	04 00 84 24 	lsri    r4,r4,0x0004
    16a8:	01 00 a4 14 	andi    r5,r4,0x0001
    16ac:	00 00 80 18 	ori     r4,r0,0x0000
    16b0:	02 20 05 00 	sub     r0,r5,r4
    16b4:	57 00 00 40 	beq     0x00001810
    16b8:	cc ff be 30 	lw      r5,0xffcc(r30)
    16bc:	08 00 9e 30 	lw      r4,0x0008(r30)
    16c0:	02 20 05 00 	sub     r0,r5,r4
    16c4:	06 00 00 40 	beq     0x000016dc
    16c8:	cc ff be 30 	lw      r5,0xffcc(r30)
    16cc:	0c 00 9e 30 	lw      r4,0x000c(r30)
    16d0:	02 20 05 00 	sub     r0,r5,r4
    16d4:	02 00 00 40 	beq     0x000016dc
    16d8:	c9 05 00 80 	ajmp    0x00001724
    16dc:	cc ff be 30 	lw      r5,0xffcc(r30)
    16e0:	00 00 80 18 	ori     r4,r0,0x0000
    16e4:	02 20 05 00 	sub     r0,r5,r4
    16e8:	0f 00 00 40 	beq     0x00001724
    16ec:	cc ff 9e 30 	lw      r4,0xffcc(r30)
    16f0:	ff ff 84 04 	addi    r4,r4,0xffff
    16f4:	cc ff 9e 34 	sw      0xffcc(r30),r4
    16f8:	f0 ff be 30 	lw      r5,0xfff0(r30)
    16fc:	10 00 80 18 	ori     r4,r0,0x0010
    1700:	02 20 05 00 	sub     r0,r5,r4
    1704:	08 00 40 40 	bne     0x00001724
    1708:	cc ff be 30 	lw      r5,0xffcc(r30)
    170c:	00 00 80 18 	ori     r4,r0,0x0000
    1710:	02 20 05 00 	sub     r0,r5,r4
    1714:	04 00 00 40 	beq     0x00001724
    1718:	cc ff 9e 30 	lw      r4,0xffcc(r30)
    171c:	ff ff 84 04 	addi    r4,r4,0xffff
    1720:	cc ff 9e 34 	sw      0xffcc(r30),r4
    1724:	f0 ff be 30 	lw      r5,0xfff0(r30)
    1728:	10 00 80 18 	ori     r4,r0,0x0010
    172c:	02 20 05 00 	sub     r0,r5,r4
    1730:	14 00 40 40 	bne     0x00001780
    1734:	10 00 9e 30 	lw      r4,0x0010(r30)
    1738:	05 00 84 24 	lsri    r4,r4,0x0005
    173c:	01 00 a4 14 	andi    r5,r4,0x0001
    1740:	00 00 80 18 	ori     r4,r0,0x0000
    1744:	02 20 05 00 	sub     r0,r5,r4
    1748:	0e 00 40 40 	bne     0x00001780
    174c:	cc ff be 30 	lw      r5,0xffcc(r30)
    1750:	1f 00 80 18 	ori     r4,r0,0x001f
    1754:	02 20 05 00 	sub     r0,r5,r4
    1758:	0a 00 00 42 	bhi     0x00001780
    175c:	cc ff de 04 	addi    r6,r30,0xffcc
    1760:	00 00 a6 30 	lw      r5,0x0000(r6)
    1764:	05 28 80 00 	orr     r4,r0,r5
    1768:	00 f0 84 00 	add     r4,r4,r30
    176c:	d0 ff 84 04 	addi    r4,r4,0xffd0
    1770:	78 00 e0 18 	ori     r7,r0,0x0078
    1774:	00 00 e4 3c 	sb      0x0000(r4),r7
    1778:	01 00 a5 04 	addi    r5,r5,0x0001
    177c:	00 00 a6 34 	sw      0x0000(r6),r5
    1780:	f0 ff be 30 	lw      r5,0xfff0(r30)
    1784:	10 00 80 18 	ori     r4,r0,0x0010
    1788:	02 20 05 00 	sub     r0,r5,r4
    178c:	14 00 40 40 	bne     0x000017dc
    1790:	10 00 9e 30 	lw      r4,0x0010(r30)
    1794:	05 00 84 24 	lsri    r4,r4,0x0005
    1798:	01 00 a4 14 	andi    r5,r4,0x0001
    179c:	00 00 80 18 	ori     r4,r0,0x0000
    17a0:	02 20 05 00 	sub     r0,r5,r4
    17a4:	0e 00 00 40 	beq     0x000017dc
    17a8:	cc ff be 30 	lw      r5,0xffcc(r30)
    17ac:	1f 00 80 18 	ori     r4,r0,0x001f
    17b0:	02 20 05 00 	sub     r0,r5,r4
    17b4:	0a 00 00 42 	bhi     0x000017dc
    17b8:	cc ff de 04 	addi    r6,r30,0xffcc
    17bc:	00 00 a6 30 	lw      r5,0x0000(r6)
    17c0:	05 28 80 00 	orr     r4,r0,r5
    17c4:	00 f0 84 00 	add     r4,r4,r30
    17c8:	d0 ff 84 04 	addi    r4,r4,0xffd0
    17cc:	58 00 e0 18 	ori     r7,r0,0x0058
    17d0:	00 00 e4 3c 	sb      0x0000(r4),r7
    17d4:	01 00 a5 04 	addi    r5,r5,0x0001
    17d8:	00 00 a6 34 	sw      0x0000(r6),r5
    17dc:	cc ff be 30 	lw      r5,0xffcc(r30)
    17e0:	1f 00 80 18 	ori     r4,r0,0x001f
    17e4:	02 20 05 00 	sub     r0,r5,r4
    17e8:	0a 00 00 42 	bhi     0x00001810
    17ec:	cc ff de 04 	addi    r6,r30,0xffcc
    17f0:	00 00 a6 30 	lw      r5,0x0000(r6)
    17f4:	05 28 80 00 	orr     r4,r0,r5
    17f8:	00 f0 84 00 	add     r4,r4,r30
    17fc:	d0 ff 84 04 	addi    r4,r4,0xffd0
    1800:	30 00 e0 18 	ori     r7,r0,0x0030
    1804:	00 00 e4 3c 	sb      0x0000(r4),r7
    1808:	01 00 a5 04 	addi    r5,r5,0x0001
    180c:	00 00 a6 34 	sw      0x0000(r6),r5
    1810:	cc ff be 30 	lw      r5,0xffcc(r30)
    1814:	0c 00 9e 30 	lw      r4,0x000c(r30)
    1818:	02 20 05 00 	sub     r0,r5,r4
    181c:	15 00 40 40 	bne     0x00001870
    1820:	c8 ff be 30 	lw      r5,0xffc8(r30)
    1824:	00 00 80 18 	ori     r4,r0,0x0000
    1828:	02 20 05 00 	sub     r0,r5,r4
    182c:	0e 00 40 40 	bne     0x00001864
    1830:	10 00 9e 30 	lw      r4,0x0010(r30)
    1834:	02 00 84 24 	lsri    r4,r4,0x0002
    1838:	01 00 a4 14 	andi    r5,r4,0x0001
    183c:	00 00 80 18 	ori     r4,r0,0x0000
    1840:	02 20 05 00 	sub     r0,r5,r4
    1844:	08 00 40 40 	bne     0x00001864
    1848:	10 00 9e 30 	lw      r4,0x0010(r30)
    184c:	03 00 84 24 	lsri    r4,r4,0x0003
    1850:	01 00 a4 14 	andi    r5,r4,0x0001
    1854:	00 00 80 18 	ori     r4,r0,0x0000
    1858:	02 20 05 00 	sub     r0,r5,r4
    185c:	02 00 40 40 	bne     0x00001864
    1860:	1c 06 00 80 	ajmp    0x00001870
    1864:	cc ff 9e 30 	lw      r4,0xffcc(r30)
    1868:	ff ff 84 04 	addi    r4,r4,0xffff
    186c:	cc ff 9e 34 	sw      0xffcc(r30),r4
    1870:	cc ff be 30 	lw      r5,0xffcc(r30)
    1874:	1f 00 80 18 	ori     r4,r0,0x001f
    1878:	02 20 05 00 	sub     r0,r5,r4
    187c:	2e 00 00 42 	bhi     0x00001934
    1880:	c8 ff be 30 	lw      r5,0xffc8(r30)
    1884:	00 00 80 18 	ori     r4,r0,0x0000
    1888:	02 20 05 00 	sub     r0,r5,r4
    188c:	0b 00 00 40 	beq     0x000018b8
    1890:	cc ff de 04 	addi    r6,r30,0xffcc
    1894:	00 00 a6 30 	lw      r5,0x0000(r6)
    1898:	05 28 80 00 	orr     r4,r0,r5
    189c:	00 f0 84 00 	add     r4,r4,r30
    18a0:	d0 ff 84 04 	addi    r4,r4,0xffd0
    18a4:	2d 00 e0 18 	ori     r7,r0,0x002d
    18a8:	00 00 e4 3c 	sb      0x0000(r4),r7
    18ac:	01 00 a5 04 	addi    r5,r5,0x0001
    18b0:	00 00 a6 34 	sw      0x0000(r6),r5
    18b4:	4d 06 00 80 	ajmp    0x00001934
    18b8:	10 00 9e 30 	lw      r4,0x0010(r30)
    18bc:	02 00 84 24 	lsri    r4,r4,0x0002
    18c0:	01 00 a4 14 	andi    r5,r4,0x0001
    18c4:	00 00 80 18 	ori     r4,r0,0x0000
    18c8:	02 20 05 00 	sub     r0,r5,r4
    18cc:	0b 00 00 40 	beq     0x000018f8
    18d0:	cc ff de 04 	addi    r6,r30,0xffcc
    18d4:	00 00 a6 30 	lw      r5,0x0000(r6)
    18d8:	05 28 80 00 	orr     r4,r0,r5
    18dc:	00 f0 84 00 	add     r4,r4,r30
    18e0:	d0 ff 84 04 	addi    r4,r4,0xffd0
    18e4:	2b 00 e0 18 	ori     r7,r0,0x002b
    18e8:	00 00 e4 3c 	sb      0x0000(r4),r7
    18ec:	01 00 a5 04 	addi    r5,r5,0x0001
    18f0:	00 00 a6 34 	sw      0x0000(r6),r5
    18f4:	4d 06 00 80 	ajmp    0x00001934
    18f8:	10 00 9e 30 	lw      r4,0x0010(r30)
    18fc:	03 00 84 24 	lsri    r4,r4,0x0003
    1900:	01 00 a4 14 	andi    r5,r4,0x0001
    1904:	00 00 80 18 	ori     r4,r0,0x0000
    1908:	02 20 05 00 	sub     r0,r5,r4
    190c:	0a 00 00 40 	beq     0x00001934
    1910:	cc ff de 04 	addi    r6,r30,0xffcc
    1914:	00 00 a6 30 	lw      r5,0x0000(r6)
    1918:	05 28 80 00 	orr     r4,r0,r5
    191c:	00 f0 84 00 	add     r4,r4,r30
    1920:	d0 ff 84 04 	addi    r4,r4,0xffd0
    1924:	20 00 e0 18 	ori     r7,r0,0x0020
    1928:	00 00 e4 3c 	sb      0x0000(r4),r7
    192c:	01 00 a5 04 	addi    r5,r5,0x0001
    1930:	00 00 a6 34 	sw      0x0000(r6),r5
    1934:	10 00 9e 30 	lw      r4,0x0010(r30)
    1938:	01 00 84 24 	lsri    r4,r4,0x0001
    193c:	01 00 a4 14 	andi    r5,r4,0x0001
    1940:	00 00 80 18 	ori     r4,r0,0x0000
    1944:	02 20 05 00 	sub     r0,r5,r4
    1948:	18 00 40 40 	bne     0x000019a8
    194c:	10 00 9e 30 	lw      r4,0x0010(r30)
    1950:	01 00 a4 14 	andi    r5,r4,0x0001
    1954:	00 00 80 18 	ori     r4,r0,0x0000
    1958:	02 20 05 00 	sub     r0,r5,r4
    195c:	13 00 40 40 	bne     0x000019a8
    1960:	cc ff be 30 	lw      r5,0xffcc(r30)
    1964:	0c 00 9e 30 	lw      r4,0x000c(r30)
    1968:	02 20 05 00 	sub     r0,r5,r4
    196c:	0f 00 00 41 	bhs     0x000019a8
    1970:	cc ff be 30 	lw      r5,0xffcc(r30)
    1974:	1f 00 80 18 	ori     r4,r0,0x001f
    1978:	02 20 05 00 	sub     r0,r5,r4
    197c:	0b 00 00 42 	bhi     0x000019a8
    1980:	cc ff de 04 	addi    r6,r30,0xffcc
    1984:	00 00 a6 30 	lw      r5,0x0000(r6)
    1988:	05 28 80 00 	orr     r4,r0,r5
    198c:	00 f0 84 00 	add     r4,r4,r30
    1990:	d0 ff 84 04 	addi    r4,r4,0xffd0
    1994:	20 00 e0 18 	ori     r7,r0,0x0020
    1998:	00 00 e4 3c 	sb      0x0000(r4),r7
    199c:	01 00 a5 04 	addi    r5,r5,0x0001
    19a0:	00 00 a6 34 	sw      0x0000(r6),r5
    19a4:	58 06 00 80 	ajmp    0x00001960
    19a8:	00 00 80 18 	ori     r4,r0,0x0000
    19ac:	c4 ff 9e 34 	sw      0xffc4(r30),r4
    19b0:	c4 ff be 30 	lw      r5,0xffc4(r30)
    19b4:	cc ff 9e 30 	lw      r4,0xffcc(r30)
    19b8:	02 20 05 00 	sub     r0,r5,r4
    19bc:	13 00 00 41 	bhs     0x00001a08
    19c0:	c4 ff be 30 	lw      r5,0xffc4(r30)
    19c4:	04 00 9e 30 	lw      r4,0x0004(r30)
    19c8:	02 20 05 00 	sub     r0,r5,r4
    19cc:	0f 00 00 41 	bhs     0x00001a08
    19d0:	f4 ff be 30 	lw      r5,0xfff4(r30)
    19d4:	c4 ff 9e 30 	lw      r4,0xffc4(r30)
    19d8:	00 20 c5 00 	add     r6,r5,r4
    19dc:	cc ff be 30 	lw      r5,0xffcc(r30)
    19e0:	c4 ff 9e 30 	lw      r4,0xffc4(r30)
    19e4:	02 20 a5 00 	sub     r5,r5,r4
    19e8:	cf ff 9e 04 	addi    r4,r30,0xffcf
    19ec:	00 28 84 00 	add     r4,r4,r5
    19f0:	00 00 84 38 	lb      r4,0x0000(r4)
    19f4:	00 00 86 3c 	sb      0x0000(r6),r4
    19f8:	c4 ff 9e 30 	lw      r4,0xffc4(r30)
    19fc:	01 00 84 04 	addi    r4,r4,0x0001
    1a00:	c4 ff 9e 34 	sw      0xffc4(r30),r4
    1a04:	6c 06 00 80 	ajmp    0x000019b0
    1a08:	10 00 9e 30 	lw      r4,0x0010(r30)
    1a0c:	01 00 84 24 	lsri    r4,r4,0x0001
    1a10:	01 00 a4 14 	andi    r5,r4,0x0001
    1a14:	00 00 80 18 	ori     r4,r0,0x0000
    1a18:	02 20 05 00 	sub     r0,r5,r4
    1a1c:	13 00 00 40 	beq     0x00001a68
    1a20:	cc ff be 30 	lw      r5,0xffcc(r30)
    1a24:	0c 00 9e 30 	lw      r4,0x000c(r30)
    1a28:	02 20 05 00 	sub     r0,r5,r4
    1a2c:	0f 00 00 41 	bhs     0x00001a68
    1a30:	cc ff be 30 	lw      r5,0xffcc(r30)
    1a34:	04 00 9e 30 	lw      r4,0x0004(r30)
    1a38:	02 20 05 00 	sub     r0,r5,r4
    1a3c:	0b 00 00 41 	bhs     0x00001a68
    1a40:	cc ff fe 04 	addi    r7,r30,0xffcc
    1a44:	00 00 a7 30 	lw      r5,0x0000(r7)
    1a48:	05 28 c0 00 	orr     r6,r0,r5
    1a4c:	f4 ff 9e 30 	lw      r4,0xfff4(r30)
    1a50:	00 20 86 00 	add     r4,r6,r4
    1a54:	20 00 c0 18 	ori     r6,r0,0x0020
    1a58:	00 00 c4 3c 	sb      0x0000(r4),r6
    1a5c:	01 00 a5 04 	addi    r5,r5,0x0001
    1a60:	00 00 a7 34 	sw      0x0000(r7),r5
    1a64:	88 06 00 80 	ajmp    0x00001a20
    1a68:	cc ff 9e 30 	lw      r4,0xffcc(r30)
    1a6c:	b4 ff 9e 34 	sw      0xffb4(r30),r4
    1a70:	b4 ff 5e 30 	lw      r2,0xffb4(r30)
    1a74:	64 00 bd 07 	addi    r29,r29,0x0064
    1a78:	05 f0 a0 03 	orr     r29,r0,r30
    1a7c:	04 00 bd 07 	addi    r29,r29,0x0004
    1a80:	fc ff dd 33 	lw      r30,0xfffc(r29)
    1a84:	00 00 e0 47 	jmpr    r31
    1a88:	00 00 00 00 	nop
    1a8c:	00 00 00 00 	nop

00001a90 <_ftoa>:
    1a90:	f4 ff bd 07 	addi    r29,r29,0xfff4
    1a94:	00 00 dd 37 	sw      0x0000(r29),r30
    1a98:	04 00 fd 37 	sw      0x0004(r29),r31
    1a9c:	08 00 1d 35 	sw      0x0008(r29),r8
    1aa0:	05 e8 c0 03 	orr     r30,r0,r29
    1aa4:	14 ff bd 07 	addi    r29,r29,0xff14
    1aa8:	f8 ff 9e 34 	sw      0xfff8(r30),r4
    1aac:	fc ff be 34 	sw      0xfffc(r30),r5
    1ab0:	f4 ff de 34 	sw      0xfff4(r30),r6
    1ab4:	f0 ff fe 34 	sw      0xfff0(r30),r7
    1ab8:	c0 ff 80 2c 	ldih    r4,0xffc0
    1abc:	00 00 84 18 	ori     r4,r4,0x0000
    1ac0:	e8 ff 9e 34 	sw      0xffe8(r30),r4
    1ac4:	df 41 80 2c 	ldih    r4,0x41df
    1ac8:	ff ff 84 18 	ori     r4,r4,0xffff
    1acc:	ec ff 9e 34 	sw      0xffec(r30),r4
    1ad0:	00 00 80 18 	ori     r4,r0,0x0000
    1ad4:	c4 ff 9e 34 	sw      0xffc4(r30),r4
    1ad8:	00 00 80 18 	ori     r4,r0,0x0000
    1adc:	bc ff 9e 34 	sw      0xffbc(r30),r4
    1ae0:	00 00 80 18 	ori     r4,r0,0x0000
    1ae4:	c0 ff 9e 34 	sw      0xffc0(r30),r4
    1ae8:	00 00 80 18 	ori     r4,r0,0x0000
    1aec:	b8 ff 9e 34 	sw      0xffb8(r30),r4
    1af0:	f8 ff 9e 30 	lw      r4,0xfff8(r30)
    1af4:	fc ff be 30 	lw      r5,0xfffc(r30)
    1af8:	f8 ff de 30 	lw      r6,0xfff8(r30)
    1afc:	fc ff fe 30 	lw      r7,0xfffc(r30)
    1b00:	a4 28 00 c0 	ajal    0x0000a290
    1b04:	05 10 a0 00 	orr     r5,r0,r2
    1b08:	00 00 80 18 	ori     r4,r0,0x0000
    1b0c:	02 20 05 00 	sub     r0,r5,r4
    1b10:	02 00 40 40 	bne     0x00001b18
    1b14:	d8 06 00 80 	ajmp    0x00001b60
    1b18:	f0 ff be 30 	lw      r5,0xfff0(r30)
    1b1c:	02 00 80 18 	ori     r4,r0,0x0002
    1b20:	02 20 05 00 	sub     r0,r5,r4
    1b24:	0f 00 40 42 	bls     0x00001b60
    1b28:	f4 ff 9e 30 	lw      r4,0xfff4(r30)
    1b2c:	6e 00 a0 18 	ori     r5,r0,0x006e
    1b30:	00 00 a4 3c 	sb      0x0000(r4),r5
    1b34:	f4 ff 9e 30 	lw      r4,0xfff4(r30)
    1b38:	01 00 84 04 	addi    r4,r4,0x0001
    1b3c:	61 00 c0 18 	ori     r6,r0,0x0061
    1b40:	00 00 c4 3c 	sb      0x0000(r4),r6
    1b44:	f4 ff 9e 30 	lw      r4,0xfff4(r30)
    1b48:	02 00 84 04 	addi    r4,r4,0x0002
    1b4c:	6e 00 e0 18 	ori     r7,r0,0x006e
    1b50:	00 00 e4 3c 	sb      0x0000(r4),r7
    1b54:	03 00 80 18 	ori     r4,r0,0x0003
    1b58:	84 ff 9e 34 	sw      0xff84(r30),r4
    1b5c:	1b 09 00 80 	ajmp    0x0000246c
    1b60:	14 00 9e 30 	lw      r4,0x0014(r30)
    1b64:	08 00 84 24 	lsri    r4,r4,0x0008
    1b68:	01 00 a4 14 	andi    r5,r4,0x0001
    1b6c:	00 00 80 18 	ori     r4,r0,0x0000
    1b70:	02 20 05 00 	sub     r0,r5,r4
    1b74:	03 00 40 40 	bne     0x00001b80
    1b78:	06 00 80 18 	ori     r4,r0,0x0006
    1b7c:	0c 00 9e 34 	sw      0x000c(r30),r4
    1b80:	0c 00 be 30 	lw      r5,0x000c(r30)
    1b84:	09 00 80 18 	ori     r4,r0,0x0009
    1b88:	02 20 05 00 	sub     r0,r5,r4
    1b8c:	03 00 40 42 	bls     0x00001b98
    1b90:	09 00 80 18 	ori     r4,r0,0x0009
    1b94:	0c 00 9e 34 	sw      0x000c(r30),r4
    1b98:	f8 ff 9e 30 	lw      r4,0xfff8(r30)
    1b9c:	fc ff be 30 	lw      r5,0xfffc(r30)
    1ba0:	00 00 c0 18 	ori     r6,r0,0x0000
    1ba4:	00 00 e0 18 	ori     r7,r0,0x0000
    1ba8:	f4 28 00 c0 	ajal    0x0000a3d0
    1bac:	05 10 a0 00 	orr     r5,r0,r2
    1bb0:	00 00 80 18 	ori     r4,r0,0x0000
    1bb4:	02 20 05 00 	sub     r0,r5,r4
    1bb8:	02 00 c0 42 	blt     0x00001bc0
    1bbc:	03 07 00 80 	ajmp    0x00001c0c
    1bc0:	01 00 80 18 	ori     r4,r0,0x0001
    1bc4:	b8 ff 9e 34 	sw      0xffb8(r30),r4
    1bc8:	9c ff be 04 	addi    r5,r30,0xff9c
    1bcc:	f8 ff 9e 30 	lw      r4,0xfff8(r30)
    1bd0:	00 00 9d 34 	sw      0x0000(r29),r4
    1bd4:	fc ff 9e 30 	lw      r4,0xfffc(r30)
    1bd8:	04 00 9d 34 	sw      0x0004(r29),r4
    1bdc:	05 28 80 00 	orr     r4,r0,r5
    1be0:	00 00 a0 18 	ori     r5,r0,0x0000
    1be4:	00 00 c0 18 	ori     r6,r0,0x0000
    1be8:	b0 2b 00 c0 	ajal    0x0000aec0
    1bec:	9c ff be 30 	lw      r5,0xff9c(r30)
    1bf0:	7c ff be 34 	sw      0xff7c(r30),r5
    1bf4:	a0 ff de 30 	lw      r6,0xffa0(r30)
    1bf8:	80 ff de 34 	sw      0xff80(r30),r6
    1bfc:	7c ff fe 30 	lw      r7,0xff7c(r30)
    1c00:	f8 ff fe 34 	sw      0xfff8(r30),r7
    1c04:	80 ff 9e 30 	lw      r4,0xff80(r30)
    1c08:	fc ff 9e 34 	sw      0xfffc(r30),r4
    1c0c:	f8 ff 9e 30 	lw      r4,0xfff8(r30)
    1c10:	fc ff be 30 	lw      r5,0xfffc(r30)
    1c14:	dc 2b 00 c0 	ajal    0x0000af70
    1c18:	05 10 80 00 	orr     r4,r0,r2
    1c1c:	b4 ff 9e 34 	sw      0xffb4(r30),r4
    1c20:	9c ff 9e 04 	addi    r4,r30,0xff9c
    1c24:	b4 ff be 30 	lw      r5,0xffb4(r30)
    1c28:	98 2c 00 c0 	ajal    0x0000b260
    1c2c:	9c ff be 30 	lw      r5,0xff9c(r30)
    1c30:	74 ff be 34 	sw      0xff74(r30),r5
    1c34:	a0 ff de 30 	lw      r6,0xffa0(r30)
    1c38:	78 ff de 34 	sw      0xff78(r30),r6
    1c3c:	94 ff 9e 04 	addi    r4,r30,0xff94
    1c40:	74 ff fe 30 	lw      r7,0xff74(r30)
    1c44:	00 00 fd 34 	sw      0x0000(r29),r7
    1c48:	78 ff be 30 	lw      r5,0xff78(r30)
    1c4c:	04 00 bd 34 	sw      0x0004(r29),r5
    1c50:	f8 ff be 30 	lw      r5,0xfff8(r30)
    1c54:	fc ff de 30 	lw      r6,0xfffc(r30)
    1c58:	b0 2b 00 c0 	ajal    0x0000aec0
    1c5c:	94 ff de 30 	lw      r6,0xff94(r30)
    1c60:	6c ff de 34 	sw      0xff6c(r30),r6
    1c64:	98 ff fe 30 	lw      r7,0xff98(r30)
    1c68:	70 ff fe 34 	sw      0xff70(r30),r7
    1c6c:	01 00 a0 2c 	ldih    r5,0x0001
    1c70:	a0 6e a5 18 	ori     r5,r5,0x6ea0
    1c74:	0c 00 9e 30 	lw      r4,0x000c(r30)
    1c78:	03 00 84 20 	lsli    r4,r4,0x0003
    1c7c:	00 28 84 00 	add     r4,r4,r5
    1c80:	00 00 a4 30 	lw      r5,0x0000(r4)
    1c84:	64 ff be 34 	sw      0xff64(r30),r5
    1c88:	04 00 84 30 	lw      r4,0x0004(r4)
    1c8c:	68 ff 9e 34 	sw      0xff68(r30),r4
    1c90:	8c ff 9e 04 	addi    r4,r30,0xff8c
    1c94:	64 ff de 30 	lw      r6,0xff64(r30)
    1c98:	00 00 dd 34 	sw      0x0000(r29),r6
    1c9c:	68 ff fe 30 	lw      r7,0xff68(r30)
    1ca0:	04 00 fd 34 	sw      0x0004(r29),r7
    1ca4:	6c ff be 30 	lw      r5,0xff6c(r30)
    1ca8:	70 ff de 30 	lw      r6,0xff70(r30)
    1cac:	00 2d 00 c0 	ajal    0x0000b400
    1cb0:	8c ff 9e 30 	lw      r4,0xff8c(r30)
    1cb4:	5c ff 9e 34 	sw      0xff5c(r30),r4
    1cb8:	90 ff be 30 	lw      r5,0xff90(r30)
    1cbc:	60 ff be 34 	sw      0xff60(r30),r5
    1cc0:	5c ff de 30 	lw      r6,0xff5c(r30)
    1cc4:	ac ff de 34 	sw      0xffac(r30),r6
    1cc8:	60 ff fe 30 	lw      r7,0xff60(r30)
    1ccc:	b0 ff fe 34 	sw      0xffb0(r30),r7
    1cd0:	ac ff 9e 30 	lw      r4,0xffac(r30)
    1cd4:	b0 ff be 30 	lw      r5,0xffb0(r30)
    1cd8:	9c 30 00 c0 	ajal    0x0000c270
    1cdc:	05 10 80 00 	orr     r4,r0,r2
    1ce0:	a8 ff 9e 34 	sw      0xffa8(r30),r4
    1ce4:	8c ff 9e 04 	addi    r4,r30,0xff8c
    1ce8:	a8 ff be 30 	lw      r5,0xffa8(r30)
    1cec:	98 2c 00 c0 	ajal    0x0000b260
    1cf0:	8c ff 9e 30 	lw      r4,0xff8c(r30)
    1cf4:	54 ff 9e 34 	sw      0xff54(r30),r4
    1cf8:	90 ff be 30 	lw      r5,0xff90(r30)
    1cfc:	58 ff be 34 	sw      0xff58(r30),r5
    1d00:	a8 ff be 30 	lw      r5,0xffa8(r30)
    1d04:	00 00 80 18 	ori     r4,r0,0x0000
    1d08:	02 20 05 00 	sub     r0,r5,r4
    1d0c:	13 00 80 42 	bge     0x00001d58
    1d10:	94 ff de 04 	addi    r6,r30,0xff94
    1d14:	00 00 80 18 	ori     r4,r0,0x0000
    1d18:	f0 41 a0 2c 	ldih    r5,0x41f0
    1d1c:	00 00 a5 18 	ori     r5,r5,0x0000
    1d20:	00 00 9d 34 	sw      0x0000(r29),r4
    1d24:	04 00 bd 34 	sw      0x0004(r29),r5
    1d28:	05 30 80 00 	orr     r4,r0,r6
    1d2c:	54 ff be 30 	lw      r5,0xff54(r30)
    1d30:	58 ff de 30 	lw      r6,0xff58(r30)
    1d34:	88 2b 00 c0 	ajal    0x0000ae20
    1d38:	94 ff de 30 	lw      r6,0xff94(r30)
    1d3c:	4c ff de 34 	sw      0xff4c(r30),r6
    1d40:	98 ff fe 30 	lw      r7,0xff98(r30)
    1d44:	50 ff fe 34 	sw      0xff50(r30),r7
    1d48:	4c ff 9e 30 	lw      r4,0xff4c(r30)
    1d4c:	54 ff 9e 34 	sw      0xff54(r30),r4
    1d50:	50 ff be 30 	lw      r5,0xff50(r30)
    1d54:	58 ff be 34 	sw      0xff58(r30),r5
    1d58:	9c ff 9e 04 	addi    r4,r30,0xff9c
    1d5c:	54 ff de 30 	lw      r6,0xff54(r30)
    1d60:	00 00 dd 34 	sw      0x0000(r29),r6
    1d64:	58 ff fe 30 	lw      r7,0xff58(r30)
    1d68:	04 00 fd 34 	sw      0x0004(r29),r7
    1d6c:	ac ff be 30 	lw      r5,0xffac(r30)
    1d70:	b0 ff de 30 	lw      r6,0xffb0(r30)
    1d74:	b0 2b 00 c0 	ajal    0x0000aec0
    1d78:	9c ff 9e 30 	lw      r4,0xff9c(r30)
    1d7c:	44 ff 9e 34 	sw      0xff44(r30),r4
    1d80:	a0 ff be 30 	lw      r5,0xffa0(r30)
    1d84:	48 ff be 34 	sw      0xff48(r30),r5
    1d88:	44 ff de 30 	lw      r6,0xff44(r30)
    1d8c:	bc ff de 34 	sw      0xffbc(r30),r6
    1d90:	48 ff fe 30 	lw      r7,0xff48(r30)
    1d94:	c0 ff fe 34 	sw      0xffc0(r30),r7
    1d98:	bc ff 9e 30 	lw      r4,0xffbc(r30)
    1d9c:	c0 ff be 30 	lw      r5,0xffc0(r30)
    1da0:	00 00 c0 18 	ori     r6,r0,0x0000
    1da4:	e0 3f e0 2c 	ldih    r7,0x3fe0
    1da8:	00 00 e7 18 	ori     r7,r7,0x0000
    1dac:	d4 30 00 c0 	ajal    0x0000c350
    1db0:	05 10 a0 00 	orr     r5,r0,r2
    1db4:	00 00 80 18 	ori     r4,r0,0x0000
    1db8:	02 20 05 00 	sub     r0,r5,r4
    1dbc:	02 00 00 43 	bgt     0x00001dc4
    1dc0:	aa 07 00 80 	ajmp    0x00001ea8
    1dc4:	a8 ff 9e 30 	lw      r4,0xffa8(r30)
    1dc8:	01 00 84 04 	addi    r4,r4,0x0001
    1dcc:	a8 ff 9e 34 	sw      0xffa8(r30),r4
    1dd0:	8c ff 9e 04 	addi    r4,r30,0xff8c
    1dd4:	a8 ff be 30 	lw      r5,0xffa8(r30)
    1dd8:	98 2c 00 c0 	ajal    0x0000b260
    1ddc:	8c ff 9e 30 	lw      r4,0xff8c(r30)
    1de0:	3c ff 9e 34 	sw      0xff3c(r30),r4
    1de4:	90 ff be 30 	lw      r5,0xff90(r30)
    1de8:	40 ff be 34 	sw      0xff40(r30),r5
    1dec:	a8 ff be 30 	lw      r5,0xffa8(r30)
    1df0:	00 00 80 18 	ori     r4,r0,0x0000
    1df4:	02 20 05 00 	sub     r0,r5,r4
    1df8:	13 00 80 42 	bge     0x00001e44
    1dfc:	94 ff de 04 	addi    r6,r30,0xff94
    1e00:	00 00 80 18 	ori     r4,r0,0x0000
    1e04:	f0 41 a0 2c 	ldih    r5,0x41f0
    1e08:	00 00 a5 18 	ori     r5,r5,0x0000
    1e0c:	00 00 9d 34 	sw      0x0000(r29),r4
    1e10:	04 00 bd 34 	sw      0x0004(r29),r5
    1e14:	05 30 80 00 	orr     r4,r0,r6
    1e18:	3c ff be 30 	lw      r5,0xff3c(r30)
    1e1c:	40 ff de 30 	lw      r6,0xff40(r30)
    1e20:	88 2b 00 c0 	ajal    0x0000ae20
    1e24:	94 ff de 30 	lw      r6,0xff94(r30)
    1e28:	34 ff de 34 	sw      0xff34(r30),r6
    1e2c:	98 ff fe 30 	lw      r7,0xff98(r30)
    1e30:	38 ff fe 34 	sw      0xff38(r30),r7
    1e34:	34 ff 9e 30 	lw      r4,0xff34(r30)
    1e38:	3c ff 9e 34 	sw      0xff3c(r30),r4
    1e3c:	38 ff be 30 	lw      r5,0xff38(r30)
    1e40:	40 ff be 34 	sw      0xff40(r30),r5
    1e44:	01 00 a0 2c 	ldih    r5,0x0001
    1e48:	a0 6e a5 18 	ori     r5,r5,0x6ea0
    1e4c:	0c 00 9e 30 	lw      r4,0x000c(r30)
    1e50:	03 00 84 20 	lsli    r4,r4,0x0003
    1e54:	00 28 84 00 	add     r4,r4,r5
    1e58:	00 00 c4 30 	lw      r6,0x0000(r4)
    1e5c:	2c ff de 34 	sw      0xff2c(r30),r6
    1e60:	04 00 84 30 	lw      r4,0x0004(r4)
    1e64:	30 ff 9e 34 	sw      0xff30(r30),r4
    1e68:	3c ff 9e 30 	lw      r4,0xff3c(r30)
    1e6c:	40 ff be 30 	lw      r5,0xff40(r30)
    1e70:	2c ff de 30 	lw      r6,0xff2c(r30)
    1e74:	30 ff fe 30 	lw      r7,0xff30(r30)
    1e78:	24 31 00 c0 	ajal    0x0000c490
    1e7c:	05 10 a0 00 	orr     r5,r0,r2
    1e80:	00 00 80 18 	ori     r4,r0,0x0000
    1e84:	02 20 05 00 	sub     r0,r5,r4
    1e88:	02 00 80 42 	bge     0x00001e90
    1e8c:	c2 07 00 80 	ajmp    0x00001f08
    1e90:	00 00 80 18 	ori     r4,r0,0x0000
    1e94:	a8 ff 9e 34 	sw      0xffa8(r30),r4
    1e98:	b4 ff 9e 30 	lw      r4,0xffb4(r30)
    1e9c:	01 00 84 04 	addi    r4,r4,0x0001
    1ea0:	b4 ff 9e 34 	sw      0xffb4(r30),r4
    1ea4:	c2 07 00 80 	ajmp    0x00001f08
    1ea8:	bc ff 9e 30 	lw      r4,0xffbc(r30)
    1eac:	c0 ff be 30 	lw      r5,0xffc0(r30)
    1eb0:	00 00 c0 18 	ori     r6,r0,0x0000
    1eb4:	e0 3f e0 2c 	ldih    r7,0x3fe0
    1eb8:	00 00 e7 18 	ori     r7,r7,0x0000
    1ebc:	74 31 00 c0 	ajal    0x0000c5d0
    1ec0:	05 10 a0 00 	orr     r5,r0,r2
    1ec4:	00 00 80 18 	ori     r4,r0,0x0000
    1ec8:	02 20 05 00 	sub     r0,r5,r4
    1ecc:	02 00 00 40 	beq     0x00001ed4
    1ed0:	c2 07 00 80 	ajmp    0x00001f08
    1ed4:	a8 ff be 30 	lw      r5,0xffa8(r30)
    1ed8:	00 00 80 18 	ori     r4,r0,0x0000
    1edc:	02 20 05 00 	sub     r0,r5,r4
    1ee0:	07 00 00 40 	beq     0x00001efc
    1ee4:	a8 ff 9e 30 	lw      r4,0xffa8(r30)
    1ee8:	01 00 a4 14 	andi    r5,r4,0x0001
    1eec:	00 00 80 18 	ori     r4,r0,0x0000
    1ef0:	02 20 05 00 	sub     r0,r5,r4
    1ef4:	02 00 40 40 	bne     0x00001efc
    1ef8:	c2 07 00 80 	ajmp    0x00001f08
    1efc:	a8 ff 9e 30 	lw      r4,0xffa8(r30)
    1f00:	01 00 84 04 	addi    r4,r4,0x0001
    1f04:	a8 ff 9e 34 	sw      0xffa8(r30),r4
    1f08:	f8 ff 9e 30 	lw      r4,0xfff8(r30)
    1f0c:	fc ff be 30 	lw      r5,0xfffc(r30)
    1f10:	e8 ff de 30 	lw      r6,0xffe8(r30)
    1f14:	ec ff fe 30 	lw      r7,0xffec(r30)
    1f18:	d4 30 00 c0 	ajal    0x0000c350
    1f1c:	05 10 a0 00 	orr     r5,r0,r2
    1f20:	00 00 80 18 	ori     r4,r0,0x0000
    1f24:	02 20 05 00 	sub     r0,r5,r4
    1f28:	02 00 00 43 	bgt     0x00001f30
    1f2c:	cf 07 00 80 	ajmp    0x00001f3c
    1f30:	00 00 e0 18 	ori     r7,r0,0x0000
    1f34:	84 ff fe 34 	sw      0xff84(r30),r7
    1f38:	1b 09 00 80 	ajmp    0x0000246c
    1f3c:	0c 00 be 30 	lw      r5,0x000c(r30)
    1f40:	00 00 80 18 	ori     r4,r0,0x0000
    1f44:	02 20 05 00 	sub     r0,r5,r4
    1f48:	3b 00 40 40 	bne     0x00002034
    1f4c:	8c ff 9e 04 	addi    r4,r30,0xff8c
    1f50:	b4 ff be 30 	lw      r5,0xffb4(r30)
    1f54:	98 2c 00 c0 	ajal    0x0000b260
    1f58:	8c ff 9e 30 	lw      r4,0xff8c(r30)
    1f5c:	24 ff 9e 34 	sw      0xff24(r30),r4
    1f60:	90 ff be 30 	lw      r5,0xff90(r30)
    1f64:	28 ff be 34 	sw      0xff28(r30),r5
    1f68:	94 ff 9e 04 	addi    r4,r30,0xff94
    1f6c:	24 ff de 30 	lw      r6,0xff24(r30)
    1f70:	00 00 dd 34 	sw      0x0000(r29),r6
    1f74:	28 ff fe 30 	lw      r7,0xff28(r30)
    1f78:	04 00 fd 34 	sw      0x0004(r29),r7
    1f7c:	f8 ff be 30 	lw      r5,0xfff8(r30)
    1f80:	fc ff de 30 	lw      r6,0xfffc(r30)
    1f84:	b0 2b 00 c0 	ajal    0x0000aec0
    1f88:	94 ff 9e 30 	lw      r4,0xff94(r30)
    1f8c:	1c ff 9e 34 	sw      0xff1c(r30),r4
    1f90:	98 ff be 30 	lw      r5,0xff98(r30)
    1f94:	20 ff be 34 	sw      0xff20(r30),r5
    1f98:	1c ff de 30 	lw      r6,0xff1c(r30)
    1f9c:	bc ff de 34 	sw      0xffbc(r30),r6
    1fa0:	20 ff fe 30 	lw      r7,0xff20(r30)
    1fa4:	c0 ff fe 34 	sw      0xffc0(r30),r7
    1fa8:	bc ff 9e 30 	lw      r4,0xffbc(r30)
    1fac:	c0 ff be 30 	lw      r5,0xffc0(r30)
    1fb0:	00 00 c0 18 	ori     r6,r0,0x0000
    1fb4:	e0 3f e0 2c 	ldih    r7,0x3fe0
    1fb8:	00 00 e7 18 	ori     r7,r7,0x0000
    1fbc:	d4 30 00 c0 	ajal    0x0000c350
    1fc0:	05 10 a0 00 	orr     r5,r0,r2
    1fc4:	00 00 80 18 	ori     r4,r0,0x0000
    1fc8:	02 20 05 00 	sub     r0,r5,r4
    1fcc:	02 00 00 43 	bgt     0x00001fd4
    1fd0:	f9 07 00 80 	ajmp    0x00001fe4
    1fd4:	b4 ff 9e 30 	lw      r4,0xffb4(r30)
    1fd8:	01 00 84 04 	addi    r4,r4,0x0001
    1fdc:	b4 ff 9e 34 	sw      0xffb4(r30),r4
    1fe0:	4e 08 00 80 	ajmp    0x00002138
    1fe4:	bc ff 9e 30 	lw      r4,0xffbc(r30)
    1fe8:	c0 ff be 30 	lw      r5,0xffc0(r30)
    1fec:	00 00 c0 18 	ori     r6,r0,0x0000
    1ff0:	e0 3f e0 2c 	ldih    r7,0x3fe0
    1ff4:	00 00 e7 18 	ori     r7,r7,0x0000
    1ff8:	74 31 00 c0 	ajal    0x0000c5d0
    1ffc:	05 10 a0 00 	orr     r5,r0,r2
    2000:	00 00 80 18 	ori     r4,r0,0x0000
    2004:	02 20 05 00 	sub     r0,r5,r4
    2008:	02 00 00 40 	beq     0x00002010
    200c:	4e 08 00 80 	ajmp    0x00002138
    2010:	b4 ff 9e 30 	lw      r4,0xffb4(r30)
    2014:	01 00 a4 14 	andi    r5,r4,0x0001
    2018:	00 00 80 18 	ori     r4,r0,0x0000
    201c:	02 20 05 00 	sub     r0,r5,r4
    2020:	46 00 00 40 	beq     0x00002138
    2024:	b4 ff 9e 30 	lw      r4,0xffb4(r30)
    2028:	01 00 84 04 	addi    r4,r4,0x0001
    202c:	b4 ff 9e 34 	sw      0xffb4(r30),r4
    2030:	4e 08 00 80 	ajmp    0x00002138
    2034:	0c 00 9e 30 	lw      r4,0x000c(r30)
    2038:	88 ff 9e 34 	sw      0xff88(r30),r4
    203c:	88 ff 9e 30 	lw      r4,0xff88(r30)
    2040:	ff ff 84 04 	addi    r4,r4,0xffff
    2044:	88 ff 9e 34 	sw      0xff88(r30),r4
    2048:	c4 ff fe 04 	addi    r7,r30,0xffc4
    204c:	00 00 c7 30 	lw      r6,0x0000(r7)
    2050:	05 30 80 00 	orr     r4,r0,r6
    2054:	00 f0 84 00 	add     r4,r4,r30
    2058:	c8 ff 04 05 	addi    r8,r4,0xffc8
    205c:	a8 ff be 30 	lw      r5,0xffa8(r30)
    2060:	0a 00 80 18 	ori     r4,r0,0x000a
    2064:	0f 20 85 00 	modu    r4,r5,r4
    2068:	30 00 84 04 	addi    r4,r4,0x0030
    206c:	00 00 88 3c 	sb      0x0000(r8),r4
    2070:	01 00 c6 04 	addi    r6,r6,0x0001
    2074:	00 00 c7 34 	sw      0x0000(r7),r6
    2078:	c4 ff be 30 	lw      r5,0xffc4(r30)
    207c:	1f 00 80 18 	ori     r4,r0,0x001f
    2080:	02 20 05 00 	sub     r0,r5,r4
    2084:	0a 00 00 42 	bhi     0x000020ac
    2088:	a8 ff be 30 	lw      r5,0xffa8(r30)
    208c:	0a 00 80 18 	ori     r4,r0,0x000a
    2090:	0e 20 85 00 	divu    r4,r5,r4
    2094:	05 20 a0 00 	orr     r5,r0,r4
    2098:	a8 ff be 34 	sw      0xffa8(r30),r5
    209c:	00 00 80 18 	ori     r4,r0,0x0000
    20a0:	02 20 05 00 	sub     r0,r5,r4
    20a4:	02 00 00 40 	beq     0x000020ac
    20a8:	0f 08 00 80 	ajmp    0x0000203c
    20ac:	c4 ff be 30 	lw      r5,0xffc4(r30)
    20b0:	1f 00 80 18 	ori     r4,r0,0x001f
    20b4:	02 20 05 00 	sub     r0,r5,r4
    20b8:	13 00 00 42 	bhi     0x00002104
    20bc:	88 ff 9e 30 	lw      r4,0xff88(r30)
    20c0:	ff ff 84 04 	addi    r4,r4,0xffff
    20c4:	05 20 a0 00 	orr     r5,r0,r4
    20c8:	88 ff be 34 	sw      0xff88(r30),r5
    20cc:	ff ff 80 2c 	ldih    r4,0xffff
    20d0:	ff ff 84 18 	ori     r4,r4,0xffff
    20d4:	02 20 05 00 	sub     r0,r5,r4
    20d8:	0b 00 00 40 	beq     0x00002104
    20dc:	c4 ff de 04 	addi    r6,r30,0xffc4
    20e0:	00 00 a6 30 	lw      r5,0x0000(r6)
    20e4:	05 28 80 00 	orr     r4,r0,r5
    20e8:	00 f0 84 00 	add     r4,r4,r30
    20ec:	c8 ff 84 04 	addi    r4,r4,0xffc8
    20f0:	30 00 e0 18 	ori     r7,r0,0x0030
    20f4:	00 00 e4 3c 	sb      0x0000(r4),r7
    20f8:	01 00 a5 04 	addi    r5,r5,0x0001
    20fc:	00 00 a6 34 	sw      0x0000(r6),r5
    2100:	2b 08 00 80 	ajmp    0x000020ac
    2104:	c4 ff be 30 	lw      r5,0xffc4(r30)
    2108:	1f 00 80 18 	ori     r4,r0,0x001f
    210c:	02 20 05 00 	sub     r0,r5,r4
    2110:	0a 00 00 42 	bhi     0x00002138
    2114:	c4 ff de 04 	addi    r6,r30,0xffc4
    2118:	00 00 a6 30 	lw      r5,0x0000(r6)
    211c:	05 28 80 00 	orr     r4,r0,r5
    2120:	00 f0 84 00 	add     r4,r4,r30
    2124:	c8 ff 84 04 	addi    r4,r4,0xffc8
    2128:	2e 00 e0 18 	ori     r7,r0,0x002e
    212c:	00 00 e4 3c 	sb      0x0000(r4),r7
    2130:	01 00 a5 04 	addi    r5,r5,0x0001
    2134:	00 00 a6 34 	sw      0x0000(r6),r5
    2138:	c4 ff be 30 	lw      r5,0xffc4(r30)
    213c:	1f 00 80 18 	ori     r4,r0,0x001f
    2140:	02 20 05 00 	sub     r0,r5,r4
    2144:	15 00 00 42 	bhi     0x00002198
    2148:	c4 ff fe 04 	addi    r7,r30,0xffc4
    214c:	00 00 c7 30 	lw      r6,0x0000(r7)
    2150:	05 30 80 00 	orr     r4,r0,r6
    2154:	00 f0 84 00 	add     r4,r4,r30
    2158:	c8 ff 04 05 	addi    r8,r4,0xffc8
    215c:	b4 ff be 30 	lw      r5,0xffb4(r30)
    2160:	0a 00 80 18 	ori     r4,r0,0x000a
    2164:	0c 20 85 00 	mod     r4,r5,r4
    2168:	30 00 84 04 	addi    r4,r4,0x0030
    216c:	00 00 88 3c 	sb      0x0000(r8),r4
    2170:	01 00 c6 04 	addi    r6,r6,0x0001
    2174:	00 00 c7 34 	sw      0x0000(r7),r6
    2178:	b4 ff be 30 	lw      r5,0xffb4(r30)
    217c:	0a 00 80 18 	ori     r4,r0,0x000a
    2180:	0b 20 85 00 	div     r4,r5,r4
    2184:	05 20 a0 00 	orr     r5,r0,r4
    2188:	b4 ff be 34 	sw      0xffb4(r30),r5
    218c:	00 00 80 18 	ori     r4,r0,0x0000
    2190:	02 20 05 00 	sub     r0,r5,r4
    2194:	e9 ff 7f 40 	bne     0x00002138
    2198:	14 00 9e 30 	lw      r4,0x0014(r30)
    219c:	01 00 84 24 	lsri    r4,r4,0x0001
    21a0:	01 00 a4 14 	andi    r5,r4,0x0001
    21a4:	00 00 80 18 	ori     r4,r0,0x0000
    21a8:	02 20 05 00 	sub     r0,r5,r4
    21ac:	13 00 40 40 	bne     0x000021f8
    21b0:	c4 ff be 30 	lw      r5,0xffc4(r30)
    21b4:	0c 00 9e 30 	lw      r4,0x000c(r30)
    21b8:	02 20 05 00 	sub     r0,r5,r4
    21bc:	0f 00 00 41 	bhs     0x000021f8
    21c0:	c4 ff be 30 	lw      r5,0xffc4(r30)
    21c4:	1f 00 80 18 	ori     r4,r0,0x001f
    21c8:	02 20 05 00 	sub     r0,r5,r4
    21cc:	0b 00 00 42 	bhi     0x000021f8
    21d0:	c4 ff de 04 	addi    r6,r30,0xffc4
    21d4:	00 00 a6 30 	lw      r5,0x0000(r6)
    21d8:	05 28 80 00 	orr     r4,r0,r5
    21dc:	00 f0 84 00 	add     r4,r4,r30
    21e0:	c8 ff 84 04 	addi    r4,r4,0xffc8
    21e4:	30 00 e0 18 	ori     r7,r0,0x0030
    21e8:	00 00 e4 3c 	sb      0x0000(r4),r7
    21ec:	01 00 a5 04 	addi    r5,r5,0x0001
    21f0:	00 00 a6 34 	sw      0x0000(r6),r5
    21f4:	66 08 00 80 	ajmp    0x00002198
    21f8:	14 00 9e 30 	lw      r4,0x0014(r30)
    21fc:	01 00 84 24 	lsri    r4,r4,0x0001
    2200:	01 00 a4 14 	andi    r5,r4,0x0001
    2204:	00 00 80 18 	ori     r4,r0,0x0000
    2208:	02 20 05 00 	sub     r0,r5,r4
    220c:	18 00 40 40 	bne     0x0000226c
    2210:	14 00 9e 30 	lw      r4,0x0014(r30)
    2214:	01 00 a4 14 	andi    r5,r4,0x0001
    2218:	00 00 80 18 	ori     r4,r0,0x0000
    221c:	02 20 05 00 	sub     r0,r5,r4
    2220:	13 00 00 40 	beq     0x0000226c
    2224:	c4 ff be 30 	lw      r5,0xffc4(r30)
    2228:	10 00 9e 30 	lw      r4,0x0010(r30)
    222c:	02 20 05 00 	sub     r0,r5,r4
    2230:	0f 00 00 41 	bhs     0x0000226c
    2234:	c4 ff be 30 	lw      r5,0xffc4(r30)
    2238:	1f 00 80 18 	ori     r4,r0,0x001f
    223c:	02 20 05 00 	sub     r0,r5,r4
    2240:	0b 00 00 42 	bhi     0x0000226c
    2244:	c4 ff de 04 	addi    r6,r30,0xffc4
    2248:	00 00 a6 30 	lw      r5,0x0000(r6)
    224c:	05 28 80 00 	orr     r4,r0,r5
    2250:	00 f0 84 00 	add     r4,r4,r30
    2254:	c8 ff 84 04 	addi    r4,r4,0xffc8
    2258:	30 00 e0 18 	ori     r7,r0,0x0030
    225c:	00 00 e4 3c 	sb      0x0000(r4),r7
    2260:	01 00 a5 04 	addi    r5,r5,0x0001
    2264:	00 00 a6 34 	sw      0x0000(r6),r5
    2268:	7e 08 00 80 	ajmp    0x000021f8
    226c:	c4 ff be 30 	lw      r5,0xffc4(r30)
    2270:	1f 00 80 18 	ori     r4,r0,0x001f
    2274:	02 20 05 00 	sub     r0,r5,r4
    2278:	2e 00 00 42 	bhi     0x00002330
    227c:	b8 ff be 30 	lw      r5,0xffb8(r30)
    2280:	00 00 80 18 	ori     r4,r0,0x0000
    2284:	02 20 05 00 	sub     r0,r5,r4
    2288:	0b 00 00 40 	beq     0x000022b4
    228c:	c4 ff de 04 	addi    r6,r30,0xffc4
    2290:	00 00 a6 30 	lw      r5,0x0000(r6)
    2294:	05 28 80 00 	orr     r4,r0,r5
    2298:	00 f0 84 00 	add     r4,r4,r30
    229c:	c8 ff 84 04 	addi    r4,r4,0xffc8
    22a0:	2d 00 e0 18 	ori     r7,r0,0x002d
    22a4:	00 00 e4 3c 	sb      0x0000(r4),r7
    22a8:	01 00 a5 04 	addi    r5,r5,0x0001
    22ac:	00 00 a6 34 	sw      0x0000(r6),r5
    22b0:	cc 08 00 80 	ajmp    0x00002330
    22b4:	14 00 9e 30 	lw      r4,0x0014(r30)
    22b8:	02 00 84 24 	lsri    r4,r4,0x0002
    22bc:	01 00 a4 14 	andi    r5,r4,0x0001
    22c0:	00 00 80 18 	ori     r4,r0,0x0000
    22c4:	02 20 05 00 	sub     r0,r5,r4
    22c8:	0b 00 00 40 	beq     0x000022f4
    22cc:	c4 ff de 04 	addi    r6,r30,0xffc4
    22d0:	00 00 a6 30 	lw      r5,0x0000(r6)
    22d4:	05 28 80 00 	orr     r4,r0,r5
    22d8:	00 f0 84 00 	add     r4,r4,r30
    22dc:	c8 ff 84 04 	addi    r4,r4,0xffc8
    22e0:	2b 00 e0 18 	ori     r7,r0,0x002b
    22e4:	00 00 e4 3c 	sb      0x0000(r4),r7
    22e8:	01 00 a5 04 	addi    r5,r5,0x0001
    22ec:	00 00 a6 34 	sw      0x0000(r6),r5
    22f0:	cc 08 00 80 	ajmp    0x00002330
    22f4:	14 00 9e 30 	lw      r4,0x0014(r30)
    22f8:	03 00 84 24 	lsri    r4,r4,0x0003
    22fc:	01 00 a4 14 	andi    r5,r4,0x0001
    2300:	00 00 80 18 	ori     r4,r0,0x0000
    2304:	02 20 05 00 	sub     r0,r5,r4
    2308:	0a 00 00 40 	beq     0x00002330
    230c:	c4 ff de 04 	addi    r6,r30,0xffc4
    2310:	00 00 a6 30 	lw      r5,0x0000(r6)
    2314:	05 28 80 00 	orr     r4,r0,r5
    2318:	00 f0 84 00 	add     r4,r4,r30
    231c:	c8 ff 84 04 	addi    r4,r4,0xffc8
    2320:	20 00 e0 18 	ori     r7,r0,0x0020
    2324:	00 00 e4 3c 	sb      0x0000(r4),r7
    2328:	01 00 a5 04 	addi    r5,r5,0x0001
    232c:	00 00 a6 34 	sw      0x0000(r6),r5
    2330:	14 00 9e 30 	lw      r4,0x0014(r30)
    2334:	01 00 84 24 	lsri    r4,r4,0x0001
    2338:	01 00 a4 14 	andi    r5,r4,0x0001
    233c:	00 00 80 18 	ori     r4,r0,0x0000
    2340:	02 20 05 00 	sub     r0,r5,r4
    2344:	18 00 40 40 	bne     0x000023a4
    2348:	14 00 9e 30 	lw      r4,0x0014(r30)
    234c:	01 00 a4 14 	andi    r5,r4,0x0001
    2350:	00 00 80 18 	ori     r4,r0,0x0000
    2354:	02 20 05 00 	sub     r0,r5,r4
    2358:	13 00 40 40 	bne     0x000023a4
    235c:	c4 ff be 30 	lw      r5,0xffc4(r30)
    2360:	10 00 9e 30 	lw      r4,0x0010(r30)
    2364:	02 20 05 00 	sub     r0,r5,r4
    2368:	0f 00 00 41 	bhs     0x000023a4
    236c:	c4 ff be 30 	lw      r5,0xffc4(r30)
    2370:	1f 00 80 18 	ori     r4,r0,0x001f
    2374:	02 20 05 00 	sub     r0,r5,r4
    2378:	0b 00 00 42 	bhi     0x000023a4
    237c:	c4 ff de 04 	addi    r6,r30,0xffc4
    2380:	00 00 a6 30 	lw      r5,0x0000(r6)
    2384:	05 28 80 00 	orr     r4,r0,r5
    2388:	00 f0 84 00 	add     r4,r4,r30
    238c:	c8 ff 84 04 	addi    r4,r4,0xffc8
    2390:	20 00 e0 18 	ori     r7,r0,0x0020
    2394:	00 00 e4 3c 	sb      0x0000(r4),r7
    2398:	01 00 a5 04 	addi    r5,r5,0x0001
    239c:	00 00 a6 34 	sw      0x0000(r6),r5
    23a0:	d7 08 00 80 	ajmp    0x0000235c
    23a4:	00 00 80 18 	ori     r4,r0,0x0000
    23a8:	a4 ff 9e 34 	sw      0xffa4(r30),r4
    23ac:	a4 ff be 30 	lw      r5,0xffa4(r30)
    23b0:	c4 ff 9e 30 	lw      r4,0xffc4(r30)
    23b4:	02 20 05 00 	sub     r0,r5,r4
    23b8:	13 00 00 41 	bhs     0x00002404
    23bc:	a4 ff be 30 	lw      r5,0xffa4(r30)
    23c0:	f0 ff 9e 30 	lw      r4,0xfff0(r30)
    23c4:	02 20 05 00 	sub     r0,r5,r4
    23c8:	0f 00 00 41 	bhs     0x00002404
    23cc:	f4 ff be 30 	lw      r5,0xfff4(r30)
    23d0:	a4 ff 9e 30 	lw      r4,0xffa4(r30)
    23d4:	00 20 c5 00 	add     r6,r5,r4
    23d8:	c4 ff be 30 	lw      r5,0xffc4(r30)
    23dc:	a4 ff 9e 30 	lw      r4,0xffa4(r30)
    23e0:	02 20 a5 00 	sub     r5,r5,r4
    23e4:	c7 ff 9e 04 	addi    r4,r30,0xffc7
    23e8:	00 28 84 00 	add     r4,r4,r5
    23ec:	00 00 84 38 	lb      r4,0x0000(r4)
    23f0:	00 00 86 3c 	sb      0x0000(r6),r4
    23f4:	a4 ff 9e 30 	lw      r4,0xffa4(r30)
    23f8:	01 00 84 04 	addi    r4,r4,0x0001
    23fc:	a4 ff 9e 34 	sw      0xffa4(r30),r4
    2400:	eb 08 00 80 	ajmp    0x000023ac
    2404:	14 00 9e 30 	lw      r4,0x0014(r30)
    2408:	01 00 84 24 	lsri    r4,r4,0x0001
    240c:	01 00 a4 14 	andi    r5,r4,0x0001
    2410:	00 00 80 18 	ori     r4,r0,0x0000
    2414:	02 20 05 00 	sub     r0,r5,r4
    2418:	13 00 00 40 	beq     0x00002464
    241c:	c4 ff be 30 	lw      r5,0xffc4(r30)
    2420:	10 00 9e 30 	lw      r4,0x0010(r30)
    2424:	02 20 05 00 	sub     r0,r5,r4
    2428:	0f 00 00 41 	bhs     0x00002464
    242c:	c4 ff be 30 	lw      r5,0xffc4(r30)
    2430:	f0 ff 9e 30 	lw      r4,0xfff0(r30)
    2434:	02 20 05 00 	sub     r0,r5,r4
    2438:	0b 00 00 41 	bhs     0x00002464
    243c:	c4 ff fe 04 	addi    r7,r30,0xffc4
    2440:	00 00 a7 30 	lw      r5,0x0000(r7)
    2444:	05 28 c0 00 	orr     r6,r0,r5
    2448:	f4 ff 9e 30 	lw      r4,0xfff4(r30)
    244c:	00 20 86 00 	add     r4,r6,r4
    2450:	20 00 c0 18 	ori     r6,r0,0x0020
    2454:	00 00 c4 3c 	sb      0x0000(r4),r6
    2458:	01 00 a5 04 	addi    r5,r5,0x0001
    245c:	00 00 a7 34 	sw      0x0000(r7),r5
    2460:	07 09 00 80 	ajmp    0x0000241c
    2464:	c4 ff 9e 30 	lw      r4,0xffc4(r30)
    2468:	84 ff 9e 34 	sw      0xff84(r30),r4
    246c:	84 ff 5e 30 	lw      r2,0xff84(r30)
    2470:	ec 00 bd 07 	addi    r29,r29,0x00ec
    2474:	05 f0 a0 03 	orr     r29,r0,r30
    2478:	0c 00 bd 07 	addi    r29,r29,0x000c
    247c:	fc ff 1d 31 	lw      r8,0xfffc(r29)
    2480:	f8 ff fd 33 	lw      r31,0xfff8(r29)
    2484:	f4 ff dd 33 	lw      r30,0xfff4(r29)
    2488:	00 00 e0 47 	jmpr    r31
    248c:	00 00 00 00 	nop

00002490 <vsnprintf>:
    2490:	f0 ff bd 07 	addi    r29,r29,0xfff0
    2494:	00 00 dd 37 	sw      0x0000(r29),r30
    2498:	04 00 fd 37 	sw      0x0004(r29),r31
    249c:	08 00 3d 35 	sw      0x0008(r29),r9
    24a0:	0c 00 1d 35 	sw      0x000c(r29),r8
    24a4:	05 e8 c0 03 	orr     r30,r0,r29
    24a8:	b8 ff bd 07 	addi    r29,r29,0xffb8
    24ac:	fc ff 9e 34 	sw      0xfffc(r30),r4
    24b0:	f8 ff be 34 	sw      0xfff8(r30),r5
    24b4:	f4 ff de 34 	sw      0xfff4(r30),r6
    24b8:	f0 ff fe 34 	sw      0xfff0(r30),r7
    24bc:	00 00 80 18 	ori     r4,r0,0x0000
    24c0:	dc ff 9e 34 	sw      0xffdc(r30),r4
    24c4:	dc ff be 30 	lw      r5,0xffdc(r30)
    24c8:	f8 ff 9e 30 	lw      r4,0xfff8(r30)
    24cc:	02 20 05 00 	sub     r0,r5,r4
    24d0:	09 03 00 41 	bhs     0x000030f4
    24d4:	f4 ff 9e 30 	lw      r4,0xfff4(r30)
    24d8:	00 00 84 38 	lb      r4,0x0000(r4)
    24dc:	18 00 84 20 	lsli    r4,r4,0x0018
    24e0:	18 00 84 24 	lsri    r4,r4,0x0018
    24e4:	00 00 a0 18 	ori     r5,r0,0x0000
    24e8:	02 28 04 00 	sub     r0,r4,r5
    24ec:	07 00 40 40 	bne     0x00002508
    24f0:	fc ff 9e 30 	lw      r4,0xfffc(r30)
    24f4:	dc ff be 30 	lw      r5,0xffdc(r30)
    24f8:	00 28 84 00 	add     r4,r4,r5
    24fc:	00 00 a0 18 	ori     r5,r0,0x0000
    2500:	00 00 a4 3c 	sb      0x0000(r4),r5
    2504:	3d 0c 00 80 	ajmp    0x000030f4
    2508:	f4 ff 9e 30 	lw      r4,0xfff4(r30)
    250c:	00 00 84 38 	lb      r4,0x0000(r4)
    2510:	18 00 84 20 	lsli    r4,r4,0x0018
    2514:	18 00 84 24 	lsri    r4,r4,0x0018
    2518:	25 00 a0 18 	ori     r5,r0,0x0025
    251c:	02 28 04 00 	sub     r0,r4,r5
    2520:	0f 00 00 40 	beq     0x0000255c
    2524:	dc ff fe 04 	addi    r7,r30,0xffdc
    2528:	00 00 a7 30 	lw      r5,0x0000(r7)
    252c:	05 28 c0 00 	orr     r6,r0,r5
    2530:	fc ff 9e 30 	lw      r4,0xfffc(r30)
    2534:	00 20 c6 00 	add     r6,r6,r4
    2538:	f4 ff 9e 30 	lw      r4,0xfff4(r30)
    253c:	00 00 84 38 	lb      r4,0x0000(r4)
    2540:	00 00 86 3c 	sb      0x0000(r6),r4
    2544:	01 00 a5 04 	addi    r5,r5,0x0001
    2548:	00 00 a7 34 	sw      0x0000(r7),r5
    254c:	f4 ff 9e 30 	lw      r4,0xfff4(r30)
    2550:	01 00 84 04 	addi    r4,r4,0x0001
    2554:	f4 ff 9e 34 	sw      0xfff4(r30),r4
    2558:	31 09 00 80 	ajmp    0x000024c4
    255c:	f4 ff 9e 30 	lw      r4,0xfff4(r30)
    2560:	01 00 84 04 	addi    r4,r4,0x0001
    2564:	f4 ff 9e 34 	sw      0xfff4(r30),r4
    2568:	00 00 80 18 	ori     r4,r0,0x0000
    256c:	ec ff 9e 34 	sw      0xffec(r30),r4
    2570:	f4 ff 9e 30 	lw      r4,0xfff4(r30)
    2574:	00 00 84 38 	lb      r4,0x0000(r4)
    2578:	18 00 84 20 	lsli    r4,r4,0x0018
    257c:	18 00 84 24 	lsri    r4,r4,0x0018
    2580:	e0 ff 84 04 	addi    r4,r4,0xffe0
    2584:	d0 ff 9e 34 	sw      0xffd0(r30),r4
    2588:	10 00 80 18 	ori     r4,r0,0x0010
    258c:	d0 ff de 30 	lw      r6,0xffd0(r30)
    2590:	02 20 06 00 	sub     r0,r6,r4
    2594:	35 00 00 42 	bhi     0x00002668
    2598:	d0 ff 9e 30 	lw      r4,0xffd0(r30)
    259c:	02 00 a4 20 	lsli    r5,r4,0x0002
    25a0:	01 00 80 2c 	ldih    r4,0x0001
    25a4:	f0 6e 84 18 	ori     r4,r4,0x6ef0
    25a8:	00 20 85 00 	add     r4,r5,r4
    25ac:	00 00 84 30 	lw      r4,0x0000(r4)
    25b0:	00 00 80 44 	jmpr    r4
    25b4:	ec ff 9e 30 	lw      r4,0xffec(r30)
    25b8:	01 00 84 18 	ori     r4,r4,0x0001
    25bc:	ec ff 9e 34 	sw      0xffec(r30),r4
    25c0:	f4 ff 9e 30 	lw      r4,0xfff4(r30)
    25c4:	01 00 84 04 	addi    r4,r4,0x0001
    25c8:	f4 ff 9e 34 	sw      0xfff4(r30),r4
    25cc:	01 00 80 18 	ori     r4,r0,0x0001
    25d0:	e0 ff 9e 34 	sw      0xffe0(r30),r4
    25d4:	9c 09 00 80 	ajmp    0x00002670
    25d8:	ec ff 9e 30 	lw      r4,0xffec(r30)
    25dc:	02 00 84 18 	ori     r4,r4,0x0002
    25e0:	ec ff 9e 34 	sw      0xffec(r30),r4
    25e4:	f4 ff 9e 30 	lw      r4,0xfff4(r30)
    25e8:	01 00 84 04 	addi    r4,r4,0x0001
    25ec:	f4 ff 9e 34 	sw      0xfff4(r30),r4
    25f0:	01 00 80 18 	ori     r4,r0,0x0001
    25f4:	e0 ff 9e 34 	sw      0xffe0(r30),r4
    25f8:	9c 09 00 80 	ajmp    0x00002670
    25fc:	ec ff 9e 30 	lw      r4,0xffec(r30)
    2600:	04 00 84 18 	ori     r4,r4,0x0004
    2604:	ec ff 9e 34 	sw      0xffec(r30),r4
    2608:	f4 ff 9e 30 	lw      r4,0xfff4(r30)
    260c:	01 00 84 04 	addi    r4,r4,0x0001
    2610:	f4 ff 9e 34 	sw      0xfff4(r30),r4
    2614:	01 00 80 18 	ori     r4,r0,0x0001
    2618:	e0 ff 9e 34 	sw      0xffe0(r30),r4
    261c:	9c 09 00 80 	ajmp    0x00002670
    2620:	ec ff 9e 30 	lw      r4,0xffec(r30)
    2624:	08 00 84 18 	ori     r4,r4,0x0008
    2628:	ec ff 9e 34 	sw      0xffec(r30),r4
    262c:	f4 ff 9e 30 	lw      r4,0xfff4(r30)
    2630:	01 00 84 04 	addi    r4,r4,0x0001
    2634:	f4 ff 9e 34 	sw      0xfff4(r30),r4
    2638:	01 00 80 18 	ori     r4,r0,0x0001
    263c:	e0 ff 9e 34 	sw      0xffe0(r30),r4
    2640:	9c 09 00 80 	ajmp    0x00002670
    2644:	ec ff 9e 30 	lw      r4,0xffec(r30)
    2648:	10 00 84 18 	ori     r4,r4,0x0010
    264c:	ec ff 9e 34 	sw      0xffec(r30),r4
    2650:	f4 ff 9e 30 	lw      r4,0xfff4(r30)
    2654:	01 00 84 04 	addi    r4,r4,0x0001
    2658:	f4 ff 9e 34 	sw      0xfff4(r30),r4
    265c:	01 00 80 18 	ori     r4,r0,0x0001
    2660:	e0 ff 9e 34 	sw      0xffe0(r30),r4
    2664:	9c 09 00 80 	ajmp    0x00002670
    2668:	00 00 80 18 	ori     r4,r0,0x0000
    266c:	e0 ff 9e 34 	sw      0xffe0(r30),r4
    2670:	e0 ff be 30 	lw      r5,0xffe0(r30)
    2674:	00 00 80 18 	ori     r4,r0,0x0000
    2678:	02 20 05 00 	sub     r0,r5,r4
    267c:	02 00 00 40 	beq     0x00002684
    2680:	5c 09 00 80 	ajmp    0x00002570
    2684:	00 00 80 18 	ori     r4,r0,0x0000
    2688:	e8 ff 9e 34 	sw      0xffe8(r30),r4
    268c:	f4 ff 9e 30 	lw      r4,0xfff4(r30)
    2690:	00 00 84 38 	lb      r4,0x0000(r4)
    2694:	78 04 00 c0 	ajal    0x000011e0
    2698:	05 10 a0 00 	orr     r5,r0,r2
    269c:	00 00 80 18 	ori     r4,r0,0x0000
    26a0:	02 20 05 00 	sub     r0,r5,r4
    26a4:	06 00 00 40 	beq     0x000026bc
    26a8:	f4 ff 9e 04 	addi    r4,r30,0xfff4
    26ac:	94 04 00 c0 	ajal    0x00001250
    26b0:	05 10 80 00 	orr     r4,r0,r2
    26b4:	e8 ff 9e 34 	sw      0xffe8(r30),r4
    26b8:	cc 09 00 80 	ajmp    0x00002730
    26bc:	f4 ff 9e 30 	lw      r4,0xfff4(r30)
    26c0:	00 00 84 38 	lb      r4,0x0000(r4)
    26c4:	18 00 84 20 	lsli    r4,r4,0x0018
    26c8:	18 00 84 24 	lsri    r4,r4,0x0018
    26cc:	2a 00 a0 18 	ori     r5,r0,0x002a
    26d0:	02 28 04 00 	sub     r0,r4,r5
    26d4:	17 00 40 40 	bne     0x00002730
    26d8:	f0 ff be 30 	lw      r5,0xfff0(r30)
    26dc:	f0 ff 9e 30 	lw      r4,0xfff0(r30)
    26e0:	04 00 84 04 	addi    r4,r4,0x0004
    26e4:	f0 ff 9e 34 	sw      0xfff0(r30),r4
    26e8:	00 00 85 30 	lw      r4,0x0000(r5)
    26ec:	d8 ff 9e 34 	sw      0xffd8(r30),r4
    26f0:	d8 ff be 30 	lw      r5,0xffd8(r30)
    26f4:	00 00 80 18 	ori     r4,r0,0x0000
    26f8:	02 20 05 00 	sub     r0,r5,r4
    26fc:	08 00 80 42 	bge     0x0000271c
    2700:	ec ff 9e 30 	lw      r4,0xffec(r30)
    2704:	02 00 84 18 	ori     r4,r4,0x0002
    2708:	ec ff 9e 34 	sw      0xffec(r30),r4
    270c:	d8 ff 9e 30 	lw      r4,0xffd8(r30)
    2710:	02 20 80 00 	sub     r4,r0,r4
    2714:	e8 ff 9e 34 	sw      0xffe8(r30),r4
    2718:	c9 09 00 80 	ajmp    0x00002724
    271c:	d8 ff 9e 30 	lw      r4,0xffd8(r30)
    2720:	e8 ff 9e 34 	sw      0xffe8(r30),r4
    2724:	f4 ff 9e 30 	lw      r4,0xfff4(r30)
    2728:	01 00 84 04 	addi    r4,r4,0x0001
    272c:	f4 ff 9e 34 	sw      0xfff4(r30),r4
    2730:	00 00 80 18 	ori     r4,r0,0x0000
    2734:	e4 ff 9e 34 	sw      0xffe4(r30),r4
    2738:	f4 ff 9e 30 	lw      r4,0xfff4(r30)
    273c:	00 00 84 38 	lb      r4,0x0000(r4)
    2740:	18 00 84 20 	lsli    r4,r4,0x0018
    2744:	18 00 84 24 	lsri    r4,r4,0x0018
    2748:	2e 00 a0 18 	ori     r5,r0,0x002e
    274c:	02 28 04 00 	sub     r0,r4,r5
    2750:	23 00 40 40 	bne     0x000027dc
    2754:	ec ff 9e 30 	lw      r4,0xffec(r30)
    2758:	00 01 84 18 	ori     r4,r4,0x0100
    275c:	ec ff 9e 34 	sw      0xffec(r30),r4
    2760:	f4 ff 9e 30 	lw      r4,0xfff4(r30)
    2764:	01 00 84 04 	addi    r4,r4,0x0001
    2768:	f4 ff 9e 34 	sw      0xfff4(r30),r4
    276c:	f4 ff 9e 30 	lw      r4,0xfff4(r30)
    2770:	00 00 84 38 	lb      r4,0x0000(r4)
    2774:	78 04 00 c0 	ajal    0x000011e0
    2778:	05 10 a0 00 	orr     r5,r0,r2
    277c:	00 00 80 18 	ori     r4,r0,0x0000
    2780:	02 20 05 00 	sub     r0,r5,r4
    2784:	06 00 00 40 	beq     0x0000279c
    2788:	f4 ff 9e 04 	addi    r4,r30,0xfff4
    278c:	94 04 00 c0 	ajal    0x00001250
    2790:	05 10 80 00 	orr     r4,r0,r2
    2794:	e4 ff 9e 34 	sw      0xffe4(r30),r4
    2798:	f7 09 00 80 	ajmp    0x000027dc
    279c:	f4 ff 9e 30 	lw      r4,0xfff4(r30)
    27a0:	00 00 84 38 	lb      r4,0x0000(r4)
    27a4:	18 00 84 20 	lsli    r4,r4,0x0018
    27a8:	18 00 84 24 	lsri    r4,r4,0x0018
    27ac:	2a 00 a0 18 	ori     r5,r0,0x002a
    27b0:	02 28 04 00 	sub     r0,r4,r5
    27b4:	0a 00 40 40 	bne     0x000027dc
    27b8:	f0 ff be 30 	lw      r5,0xfff0(r30)
    27bc:	f0 ff 9e 30 	lw      r4,0xfff0(r30)
    27c0:	04 00 84 04 	addi    r4,r4,0x0004
    27c4:	f0 ff 9e 34 	sw      0xfff0(r30),r4
    27c8:	00 00 85 30 	lw      r4,0x0000(r5)
    27cc:	e4 ff 9e 34 	sw      0xffe4(r30),r4
    27d0:	f4 ff 9e 30 	lw      r4,0xfff4(r30)
    27d4:	01 00 84 04 	addi    r4,r4,0x0001
    27d8:	f4 ff 9e 34 	sw      0xfff4(r30),r4
    27dc:	f4 ff 9e 30 	lw      r4,0xfff4(r30)
    27e0:	00 00 84 38 	lb      r4,0x0000(r4)
    27e4:	18 00 84 20 	lsli    r4,r4,0x0018
    27e8:	18 00 84 24 	lsri    r4,r4,0x0018
    27ec:	6c 00 a0 18 	ori     r5,r0,0x006c
    27f0:	02 28 04 00 	sub     r0,r4,r5
    27f4:	09 00 00 40 	beq     0x00002818
    27f8:	f4 ff 9e 30 	lw      r4,0xfff4(r30)
    27fc:	00 00 84 38 	lb      r4,0x0000(r4)
    2800:	18 00 84 20 	lsli    r4,r4,0x0018
    2804:	18 00 84 24 	lsri    r4,r4,0x0018
    2808:	4c 00 a0 18 	ori     r5,r0,0x004c
    280c:	02 28 04 00 	sub     r0,r4,r5
    2810:	02 00 00 40 	beq     0x00002818
    2814:	0c 0a 00 80 	ajmp    0x00002830
    2818:	ec ff 9e 30 	lw      r4,0xffec(r30)
    281c:	40 00 84 18 	ori     r4,r4,0x0040
    2820:	ec ff 9e 34 	sw      0xffec(r30),r4
    2824:	f4 ff 9e 30 	lw      r4,0xfff4(r30)
    2828:	01 00 84 04 	addi    r4,r4,0x0001
    282c:	f4 ff 9e 34 	sw      0xfff4(r30),r4
    2830:	f4 ff 9e 30 	lw      r4,0xfff4(r30)
    2834:	00 00 84 38 	lb      r4,0x0000(r4)
    2838:	18 00 84 20 	lsli    r4,r4,0x0018
    283c:	18 00 84 24 	lsri    r4,r4,0x0018
    2840:	6c 00 a0 18 	ori     r5,r0,0x006c
    2844:	02 28 04 00 	sub     r0,r4,r5
    2848:	0a 00 40 40 	bne     0x00002870
    284c:	ec ff 9e 30 	lw      r4,0xffec(r30)
    2850:	06 00 84 24 	lsri    r4,r4,0x0006
    2854:	01 00 a4 14 	andi    r5,r4,0x0001
    2858:	00 00 80 18 	ori     r4,r0,0x0000
    285c:	02 20 05 00 	sub     r0,r5,r4
    2860:	04 00 00 40 	beq     0x00002870
    2864:	f4 ff 9e 30 	lw      r4,0xfff4(r30)
    2868:	01 00 84 04 	addi    r4,r4,0x0001
    286c:	f4 ff 9e 34 	sw      0xfff4(r30),r4
    2870:	f4 ff 9e 30 	lw      r4,0xfff4(r30)
    2874:	00 00 84 38 	lb      r4,0x0000(r4)
    2878:	18 00 84 20 	lsli    r4,r4,0x0018
    287c:	18 00 84 24 	lsri    r4,r4,0x0018
    2880:	db ff 84 04 	addi    r4,r4,0xffdb
    2884:	c8 ff 9e 34 	sw      0xffc8(r30),r4
    2888:	53 00 80 18 	ori     r4,r0,0x0053
    288c:	c8 ff be 30 	lw      r5,0xffc8(r30)
    2890:	02 20 05 00 	sub     r0,r5,r4
    2894:	0a 02 00 42 	bhi     0x000030bc
    2898:	c8 ff 9e 30 	lw      r4,0xffc8(r30)
    289c:	02 00 a4 20 	lsli    r5,r4,0x0002
    28a0:	01 00 80 2c 	ldih    r4,0x0001
    28a4:	40 6f 84 18 	ori     r4,r4,0x6f40
    28a8:	00 20 85 00 	add     r4,r5,r4
    28ac:	00 00 84 30 	lw      r4,0x0000(r4)
    28b0:	00 00 80 44 	jmpr    r4
    28b4:	f4 ff 9e 30 	lw      r4,0xfff4(r30)
    28b8:	00 00 84 38 	lb      r4,0x0000(r4)
    28bc:	18 00 84 20 	lsli    r4,r4,0x0018
    28c0:	18 00 84 24 	lsri    r4,r4,0x0018
    28c4:	78 00 a0 18 	ori     r5,r0,0x0078
    28c8:	02 28 04 00 	sub     r0,r4,r5
    28cc:	09 00 00 40 	beq     0x000028f0
    28d0:	f4 ff 9e 30 	lw      r4,0xfff4(r30)
    28d4:	00 00 84 38 	lb      r4,0x0000(r4)
    28d8:	18 00 84 20 	lsli    r4,r4,0x0018
    28dc:	18 00 84 24 	lsri    r4,r4,0x0018
    28e0:	58 00 a0 18 	ori     r5,r0,0x0058
    28e4:	02 28 04 00 	sub     r0,r4,r5
    28e8:	02 00 00 40 	beq     0x000028f0
    28ec:	3f 0a 00 80 	ajmp    0x000028fc
    28f0:	10 00 80 18 	ori     r4,r0,0x0010
    28f4:	d8 ff 9e 34 	sw      0xffd8(r30),r4
    28f8:	5f 0a 00 80 	ajmp    0x0000297c
    28fc:	f4 ff 9e 30 	lw      r4,0xfff4(r30)
    2900:	00 00 84 38 	lb      r4,0x0000(r4)
    2904:	18 00 84 20 	lsli    r4,r4,0x0018
    2908:	18 00 84 24 	lsri    r4,r4,0x0018
    290c:	6f 00 a0 18 	ori     r5,r0,0x006f
    2910:	02 28 04 00 	sub     r0,r4,r5
    2914:	04 00 40 40 	bne     0x00002924
    2918:	08 00 80 18 	ori     r4,r0,0x0008
    291c:	d8 ff 9e 34 	sw      0xffd8(r30),r4
    2920:	5f 0a 00 80 	ajmp    0x0000297c
    2924:	f4 ff 9e 30 	lw      r4,0xfff4(r30)
    2928:	00 00 84 38 	lb      r4,0x0000(r4)
    292c:	18 00 84 20 	lsli    r4,r4,0x0018
    2930:	18 00 84 24 	lsri    r4,r4,0x0018
    2934:	62 00 a0 18 	ori     r5,r0,0x0062
    2938:	02 28 04 00 	sub     r0,r4,r5
    293c:	09 00 40 40 	bne     0x00002960
    2940:	02 00 80 18 	ori     r4,r0,0x0002
    2944:	d8 ff 9e 34 	sw      0xffd8(r30),r4
    2948:	ec ff be 30 	lw      r5,0xffec(r30)
    294c:	ff ff 80 2c 	ldih    r4,0xffff
    2950:	ef ff 84 18 	ori     r4,r4,0xffef
    2954:	04 20 85 00 	and     r4,r5,r4
    2958:	ec ff 9e 34 	sw      0xffec(r30),r4
    295c:	5f 0a 00 80 	ajmp    0x0000297c
    2960:	0a 00 80 18 	ori     r4,r0,0x000a
    2964:	d8 ff 9e 34 	sw      0xffd8(r30),r4
    2968:	ec ff be 30 	lw      r5,0xffec(r30)
    296c:	ff ff 80 2c 	ldih    r4,0xffff
    2970:	ef ff 84 18 	ori     r4,r4,0xffef
    2974:	04 20 85 00 	and     r4,r5,r4
    2978:	ec ff 9e 34 	sw      0xffec(r30),r4
    297c:	f4 ff 9e 30 	lw      r4,0xfff4(r30)
    2980:	00 00 84 38 	lb      r4,0x0000(r4)
    2984:	18 00 84 20 	lsli    r4,r4,0x0018
    2988:	18 00 84 24 	lsri    r4,r4,0x0018
    298c:	58 00 a0 18 	ori     r5,r0,0x0058
    2990:	02 28 04 00 	sub     r0,r4,r5
    2994:	04 00 40 40 	bne     0x000029a4
    2998:	ec ff 9e 30 	lw      r4,0xffec(r30)
    299c:	20 00 84 18 	ori     r4,r4,0x0020
    29a0:	ec ff 9e 34 	sw      0xffec(r30),r4
    29a4:	f4 ff 9e 30 	lw      r4,0xfff4(r30)
    29a8:	00 00 84 38 	lb      r4,0x0000(r4)
    29ac:	18 00 84 20 	lsli    r4,r4,0x0018
    29b0:	18 00 84 24 	lsri    r4,r4,0x0018
    29b4:	69 00 a0 18 	ori     r5,r0,0x0069
    29b8:	02 28 04 00 	sub     r0,r4,r5
    29bc:	0d 00 00 40 	beq     0x000029f0
    29c0:	f4 ff 9e 30 	lw      r4,0xfff4(r30)
    29c4:	00 00 84 38 	lb      r4,0x0000(r4)
    29c8:	18 00 84 20 	lsli    r4,r4,0x0018
    29cc:	18 00 84 24 	lsri    r4,r4,0x0018
    29d0:	64 00 a0 18 	ori     r5,r0,0x0064
    29d4:	02 28 04 00 	sub     r0,r4,r5
    29d8:	06 00 00 40 	beq     0x000029f0
    29dc:	ec ff 9e 30 	lw      r4,0xffec(r30)
    29e0:	ff ff a0 2c 	ldih    r5,0xffff
    29e4:	f3 ff a5 18 	ori     r5,r5,0xfff3
    29e8:	04 28 84 00 	and     r4,r4,r5
    29ec:	ec ff 9e 34 	sw      0xffec(r30),r4
    29f0:	f4 ff 9e 30 	lw      r4,0xfff4(r30)
    29f4:	00 00 84 38 	lb      r4,0x0000(r4)
    29f8:	18 00 84 20 	lsli    r4,r4,0x0018
    29fc:	18 00 84 24 	lsri    r4,r4,0x0018
    2a00:	69 00 a0 18 	ori     r5,r0,0x0069
    2a04:	02 28 04 00 	sub     r0,r4,r5
    2a08:	09 00 00 40 	beq     0x00002a2c
    2a0c:	f4 ff 9e 30 	lw      r4,0xfff4(r30)
    2a10:	00 00 84 38 	lb      r4,0x0000(r4)
    2a14:	18 00 84 20 	lsli    r4,r4,0x0018
    2a18:	18 00 84 24 	lsri    r4,r4,0x0018
    2a1c:	64 00 a0 18 	ori     r5,r0,0x0064
    2a20:	02 28 04 00 	sub     r0,r4,r5
    2a24:	02 00 00 40 	beq     0x00002a2c
    2a28:	c7 0a 00 80 	ajmp    0x00002b1c
    2a2c:	ec ff 9e 30 	lw      r4,0xffec(r30)
    2a30:	06 00 84 24 	lsri    r4,r4,0x0006
    2a34:	01 00 a4 14 	andi    r5,r4,0x0001
    2a38:	00 00 80 18 	ori     r4,r0,0x0000
    2a3c:	02 20 05 00 	sub     r0,r5,r4
    2a40:	1c 00 00 40 	beq     0x00002ab0
    2a44:	f0 ff de 30 	lw      r6,0xfff0(r30)
    2a48:	f0 ff 9e 30 	lw      r4,0xfff0(r30)
    2a4c:	04 00 84 04 	addi    r4,r4,0x0004
    2a50:	f0 ff 9e 34 	sw      0xfff0(r30),r4
    2a54:	fc ff be 30 	lw      r5,0xfffc(r30)
    2a58:	dc ff 9e 30 	lw      r4,0xffdc(r30)
    2a5c:	00 20 e5 00 	add     r7,r5,r4
    2a60:	f8 ff be 30 	lw      r5,0xfff8(r30)
    2a64:	dc ff 9e 30 	lw      r4,0xffdc(r30)
    2a68:	02 20 85 00 	sub     r4,r5,r4
    2a6c:	00 00 9d 34 	sw      0x0000(r29),r4
    2a70:	e4 ff 9e 30 	lw      r4,0xffe4(r30)
    2a74:	04 00 9d 34 	sw      0x0004(r29),r4
    2a78:	e8 ff 9e 30 	lw      r4,0xffe8(r30)
    2a7c:	08 00 9d 34 	sw      0x0008(r29),r4
    2a80:	ec ff 9e 30 	lw      r4,0xffec(r30)
    2a84:	0c 00 9d 34 	sw      0x000c(r29),r4
    2a88:	00 00 80 18 	ori     r4,r0,0x0000
    2a8c:	00 00 a6 30 	lw      r5,0x0000(r6)
    2a90:	05 38 c0 00 	orr     r6,r0,r7
    2a94:	d8 ff fe 30 	lw      r7,0xffd8(r30)
    2a98:	c0 04 00 c0 	ajal    0x00001300
    2a9c:	05 10 a0 00 	orr     r5,r0,r2
    2aa0:	dc ff 9e 30 	lw      r4,0xffdc(r30)
    2aa4:	00 28 84 00 	add     r4,r4,r5
    2aa8:	dc ff 9e 34 	sw      0xffdc(r30),r4
    2aac:	02 0b 00 80 	ajmp    0x00002c08
    2ab0:	f0 ff de 30 	lw      r6,0xfff0(r30)
    2ab4:	f0 ff 9e 30 	lw      r4,0xfff0(r30)
    2ab8:	04 00 84 04 	addi    r4,r4,0x0004
    2abc:	f0 ff 9e 34 	sw      0xfff0(r30),r4
    2ac0:	fc ff be 30 	lw      r5,0xfffc(r30)
    2ac4:	dc ff 9e 30 	lw      r4,0xffdc(r30)
    2ac8:	00 20 e5 00 	add     r7,r5,r4
    2acc:	f8 ff be 30 	lw      r5,0xfff8(r30)
    2ad0:	dc ff 9e 30 	lw      r4,0xffdc(r30)
    2ad4:	02 20 85 00 	sub     r4,r5,r4
    2ad8:	00 00 9d 34 	sw      0x0000(r29),r4
    2adc:	e4 ff 9e 30 	lw      r4,0xffe4(r30)
    2ae0:	04 00 9d 34 	sw      0x0004(r29),r4
    2ae4:	e8 ff 9e 30 	lw      r4,0xffe8(r30)
    2ae8:	08 00 9d 34 	sw      0x0008(r29),r4
    2aec:	ec ff 9e 30 	lw      r4,0xffec(r30)
    2af0:	0c 00 9d 34 	sw      0x000c(r29),r4
    2af4:	00 00 80 18 	ori     r4,r0,0x0000
    2af8:	00 00 a6 30 	lw      r5,0x0000(r6)
    2afc:	05 38 c0 00 	orr     r6,r0,r7
    2b00:	d8 ff fe 30 	lw      r7,0xffd8(r30)
    2b04:	c0 04 00 c0 	ajal    0x00001300
    2b08:	05 10 a0 00 	orr     r5,r0,r2
    2b0c:	dc ff 9e 30 	lw      r4,0xffdc(r30)
    2b10:	00 28 84 00 	add     r4,r4,r5
    2b14:	dc ff 9e 34 	sw      0xffdc(r30),r4
    2b18:	02 0b 00 80 	ajmp    0x00002c08
    2b1c:	ec ff 9e 30 	lw      r4,0xffec(r30)
    2b20:	06 00 84 24 	lsri    r4,r4,0x0006
    2b24:	01 00 a4 14 	andi    r5,r4,0x0001
    2b28:	00 00 80 18 	ori     r4,r0,0x0000
    2b2c:	02 20 05 00 	sub     r0,r5,r4
    2b30:	1c 00 00 40 	beq     0x00002ba0
    2b34:	f0 ff de 30 	lw      r6,0xfff0(r30)
    2b38:	f0 ff 9e 30 	lw      r4,0xfff0(r30)
    2b3c:	04 00 84 04 	addi    r4,r4,0x0004
    2b40:	f0 ff 9e 34 	sw      0xfff0(r30),r4
    2b44:	fc ff be 30 	lw      r5,0xfffc(r30)
    2b48:	dc ff 9e 30 	lw      r4,0xffdc(r30)
    2b4c:	00 20 e5 00 	add     r7,r5,r4
    2b50:	f8 ff be 30 	lw      r5,0xfff8(r30)
    2b54:	dc ff 9e 30 	lw      r4,0xffdc(r30)
    2b58:	02 20 85 00 	sub     r4,r5,r4
    2b5c:	00 00 9d 34 	sw      0x0000(r29),r4
    2b60:	e4 ff 9e 30 	lw      r4,0xffe4(r30)
    2b64:	04 00 9d 34 	sw      0x0004(r29),r4
    2b68:	e8 ff 9e 30 	lw      r4,0xffe8(r30)
    2b6c:	08 00 9d 34 	sw      0x0008(r29),r4
    2b70:	ec ff 9e 30 	lw      r4,0xffec(r30)
    2b74:	0c 00 9d 34 	sw      0x000c(r29),r4
    2b78:	01 00 80 18 	ori     r4,r0,0x0001
    2b7c:	00 00 a6 30 	lw      r5,0x0000(r6)
    2b80:	05 38 c0 00 	orr     r6,r0,r7
    2b84:	d8 ff fe 30 	lw      r7,0xffd8(r30)
    2b88:	c0 04 00 c0 	ajal    0x00001300
    2b8c:	05 10 a0 00 	orr     r5,r0,r2
    2b90:	dc ff 9e 30 	lw      r4,0xffdc(r30)
    2b94:	00 28 84 00 	add     r4,r4,r5
    2b98:	dc ff 9e 34 	sw      0xffdc(r30),r4
    2b9c:	02 0b 00 80 	ajmp    0x00002c08
    2ba0:	f0 ff de 30 	lw      r6,0xfff0(r30)
    2ba4:	f0 ff 9e 30 	lw      r4,0xfff0(r30)
    2ba8:	04 00 84 04 	addi    r4,r4,0x0004
    2bac:	f0 ff 9e 34 	sw      0xfff0(r30),r4
    2bb0:	fc ff be 30 	lw      r5,0xfffc(r30)
    2bb4:	dc ff 9e 30 	lw      r4,0xffdc(r30)
    2bb8:	00 20 e5 00 	add     r7,r5,r4
    2bbc:	f8 ff be 30 	lw      r5,0xfff8(r30)
    2bc0:	dc ff 9e 30 	lw      r4,0xffdc(r30)
    2bc4:	02 20 85 00 	sub     r4,r5,r4
    2bc8:	00 00 9d 34 	sw      0x0000(r29),r4
    2bcc:	e4 ff 9e 30 	lw      r4,0xffe4(r30)
    2bd0:	04 00 9d 34 	sw      0x0004(r29),r4
    2bd4:	e8 ff 9e 30 	lw      r4,0xffe8(r30)
    2bd8:	08 00 9d 34 	sw      0x0008(r29),r4
    2bdc:	ec ff 9e 30 	lw      r4,0xffec(r30)
    2be0:	0c 00 9d 34 	sw      0x000c(r29),r4
    2be4:	01 00 80 18 	ori     r4,r0,0x0001
    2be8:	00 00 a6 30 	lw      r5,0x0000(r6)
    2bec:	05 38 c0 00 	orr     r6,r0,r7
    2bf0:	d8 ff fe 30 	lw      r7,0xffd8(r30)
    2bf4:	c0 04 00 c0 	ajal    0x00001300
    2bf8:	05 10 a0 00 	orr     r5,r0,r2
    2bfc:	dc ff 9e 30 	lw      r4,0xffdc(r30)
    2c00:	00 28 84 00 	add     r4,r4,r5
    2c04:	dc ff 9e 34 	sw      0xffdc(r30),r4
    2c08:	f4 ff 9e 30 	lw      r4,0xfff4(r30)
    2c0c:	01 00 84 04 	addi    r4,r4,0x0001
    2c10:	f4 ff 9e 34 	sw      0xfff4(r30),r4
    2c14:	31 09 00 80 	ajmp    0x000024c4
    2c18:	f0 ff de 30 	lw      r6,0xfff0(r30)
    2c1c:	f0 ff 9e 30 	lw      r4,0xfff0(r30)
    2c20:	08 00 84 04 	addi    r4,r4,0x0008
    2c24:	f0 ff 9e 34 	sw      0xfff0(r30),r4
    2c28:	fc ff be 30 	lw      r5,0xfffc(r30)
    2c2c:	dc ff 9e 30 	lw      r4,0xffdc(r30)
    2c30:	00 20 05 01 	add     r8,r5,r4
    2c34:	f8 ff be 30 	lw      r5,0xfff8(r30)
    2c38:	dc ff 9e 30 	lw      r4,0xffdc(r30)
    2c3c:	02 20 e5 00 	sub     r7,r5,r4
    2c40:	e4 ff 9e 30 	lw      r4,0xffe4(r30)
    2c44:	00 00 9d 34 	sw      0x0000(r29),r4
    2c48:	e8 ff 9e 30 	lw      r4,0xffe8(r30)
    2c4c:	04 00 9d 34 	sw      0x0004(r29),r4
    2c50:	ec ff 9e 30 	lw      r4,0xffec(r30)
    2c54:	08 00 9d 34 	sw      0x0008(r29),r4
    2c58:	00 00 86 30 	lw      r4,0x0000(r6)
    2c5c:	04 00 a6 30 	lw      r5,0x0004(r6)
    2c60:	05 40 c0 00 	orr     r6,r0,r8
    2c64:	a4 06 00 c0 	ajal    0x00001a90
    2c68:	05 10 a0 00 	orr     r5,r0,r2
    2c6c:	dc ff 9e 30 	lw      r4,0xffdc(r30)
    2c70:	00 28 84 00 	add     r4,r4,r5
    2c74:	dc ff 9e 34 	sw      0xffdc(r30),r4
    2c78:	f4 ff 9e 30 	lw      r4,0xfff4(r30)
    2c7c:	01 00 84 04 	addi    r4,r4,0x0001
    2c80:	f4 ff 9e 34 	sw      0xfff4(r30),r4
    2c84:	31 09 00 80 	ajmp    0x000024c4
    2c88:	01 00 80 18 	ori     r4,r0,0x0001
    2c8c:	d8 ff 9e 34 	sw      0xffd8(r30),r4
    2c90:	ec ff 9e 30 	lw      r4,0xffec(r30)
    2c94:	01 00 84 24 	lsri    r4,r4,0x0001
    2c98:	01 00 a4 14 	andi    r5,r4,0x0001
    2c9c:	00 00 80 18 	ori     r4,r0,0x0000
    2ca0:	02 20 05 00 	sub     r0,r5,r4
    2ca4:	17 00 40 40 	bne     0x00002d00
    2ca8:	dc ff be 30 	lw      r5,0xffdc(r30)
    2cac:	f8 ff 9e 30 	lw      r4,0xfff8(r30)
    2cb0:	02 20 05 00 	sub     r0,r5,r4
    2cb4:	13 00 00 41 	bhs     0x00002d00
    2cb8:	d8 ff be 04 	addi    r5,r30,0xffd8
    2cbc:	00 00 85 30 	lw      r4,0x0000(r5)
    2cc0:	05 20 c0 00 	orr     r6,r0,r4
    2cc4:	01 00 84 04 	addi    r4,r4,0x0001
    2cc8:	00 00 85 34 	sw      0x0000(r5),r4
    2ccc:	e8 ff 9e 30 	lw      r4,0xffe8(r30)
    2cd0:	02 20 06 00 	sub     r0,r6,r4
    2cd4:	0b 00 00 41 	bhs     0x00002d00
    2cd8:	dc ff fe 04 	addi    r7,r30,0xffdc
    2cdc:	00 00 a7 30 	lw      r5,0x0000(r7)
    2ce0:	05 28 c0 00 	orr     r6,r0,r5
    2ce4:	fc ff 9e 30 	lw      r4,0xfffc(r30)
    2ce8:	00 20 86 00 	add     r4,r6,r4
    2cec:	20 00 c0 18 	ori     r6,r0,0x0020
    2cf0:	00 00 c4 3c 	sb      0x0000(r4),r6
    2cf4:	01 00 a5 04 	addi    r5,r5,0x0001
    2cf8:	00 00 a7 34 	sw      0x0000(r7),r5
    2cfc:	2a 0b 00 80 	ajmp    0x00002ca8
    2d00:	dc ff fe 04 	addi    r7,r30,0xffdc
    2d04:	00 00 c7 30 	lw      r6,0x0000(r7)
    2d08:	05 30 a0 00 	orr     r5,r0,r6
    2d0c:	fc ff 9e 30 	lw      r4,0xfffc(r30)
    2d10:	00 20 05 01 	add     r8,r5,r4
    2d14:	f0 ff be 30 	lw      r5,0xfff0(r30)
    2d18:	f0 ff 9e 30 	lw      r4,0xfff0(r30)
    2d1c:	04 00 84 04 	addi    r4,r4,0x0004
    2d20:	f0 ff 9e 34 	sw      0xfff0(r30),r4
    2d24:	00 00 85 30 	lw      r4,0x0000(r5)
    2d28:	00 00 88 3c 	sb      0x0000(r8),r4
    2d2c:	01 00 c6 04 	addi    r6,r6,0x0001
    2d30:	00 00 c7 34 	sw      0x0000(r7),r6
    2d34:	ec ff 9e 30 	lw      r4,0xffec(r30)
    2d38:	01 00 84 24 	lsri    r4,r4,0x0001
    2d3c:	01 00 a4 14 	andi    r5,r4,0x0001
    2d40:	00 00 80 18 	ori     r4,r0,0x0000
    2d44:	02 20 05 00 	sub     r0,r5,r4
    2d48:	17 00 00 40 	beq     0x00002da4
    2d4c:	dc ff be 30 	lw      r5,0xffdc(r30)
    2d50:	f8 ff 9e 30 	lw      r4,0xfff8(r30)
    2d54:	02 20 05 00 	sub     r0,r5,r4
    2d58:	13 00 00 41 	bhs     0x00002da4
    2d5c:	d8 ff be 04 	addi    r5,r30,0xffd8
    2d60:	00 00 85 30 	lw      r4,0x0000(r5)
    2d64:	05 20 c0 00 	orr     r6,r0,r4
    2d68:	01 00 84 04 	addi    r4,r4,0x0001
    2d6c:	00 00 85 34 	sw      0x0000(r5),r4
    2d70:	e8 ff 9e 30 	lw      r4,0xffe8(r30)
    2d74:	02 20 06 00 	sub     r0,r6,r4
    2d78:	0b 00 00 41 	bhs     0x00002da4
    2d7c:	dc ff fe 04 	addi    r7,r30,0xffdc
    2d80:	00 00 a7 30 	lw      r5,0x0000(r7)
    2d84:	05 28 c0 00 	orr     r6,r0,r5
    2d88:	fc ff 9e 30 	lw      r4,0xfffc(r30)
    2d8c:	00 20 86 00 	add     r4,r6,r4
    2d90:	20 00 c0 18 	ori     r6,r0,0x0020
    2d94:	00 00 c4 3c 	sb      0x0000(r4),r6
    2d98:	01 00 a5 04 	addi    r5,r5,0x0001
    2d9c:	00 00 a7 34 	sw      0x0000(r7),r5
    2da0:	53 0b 00 80 	ajmp    0x00002d4c
    2da4:	f4 ff 9e 30 	lw      r4,0xfff4(r30)
    2da8:	01 00 84 04 	addi    r4,r4,0x0001
    2dac:	f4 ff 9e 34 	sw      0xfff4(r30),r4
    2db0:	31 09 00 80 	ajmp    0x000024c4
    2db4:	f0 ff be 30 	lw      r5,0xfff0(r30)
    2db8:	f0 ff 9e 30 	lw      r4,0xfff0(r30)
    2dbc:	04 00 84 04 	addi    r4,r4,0x0004
    2dc0:	f0 ff 9e 34 	sw      0xfff0(r30),r4
    2dc4:	00 00 85 30 	lw      r4,0x0000(r5)
    2dc8:	d8 ff 9e 34 	sw      0xffd8(r30),r4
    2dcc:	d8 ff 9e 30 	lw      r4,0xffd8(r30)
    2dd0:	5c 04 00 c0 	ajal    0x00001170
    2dd4:	05 10 80 00 	orr     r4,r0,r2
    2dd8:	d4 ff 9e 34 	sw      0xffd4(r30),r4
    2ddc:	ec ff 9e 30 	lw      r4,0xffec(r30)
    2de0:	08 00 84 24 	lsri    r4,r4,0x0008
    2de4:	01 00 a4 14 	andi    r5,r4,0x0001
    2de8:	00 00 80 18 	ori     r4,r0,0x0000
    2dec:	02 20 05 00 	sub     r0,r5,r4
    2df0:	0b 00 00 40 	beq     0x00002e1c
    2df4:	e4 ff 9e 30 	lw      r4,0xffe4(r30)
    2df8:	cc ff 9e 34 	sw      0xffcc(r30),r4
    2dfc:	d4 ff 9e 30 	lw      r4,0xffd4(r30)
    2e00:	cc ff be 30 	lw      r5,0xffcc(r30)
    2e04:	02 20 05 00 	sub     r0,r5,r4
    2e08:	03 00 40 42 	bls     0x00002e14
    2e0c:	d4 ff de 30 	lw      r6,0xffd4(r30)
    2e10:	cc ff de 34 	sw      0xffcc(r30),r6
    2e14:	cc ff 9e 30 	lw      r4,0xffcc(r30)
    2e18:	d4 ff 9e 34 	sw      0xffd4(r30),r4
    2e1c:	ec ff 9e 30 	lw      r4,0xffec(r30)
    2e20:	01 00 84 24 	lsri    r4,r4,0x0001
    2e24:	01 00 a4 14 	andi    r5,r4,0x0001
    2e28:	00 00 80 18 	ori     r4,r0,0x0000
    2e2c:	02 20 05 00 	sub     r0,r5,r4
    2e30:	17 00 40 40 	bne     0x00002e8c
    2e34:	dc ff be 30 	lw      r5,0xffdc(r30)
    2e38:	f8 ff 9e 30 	lw      r4,0xfff8(r30)
    2e3c:	02 20 05 00 	sub     r0,r5,r4
    2e40:	13 00 00 41 	bhs     0x00002e8c
    2e44:	d4 ff be 04 	addi    r5,r30,0xffd4
    2e48:	00 00 85 30 	lw      r4,0x0000(r5)
    2e4c:	05 20 c0 00 	orr     r6,r0,r4
    2e50:	01 00 84 04 	addi    r4,r4,0x0001
    2e54:	00 00 85 34 	sw      0x0000(r5),r4
    2e58:	e8 ff 9e 30 	lw      r4,0xffe8(r30)
    2e5c:	02 20 06 00 	sub     r0,r6,r4
    2e60:	0b 00 00 41 	bhs     0x00002e8c
    2e64:	dc ff fe 04 	addi    r7,r30,0xffdc
    2e68:	00 00 a7 30 	lw      r5,0x0000(r7)
    2e6c:	05 28 c0 00 	orr     r6,r0,r5
    2e70:	fc ff 9e 30 	lw      r4,0xfffc(r30)
    2e74:	00 20 86 00 	add     r4,r6,r4
    2e78:	20 00 c0 18 	ori     r6,r0,0x0020
    2e7c:	00 00 c4 3c 	sb      0x0000(r4),r6
    2e80:	01 00 a5 04 	addi    r5,r5,0x0001
    2e84:	00 00 a7 34 	sw      0x0000(r7),r5
    2e88:	8d 0b 00 80 	ajmp    0x00002e34
    2e8c:	dc ff be 30 	lw      r5,0xffdc(r30)
    2e90:	f8 ff 9e 30 	lw      r4,0xfff8(r30)
    2e94:	02 20 05 00 	sub     r0,r5,r4
    2e98:	25 00 00 41 	bhs     0x00002f2c
    2e9c:	d8 ff 9e 30 	lw      r4,0xffd8(r30)
    2ea0:	00 00 84 38 	lb      r4,0x0000(r4)
    2ea4:	18 00 84 20 	lsli    r4,r4,0x0018
    2ea8:	18 00 84 24 	lsri    r4,r4,0x0018
    2eac:	00 00 a0 18 	ori     r5,r0,0x0000
    2eb0:	02 28 04 00 	sub     r0,r4,r5
    2eb4:	1e 00 00 40 	beq     0x00002f2c
    2eb8:	ec ff 9e 30 	lw      r4,0xffec(r30)
    2ebc:	08 00 84 24 	lsri    r4,r4,0x0008
    2ec0:	01 00 a4 14 	andi    r5,r4,0x0001
    2ec4:	00 00 80 18 	ori     r4,r0,0x0000
    2ec8:	02 20 05 00 	sub     r0,r5,r4
    2ecc:	0a 00 00 40 	beq     0x00002ef4
    2ed0:	e4 ff 9e 30 	lw      r4,0xffe4(r30)
    2ed4:	ff ff 84 04 	addi    r4,r4,0xffff
    2ed8:	05 20 a0 00 	orr     r5,r0,r4
    2edc:	e4 ff be 34 	sw      0xffe4(r30),r5
    2ee0:	ff ff 80 2c 	ldih    r4,0xffff
    2ee4:	ff ff 84 18 	ori     r4,r4,0xffff
    2ee8:	02 20 05 00 	sub     r0,r5,r4
    2eec:	02 00 40 40 	bne     0x00002ef4
    2ef0:	cb 0b 00 80 	ajmp    0x00002f2c
    2ef4:	dc ff 1e 05 	addi    r8,r30,0xffdc
    2ef8:	00 00 c8 30 	lw      r6,0x0000(r8)
    2efc:	05 30 a0 00 	orr     r5,r0,r6
    2f00:	fc ff 9e 30 	lw      r4,0xfffc(r30)
    2f04:	00 20 25 01 	add     r9,r5,r4
    2f08:	d8 ff be 04 	addi    r5,r30,0xffd8
    2f0c:	00 00 85 30 	lw      r4,0x0000(r5)
    2f10:	00 00 e4 38 	lb      r7,0x0000(r4)
    2f14:	01 00 84 04 	addi    r4,r4,0x0001
    2f18:	00 00 85 34 	sw      0x0000(r5),r4
    2f1c:	00 00 e9 3c 	sb      0x0000(r9),r7
    2f20:	01 00 c6 04 	addi    r6,r6,0x0001
    2f24:	00 00 c8 34 	sw      0x0000(r8),r6
    2f28:	a3 0b 00 80 	ajmp    0x00002e8c
    2f2c:	ec ff 9e 30 	lw      r4,0xffec(r30)
    2f30:	01 00 84 24 	lsri    r4,r4,0x0001
    2f34:	01 00 a4 14 	andi    r5,r4,0x0001
    2f38:	00 00 80 18 	ori     r4,r0,0x0000
    2f3c:	02 20 05 00 	sub     r0,r5,r4
    2f40:	17 00 00 40 	beq     0x00002f9c
    2f44:	dc ff be 30 	lw      r5,0xffdc(r30)
    2f48:	f8 ff 9e 30 	lw      r4,0xfff8(r30)
    2f4c:	02 20 05 00 	sub     r0,r5,r4
    2f50:	13 00 00 41 	bhs     0x00002f9c
    2f54:	d4 ff be 04 	addi    r5,r30,0xffd4
    2f58:	00 00 85 30 	lw      r4,0x0000(r5)
    2f5c:	05 20 c0 00 	orr     r6,r0,r4
    2f60:	01 00 84 04 	addi    r4,r4,0x0001
    2f64:	00 00 85 34 	sw      0x0000(r5),r4
    2f68:	e8 ff 9e 30 	lw      r4,0xffe8(r30)
    2f6c:	02 20 06 00 	sub     r0,r6,r4
    2f70:	0b 00 00 41 	bhs     0x00002f9c
    2f74:	dc ff fe 04 	addi    r7,r30,0xffdc
    2f78:	00 00 a7 30 	lw      r5,0x0000(r7)
    2f7c:	05 28 c0 00 	orr     r6,r0,r5
    2f80:	fc ff 9e 30 	lw      r4,0xfffc(r30)
    2f84:	00 20 86 00 	add     r4,r6,r4
    2f88:	20 00 c0 18 	ori     r6,r0,0x0020
    2f8c:	00 00 c4 3c 	sb      0x0000(r4),r6
    2f90:	01 00 a5 04 	addi    r5,r5,0x0001
    2f94:	00 00 a7 34 	sw      0x0000(r7),r5
    2f98:	d1 0b 00 80 	ajmp    0x00002f44
    2f9c:	f4 ff 9e 30 	lw      r4,0xfff4(r30)
    2fa0:	01 00 84 04 	addi    r4,r4,0x0001
    2fa4:	f4 ff 9e 34 	sw      0xfff4(r30),r4
    2fa8:	31 09 00 80 	ajmp    0x000024c4
    2fac:	08 00 80 18 	ori     r4,r0,0x0008
    2fb0:	e8 ff 9e 34 	sw      0xffe8(r30),r4
    2fb4:	ec ff 9e 30 	lw      r4,0xffec(r30)
    2fb8:	01 00 84 18 	ori     r4,r4,0x0001
    2fbc:	ec ff 9e 34 	sw      0xffec(r30),r4
    2fc0:	04 00 80 18 	ori     r4,r0,0x0004
    2fc4:	d4 ff 9e 34 	sw      0xffd4(r30),r4
    2fc8:	dc ff fe 04 	addi    r7,r30,0xffdc
    2fcc:	00 00 a7 30 	lw      r5,0x0000(r7)
    2fd0:	05 28 c0 00 	orr     r6,r0,r5
    2fd4:	fc ff 9e 30 	lw      r4,0xfffc(r30)
    2fd8:	00 20 86 00 	add     r4,r6,r4
    2fdc:	30 00 c0 18 	ori     r6,r0,0x0030
    2fe0:	00 00 c4 3c 	sb      0x0000(r4),r6
    2fe4:	01 00 a5 04 	addi    r5,r5,0x0001
    2fe8:	00 00 a7 34 	sw      0x0000(r7),r5
    2fec:	dc ff fe 04 	addi    r7,r30,0xffdc
    2ff0:	00 00 a7 30 	lw      r5,0x0000(r7)
    2ff4:	05 28 c0 00 	orr     r6,r0,r5
    2ff8:	fc ff 9e 30 	lw      r4,0xfffc(r30)
    2ffc:	00 20 86 00 	add     r4,r6,r4
    3000:	78 00 c0 18 	ori     r6,r0,0x0078
    3004:	00 00 c4 3c 	sb      0x0000(r4),r6
    3008:	01 00 a5 04 	addi    r5,r5,0x0001
    300c:	00 00 a7 34 	sw      0x0000(r7),r5
    3010:	f0 ff de 30 	lw      r6,0xfff0(r30)
    3014:	f0 ff 9e 30 	lw      r4,0xfff0(r30)
    3018:	04 00 84 04 	addi    r4,r4,0x0004
    301c:	f0 ff 9e 34 	sw      0xfff0(r30),r4
    3020:	fc ff be 30 	lw      r5,0xfffc(r30)
    3024:	dc ff 9e 30 	lw      r4,0xffdc(r30)
    3028:	00 20 e5 00 	add     r7,r5,r4
    302c:	f8 ff be 30 	lw      r5,0xfff8(r30)
    3030:	dc ff 9e 30 	lw      r4,0xffdc(r30)
    3034:	02 20 85 00 	sub     r4,r5,r4
    3038:	00 00 9d 34 	sw      0x0000(r29),r4
    303c:	e4 ff 9e 30 	lw      r4,0xffe4(r30)
    3040:	04 00 9d 34 	sw      0x0004(r29),r4
    3044:	e8 ff 9e 30 	lw      r4,0xffe8(r30)
    3048:	08 00 9d 34 	sw      0x0008(r29),r4
    304c:	ec ff 9e 30 	lw      r4,0xffec(r30)
    3050:	0c 00 9d 34 	sw      0x000c(r29),r4
    3054:	01 00 80 18 	ori     r4,r0,0x0001
    3058:	00 00 a6 30 	lw      r5,0x0000(r6)
    305c:	05 38 c0 00 	orr     r6,r0,r7
    3060:	10 00 e0 18 	ori     r7,r0,0x0010
    3064:	c0 04 00 c0 	ajal    0x00001300
    3068:	05 10 a0 00 	orr     r5,r0,r2
    306c:	dc ff 9e 30 	lw      r4,0xffdc(r30)
    3070:	00 28 84 00 	add     r4,r4,r5
    3074:	dc ff 9e 34 	sw      0xffdc(r30),r4
    3078:	f4 ff 9e 30 	lw      r4,0xfff4(r30)
    307c:	01 00 84 04 	addi    r4,r4,0x0001
    3080:	f4 ff 9e 34 	sw      0xfff4(r30),r4
    3084:	31 09 00 80 	ajmp    0x000024c4
    3088:	dc ff fe 04 	addi    r7,r30,0xffdc
    308c:	00 00 a7 30 	lw      r5,0x0000(r7)
    3090:	05 28 c0 00 	orr     r6,r0,r5
    3094:	fc ff 9e 30 	lw      r4,0xfffc(r30)
    3098:	00 20 86 00 	add     r4,r6,r4
    309c:	25 00 c0 18 	ori     r6,r0,0x0025
    30a0:	00 00 c4 3c 	sb      0x0000(r4),r6
    30a4:	01 00 a5 04 	addi    r5,r5,0x0001
    30a8:	00 00 a7 34 	sw      0x0000(r7),r5
    30ac:	f4 ff 9e 30 	lw      r4,0xfff4(r30)
    30b0:	01 00 84 04 	addi    r4,r4,0x0001
    30b4:	f4 ff 9e 34 	sw      0xfff4(r30),r4
    30b8:	31 09 00 80 	ajmp    0x000024c4
    30bc:	dc ff fe 04 	addi    r7,r30,0xffdc
    30c0:	00 00 a7 30 	lw      r5,0x0000(r7)
    30c4:	05 28 c0 00 	orr     r6,r0,r5
    30c8:	fc ff 9e 30 	lw      r4,0xfffc(r30)
    30cc:	00 20 c6 00 	add     r6,r6,r4
    30d0:	f4 ff 9e 30 	lw      r4,0xfff4(r30)
    30d4:	00 00 84 38 	lb      r4,0x0000(r4)
    30d8:	00 00 86 3c 	sb      0x0000(r6),r4
    30dc:	01 00 a5 04 	addi    r5,r5,0x0001
    30e0:	00 00 a7 34 	sw      0x0000(r7),r5
    30e4:	f4 ff 9e 30 	lw      r4,0xfff4(r30)
    30e8:	01 00 84 04 	addi    r4,r4,0x0001
    30ec:	f4 ff 9e 34 	sw      0xfff4(r30),r4
    30f0:	31 09 00 80 	ajmp    0x000024c4
    30f4:	dc ff 9e 30 	lw      r4,0xffdc(r30)
    30f8:	05 20 40 00 	orr     r2,r0,r4
    30fc:	48 00 bd 07 	addi    r29,r29,0x0048
    3100:	05 f0 a0 03 	orr     r29,r0,r30
    3104:	10 00 bd 07 	addi    r29,r29,0x0010
    3108:	fc ff 1d 31 	lw      r8,0xfffc(r29)
    310c:	f8 ff 3d 31 	lw      r9,0xfff8(r29)
    3110:	f4 ff fd 33 	lw      r31,0xfff4(r29)
    3114:	f0 ff dd 33 	lw      r30,0xfff0(r29)
    3118:	00 00 e0 47 	jmpr    r31
    311c:	00 00 00 00 	nop

00003120 <printf>:
    3120:	f8 ff bd 07 	addi    r29,r29,0xfff8
    3124:	00 00 dd 37 	sw      0x0000(r29),r30
    3128:	04 00 fd 37 	sw      0x0004(r29),r31
    312c:	05 e8 c0 03 	orr     r30,r0,r29
    3130:	74 ff bd 07 	addi    r29,r29,0xff74
    3134:	0c 00 9e 04 	addi    r4,r30,0x000c
    3138:	fc ff 9e 34 	sw      0xfffc(r30),r4
    313c:	78 ff 9e 04 	addi    r4,r30,0xff78
    3140:	80 00 a0 18 	ori     r5,r0,0x0080
    3144:	08 00 de 30 	lw      r6,0x0008(r30)
    3148:	fc ff fe 30 	lw      r7,0xfffc(r30)
    314c:	24 09 00 c0 	ajal    0x00002490
    3150:	05 10 80 00 	orr     r4,r0,r2
    3154:	f8 ff 9e 34 	sw      0xfff8(r30),r4
    3158:	00 00 80 18 	ori     r4,r0,0x0000
    315c:	74 ff 9e 34 	sw      0xff74(r30),r4
    3160:	74 ff be 30 	lw      r5,0xff74(r30)
    3164:	f8 ff 9e 30 	lw      r4,0xfff8(r30)
    3168:	02 20 05 00 	sub     r0,r5,r4
    316c:	0c 00 00 41 	bhs     0x0000319c
    3170:	78 ff be 04 	addi    r5,r30,0xff78
    3174:	74 ff 9e 30 	lw      r4,0xff74(r30)
    3178:	00 20 85 00 	add     r4,r5,r4
    317c:	00 00 84 38 	lb      r4,0x0000(r4)
    3180:	18 00 84 20 	lsli    r4,r4,0x0018
    3184:	18 00 84 24 	lsri    r4,r4,0x0018
    3188:	c4 0c 00 c0 	ajal    0x00003310
    318c:	74 ff 9e 30 	lw      r4,0xff74(r30)
    3190:	01 00 84 04 	addi    r4,r4,0x0001
    3194:	74 ff 9e 34 	sw      0xff74(r30),r4
    3198:	58 0c 00 80 	ajmp    0x00003160
    319c:	f8 ff 9e 30 	lw      r4,0xfff8(r30)
    31a0:	05 20 40 00 	orr     r2,r0,r4
    31a4:	8c 00 bd 07 	addi    r29,r29,0x008c
    31a8:	05 f0 a0 03 	orr     r29,r0,r30
    31ac:	08 00 bd 07 	addi    r29,r29,0x0008
    31b0:	fc ff fd 33 	lw      r31,0xfffc(r29)
    31b4:	f8 ff dd 33 	lw      r30,0xfff8(r29)
    31b8:	00 00 e0 47 	jmpr    r31
    31bc:	00 00 00 00 	nop

000031c0 <sprintf>:
    31c0:	f8 ff bd 07 	addi    r29,r29,0xfff8
    31c4:	00 00 dd 37 	sw      0x0000(r29),r30
    31c8:	04 00 fd 37 	sw      0x0004(r29),r31
    31cc:	05 e8 c0 03 	orr     r30,r0,r29
    31d0:	f4 ff bd 07 	addi    r29,r29,0xfff4
    31d4:	fc ff 9e 34 	sw      0xfffc(r30),r4
    31d8:	0c 00 9e 04 	addi    r4,r30,0x000c
    31dc:	f8 ff 9e 34 	sw      0xfff8(r30),r4
    31e0:	fc ff 9e 30 	lw      r4,0xfffc(r30)
    31e4:	ff ff a0 2c 	ldih    r5,0xffff
    31e8:	ff ff a5 18 	ori     r5,r5,0xffff
    31ec:	08 00 de 30 	lw      r6,0x0008(r30)
    31f0:	f8 ff fe 30 	lw      r7,0xfff8(r30)
    31f4:	24 09 00 c0 	ajal    0x00002490
    31f8:	05 10 80 00 	orr     r4,r0,r2
    31fc:	f4 ff 9e 34 	sw      0xfff4(r30),r4
    3200:	f4 ff 9e 30 	lw      r4,0xfff4(r30)
    3204:	05 20 40 00 	orr     r2,r0,r4
    3208:	0c 00 bd 07 	addi    r29,r29,0x000c
    320c:	05 f0 a0 03 	orr     r29,r0,r30
    3210:	08 00 bd 07 	addi    r29,r29,0x0008
    3214:	fc ff fd 33 	lw      r31,0xfffc(r29)
    3218:	f8 ff dd 33 	lw      r30,0xfff8(r29)
    321c:	00 00 e0 47 	jmpr    r31

00003220 <snprintf>:
    3220:	f8 ff bd 07 	addi    r29,r29,0xfff8
    3224:	00 00 dd 37 	sw      0x0000(r29),r30
    3228:	04 00 fd 37 	sw      0x0004(r29),r31
    322c:	05 e8 c0 03 	orr     r30,r0,r29
    3230:	f0 ff bd 07 	addi    r29,r29,0xfff0
    3234:	fc ff 9e 34 	sw      0xfffc(r30),r4
    3238:	f8 ff be 34 	sw      0xfff8(r30),r5
    323c:	0c 00 9e 04 	addi    r4,r30,0x000c
    3240:	f4 ff 9e 34 	sw      0xfff4(r30),r4
    3244:	fc ff 9e 30 	lw      r4,0xfffc(r30)
    3248:	f8 ff be 30 	lw      r5,0xfff8(r30)
    324c:	08 00 de 30 	lw      r6,0x0008(r30)
    3250:	f4 ff fe 30 	lw      r7,0xfff4(r30)
    3254:	24 09 00 c0 	ajal    0x00002490
    3258:	05 10 80 00 	orr     r4,r0,r2
    325c:	f0 ff 9e 34 	sw      0xfff0(r30),r4
    3260:	f0 ff 9e 30 	lw      r4,0xfff0(r30)
    3264:	05 20 40 00 	orr     r2,r0,r4
    3268:	10 00 bd 07 	addi    r29,r29,0x0010
    326c:	05 f0 a0 03 	orr     r29,r0,r30
    3270:	08 00 bd 07 	addi    r29,r29,0x0008
    3274:	fc ff fd 33 	lw      r31,0xfffc(r29)
    3278:	f8 ff dd 33 	lw      r30,0xfff8(r29)
    327c:	00 00 e0 47 	jmpr    r31

00003280 <heap_init>:
    3280:	f8 ff bd 07 	addi    r29,r29,0xfff8
    3284:	00 00 dd 37 	sw      0x0000(r29),r30
    3288:	04 00 fd 37 	sw      0x0004(r29),r31
    328c:	05 e8 c0 03 	orr     r30,r0,r29
    3290:	fc ff bd 07 	addi    r29,r29,0xfffc
    3294:	01 00 80 2c 	ldih    r4,0x0001
    3298:	90 70 84 18 	ori     r4,r4,0x7090
    329c:	e0 01 a0 2c 	ldih    r5,0x01e0
    32a0:	00 00 a5 18 	ori     r5,r5,0x0000
    32a4:	20 00 c0 2c 	ldih    r6,0x0020
    32a8:	00 00 c6 18 	ori     r6,r6,0x0000
    32ac:	10 03 00 c0 	ajal    0x00000c40
    32b0:	05 10 80 00 	orr     r4,r0,r2
    32b4:	fc ff 9e 34 	sw      0xfffc(r30),r4
    32b8:	00 00 80 18 	ori     r4,r0,0x0000
    32bc:	fc ff be 30 	lw      r5,0xfffc(r30)
    32c0:	44 04 00 c0 	ajal    0x00001110
    32c4:	04 00 bd 07 	addi    r29,r29,0x0004
    32c8:	05 f0 a0 03 	orr     r29,r0,r30
    32cc:	08 00 bd 07 	addi    r29,r29,0x0008
    32d0:	fc ff fd 33 	lw      r31,0xfffc(r29)
    32d4:	f8 ff dd 33 	lw      r30,0xfff8(r29)
    32d8:	00 00 e0 47 	jmpr    r31
    32dc:	00 00 00 00 	nop

000032e0 <soc_init>:
    32e0:	f8 ff bd 07 	addi    r29,r29,0xfff8
    32e4:	00 00 dd 37 	sw      0x0000(r29),r30
    32e8:	04 00 fd 37 	sw      0x0004(r29),r31
    32ec:	05 e8 c0 03 	orr     r30,r0,r29
    32f0:	a0 0c 00 c0 	ajal    0x00003280
    32f4:	05 f0 a0 03 	orr     r29,r0,r30
    32f8:	08 00 bd 07 	addi    r29,r29,0x0008
    32fc:	fc ff fd 33 	lw      r31,0xfffc(r29)
    3300:	f8 ff dd 33 	lw      r30,0xfff8(r29)
    3304:	00 00 e0 47 	jmpr    r31
    3308:	00 00 00 00 	nop
    330c:	00 00 00 00 	nop

00003310 <putchar>:
    3310:	fc ff bd 07 	addi    r29,r29,0xfffc
    3314:	00 00 dd 37 	sw      0x0000(r29),r30
    3318:	05 e8 c0 03 	orr     r30,r0,r29
    331c:	fc ff bd 07 	addi    r29,r29,0xfffc
    3320:	fc ff 9e 34 	sw      0xfffc(r30),r4
    3324:	00 80 80 2c 	ldih    r4,0x8000
    3328:	00 00 84 18 	ori     r4,r4,0x0000
    332c:	fc ff be 30 	lw      r5,0xfffc(r30)
    3330:	00 00 a4 3c 	sb      0x0000(r4),r5
    3334:	00 00 80 18 	ori     r4,r0,0x0000
    3338:	05 20 40 00 	orr     r2,r0,r4
    333c:	04 00 bd 07 	addi    r29,r29,0x0004
    3340:	05 f0 a0 03 	orr     r29,r0,r30
    3344:	04 00 bd 07 	addi    r29,r29,0x0004
    3348:	fc ff dd 33 	lw      r30,0xfffc(r29)
    334c:	00 00 e0 47 	jmpr    r31

00003350 <puts>:
    3350:	f8 ff bd 07 	addi    r29,r29,0xfff8
    3354:	00 00 dd 37 	sw      0x0000(r29),r30
    3358:	04 00 fd 37 	sw      0x0004(r29),r31
    335c:	05 e8 c0 03 	orr     r30,r0,r29
    3360:	fc ff bd 07 	addi    r29,r29,0xfffc
    3364:	fc ff 9e 34 	sw      0xfffc(r30),r4
    3368:	fc ff 9e 30 	lw      r4,0xfffc(r30)
    336c:	00 00 84 38 	lb      r4,0x0000(r4)
    3370:	18 00 84 20 	lsli    r4,r4,0x0018
    3374:	18 00 84 24 	lsri    r4,r4,0x0018
    3378:	00 00 a0 18 	ori     r5,r0,0x0000
    337c:	02 28 04 00 	sub     r0,r4,r5
    3380:	0b 00 00 40 	beq     0x000033ac
    3384:	fc ff de 04 	addi    r6,r30,0xfffc
    3388:	00 00 a6 30 	lw      r5,0x0000(r6)
    338c:	05 28 80 00 	orr     r4,r0,r5
    3390:	00 00 84 38 	lb      r4,0x0000(r4)
    3394:	18 00 84 20 	lsli    r4,r4,0x0018
    3398:	18 00 84 24 	lsri    r4,r4,0x0018
    339c:	01 00 a5 04 	addi    r5,r5,0x0001
    33a0:	00 00 a6 34 	sw      0x0000(r6),r5
    33a4:	c4 0c 00 c0 	ajal    0x00003310
    33a8:	da 0c 00 80 	ajmp    0x00003368
    33ac:	0a 00 80 18 	ori     r4,r0,0x000a
    33b0:	c4 0c 00 c0 	ajal    0x00003310
    33b4:	00 00 80 18 	ori     r4,r0,0x0000
    33b8:	05 20 40 00 	orr     r2,r0,r4
    33bc:	04 00 bd 07 	addi    r29,r29,0x0004
    33c0:	05 f0 a0 03 	orr     r29,r0,r30
    33c4:	08 00 bd 07 	addi    r29,r29,0x0008
    33c8:	fc ff fd 33 	lw      r31,0xfffc(r29)
    33cc:	f8 ff dd 33 	lw      r30,0xfff8(r29)
    33d0:	00 00 e0 47 	jmpr    r31
    33d4:	00 00 00 00 	nop
    33d8:	00 00 00 00 	nop
    33dc:	00 00 00 00 	nop

000033e0 <kbhit>:
    33e0:	fc ff bd 07 	addi    r29,r29,0xfffc
    33e4:	00 00 dd 37 	sw      0x0000(r29),r30
    33e8:	05 e8 c0 03 	orr     r30,r0,r29
    33ec:	fc ff bd 07 	addi    r29,r29,0xfffc
    33f0:	00 80 80 2c 	ldih    r4,0x8000
    33f4:	04 00 84 18 	ori     r4,r4,0x0004
    33f8:	fc ff 9e 34 	sw      0xfffc(r30),r4
    33fc:	fc ff 9e 30 	lw      r4,0xfffc(r30)
    3400:	00 00 84 38 	lb      r4,0x0000(r4)
    3404:	18 00 84 20 	lsli    r4,r4,0x0018
    3408:	18 00 84 24 	lsri    r4,r4,0x0018
    340c:	01 00 84 14 	andi    r4,r4,0x0001
    3410:	05 20 40 00 	orr     r2,r0,r4
    3414:	04 00 bd 07 	addi    r29,r29,0x0004
    3418:	05 f0 a0 03 	orr     r29,r0,r30
    341c:	04 00 bd 07 	addi    r29,r29,0x0004
    3420:	fc ff dd 33 	lw      r30,0xfffc(r29)
    3424:	00 00 e0 47 	jmpr    r31
    3428:	00 00 00 00 	nop
    342c:	00 00 00 00 	nop

00003430 <_getchar>:
    3430:	f8 ff bd 07 	addi    r29,r29,0xfff8
    3434:	00 00 dd 37 	sw      0x0000(r29),r30
    3438:	04 00 fd 37 	sw      0x0004(r29),r31
    343c:	05 e8 c0 03 	orr     r30,r0,r29
    3440:	f8 0c 00 c0 	ajal    0x000033e0
    3444:	05 10 a0 00 	orr     r5,r0,r2
    3448:	00 00 80 18 	ori     r4,r0,0x0000
    344c:	02 20 05 00 	sub     r0,r5,r4
    3450:	02 00 40 40 	bne     0x00003458
    3454:	10 0d 00 80 	ajmp    0x00003440
    3458:	00 80 80 2c 	ldih    r4,0x8000
    345c:	00 00 84 18 	ori     r4,r4,0x0000
    3460:	00 00 84 38 	lb      r4,0x0000(r4)
    3464:	18 00 84 20 	lsli    r4,r4,0x0018
    3468:	18 00 84 24 	lsri    r4,r4,0x0018
    346c:	05 20 40 00 	orr     r2,r0,r4
    3470:	05 f0 a0 03 	orr     r29,r0,r30
    3474:	08 00 bd 07 	addi    r29,r29,0x0008
    3478:	fc ff fd 33 	lw      r31,0xfffc(r29)
    347c:	f8 ff dd 33 	lw      r30,0xfff8(r29)
    3480:	00 00 e0 47 	jmpr    r31
    3484:	00 00 00 00 	nop
    3488:	00 00 00 00 	nop
    348c:	00 00 00 00 	nop

00003490 <_putint0>:
    3490:	f8 ff bd 07 	addi    r29,r29,0xfff8
    3494:	00 00 dd 37 	sw      0x0000(r29),r30
    3498:	04 00 fd 37 	sw      0x0004(r29),r31
    349c:	05 e8 c0 03 	orr     r30,r0,r29
    34a0:	fc ff bd 07 	addi    r29,r29,0xfffc
    34a4:	fc ff 9e 34 	sw      0xfffc(r30),r4
    34a8:	fc ff be 30 	lw      r5,0xfffc(r30)
    34ac:	09 00 80 18 	ori     r4,r0,0x0009
    34b0:	02 20 05 00 	sub     r0,r5,r4
    34b4:	05 00 40 42 	bls     0x000034c8
    34b8:	fc ff 9e 30 	lw      r4,0xfffc(r30)
    34bc:	0a 00 a0 18 	ori     r5,r0,0x000a
    34c0:	0e 28 84 00 	divu    r4,r4,r5
    34c4:	24 0d 00 c0 	ajal    0x00003490
    34c8:	fc ff be 30 	lw      r5,0xfffc(r30)
    34cc:	0a 00 80 18 	ori     r4,r0,0x000a
    34d0:	0f 20 85 00 	modu    r4,r5,r4
    34d4:	30 00 84 04 	addi    r4,r4,0x0030
    34d8:	c4 0c 00 c0 	ajal    0x00003310
    34dc:	04 00 bd 07 	addi    r29,r29,0x0004
    34e0:	05 f0 a0 03 	orr     r29,r0,r30
    34e4:	08 00 bd 07 	addi    r29,r29,0x0008
    34e8:	fc ff fd 33 	lw      r31,0xfffc(r29)
    34ec:	f8 ff dd 33 	lw      r30,0xfff8(r29)
    34f0:	00 00 e0 47 	jmpr    r31
    34f4:	00 00 00 00 	nop
    34f8:	00 00 00 00 	nop
    34fc:	00 00 00 00 	nop

00003500 <putint>:
    3500:	f8 ff bd 07 	addi    r29,r29,0xfff8
    3504:	00 00 dd 37 	sw      0x0000(r29),r30
    3508:	04 00 fd 37 	sw      0x0004(r29),r31
    350c:	05 e8 c0 03 	orr     r30,r0,r29
    3510:	fc ff bd 07 	addi    r29,r29,0xfffc
    3514:	fc ff 9e 34 	sw      0xfffc(r30),r4
    3518:	fc ff be 30 	lw      r5,0xfffc(r30)
    351c:	00 00 80 18 	ori     r4,r0,0x0000
    3520:	02 20 05 00 	sub     r0,r5,r4
    3524:	06 00 80 42 	bge     0x0000353c
    3528:	2d 00 80 18 	ori     r4,r0,0x002d
    352c:	c4 0c 00 c0 	ajal    0x00003310
    3530:	fc ff 9e 30 	lw      r4,0xfffc(r30)
    3534:	02 20 80 00 	sub     r4,r0,r4
    3538:	fc ff 9e 34 	sw      0xfffc(r30),r4
    353c:	fc ff 9e 30 	lw      r4,0xfffc(r30)
    3540:	24 0d 00 c0 	ajal    0x00003490
    3544:	0a 00 80 18 	ori     r4,r0,0x000a
    3548:	c4 0c 00 c0 	ajal    0x00003310
    354c:	04 00 bd 07 	addi    r29,r29,0x0004
    3550:	05 f0 a0 03 	orr     r29,r0,r30
    3554:	08 00 bd 07 	addi    r29,r29,0x0008
    3558:	fc ff fd 33 	lw      r31,0xfffc(r29)
    355c:	f8 ff dd 33 	lw      r30,0xfff8(r29)
    3560:	00 00 e0 47 	jmpr    r31
    3564:	00 00 00 00 	nop
    3568:	00 00 00 00 	nop
    356c:	00 00 00 00 	nop

00003570 <puthex>:
    3570:	f8 ff bd 07 	addi    r29,r29,0xfff8
    3574:	00 00 dd 37 	sw      0x0000(r29),r30
    3578:	04 00 fd 37 	sw      0x0004(r29),r31
    357c:	05 e8 c0 03 	orr     r30,r0,r29
    3580:	e8 ff bd 07 	addi    r29,r29,0xffe8
    3584:	fc ff 9e 34 	sw      0xfffc(r30),r4
    3588:	01 00 80 2c 	ldih    r4,0x0001
    358c:	9a 70 84 18 	ori     r4,r4,0x709a
    3590:	f4 ff 9e 34 	sw      0xfff4(r30),r4
    3594:	00 00 80 18 	ori     r4,r0,0x0000
    3598:	f8 ff 9e 34 	sw      0xfff8(r30),r4
    359c:	f8 ff be 30 	lw      r5,0xfff8(r30)
    35a0:	07 00 80 18 	ori     r4,r0,0x0007
    35a4:	02 20 05 00 	sub     r0,r5,r4
    35a8:	13 00 00 43 	bgt     0x000035f4
    35ac:	07 00 a0 18 	ori     r5,r0,0x0007
    35b0:	f8 ff 9e 30 	lw      r4,0xfff8(r30)
    35b4:	02 20 a5 00 	sub     r5,r5,r4
    35b8:	e8 ff 9e 04 	addi    r4,r30,0xffe8
    35bc:	00 28 c4 00 	add     r6,r4,r5
    35c0:	fc ff 9e 30 	lw      r4,0xfffc(r30)
    35c4:	0f 00 a4 14 	andi    r5,r4,0x000f
    35c8:	f4 ff 9e 30 	lw      r4,0xfff4(r30)
    35cc:	00 20 85 00 	add     r4,r5,r4
    35d0:	00 00 84 38 	lb      r4,0x0000(r4)
    35d4:	00 00 86 3c 	sb      0x0000(r6),r4
    35d8:	fc ff 9e 30 	lw      r4,0xfffc(r30)
    35dc:	04 00 84 24 	lsri    r4,r4,0x0004
    35e0:	fc ff 9e 34 	sw      0xfffc(r30),r4
    35e4:	f8 ff 9e 30 	lw      r4,0xfff8(r30)
    35e8:	01 00 84 04 	addi    r4,r4,0x0001
    35ec:	f8 ff 9e 34 	sw      0xfff8(r30),r4
    35f0:	67 0d 00 80 	ajmp    0x0000359c
    35f4:	00 00 80 18 	ori     r4,r0,0x0000
    35f8:	f1 ff 9e 3c 	sb      0xfff1(r30),r4
    35fc:	e8 ff 9e 04 	addi    r4,r30,0xffe8
    3600:	d4 0c 00 c0 	ajal    0x00003350
    3604:	18 00 bd 07 	addi    r29,r29,0x0018
    3608:	05 f0 a0 03 	orr     r29,r0,r30
    360c:	08 00 bd 07 	addi    r29,r29,0x0008
    3610:	fc ff fd 33 	lw      r31,0xfffc(r29)
    3614:	f8 ff dd 33 	lw      r30,0xfff8(r29)
    3618:	00 00 e0 47 	jmpr    r31
    361c:	00 00 00 00 	nop

00003620 <malloc>:
    3620:	f8 ff bd 07 	addi    r29,r29,0xfff8
    3624:	00 00 dd 37 	sw      0x0000(r29),r30
    3628:	04 00 fd 37 	sw      0x0004(r29),r31
    362c:	05 e8 c0 03 	orr     r30,r0,r29
    3630:	fc ff bd 07 	addi    r29,r29,0xfffc
    3634:	fc ff 9e 34 	sw      0xfffc(r30),r4
    3638:	01 00 80 2c 	ldih    r4,0x0001
    363c:	ab 70 84 18 	ori     r4,r4,0x70ab
    3640:	d4 0c 00 c0 	ajal    0x00003350
    3644:	00 00 80 18 	ori     r4,r0,0x0000
    3648:	fc ff be 30 	lw      r5,0xfffc(r30)
    364c:	50 03 00 c0 	ajal    0x00000d40
    3650:	05 10 80 00 	orr     r4,r0,r2
    3654:	05 20 40 00 	orr     r2,r0,r4
    3658:	04 00 bd 07 	addi    r29,r29,0x0004
    365c:	05 f0 a0 03 	orr     r29,r0,r30
    3660:	08 00 bd 07 	addi    r29,r29,0x0008
    3664:	fc ff fd 33 	lw      r31,0xfffc(r29)
    3668:	f8 ff dd 33 	lw      r30,0xfff8(r29)
    366c:	00 00 e0 47 	jmpr    r31

00003670 <calloc>:
    3670:	f8 ff bd 07 	addi    r29,r29,0xfff8
    3674:	00 00 dd 37 	sw      0x0000(r29),r30
    3678:	04 00 fd 37 	sw      0x0004(r29),r31
    367c:	05 e8 c0 03 	orr     r30,r0,r29
    3680:	ec ff bd 07 	addi    r29,r29,0xffec
    3684:	fc ff 9e 34 	sw      0xfffc(r30),r4
    3688:	f8 ff be 34 	sw      0xfff8(r30),r5
    368c:	01 00 80 2c 	ldih    r4,0x0001
    3690:	b9 70 84 18 	ori     r4,r4,0x70b9
    3694:	d4 0c 00 c0 	ajal    0x00003350
    3698:	fc ff be 30 	lw      r5,0xfffc(r30)
    369c:	f8 ff 9e 30 	lw      r4,0xfff8(r30)
    36a0:	0a 20 85 00 	mul     r4,r5,r4
    36a4:	f4 ff 9e 34 	sw      0xfff4(r30),r4
    36a8:	00 00 80 18 	ori     r4,r0,0x0000
    36ac:	f4 ff be 30 	lw      r5,0xfff4(r30)
    36b0:	50 03 00 c0 	ajal    0x00000d40
    36b4:	05 10 80 00 	orr     r4,r0,r2
    36b8:	f0 ff 9e 34 	sw      0xfff0(r30),r4
    36bc:	f0 ff be 30 	lw      r5,0xfff0(r30)
    36c0:	00 00 80 18 	ori     r4,r0,0x0000
    36c4:	02 20 05 00 	sub     r0,r5,r4
    36c8:	04 00 40 40 	bne     0x000036d8
    36cc:	00 00 80 18 	ori     r4,r0,0x0000
    36d0:	ec ff 9e 34 	sw      0xffec(r30),r4
    36d4:	bc 0d 00 80 	ajmp    0x000036f0
    36d8:	f0 ff 9e 30 	lw      r4,0xfff0(r30)
    36dc:	00 00 a0 18 	ori     r5,r0,0x0000
    36e0:	f4 ff de 30 	lw      r6,0xfff4(r30)
    36e4:	c0 0f 00 c0 	ajal    0x00003f00
    36e8:	05 10 80 00 	orr     r4,r0,r2
    36ec:	ec ff 9e 34 	sw      0xffec(r30),r4
    36f0:	ec ff 5e 30 	lw      r2,0xffec(r30)
    36f4:	14 00 bd 07 	addi    r29,r29,0x0014
    36f8:	05 f0 a0 03 	orr     r29,r0,r30
    36fc:	08 00 bd 07 	addi    r29,r29,0x0008
    3700:	fc ff fd 33 	lw      r31,0xfffc(r29)
    3704:	f8 ff dd 33 	lw      r30,0xfff8(r29)
    3708:	00 00 e0 47 	jmpr    r31
    370c:	00 00 00 00 	nop

00003710 <free>:
    3710:	f8 ff bd 07 	addi    r29,r29,0xfff8
    3714:	00 00 dd 37 	sw      0x0000(r29),r30
    3718:	04 00 fd 37 	sw      0x0004(r29),r31
    371c:	05 e8 c0 03 	orr     r30,r0,r29
    3720:	fc ff bd 07 	addi    r29,r29,0xfffc
    3724:	fc ff 9e 34 	sw      0xfffc(r30),r4
    3728:	01 00 80 2c 	ldih    r4,0x0001
    372c:	c7 70 84 18 	ori     r4,r4,0x70c7
    3730:	d4 0c 00 c0 	ajal    0x00003350
    3734:	fc ff 9e 30 	lw      r4,0xfffc(r30)
    3738:	bc 03 00 c0 	ajal    0x00000ef0
    373c:	04 00 bd 07 	addi    r29,r29,0x0004
    3740:	05 f0 a0 03 	orr     r29,r0,r30
    3744:	08 00 bd 07 	addi    r29,r29,0x0008
    3748:	fc ff fd 33 	lw      r31,0xfffc(r29)
    374c:	f8 ff dd 33 	lw      r30,0xfff8(r29)
    3750:	00 00 e0 47 	jmpr    r31
    3754:	00 00 00 00 	nop
    3758:	00 00 00 00 	nop
    375c:	00 00 00 00 	nop

00003760 <exit>:
    3760:	f8 ff bd 07 	addi    r29,r29,0xfff8
    3764:	00 00 dd 37 	sw      0x0000(r29),r30
    3768:	04 00 fd 37 	sw      0x0004(r29),r31
    376c:	05 e8 c0 03 	orr     r30,r0,r29
    3770:	fc ff bd 07 	addi    r29,r29,0xfffc
    3774:	fc ff 9e 34 	sw      0xfffc(r30),r4
    3778:	25 00 00 c0 	ajal    0x00000094
    377c:	04 00 bd 07 	addi    r29,r29,0x0004
    3780:	05 f0 a0 03 	orr     r29,r0,r30
    3784:	08 00 bd 07 	addi    r29,r29,0x0008
    3788:	fc ff fd 33 	lw      r31,0xfffc(r29)
    378c:	f8 ff dd 33 	lw      r30,0xfff8(r29)
    3790:	00 00 e0 47 	jmpr    r31
    3794:	00 00 00 00 	nop
    3798:	00 00 00 00 	nop
    379c:	00 00 00 00 	nop

000037a0 <labs>:
    37a0:	fc ff bd 07 	addi    r29,r29,0xfffc
    37a4:	00 00 dd 37 	sw      0x0000(r29),r30
    37a8:	05 e8 c0 03 	orr     r30,r0,r29
    37ac:	f8 ff bd 07 	addi    r29,r29,0xfff8
    37b0:	fc ff 9e 34 	sw      0xfffc(r30),r4
    37b4:	fc ff 9e 30 	lw      r4,0xfffc(r30)
    37b8:	f8 ff 9e 34 	sw      0xfff8(r30),r4
    37bc:	00 00 80 18 	ori     r4,r0,0x0000
    37c0:	f8 ff be 30 	lw      r5,0xfff8(r30)
    37c4:	02 20 05 00 	sub     r0,r5,r4
    37c8:	04 00 80 42 	bge     0x000037d8
    37cc:	f8 ff 9e 30 	lw      r4,0xfff8(r30)
    37d0:	02 20 80 00 	sub     r4,r0,r4
    37d4:	f8 ff 9e 34 	sw      0xfff8(r30),r4
    37d8:	f8 ff 9e 30 	lw      r4,0xfff8(r30)
    37dc:	05 20 40 00 	orr     r2,r0,r4
    37e0:	08 00 bd 07 	addi    r29,r29,0x0008
    37e4:	05 f0 a0 03 	orr     r29,r0,r30
    37e8:	04 00 bd 07 	addi    r29,r29,0x0004
    37ec:	fc ff dd 33 	lw      r30,0xfffc(r29)
    37f0:	00 00 e0 47 	jmpr    r31
    37f4:	00 00 00 00 	nop
    37f8:	00 00 00 00 	nop
    37fc:	00 00 00 00 	nop

00003800 <abs>:
    3800:	fc ff bd 07 	addi    r29,r29,0xfffc
    3804:	00 00 dd 37 	sw      0x0000(r29),r30
    3808:	05 e8 c0 03 	orr     r30,r0,r29
    380c:	f8 ff bd 07 	addi    r29,r29,0xfff8
    3810:	fc ff 9e 34 	sw      0xfffc(r30),r4
    3814:	fc ff 9e 30 	lw      r4,0xfffc(r30)
    3818:	f8 ff 9e 34 	sw      0xfff8(r30),r4
    381c:	00 00 80 18 	ori     r4,r0,0x0000
    3820:	f8 ff be 30 	lw      r5,0xfff8(r30)
    3824:	02 20 05 00 	sub     r0,r5,r4
    3828:	04 00 80 42 	bge     0x00003838
    382c:	f8 ff 9e 30 	lw      r4,0xfff8(r30)
    3830:	02 20 80 00 	sub     r4,r0,r4
    3834:	f8 ff 9e 34 	sw      0xfff8(r30),r4
    3838:	f8 ff 9e 30 	lw      r4,0xfff8(r30)
    383c:	05 20 40 00 	orr     r2,r0,r4
    3840:	08 00 bd 07 	addi    r29,r29,0x0008
    3844:	05 f0 a0 03 	orr     r29,r0,r30
    3848:	04 00 bd 07 	addi    r29,r29,0x0004
    384c:	fc ff dd 33 	lw      r30,0xfffc(r29)
    3850:	00 00 e0 47 	jmpr    r31
    3854:	00 00 00 00 	nop
    3858:	00 00 00 00 	nop
    385c:	00 00 00 00 	nop

00003860 <rand>:
    3860:	fc ff bd 07 	addi    r29,r29,0xfffc
    3864:	00 00 dd 37 	sw      0x0000(r29),r30
    3868:	05 e8 c0 03 	orr     r30,r0,r29
    386c:	00 86 80 2c 	ldih    r4,0x8600
    3870:	00 00 84 18 	ori     r4,r4,0x0000
    3874:	00 00 84 30 	lw      r4,0x0000(r4)
    3878:	05 20 40 00 	orr     r2,r0,r4
    387c:	05 f0 a0 03 	orr     r29,r0,r30
    3880:	04 00 bd 07 	addi    r29,r29,0x0004
    3884:	fc ff dd 33 	lw      r30,0xfffc(r29)
    3888:	00 00 e0 47 	jmpr    r31
    388c:	00 00 00 00 	nop

00003890 <strlen>:
    3890:	fc ff bd 07 	addi    r29,r29,0xfffc
    3894:	00 00 dd 37 	sw      0x0000(r29),r30
    3898:	05 e8 c0 03 	orr     r30,r0,r29
    389c:	f8 ff bd 07 	addi    r29,r29,0xfff8
    38a0:	fc ff 9e 34 	sw      0xfffc(r30),r4
    38a4:	00 00 80 18 	ori     r4,r0,0x0000
    38a8:	f8 ff 9e 34 	sw      0xfff8(r30),r4
    38ac:	fc ff be 04 	addi    r5,r30,0xfffc
    38b0:	00 00 85 30 	lw      r4,0x0000(r5)
    38b4:	00 00 c4 38 	lb      r6,0x0000(r4)
    38b8:	01 00 84 04 	addi    r4,r4,0x0001
    38bc:	00 00 85 34 	sw      0x0000(r5),r4
    38c0:	18 00 86 20 	lsli    r4,r6,0x0018
    38c4:	18 00 84 24 	lsri    r4,r4,0x0018
    38c8:	00 00 a0 18 	ori     r5,r0,0x0000
    38cc:	02 28 04 00 	sub     r0,r4,r5
    38d0:	05 00 00 40 	beq     0x000038e4
    38d4:	f8 ff 9e 30 	lw      r4,0xfff8(r30)
    38d8:	01 00 84 04 	addi    r4,r4,0x0001
    38dc:	f8 ff 9e 34 	sw      0xfff8(r30),r4
    38e0:	2b 0e 00 80 	ajmp    0x000038ac
    38e4:	f8 ff 9e 30 	lw      r4,0xfff8(r30)
    38e8:	05 20 40 00 	orr     r2,r0,r4
    38ec:	08 00 bd 07 	addi    r29,r29,0x0008
    38f0:	05 f0 a0 03 	orr     r29,r0,r30
    38f4:	04 00 bd 07 	addi    r29,r29,0x0004
    38f8:	fc ff dd 33 	lw      r30,0xfffc(r29)
    38fc:	00 00 e0 47 	jmpr    r31

00003900 <strcmp>:
    3900:	fc ff bd 07 	addi    r29,r29,0xfffc
    3904:	00 00 dd 37 	sw      0x0000(r29),r30
    3908:	05 e8 c0 03 	orr     r30,r0,r29
    390c:	f8 ff bd 07 	addi    r29,r29,0xfff8
    3910:	fc ff 9e 34 	sw      0xfffc(r30),r4
    3914:	f8 ff be 34 	sw      0xfff8(r30),r5
    3918:	fc ff 9e 30 	lw      r4,0xfffc(r30)
    391c:	00 00 84 38 	lb      r4,0x0000(r4)
    3920:	18 00 84 20 	lsli    r4,r4,0x0018
    3924:	18 00 84 24 	lsri    r4,r4,0x0018
    3928:	00 00 a0 18 	ori     r5,r0,0x0000
    392c:	02 28 04 00 	sub     r0,r4,r5
    3930:	12 00 00 40 	beq     0x00003978
    3934:	fc ff 9e 30 	lw      r4,0xfffc(r30)
    3938:	f8 ff de 30 	lw      r6,0xfff8(r30)
    393c:	00 00 84 38 	lb      r4,0x0000(r4)
    3940:	18 00 a4 20 	lsli    r5,r4,0x0018
    3944:	18 00 a5 24 	lsri    r5,r5,0x0018
    3948:	00 00 86 38 	lb      r4,0x0000(r6)
    394c:	18 00 84 20 	lsli    r4,r4,0x0018
    3950:	18 00 84 24 	lsri    r4,r4,0x0018
    3954:	02 20 05 00 	sub     r0,r5,r4
    3958:	08 00 40 40 	bne     0x00003978
    395c:	fc ff 9e 30 	lw      r4,0xfffc(r30)
    3960:	01 00 84 04 	addi    r4,r4,0x0001
    3964:	fc ff 9e 34 	sw      0xfffc(r30),r4
    3968:	f8 ff 9e 30 	lw      r4,0xfff8(r30)
    396c:	01 00 84 04 	addi    r4,r4,0x0001
    3970:	f8 ff 9e 34 	sw      0xfff8(r30),r4
    3974:	46 0e 00 80 	ajmp    0x00003918
    3978:	fc ff 9e 30 	lw      r4,0xfffc(r30)
    397c:	00 00 84 38 	lb      r4,0x0000(r4)
    3980:	18 00 a4 20 	lsli    r5,r4,0x0018
    3984:	18 00 a5 24 	lsri    r5,r5,0x0018
    3988:	f8 ff 9e 30 	lw      r4,0xfff8(r30)
    398c:	00 00 84 38 	lb      r4,0x0000(r4)
    3990:	18 00 84 20 	lsli    r4,r4,0x0018
    3994:	18 00 84 24 	lsri    r4,r4,0x0018
    3998:	02 20 a5 00 	sub     r5,r5,r4
    399c:	05 28 80 00 	orr     r4,r0,r5
    39a0:	05 20 40 00 	orr     r2,r0,r4
    39a4:	08 00 bd 07 	addi    r29,r29,0x0008
    39a8:	05 f0 a0 03 	orr     r29,r0,r30
    39ac:	04 00 bd 07 	addi    r29,r29,0x0004
    39b0:	fc ff dd 33 	lw      r30,0xfffc(r29)
    39b4:	00 00 e0 47 	jmpr    r31
    39b8:	00 00 00 00 	nop
    39bc:	00 00 00 00 	nop

000039c0 <strncmp>:
    39c0:	fc ff bd 07 	addi    r29,r29,0xfffc
    39c4:	00 00 dd 37 	sw      0x0000(r29),r30
    39c8:	05 e8 c0 03 	orr     r30,r0,r29
    39cc:	f0 ff bd 07 	addi    r29,r29,0xfff0
    39d0:	fc ff 9e 34 	sw      0xfffc(r30),r4
    39d4:	f8 ff be 34 	sw      0xfff8(r30),r5
    39d8:	f4 ff de 34 	sw      0xfff4(r30),r6
    39dc:	fc ff 9e 30 	lw      r4,0xfffc(r30)
    39e0:	00 00 84 38 	lb      r4,0x0000(r4)
    39e4:	18 00 84 20 	lsli    r4,r4,0x0018
    39e8:	18 00 84 24 	lsri    r4,r4,0x0018
    39ec:	00 00 a0 18 	ori     r5,r0,0x0000
    39f0:	02 28 04 00 	sub     r0,r4,r5
    39f4:	1a 00 00 40 	beq     0x00003a5c
    39f8:	fc ff 9e 30 	lw      r4,0xfffc(r30)
    39fc:	f8 ff de 30 	lw      r6,0xfff8(r30)
    3a00:	00 00 84 38 	lb      r4,0x0000(r4)
    3a04:	18 00 a4 20 	lsli    r5,r4,0x0018
    3a08:	18 00 a5 24 	lsri    r5,r5,0x0018
    3a0c:	00 00 86 38 	lb      r4,0x0000(r6)
    3a10:	18 00 84 20 	lsli    r4,r4,0x0018
    3a14:	18 00 84 24 	lsri    r4,r4,0x0018
    3a18:	02 20 05 00 	sub     r0,r5,r4
    3a1c:	10 00 40 40 	bne     0x00003a5c
    3a20:	f4 ff 9e 30 	lw      r4,0xfff4(r30)
    3a24:	ff ff 84 04 	addi    r4,r4,0xffff
    3a28:	05 20 a0 00 	orr     r5,r0,r4
    3a2c:	f4 ff be 34 	sw      0xfff4(r30),r5
    3a30:	ff ff 80 2c 	ldih    r4,0xffff
    3a34:	ff ff 84 18 	ori     r4,r4,0xffff
    3a38:	02 20 05 00 	sub     r0,r5,r4
    3a3c:	08 00 00 40 	beq     0x00003a5c
    3a40:	fc ff 9e 30 	lw      r4,0xfffc(r30)
    3a44:	01 00 84 04 	addi    r4,r4,0x0001
    3a48:	fc ff 9e 34 	sw      0xfffc(r30),r4
    3a4c:	f8 ff 9e 30 	lw      r4,0xfff8(r30)
    3a50:	01 00 84 04 	addi    r4,r4,0x0001
    3a54:	f8 ff 9e 34 	sw      0xfff8(r30),r4
    3a58:	77 0e 00 80 	ajmp    0x000039dc
    3a5c:	f4 ff be 30 	lw      r5,0xfff4(r30)
    3a60:	00 00 80 18 	ori     r4,r0,0x0000
    3a64:	02 20 05 00 	sub     r0,r5,r4
    3a68:	10 00 00 40 	beq     0x00003aa8
    3a6c:	fc ff 9e 30 	lw      r4,0xfffc(r30)
    3a70:	00 00 84 38 	lb      r4,0x0000(r4)
    3a74:	18 00 84 20 	lsli    r4,r4,0x0018
    3a78:	f0 ff 9e 34 	sw      0xfff0(r30),r4
    3a7c:	f0 ff 9e 30 	lw      r4,0xfff0(r30)
    3a80:	18 00 84 24 	lsri    r4,r4,0x0018
    3a84:	f0 ff 9e 34 	sw      0xfff0(r30),r4
    3a88:	f8 ff 9e 30 	lw      r4,0xfff8(r30)
    3a8c:	00 00 84 38 	lb      r4,0x0000(r4)
    3a90:	18 00 84 20 	lsli    r4,r4,0x0018
    3a94:	18 00 84 24 	lsri    r4,r4,0x0018
    3a98:	f0 ff be 30 	lw      r5,0xfff0(r30)
    3a9c:	02 20 a5 00 	sub     r5,r5,r4
    3aa0:	f0 ff be 34 	sw      0xfff0(r30),r5
    3aa4:	ac 0e 00 80 	ajmp    0x00003ab0
    3aa8:	00 00 80 18 	ori     r4,r0,0x0000
    3aac:	f0 ff 9e 34 	sw      0xfff0(r30),r4
    3ab0:	f0 ff 9e 30 	lw      r4,0xfff0(r30)
    3ab4:	05 20 40 00 	orr     r2,r0,r4
    3ab8:	10 00 bd 07 	addi    r29,r29,0x0010
    3abc:	05 f0 a0 03 	orr     r29,r0,r30
    3ac0:	04 00 bd 07 	addi    r29,r29,0x0004
    3ac4:	fc ff dd 33 	lw      r30,0xfffc(r29)
    3ac8:	00 00 e0 47 	jmpr    r31
    3acc:	00 00 00 00 	nop

00003ad0 <strcpy>:
    3ad0:	f8 ff bd 07 	addi    r29,r29,0xfff8
    3ad4:	00 00 dd 37 	sw      0x0000(r29),r30
    3ad8:	04 00 1d 35 	sw      0x0004(r29),r8
    3adc:	05 e8 c0 03 	orr     r30,r0,r29
    3ae0:	f4 ff bd 07 	addi    r29,r29,0xfff4
    3ae4:	fc ff 9e 34 	sw      0xfffc(r30),r4
    3ae8:	f8 ff be 34 	sw      0xfff8(r30),r5
    3aec:	fc ff 9e 30 	lw      r4,0xfffc(r30)
    3af0:	f4 ff 9e 34 	sw      0xfff4(r30),r4
    3af4:	fc ff 1e 05 	addi    r8,r30,0xfffc
    3af8:	00 00 a8 30 	lw      r5,0x0000(r8)
    3afc:	f8 ff de 04 	addi    r6,r30,0xfff8
    3b00:	00 00 86 30 	lw      r4,0x0000(r6)
    3b04:	00 00 e4 38 	lb      r7,0x0000(r4)
    3b08:	01 00 84 04 	addi    r4,r4,0x0001
    3b0c:	00 00 86 34 	sw      0x0000(r6),r4
    3b10:	05 28 80 00 	orr     r4,r0,r5
    3b14:	00 00 e4 3c 	sb      0x0000(r4),r7
    3b18:	01 00 a5 04 	addi    r5,r5,0x0001
    3b1c:	00 00 a8 34 	sw      0x0000(r8),r5
    3b20:	18 00 87 20 	lsli    r4,r7,0x0018
    3b24:	18 00 84 24 	lsri    r4,r4,0x0018
    3b28:	00 00 a0 18 	ori     r5,r0,0x0000
    3b2c:	02 28 04 00 	sub     r0,r4,r5
    3b30:	02 00 00 40 	beq     0x00003b38
    3b34:	bd 0e 00 80 	ajmp    0x00003af4
    3b38:	f4 ff 9e 30 	lw      r4,0xfff4(r30)
    3b3c:	05 20 40 00 	orr     r2,r0,r4
    3b40:	0c 00 bd 07 	addi    r29,r29,0x000c
    3b44:	05 f0 a0 03 	orr     r29,r0,r30
    3b48:	08 00 bd 07 	addi    r29,r29,0x0008
    3b4c:	fc ff 1d 31 	lw      r8,0xfffc(r29)
    3b50:	f8 ff dd 33 	lw      r30,0xfff8(r29)
    3b54:	00 00 e0 47 	jmpr    r31
    3b58:	00 00 00 00 	nop
    3b5c:	00 00 00 00 	nop

00003b60 <strncpy>:
    3b60:	fc ff bd 07 	addi    r29,r29,0xfffc
    3b64:	00 00 dd 37 	sw      0x0000(r29),r30
    3b68:	05 e8 c0 03 	orr     r30,r0,r29
    3b6c:	f0 ff bd 07 	addi    r29,r29,0xfff0
    3b70:	fc ff 9e 34 	sw      0xfffc(r30),r4
    3b74:	f8 ff be 34 	sw      0xfff8(r30),r5
    3b78:	f4 ff de 34 	sw      0xfff4(r30),r6
    3b7c:	fc ff 9e 30 	lw      r4,0xfffc(r30)
    3b80:	f0 ff 9e 34 	sw      0xfff0(r30),r4
    3b84:	f4 ff 9e 30 	lw      r4,0xfff4(r30)
    3b88:	ff ff 84 04 	addi    r4,r4,0xffff
    3b8c:	05 20 a0 00 	orr     r5,r0,r4
    3b90:	f4 ff be 34 	sw      0xfff4(r30),r5
    3b94:	ff ff 80 2c 	ldih    r4,0xffff
    3b98:	ff ff 84 18 	ori     r4,r4,0xffff
    3b9c:	02 20 05 00 	sub     r0,r5,r4
    3ba0:	14 00 00 40 	beq     0x00003bf0
    3ba4:	fc ff fe 04 	addi    r7,r30,0xfffc
    3ba8:	00 00 87 30 	lw      r4,0x0000(r7)
    3bac:	f8 ff de 30 	lw      r6,0xfff8(r30)
    3bb0:	05 20 a0 00 	orr     r5,r0,r4
    3bb4:	00 00 c6 38 	lb      r6,0x0000(r6)
    3bb8:	00 00 c5 3c 	sb      0x0000(r5),r6
    3bbc:	01 00 84 04 	addi    r4,r4,0x0001
    3bc0:	00 00 87 34 	sw      0x0000(r7),r4
    3bc4:	f8 ff 9e 30 	lw      r4,0xfff8(r30)
    3bc8:	00 00 84 38 	lb      r4,0x0000(r4)
    3bcc:	18 00 84 20 	lsli    r4,r4,0x0018
    3bd0:	18 00 84 24 	lsri    r4,r4,0x0018
    3bd4:	00 00 a0 18 	ori     r5,r0,0x0000
    3bd8:	02 28 04 00 	sub     r0,r4,r5
    3bdc:	ea ff 3f 40 	beq     0x00003b84
    3be0:	f8 ff 9e 30 	lw      r4,0xfff8(r30)
    3be4:	01 00 84 04 	addi    r4,r4,0x0001
    3be8:	f8 ff 9e 34 	sw      0xfff8(r30),r4
    3bec:	e1 0e 00 80 	ajmp    0x00003b84
    3bf0:	f0 ff 9e 30 	lw      r4,0xfff0(r30)
    3bf4:	05 20 40 00 	orr     r2,r0,r4
    3bf8:	10 00 bd 07 	addi    r29,r29,0x0010
    3bfc:	05 f0 a0 03 	orr     r29,r0,r30
    3c00:	04 00 bd 07 	addi    r29,r29,0x0004
    3c04:	fc ff dd 33 	lw      r30,0xfffc(r29)
    3c08:	00 00 e0 47 	jmpr    r31
    3c0c:	00 00 00 00 	nop

00003c10 <strcat>:
    3c10:	f4 ff bd 07 	addi    r29,r29,0xfff4
    3c14:	00 00 dd 37 	sw      0x0000(r29),r30
    3c18:	04 00 fd 37 	sw      0x0004(r29),r31
    3c1c:	08 00 1d 35 	sw      0x0008(r29),r8
    3c20:	05 e8 c0 03 	orr     r30,r0,r29
    3c24:	f4 ff bd 07 	addi    r29,r29,0xfff4
    3c28:	fc ff 9e 34 	sw      0xfffc(r30),r4
    3c2c:	f8 ff be 34 	sw      0xfff8(r30),r5
    3c30:	fc ff 9e 30 	lw      r4,0xfffc(r30)
    3c34:	f4 ff 9e 34 	sw      0xfff4(r30),r4
    3c38:	fc ff 9e 30 	lw      r4,0xfffc(r30)
    3c3c:	24 0e 00 c0 	ajal    0x00003890
    3c40:	05 10 80 00 	orr     r4,r0,r2
    3c44:	05 20 a0 00 	orr     r5,r0,r4
    3c48:	fc ff 9e 30 	lw      r4,0xfffc(r30)
    3c4c:	00 28 84 00 	add     r4,r4,r5
    3c50:	fc ff 9e 34 	sw      0xfffc(r30),r4
    3c54:	fc ff 1e 05 	addi    r8,r30,0xfffc
    3c58:	00 00 a8 30 	lw      r5,0x0000(r8)
    3c5c:	f8 ff de 04 	addi    r6,r30,0xfff8
    3c60:	00 00 86 30 	lw      r4,0x0000(r6)
    3c64:	00 00 e4 38 	lb      r7,0x0000(r4)
    3c68:	01 00 84 04 	addi    r4,r4,0x0001
    3c6c:	00 00 86 34 	sw      0x0000(r6),r4
    3c70:	05 28 80 00 	orr     r4,r0,r5
    3c74:	00 00 e4 3c 	sb      0x0000(r4),r7
    3c78:	01 00 a5 04 	addi    r5,r5,0x0001
    3c7c:	00 00 a8 34 	sw      0x0000(r8),r5
    3c80:	18 00 87 20 	lsli    r4,r7,0x0018
    3c84:	18 00 84 24 	lsri    r4,r4,0x0018
    3c88:	00 00 a0 18 	ori     r5,r0,0x0000
    3c8c:	02 28 04 00 	sub     r0,r4,r5
    3c90:	02 00 00 40 	beq     0x00003c98
    3c94:	15 0f 00 80 	ajmp    0x00003c54
    3c98:	f4 ff 9e 30 	lw      r4,0xfff4(r30)
    3c9c:	05 20 40 00 	orr     r2,r0,r4
    3ca0:	0c 00 bd 07 	addi    r29,r29,0x000c
    3ca4:	05 f0 a0 03 	orr     r29,r0,r30
    3ca8:	0c 00 bd 07 	addi    r29,r29,0x000c
    3cac:	fc ff 1d 31 	lw      r8,0xfffc(r29)
    3cb0:	f8 ff fd 33 	lw      r31,0xfff8(r29)
    3cb4:	f4 ff dd 33 	lw      r30,0xfff4(r29)
    3cb8:	00 00 e0 47 	jmpr    r31
    3cbc:	00 00 00 00 	nop

00003cc0 <strncat>:
    3cc0:	f4 ff bd 07 	addi    r29,r29,0xfff4
    3cc4:	00 00 dd 37 	sw      0x0000(r29),r30
    3cc8:	04 00 fd 37 	sw      0x0004(r29),r31
    3ccc:	08 00 1d 35 	sw      0x0008(r29),r8
    3cd0:	05 e8 c0 03 	orr     r30,r0,r29
    3cd4:	f0 ff bd 07 	addi    r29,r29,0xfff0
    3cd8:	fc ff 9e 34 	sw      0xfffc(r30),r4
    3cdc:	f8 ff be 34 	sw      0xfff8(r30),r5
    3ce0:	f4 ff de 34 	sw      0xfff4(r30),r6
    3ce4:	fc ff 9e 30 	lw      r4,0xfffc(r30)
    3ce8:	f0 ff 9e 34 	sw      0xfff0(r30),r4
    3cec:	fc ff 9e 30 	lw      r4,0xfffc(r30)
    3cf0:	24 0e 00 c0 	ajal    0x00003890
    3cf4:	05 10 80 00 	orr     r4,r0,r2
    3cf8:	05 20 a0 00 	orr     r5,r0,r4
    3cfc:	fc ff 9e 30 	lw      r4,0xfffc(r30)
    3d00:	00 28 84 00 	add     r4,r4,r5
    3d04:	fc ff 9e 34 	sw      0xfffc(r30),r4
    3d08:	f4 ff 9e 30 	lw      r4,0xfff4(r30)
    3d0c:	ff ff 84 04 	addi    r4,r4,0xffff
    3d10:	05 20 a0 00 	orr     r5,r0,r4
    3d14:	f4 ff be 34 	sw      0xfff4(r30),r5
    3d18:	ff ff 80 2c 	ldih    r4,0xffff
    3d1c:	ff ff 84 18 	ori     r4,r4,0xffff
    3d20:	02 20 05 00 	sub     r0,r5,r4
    3d24:	12 00 00 40 	beq     0x00003d6c
    3d28:	fc ff 1e 05 	addi    r8,r30,0xfffc
    3d2c:	00 00 a8 30 	lw      r5,0x0000(r8)
    3d30:	f8 ff de 04 	addi    r6,r30,0xfff8
    3d34:	00 00 86 30 	lw      r4,0x0000(r6)
    3d38:	00 00 e4 38 	lb      r7,0x0000(r4)
    3d3c:	01 00 84 04 	addi    r4,r4,0x0001
    3d40:	00 00 86 34 	sw      0x0000(r6),r4
    3d44:	05 28 80 00 	orr     r4,r0,r5
    3d48:	00 00 e4 3c 	sb      0x0000(r4),r7
    3d4c:	01 00 a5 04 	addi    r5,r5,0x0001
    3d50:	00 00 a8 34 	sw      0x0000(r8),r5
    3d54:	18 00 87 20 	lsli    r4,r7,0x0018
    3d58:	18 00 84 24 	lsri    r4,r4,0x0018
    3d5c:	00 00 a0 18 	ori     r5,r0,0x0000
    3d60:	02 28 04 00 	sub     r0,r4,r5
    3d64:	02 00 00 40 	beq     0x00003d6c
    3d68:	42 0f 00 80 	ajmp    0x00003d08
    3d6c:	fc ff 9e 30 	lw      r4,0xfffc(r30)
    3d70:	00 00 a0 18 	ori     r5,r0,0x0000
    3d74:	00 00 a4 3c 	sb      0x0000(r4),r5
    3d78:	f0 ff 9e 30 	lw      r4,0xfff0(r30)
    3d7c:	05 20 40 00 	orr     r2,r0,r4
    3d80:	10 00 bd 07 	addi    r29,r29,0x0010
    3d84:	05 f0 a0 03 	orr     r29,r0,r30
    3d88:	0c 00 bd 07 	addi    r29,r29,0x000c
    3d8c:	fc ff 1d 31 	lw      r8,0xfffc(r29)
    3d90:	f8 ff fd 33 	lw      r31,0xfff8(r29)
    3d94:	f4 ff dd 33 	lw      r30,0xfff4(r29)
    3d98:	00 00 e0 47 	jmpr    r31
    3d9c:	00 00 00 00 	nop

00003da0 <strchr>:
    3da0:	fc ff bd 07 	addi    r29,r29,0xfffc
    3da4:	00 00 dd 37 	sw      0x0000(r29),r30
    3da8:	05 e8 c0 03 	orr     r30,r0,r29
    3dac:	f4 ff bd 07 	addi    r29,r29,0xfff4
    3db0:	fc ff 9e 34 	sw      0xfffc(r30),r4
    3db4:	f8 ff be 34 	sw      0xfff8(r30),r5
    3db8:	fc ff 9e 30 	lw      r4,0xfffc(r30)
    3dbc:	00 00 84 38 	lb      r4,0x0000(r4)
    3dc0:	18 00 84 20 	lsli    r4,r4,0x0018
    3dc4:	18 00 84 24 	lsri    r4,r4,0x0018
    3dc8:	00 00 a0 18 	ori     r5,r0,0x0000
    3dcc:	02 28 04 00 	sub     r0,r4,r5
    3dd0:	0f 00 00 40 	beq     0x00003e0c
    3dd4:	fc ff 9e 30 	lw      r4,0xfffc(r30)
    3dd8:	00 00 84 38 	lb      r4,0x0000(r4)
    3ddc:	18 00 84 20 	lsli    r4,r4,0x0018
    3de0:	18 00 84 24 	lsri    r4,r4,0x0018
    3de4:	f8 ff be 30 	lw      r5,0xfff8(r30)
    3de8:	02 28 04 00 	sub     r0,r4,r5
    3dec:	04 00 40 40 	bne     0x00003dfc
    3df0:	fc ff 9e 30 	lw      r4,0xfffc(r30)
    3df4:	f4 ff 9e 34 	sw      0xfff4(r30),r4
    3df8:	85 0f 00 80 	ajmp    0x00003e14
    3dfc:	fc ff 9e 30 	lw      r4,0xfffc(r30)
    3e00:	01 00 84 04 	addi    r4,r4,0x0001
    3e04:	fc ff 9e 34 	sw      0xfffc(r30),r4
    3e08:	6e 0f 00 80 	ajmp    0x00003db8
    3e0c:	00 00 80 18 	ori     r4,r0,0x0000
    3e10:	f4 ff 9e 34 	sw      0xfff4(r30),r4
    3e14:	f4 ff 5e 30 	lw      r2,0xfff4(r30)
    3e18:	0c 00 bd 07 	addi    r29,r29,0x000c
    3e1c:	05 f0 a0 03 	orr     r29,r0,r30
    3e20:	04 00 bd 07 	addi    r29,r29,0x0004
    3e24:	fc ff dd 33 	lw      r30,0xfffc(r29)
    3e28:	00 00 e0 47 	jmpr    r31
    3e2c:	00 00 00 00 	nop

00003e30 <strstr>:
    3e30:	f8 ff bd 07 	addi    r29,r29,0xfff8
    3e34:	00 00 dd 37 	sw      0x0000(r29),r30
    3e38:	04 00 fd 37 	sw      0x0004(r29),r31
    3e3c:	05 e8 c0 03 	orr     r30,r0,r29
    3e40:	ec ff bd 07 	addi    r29,r29,0xffec
    3e44:	fc ff 9e 34 	sw      0xfffc(r30),r4
    3e48:	f8 ff be 34 	sw      0xfff8(r30),r5
    3e4c:	fc ff 9e 30 	lw      r4,0xfffc(r30)
    3e50:	f4 ff 9e 34 	sw      0xfff4(r30),r4
    3e54:	f8 ff 9e 30 	lw      r4,0xfff8(r30)
    3e58:	24 0e 00 c0 	ajal    0x00003890
    3e5c:	05 10 80 00 	orr     r4,r0,r2
    3e60:	f0 ff 9e 34 	sw      0xfff0(r30),r4
    3e64:	f8 ff 9e 30 	lw      r4,0xfff8(r30)
    3e68:	00 00 84 38 	lb      r4,0x0000(r4)
    3e6c:	18 00 a4 20 	lsli    r5,r4,0x0018
    3e70:	18 00 a5 24 	lsri    r5,r5,0x0018
    3e74:	f4 ff 9e 30 	lw      r4,0xfff4(r30)
    3e78:	68 0f 00 c0 	ajal    0x00003da0
    3e7c:	05 10 80 00 	orr     r4,r0,r2
    3e80:	f4 ff 9e 34 	sw      0xfff4(r30),r4
    3e84:	f4 ff be 30 	lw      r5,0xfff4(r30)
    3e88:	00 00 80 18 	ori     r4,r0,0x0000
    3e8c:	02 20 05 00 	sub     r0,r5,r4
    3e90:	11 00 00 40 	beq     0x00003ed4
    3e94:	f4 ff 9e 30 	lw      r4,0xfff4(r30)
    3e98:	f8 ff be 30 	lw      r5,0xfff8(r30)
    3e9c:	f0 ff de 30 	lw      r6,0xfff0(r30)
    3ea0:	70 0e 00 c0 	ajal    0x000039c0
    3ea4:	05 10 80 00 	orr     r4,r0,r2
    3ea8:	05 20 a0 00 	orr     r5,r0,r4
    3eac:	00 00 80 18 	ori     r4,r0,0x0000
    3eb0:	02 20 05 00 	sub     r0,r5,r4
    3eb4:	04 00 40 40 	bne     0x00003ec4
    3eb8:	f4 ff 9e 30 	lw      r4,0xfff4(r30)
    3ebc:	ec ff 9e 34 	sw      0xffec(r30),r4
    3ec0:	b7 0f 00 80 	ajmp    0x00003edc
    3ec4:	f4 ff 9e 30 	lw      r4,0xfff4(r30)
    3ec8:	01 00 84 04 	addi    r4,r4,0x0001
    3ecc:	f4 ff 9e 34 	sw      0xfff4(r30),r4
    3ed0:	99 0f 00 80 	ajmp    0x00003e64
    3ed4:	00 00 80 18 	ori     r4,r0,0x0000
    3ed8:	ec ff 9e 34 	sw      0xffec(r30),r4
    3edc:	ec ff 5e 30 	lw      r2,0xffec(r30)
    3ee0:	14 00 bd 07 	addi    r29,r29,0x0014
    3ee4:	05 f0 a0 03 	orr     r29,r0,r30
    3ee8:	08 00 bd 07 	addi    r29,r29,0x0008
    3eec:	fc ff fd 33 	lw      r31,0xfffc(r29)
    3ef0:	f8 ff dd 33 	lw      r30,0xfff8(r29)
    3ef4:	00 00 e0 47 	jmpr    r31
    3ef8:	00 00 00 00 	nop
    3efc:	00 00 00 00 	nop

00003f00 <memset>:
    3f00:	fc ff bd 07 	addi    r29,r29,0xfffc
    3f04:	00 00 dd 37 	sw      0x0000(r29),r30
    3f08:	05 e8 c0 03 	orr     r30,r0,r29
    3f0c:	f0 ff bd 07 	addi    r29,r29,0xfff0
    3f10:	fc ff 9e 34 	sw      0xfffc(r30),r4
    3f14:	f8 ff be 34 	sw      0xfff8(r30),r5
    3f18:	f4 ff de 34 	sw      0xfff4(r30),r6
    3f1c:	fc ff 9e 30 	lw      r4,0xfffc(r30)
    3f20:	f0 ff 9e 34 	sw      0xfff0(r30),r4
    3f24:	f4 ff 9e 30 	lw      r4,0xfff4(r30)
    3f28:	ff ff 84 04 	addi    r4,r4,0xffff
    3f2c:	05 20 a0 00 	orr     r5,r0,r4
    3f30:	f4 ff be 34 	sw      0xfff4(r30),r5
    3f34:	ff ff 80 2c 	ldih    r4,0xffff
    3f38:	ff ff 84 18 	ori     r4,r4,0xffff
    3f3c:	02 20 05 00 	sub     r0,r5,r4
    3f40:	0a 00 00 40 	beq     0x00003f68
    3f44:	f0 ff fe 04 	addi    r7,r30,0xfff0
    3f48:	00 00 a7 30 	lw      r5,0x0000(r7)
    3f4c:	f8 ff 9e 30 	lw      r4,0xfff8(r30)
    3f50:	05 20 c0 00 	orr     r6,r0,r4
    3f54:	05 28 80 00 	orr     r4,r0,r5
    3f58:	00 00 c4 3c 	sb      0x0000(r4),r6
    3f5c:	01 00 a5 04 	addi    r5,r5,0x0001
    3f60:	00 00 a7 34 	sw      0x0000(r7),r5
    3f64:	c9 0f 00 80 	ajmp    0x00003f24
    3f68:	fc ff 9e 30 	lw      r4,0xfffc(r30)
    3f6c:	05 20 40 00 	orr     r2,r0,r4
    3f70:	10 00 bd 07 	addi    r29,r29,0x0010
    3f74:	05 f0 a0 03 	orr     r29,r0,r30
    3f78:	04 00 bd 07 	addi    r29,r29,0x0004
    3f7c:	fc ff dd 33 	lw      r30,0xfffc(r29)
    3f80:	00 00 e0 47 	jmpr    r31
    3f84:	00 00 00 00 	nop
    3f88:	00 00 00 00 	nop
    3f8c:	00 00 00 00 	nop

00003f90 <memcpy>:
    3f90:	f8 ff bd 07 	addi    r29,r29,0xfff8
    3f94:	00 00 dd 37 	sw      0x0000(r29),r30
    3f98:	04 00 1d 35 	sw      0x0004(r29),r8
    3f9c:	05 e8 c0 03 	orr     r30,r0,r29
    3fa0:	ec ff bd 07 	addi    r29,r29,0xffec
    3fa4:	fc ff 9e 34 	sw      0xfffc(r30),r4
    3fa8:	f8 ff be 34 	sw      0xfff8(r30),r5
    3fac:	f4 ff de 34 	sw      0xfff4(r30),r6
    3fb0:	fc ff 9e 30 	lw      r4,0xfffc(r30)
    3fb4:	f0 ff 9e 34 	sw      0xfff0(r30),r4
    3fb8:	f8 ff 9e 30 	lw      r4,0xfff8(r30)
    3fbc:	ec ff 9e 34 	sw      0xffec(r30),r4
    3fc0:	f4 ff 9e 30 	lw      r4,0xfff4(r30)
    3fc4:	ff ff 84 04 	addi    r4,r4,0xffff
    3fc8:	05 20 a0 00 	orr     r5,r0,r4
    3fcc:	f4 ff be 34 	sw      0xfff4(r30),r5
    3fd0:	ff ff 80 2c 	ldih    r4,0xffff
    3fd4:	ff ff 84 18 	ori     r4,r4,0xffff
    3fd8:	02 20 05 00 	sub     r0,r5,r4
    3fdc:	0d 00 00 40 	beq     0x00004010
    3fe0:	f0 ff 1e 05 	addi    r8,r30,0xfff0
    3fe4:	00 00 a8 30 	lw      r5,0x0000(r8)
    3fe8:	ec ff de 04 	addi    r6,r30,0xffec
    3fec:	00 00 86 30 	lw      r4,0x0000(r6)
    3ff0:	00 00 e4 38 	lb      r7,0x0000(r4)
    3ff4:	01 00 84 04 	addi    r4,r4,0x0001
    3ff8:	00 00 86 34 	sw      0x0000(r6),r4
    3ffc:	05 28 80 00 	orr     r4,r0,r5
    4000:	00 00 e4 3c 	sb      0x0000(r4),r7
    4004:	01 00 a5 04 	addi    r5,r5,0x0001
    4008:	00 00 a8 34 	sw      0x0000(r8),r5
    400c:	f0 0f 00 80 	ajmp    0x00003fc0
    4010:	fc ff 9e 30 	lw      r4,0xfffc(r30)
    4014:	05 20 40 00 	orr     r2,r0,r4
    4018:	14 00 bd 07 	addi    r29,r29,0x0014
    401c:	05 f0 a0 03 	orr     r29,r0,r30
    4020:	08 00 bd 07 	addi    r29,r29,0x0008
    4024:	fc ff 1d 31 	lw      r8,0xfffc(r29)
    4028:	f8 ff dd 33 	lw      r30,0xfff8(r29)
    402c:	00 00 e0 47 	jmpr    r31

00004030 <memmove>:
    4030:	f8 ff bd 07 	addi    r29,r29,0xfff8
    4034:	00 00 dd 37 	sw      0x0000(r29),r30
    4038:	04 00 1d 35 	sw      0x0004(r29),r8
    403c:	05 e8 c0 03 	orr     r30,r0,r29
    4040:	e8 ff bd 07 	addi    r29,r29,0xffe8
    4044:	fc ff 9e 34 	sw      0xfffc(r30),r4
    4048:	f8 ff be 34 	sw      0xfff8(r30),r5
    404c:	f4 ff de 34 	sw      0xfff4(r30),r6
    4050:	fc ff 9e 30 	lw      r4,0xfffc(r30)
    4054:	f0 ff 9e 34 	sw      0xfff0(r30),r4
    4058:	f8 ff 9e 30 	lw      r4,0xfff8(r30)
    405c:	ec ff 9e 34 	sw      0xffec(r30),r4
    4060:	f4 ff 9e 30 	lw      r4,0xfff4(r30)
    4064:	e8 ff 9e 34 	sw      0xffe8(r30),r4
    4068:	f0 ff be 30 	lw      r5,0xfff0(r30)
    406c:	ec ff 9e 30 	lw      r4,0xffec(r30)
    4070:	02 20 05 00 	sub     r0,r5,r4
    4074:	14 00 40 42 	bls     0x000040c4
    4078:	f4 ff be 30 	lw      r5,0xfff4(r30)
    407c:	00 00 80 18 	ori     r4,r0,0x0000
    4080:	02 20 05 00 	sub     r0,r5,r4
    4084:	28 00 00 40 	beq     0x00004124
    4088:	f4 ff 9e 30 	lw      r4,0xfff4(r30)
    408c:	ff ff 84 04 	addi    r4,r4,0xffff
    4090:	05 20 a0 00 	orr     r5,r0,r4
    4094:	f4 ff be 34 	sw      0xfff4(r30),r5
    4098:	f0 ff 9e 30 	lw      r4,0xfff0(r30)
    409c:	00 20 c5 00 	add     r6,r5,r4
    40a0:	e8 ff 9e 30 	lw      r4,0xffe8(r30)
    40a4:	ff ff 84 04 	addi    r4,r4,0xffff
    40a8:	05 20 a0 00 	orr     r5,r0,r4
    40ac:	e8 ff be 34 	sw      0xffe8(r30),r5
    40b0:	ec ff 9e 30 	lw      r4,0xffec(r30)
    40b4:	00 20 85 00 	add     r4,r5,r4
    40b8:	00 00 84 38 	lb      r4,0x0000(r4)
    40bc:	00 00 86 3c 	sb      0x0000(r6),r4
    40c0:	1e 10 00 80 	ajmp    0x00004078
    40c4:	f0 ff be 30 	lw      r5,0xfff0(r30)
    40c8:	ec ff 9e 30 	lw      r4,0xffec(r30)
    40cc:	02 20 05 00 	sub     r0,r5,r4
    40d0:	15 00 00 41 	bhs     0x00004124
    40d4:	f4 ff 9e 30 	lw      r4,0xfff4(r30)
    40d8:	ff ff 84 04 	addi    r4,r4,0xffff
    40dc:	05 20 a0 00 	orr     r5,r0,r4
    40e0:	f4 ff be 34 	sw      0xfff4(r30),r5
    40e4:	ff ff 80 2c 	ldih    r4,0xffff
    40e8:	ff ff 84 18 	ori     r4,r4,0xffff
    40ec:	02 20 05 00 	sub     r0,r5,r4
    40f0:	0d 00 00 40 	beq     0x00004124
    40f4:	f0 ff 1e 05 	addi    r8,r30,0xfff0
    40f8:	00 00 a8 30 	lw      r5,0x0000(r8)
    40fc:	ec ff de 04 	addi    r6,r30,0xffec
    4100:	00 00 86 30 	lw      r4,0x0000(r6)
    4104:	00 00 e4 38 	lb      r7,0x0000(r4)
    4108:	01 00 84 04 	addi    r4,r4,0x0001
    410c:	00 00 86 34 	sw      0x0000(r6),r4
    4110:	05 28 80 00 	orr     r4,r0,r5
    4114:	00 00 e4 3c 	sb      0x0000(r4),r7
    4118:	01 00 a5 04 	addi    r5,r5,0x0001
    411c:	00 00 a8 34 	sw      0x0000(r8),r5
    4120:	35 10 00 80 	ajmp    0x000040d4
    4124:	fc ff 9e 30 	lw      r4,0xfffc(r30)
    4128:	05 20 40 00 	orr     r2,r0,r4
    412c:	18 00 bd 07 	addi    r29,r29,0x0018
    4130:	05 f0 a0 03 	orr     r29,r0,r30
    4134:	08 00 bd 07 	addi    r29,r29,0x0008
    4138:	fc ff 1d 31 	lw      r8,0xfffc(r29)
    413c:	f8 ff dd 33 	lw      r30,0xfff8(r29)
    4140:	00 00 e0 47 	jmpr    r31
    4144:	00 00 00 00 	nop
    4148:	00 00 00 00 	nop
    414c:	00 00 00 00 	nop

00004150 <memcmp>:
    4150:	fc ff bd 07 	addi    r29,r29,0xfffc
    4154:	00 00 dd 37 	sw      0x0000(r29),r30
    4158:	05 e8 c0 03 	orr     r30,r0,r29
    415c:	e8 ff bd 07 	addi    r29,r29,0xffe8
    4160:	fc ff 9e 34 	sw      0xfffc(r30),r4
    4164:	f8 ff be 34 	sw      0xfff8(r30),r5
    4168:	f4 ff de 34 	sw      0xfff4(r30),r6
    416c:	fc ff 9e 30 	lw      r4,0xfffc(r30)
    4170:	f0 ff 9e 34 	sw      0xfff0(r30),r4
    4174:	f8 ff 9e 30 	lw      r4,0xfff8(r30)
    4178:	ec ff 9e 34 	sw      0xffec(r30),r4
    417c:	f0 ff 9e 30 	lw      r4,0xfff0(r30)
    4180:	ec ff de 30 	lw      r6,0xffec(r30)
    4184:	00 00 84 38 	lb      r4,0x0000(r4)
    4188:	18 00 a4 20 	lsli    r5,r4,0x0018
    418c:	18 00 a5 24 	lsri    r5,r5,0x0018
    4190:	00 00 86 38 	lb      r4,0x0000(r6)
    4194:	18 00 84 20 	lsli    r4,r4,0x0018
    4198:	18 00 84 24 	lsri    r4,r4,0x0018
    419c:	02 20 05 00 	sub     r0,r5,r4
    41a0:	10 00 40 40 	bne     0x000041e0
    41a4:	f4 ff 9e 30 	lw      r4,0xfff4(r30)
    41a8:	ff ff 84 04 	addi    r4,r4,0xffff
    41ac:	05 20 a0 00 	orr     r5,r0,r4
    41b0:	f4 ff be 34 	sw      0xfff4(r30),r5
    41b4:	ff ff 80 2c 	ldih    r4,0xffff
    41b8:	ff ff 84 18 	ori     r4,r4,0xffff
    41bc:	02 20 05 00 	sub     r0,r5,r4
    41c0:	08 00 00 40 	beq     0x000041e0
    41c4:	f0 ff 9e 30 	lw      r4,0xfff0(r30)
    41c8:	01 00 84 04 	addi    r4,r4,0x0001
    41cc:	f0 ff 9e 34 	sw      0xfff0(r30),r4
    41d0:	ec ff 9e 30 	lw      r4,0xffec(r30)
    41d4:	01 00 84 04 	addi    r4,r4,0x0001
    41d8:	ec ff 9e 34 	sw      0xffec(r30),r4
    41dc:	5f 10 00 80 	ajmp    0x0000417c
    41e0:	f4 ff be 30 	lw      r5,0xfff4(r30)
    41e4:	00 00 80 18 	ori     r4,r0,0x0000
    41e8:	02 20 05 00 	sub     r0,r5,r4
    41ec:	10 00 00 40 	beq     0x0000422c
    41f0:	f0 ff 9e 30 	lw      r4,0xfff0(r30)
    41f4:	00 00 84 38 	lb      r4,0x0000(r4)
    41f8:	18 00 84 20 	lsli    r4,r4,0x0018
    41fc:	e8 ff 9e 34 	sw      0xffe8(r30),r4
    4200:	e8 ff 9e 30 	lw      r4,0xffe8(r30)
    4204:	18 00 84 24 	lsri    r4,r4,0x0018
    4208:	e8 ff 9e 34 	sw      0xffe8(r30),r4
    420c:	ec ff 9e 30 	lw      r4,0xffec(r30)
    4210:	00 00 84 38 	lb      r4,0x0000(r4)
    4214:	18 00 84 20 	lsli    r4,r4,0x0018
    4218:	18 00 84 24 	lsri    r4,r4,0x0018
    421c:	e8 ff be 30 	lw      r5,0xffe8(r30)
    4220:	02 20 a5 00 	sub     r5,r5,r4
    4224:	e8 ff be 34 	sw      0xffe8(r30),r5
    4228:	8d 10 00 80 	ajmp    0x00004234
    422c:	00 00 80 18 	ori     r4,r0,0x0000
    4230:	e8 ff 9e 34 	sw      0xffe8(r30),r4
    4234:	e8 ff 9e 30 	lw      r4,0xffe8(r30)
    4238:	05 20 40 00 	orr     r2,r0,r4
    423c:	18 00 bd 07 	addi    r29,r29,0x0018
    4240:	05 f0 a0 03 	orr     r29,r0,r30
    4244:	04 00 bd 07 	addi    r29,r29,0x0004
    4248:	fc ff dd 33 	lw      r30,0xfffc(r29)
    424c:	00 00 e0 47 	jmpr    r31

00004250 <skip_atoi>:
    4250:	fc ff bd 07 	addi    r29,r29,0xfffc
    4254:	00 00 dd 37 	sw      0x0000(r29),r30
    4258:	05 e8 c0 03 	orr     r30,r0,r29
    425c:	f8 ff bd 07 	addi    r29,r29,0xfff8
    4260:	fc ff 9e 34 	sw      0xfffc(r30),r4
    4264:	00 00 80 18 	ori     r4,r0,0x0000
    4268:	f8 ff 9e 34 	sw      0xfff8(r30),r4
    426c:	fc ff 9e 30 	lw      r4,0xfffc(r30)
    4270:	00 00 84 30 	lw      r4,0x0000(r4)
    4274:	00 00 84 38 	lb      r4,0x0000(r4)
    4278:	18 00 84 20 	lsli    r4,r4,0x0018
    427c:	18 00 84 24 	lsri    r4,r4,0x0018
    4280:	2f 00 a0 18 	ori     r5,r0,0x002f
    4284:	02 28 04 00 	sub     r0,r4,r5
    4288:	1a 00 40 42 	bls     0x000042f0
    428c:	fc ff 9e 30 	lw      r4,0xfffc(r30)
    4290:	00 00 84 30 	lw      r4,0x0000(r4)
    4294:	00 00 84 38 	lb      r4,0x0000(r4)
    4298:	18 00 84 20 	lsli    r4,r4,0x0018
    429c:	18 00 84 24 	lsri    r4,r4,0x0018
    42a0:	39 00 a0 18 	ori     r5,r0,0x0039
    42a4:	02 28 04 00 	sub     r0,r4,r5
    42a8:	12 00 00 42 	bhi     0x000042f0
    42ac:	f8 ff be 30 	lw      r5,0xfff8(r30)
    42b0:	05 28 80 00 	orr     r4,r0,r5
    42b4:	03 00 84 20 	lsli    r4,r4,0x0003
    42b8:	00 28 84 00 	add     r4,r4,r5
    42bc:	00 28 c4 00 	add     r6,r4,r5
    42c0:	fc ff fe 30 	lw      r7,0xfffc(r30)
    42c4:	00 00 a7 30 	lw      r5,0x0000(r7)
    42c8:	05 28 80 00 	orr     r4,r0,r5
    42cc:	00 00 84 38 	lb      r4,0x0000(r4)
    42d0:	18 00 84 20 	lsli    r4,r4,0x0018
    42d4:	18 00 84 24 	lsri    r4,r4,0x0018
    42d8:	00 20 86 00 	add     r4,r6,r4
    42dc:	d0 ff 84 04 	addi    r4,r4,0xffd0
    42e0:	01 00 a5 04 	addi    r5,r5,0x0001
    42e4:	00 00 a7 34 	sw      0x0000(r7),r5
    42e8:	f8 ff 9e 34 	sw      0xfff8(r30),r4
    42ec:	9b 10 00 80 	ajmp    0x0000426c
    42f0:	f8 ff 9e 30 	lw      r4,0xfff8(r30)
    42f4:	05 20 40 00 	orr     r2,r0,r4
    42f8:	08 00 bd 07 	addi    r29,r29,0x0008
    42fc:	05 f0 a0 03 	orr     r29,r0,r30
    4300:	04 00 bd 07 	addi    r29,r29,0x0004
    4304:	fc ff dd 33 	lw      r30,0xfffc(r29)
    4308:	00 00 e0 47 	jmpr    r31
    430c:	00 00 00 00 	nop

00004310 <_do_div>:
    4310:	fc ff bd 07 	addi    r29,r29,0xfffc
    4314:	00 00 dd 37 	sw      0x0000(r29),r30
    4318:	05 e8 c0 03 	orr     r30,r0,r29
    431c:	f4 ff bd 07 	addi    r29,r29,0xfff4
    4320:	fc ff 9e 34 	sw      0xfffc(r30),r4
    4324:	f8 ff be 34 	sw      0xfff8(r30),r5
    4328:	fc ff 9e 30 	lw      r4,0xfffc(r30)
    432c:	00 00 84 30 	lw      r4,0x0000(r4)
    4330:	f4 ff 9e 34 	sw      0xfff4(r30),r4
    4334:	fc ff de 30 	lw      r6,0xfffc(r30)
    4338:	f4 ff be 30 	lw      r5,0xfff4(r30)
    433c:	f8 ff 9e 30 	lw      r4,0xfff8(r30)
    4340:	0e 20 85 00 	divu    r4,r5,r4
    4344:	00 00 86 34 	sw      0x0000(r6),r4
    4348:	f4 ff be 30 	lw      r5,0xfff4(r30)
    434c:	f8 ff 9e 30 	lw      r4,0xfff8(r30)
    4350:	0f 20 85 00 	modu    r4,r5,r4
    4354:	05 20 40 00 	orr     r2,r0,r4
    4358:	0c 00 bd 07 	addi    r29,r29,0x000c
    435c:	05 f0 a0 03 	orr     r29,r0,r30
    4360:	04 00 bd 07 	addi    r29,r29,0x0004
    4364:	fc ff dd 33 	lw      r30,0xfffc(r29)
    4368:	00 00 e0 47 	jmpr    r31
    436c:	00 00 00 00 	nop

00004370 <number>:
    4370:	f4 ff bd 07 	addi    r29,r29,0xfff4
    4374:	00 00 dd 37 	sw      0x0000(r29),r30
    4378:	04 00 fd 37 	sw      0x0004(r29),r31
    437c:	08 00 1d 35 	sw      0x0008(r29),r8
    4380:	05 e8 c0 03 	orr     r30,r0,r29
    4384:	b8 ff bd 07 	addi    r29,r29,0xffb8
    4388:	fc ff 9e 34 	sw      0xfffc(r30),r4
    438c:	f8 ff be 34 	sw      0xfff8(r30),r5
    4390:	f4 ff de 34 	sw      0xfff4(r30),r6
    4394:	f0 ff fe 34 	sw      0xfff0(r30),r7
    4398:	01 00 80 2c 	ldih    r4,0x0001
    439c:	e0 70 84 18 	ori     r4,r4,0x70e0
    43a0:	c4 ff 9e 34 	sw      0xffc4(r30),r4
    43a4:	10 00 9e 30 	lw      r4,0x0010(r30)
    43a8:	06 00 84 24 	lsri    r4,r4,0x0006
    43ac:	01 00 a4 14 	andi    r5,r4,0x0001
    43b0:	00 00 80 18 	ori     r4,r0,0x0000
    43b4:	02 20 05 00 	sub     r0,r5,r4
    43b8:	04 00 00 40 	beq     0x000043c8
    43bc:	01 00 80 2c 	ldih    r4,0x0001
    43c0:	05 71 84 18 	ori     r4,r4,0x7105
    43c4:	c4 ff 9e 34 	sw      0xffc4(r30),r4
    43c8:	10 00 9e 30 	lw      r4,0x0010(r30)
    43cc:	04 00 84 24 	lsri    r4,r4,0x0004
    43d0:	01 00 a4 14 	andi    r5,r4,0x0001
    43d4:	00 00 80 18 	ori     r4,r0,0x0000
    43d8:	02 20 05 00 	sub     r0,r5,r4
    43dc:	06 00 00 40 	beq     0x000043f4
    43e0:	10 00 9e 30 	lw      r4,0x0010(r30)
    43e4:	ff ff a0 2c 	ldih    r5,0xffff
    43e8:	fe ff a5 18 	ori     r5,r5,0xfffe
    43ec:	04 28 84 00 	and     r4,r4,r5
    43f0:	10 00 9e 34 	sw      0x0010(r30),r4
    43f4:	f4 ff be 30 	lw      r5,0xfff4(r30)
    43f8:	01 00 80 18 	ori     r4,r0,0x0001
    43fc:	02 20 05 00 	sub     r0,r5,r4
    4400:	06 00 40 43 	ble     0x00004418
    4404:	f4 ff be 30 	lw      r5,0xfff4(r30)
    4408:	24 00 80 18 	ori     r4,r0,0x0024
    440c:	02 20 05 00 	sub     r0,r5,r4
    4410:	02 00 00 43 	bgt     0x00004418
    4414:	09 11 00 80 	ajmp    0x00004424
    4418:	00 00 80 18 	ori     r4,r0,0x0000
    441c:	bc ff 9e 34 	sw      0xffbc(r30),r4
    4420:	19 12 00 80 	ajmp    0x00004864
    4424:	10 00 9e 30 	lw      r4,0x0010(r30)
    4428:	01 00 a4 14 	andi    r5,r4,0x0001
    442c:	00 00 80 18 	ori     r4,r0,0x0000
    4430:	02 20 05 00 	sub     r0,r5,r4
    4434:	04 00 00 40 	beq     0x00004444
    4438:	30 00 e0 18 	ori     r7,r0,0x0030
    443c:	bb ff fe 3c 	sb      0xffbb(r30),r7
    4440:	13 11 00 80 	ajmp    0x0000444c
    4444:	20 00 80 18 	ori     r4,r0,0x0020
    4448:	bb ff 9e 3c 	sb      0xffbb(r30),r4
    444c:	bb ff fe 38 	lb      r7,0xffbb(r30)
    4450:	ef ff fe 3c 	sb      0xffef(r30),r7
    4454:	10 00 9e 30 	lw      r4,0x0010(r30)
    4458:	01 00 84 24 	lsri    r4,r4,0x0001
    445c:	01 00 a4 14 	andi    r5,r4,0x0001
    4460:	00 00 80 18 	ori     r4,r0,0x0000
    4464:	02 20 05 00 	sub     r0,r5,r4
    4468:	0b 00 00 40 	beq     0x00004494
    446c:	f8 ff be 30 	lw      r5,0xfff8(r30)
    4470:	00 00 80 18 	ori     r4,r0,0x0000
    4474:	02 20 05 00 	sub     r0,r5,r4
    4478:	07 00 80 42 	bge     0x00004494
    447c:	2d 00 80 18 	ori     r4,r0,0x002d
    4480:	ee ff 9e 3c 	sb      0xffee(r30),r4
    4484:	f8 ff 9e 30 	lw      r4,0xfff8(r30)
    4488:	02 20 80 00 	sub     r4,r0,r4
    448c:	f8 ff 9e 34 	sw      0xfff8(r30),r4
    4490:	3b 11 00 80 	ajmp    0x000044ec
    4494:	10 00 9e 30 	lw      r4,0x0010(r30)
    4498:	02 00 84 24 	lsri    r4,r4,0x0002
    449c:	01 00 a4 14 	andi    r5,r4,0x0001
    44a0:	00 00 80 18 	ori     r4,r0,0x0000
    44a4:	02 20 05 00 	sub     r0,r5,r4
    44a8:	0d 00 40 40 	bne     0x000044dc
    44ac:	10 00 9e 30 	lw      r4,0x0010(r30)
    44b0:	03 00 84 24 	lsri    r4,r4,0x0003
    44b4:	01 00 a4 14 	andi    r5,r4,0x0001
    44b8:	00 00 80 18 	ori     r4,r0,0x0000
    44bc:	02 20 05 00 	sub     r0,r5,r4
    44c0:	04 00 00 40 	beq     0x000044d0
    44c4:	20 00 e0 18 	ori     r7,r0,0x0020
    44c8:	ba ff fe 3c 	sb      0xffba(r30),r7
    44cc:	39 11 00 80 	ajmp    0x000044e4
    44d0:	00 00 80 18 	ori     r4,r0,0x0000
    44d4:	ba ff 9e 3c 	sb      0xffba(r30),r4
    44d8:	39 11 00 80 	ajmp    0x000044e4
    44dc:	2b 00 e0 18 	ori     r7,r0,0x002b
    44e0:	ba ff fe 3c 	sb      0xffba(r30),r7
    44e4:	ba ff 9e 38 	lb      r4,0xffba(r30)
    44e8:	ee ff 9e 3c 	sb      0xffee(r30),r4
    44ec:	ee ff 9e 38 	lb      r4,0xffee(r30)
    44f0:	18 00 84 20 	lsli    r4,r4,0x0018
    44f4:	18 00 84 24 	lsri    r4,r4,0x0018
    44f8:	00 00 a0 18 	ori     r5,r0,0x0000
    44fc:	02 28 04 00 	sub     r0,r4,r5
    4500:	04 00 00 40 	beq     0x00004510
    4504:	f0 ff 9e 30 	lw      r4,0xfff0(r30)
    4508:	ff ff 84 04 	addi    r4,r4,0xffff
    450c:	f0 ff 9e 34 	sw      0xfff0(r30),r4
    4510:	10 00 9e 30 	lw      r4,0x0010(r30)
    4514:	05 00 84 24 	lsri    r4,r4,0x0005
    4518:	01 00 a4 14 	andi    r5,r4,0x0001
    451c:	00 00 80 18 	ori     r4,r0,0x0000
    4520:	02 20 05 00 	sub     r0,r5,r4
    4524:	10 00 00 40 	beq     0x00004564
    4528:	f4 ff be 30 	lw      r5,0xfff4(r30)
    452c:	10 00 80 18 	ori     r4,r0,0x0010
    4530:	02 20 05 00 	sub     r0,r5,r4
    4534:	05 00 40 40 	bne     0x00004548
    4538:	f0 ff 9e 30 	lw      r4,0xfff0(r30)
    453c:	fe ff 84 04 	addi    r4,r4,0xfffe
    4540:	f0 ff 9e 34 	sw      0xfff0(r30),r4
    4544:	59 11 00 80 	ajmp    0x00004564
    4548:	f4 ff be 30 	lw      r5,0xfff4(r30)
    454c:	08 00 80 18 	ori     r4,r0,0x0008
    4550:	02 20 05 00 	sub     r0,r5,r4
    4554:	04 00 40 40 	bne     0x00004564
    4558:	f0 ff 9e 30 	lw      r4,0xfff0(r30)
    455c:	ff ff 84 04 	addi    r4,r4,0xffff
    4560:	f0 ff 9e 34 	sw      0xfff0(r30),r4
    4564:	00 00 80 18 	ori     r4,r0,0x0000
    4568:	c0 ff 9e 34 	sw      0xffc0(r30),r4
    456c:	f8 ff be 30 	lw      r5,0xfff8(r30)
    4570:	00 00 80 18 	ori     r4,r0,0x0000
    4574:	02 20 05 00 	sub     r0,r5,r4
    4578:	0b 00 40 40 	bne     0x000045a4
    457c:	c0 ff de 04 	addi    r6,r30,0xffc0
    4580:	00 00 a6 30 	lw      r5,0x0000(r6)
    4584:	05 28 80 00 	orr     r4,r0,r5
    4588:	00 f0 84 00 	add     r4,r4,r30
    458c:	c8 ff 84 04 	addi    r4,r4,0xffc8
    4590:	30 00 e0 18 	ori     r7,r0,0x0030
    4594:	00 00 e4 3c 	sb      0x0000(r4),r7
    4598:	01 00 a5 04 	addi    r5,r5,0x0001
    459c:	00 00 a6 34 	sw      0x0000(r6),r5
    45a0:	7d 11 00 80 	ajmp    0x000045f4
    45a4:	f8 ff be 30 	lw      r5,0xfff8(r30)
    45a8:	00 00 80 18 	ori     r4,r0,0x0000
    45ac:	02 20 05 00 	sub     r0,r5,r4
    45b0:	11 00 00 40 	beq     0x000045f4
    45b4:	c0 ff de 04 	addi    r6,r30,0xffc0
    45b8:	00 00 a6 30 	lw      r5,0x0000(r6)
    45bc:	05 28 80 00 	orr     r4,r0,r5
    45c0:	00 f0 84 00 	add     r4,r4,r30
    45c4:	c8 ff 04 05 	addi    r8,r4,0xffc8
    45c8:	f8 ff 9e 04 	addi    r4,r30,0xfff8
    45cc:	01 00 a5 04 	addi    r5,r5,0x0001
    45d0:	00 00 a6 34 	sw      0x0000(r6),r5
    45d4:	f4 ff be 30 	lw      r5,0xfff4(r30)
    45d8:	c4 10 00 c0 	ajal    0x00004310
    45dc:	05 10 a0 00 	orr     r5,r0,r2
    45e0:	c4 ff 9e 30 	lw      r4,0xffc4(r30)
    45e4:	00 20 85 00 	add     r4,r5,r4
    45e8:	00 00 84 38 	lb      r4,0x0000(r4)
    45ec:	00 00 88 3c 	sb      0x0000(r8),r4
    45f0:	69 11 00 80 	ajmp    0x000045a4
    45f4:	c0 ff be 30 	lw      r5,0xffc0(r30)
    45f8:	0c 00 9e 30 	lw      r4,0x000c(r30)
    45fc:	02 20 05 00 	sub     r0,r5,r4
    4600:	03 00 40 43 	ble     0x0000460c
    4604:	c0 ff 9e 30 	lw      r4,0xffc0(r30)
    4608:	0c 00 9e 34 	sw      0x000c(r30),r4
    460c:	f0 ff be 30 	lw      r5,0xfff0(r30)
    4610:	0c 00 9e 30 	lw      r4,0x000c(r30)
    4614:	02 20 85 00 	sub     r4,r5,r4
    4618:	f0 ff 9e 34 	sw      0xfff0(r30),r4
    461c:	10 00 9e 30 	lw      r4,0x0010(r30)
    4620:	11 00 a4 14 	andi    r5,r4,0x0011
    4624:	00 00 80 18 	ori     r4,r0,0x0000
    4628:	02 20 05 00 	sub     r0,r5,r4
    462c:	11 00 40 40 	bne     0x00004670
    4630:	f0 ff be 04 	addi    r5,r30,0xfff0
    4634:	00 00 85 30 	lw      r4,0x0000(r5)
    4638:	05 20 c0 00 	orr     r6,r0,r4
    463c:	ff ff 84 04 	addi    r4,r4,0xffff
    4640:	00 00 85 34 	sw      0x0000(r5),r4
    4644:	00 00 80 18 	ori     r4,r0,0x0000
    4648:	02 20 06 00 	sub     r0,r6,r4
    464c:	09 00 40 43 	ble     0x00004670
    4650:	fc ff 9e 04 	addi    r4,r30,0xfffc
    4654:	00 00 a4 30 	lw      r5,0x0000(r4)
    4658:	05 28 c0 00 	orr     r6,r0,r5
    465c:	20 00 e0 18 	ori     r7,r0,0x0020
    4660:	00 00 e6 3c 	sb      0x0000(r6),r7
    4664:	01 00 a5 04 	addi    r5,r5,0x0001
    4668:	00 00 a4 34 	sw      0x0000(r4),r5
    466c:	8c 11 00 80 	ajmp    0x00004630
    4670:	ee ff 9e 38 	lb      r4,0xffee(r30)
    4674:	18 00 84 20 	lsli    r4,r4,0x0018
    4678:	18 00 84 24 	lsri    r4,r4,0x0018
    467c:	00 00 a0 18 	ori     r5,r0,0x0000
    4680:	02 28 04 00 	sub     r0,r4,r5
    4684:	08 00 00 40 	beq     0x000046a4
    4688:	fc ff 9e 04 	addi    r4,r30,0xfffc
    468c:	00 00 a4 30 	lw      r5,0x0000(r4)
    4690:	05 28 c0 00 	orr     r6,r0,r5
    4694:	ee ff fe 38 	lb      r7,0xffee(r30)
    4698:	00 00 e6 3c 	sb      0x0000(r6),r7
    469c:	01 00 a5 04 	addi    r5,r5,0x0001
    46a0:	00 00 a4 34 	sw      0x0000(r4),r5
    46a4:	10 00 9e 30 	lw      r4,0x0010(r30)
    46a8:	05 00 84 24 	lsri    r4,r4,0x0005
    46ac:	01 00 a4 14 	andi    r5,r4,0x0001
    46b0:	00 00 80 18 	ori     r4,r0,0x0000
    46b4:	02 20 05 00 	sub     r0,r5,r4
    46b8:	21 00 00 40 	beq     0x0000473c
    46bc:	f4 ff be 30 	lw      r5,0xfff4(r30)
    46c0:	08 00 80 18 	ori     r4,r0,0x0008
    46c4:	02 20 05 00 	sub     r0,r5,r4
    46c8:	09 00 40 40 	bne     0x000046ec
    46cc:	fc ff 9e 04 	addi    r4,r30,0xfffc
    46d0:	00 00 a4 30 	lw      r5,0x0000(r4)
    46d4:	05 28 c0 00 	orr     r6,r0,r5
    46d8:	30 00 e0 18 	ori     r7,r0,0x0030
    46dc:	00 00 e6 3c 	sb      0x0000(r6),r7
    46e0:	01 00 a5 04 	addi    r5,r5,0x0001
    46e4:	00 00 a4 34 	sw      0x0000(r4),r5
    46e8:	cf 11 00 80 	ajmp    0x0000473c
    46ec:	f4 ff be 30 	lw      r5,0xfff4(r30)
    46f0:	10 00 80 18 	ori     r4,r0,0x0010
    46f4:	02 20 05 00 	sub     r0,r5,r4
    46f8:	11 00 40 40 	bne     0x0000473c
    46fc:	fc ff de 04 	addi    r6,r30,0xfffc
    4700:	00 00 86 30 	lw      r4,0x0000(r6)
    4704:	05 20 a0 00 	orr     r5,r0,r4
    4708:	30 00 e0 18 	ori     r7,r0,0x0030
    470c:	00 00 e5 3c 	sb      0x0000(r5),r7
    4710:	01 00 84 04 	addi    r4,r4,0x0001
    4714:	00 00 86 34 	sw      0x0000(r6),r4
    4718:	fc ff fe 04 	addi    r7,r30,0xfffc
    471c:	00 00 a7 30 	lw      r5,0x0000(r7)
    4720:	c4 ff 9e 30 	lw      r4,0xffc4(r30)
    4724:	21 00 c4 04 	addi    r6,r4,0x0021
    4728:	05 28 80 00 	orr     r4,r0,r5
    472c:	00 00 c6 38 	lb      r6,0x0000(r6)
    4730:	00 00 c4 3c 	sb      0x0000(r4),r6
    4734:	01 00 a5 04 	addi    r5,r5,0x0001
    4738:	00 00 a7 34 	sw      0x0000(r7),r5
    473c:	10 00 9e 30 	lw      r4,0x0010(r30)
    4740:	04 00 84 24 	lsri    r4,r4,0x0004
    4744:	01 00 a4 14 	andi    r5,r4,0x0001
    4748:	00 00 80 18 	ori     r4,r0,0x0000
    474c:	02 20 05 00 	sub     r0,r5,r4
    4750:	11 00 40 40 	bne     0x00004794
    4754:	f0 ff be 04 	addi    r5,r30,0xfff0
    4758:	00 00 85 30 	lw      r4,0x0000(r5)
    475c:	05 20 c0 00 	orr     r6,r0,r4
    4760:	ff ff 84 04 	addi    r4,r4,0xffff
    4764:	00 00 85 34 	sw      0x0000(r5),r4
    4768:	00 00 80 18 	ori     r4,r0,0x0000
    476c:	02 20 06 00 	sub     r0,r6,r4
    4770:	09 00 40 43 	ble     0x00004794
    4774:	fc ff 9e 04 	addi    r4,r30,0xfffc
    4778:	00 00 a4 30 	lw      r5,0x0000(r4)
    477c:	05 28 c0 00 	orr     r6,r0,r5
    4780:	ef ff fe 38 	lb      r7,0xffef(r30)
    4784:	00 00 e6 3c 	sb      0x0000(r6),r7
    4788:	01 00 a5 04 	addi    r5,r5,0x0001
    478c:	00 00 a4 34 	sw      0x0000(r4),r5
    4790:	d5 11 00 80 	ajmp    0x00004754
    4794:	0c 00 9e 30 	lw      r4,0x000c(r30)
    4798:	05 20 a0 00 	orr     r5,r0,r4
    479c:	ff ff 84 04 	addi    r4,r4,0xffff
    47a0:	0c 00 9e 34 	sw      0x000c(r30),r4
    47a4:	c0 ff 9e 30 	lw      r4,0xffc0(r30)
    47a8:	02 20 05 00 	sub     r0,r5,r4
    47ac:	09 00 40 43 	ble     0x000047d0
    47b0:	fc ff 9e 04 	addi    r4,r30,0xfffc
    47b4:	00 00 a4 30 	lw      r5,0x0000(r4)
    47b8:	05 28 c0 00 	orr     r6,r0,r5
    47bc:	30 00 e0 18 	ori     r7,r0,0x0030
    47c0:	00 00 e6 3c 	sb      0x0000(r6),r7
    47c4:	01 00 a5 04 	addi    r5,r5,0x0001
    47c8:	00 00 a4 34 	sw      0x0000(r4),r5
    47cc:	e5 11 00 80 	ajmp    0x00004794
    47d0:	c0 ff be 04 	addi    r5,r30,0xffc0
    47d4:	00 00 85 30 	lw      r4,0x0000(r5)
    47d8:	05 20 c0 00 	orr     r6,r0,r4
    47dc:	ff ff 84 04 	addi    r4,r4,0xffff
    47e0:	00 00 85 34 	sw      0x0000(r5),r4
    47e4:	00 00 80 18 	ori     r4,r0,0x0000
    47e8:	02 20 06 00 	sub     r0,r6,r4
    47ec:	0c 00 40 43 	ble     0x0000481c
    47f0:	fc ff fe 04 	addi    r7,r30,0xfffc
    47f4:	00 00 a7 30 	lw      r5,0x0000(r7)
    47f8:	c8 ff de 04 	addi    r6,r30,0xffc8
    47fc:	c0 ff 9e 30 	lw      r4,0xffc0(r30)
    4800:	00 20 c6 00 	add     r6,r6,r4
    4804:	05 28 80 00 	orr     r4,r0,r5
    4808:	00 00 c6 38 	lb      r6,0x0000(r6)
    480c:	00 00 c4 3c 	sb      0x0000(r4),r6
    4810:	01 00 a5 04 	addi    r5,r5,0x0001
    4814:	00 00 a7 34 	sw      0x0000(r7),r5
    4818:	f4 11 00 80 	ajmp    0x000047d0
    481c:	f0 ff be 04 	addi    r5,r30,0xfff0
    4820:	00 00 85 30 	lw      r4,0x0000(r5)
    4824:	05 20 c0 00 	orr     r6,r0,r4
    4828:	ff ff 84 04 	addi    r4,r4,0xffff
    482c:	00 00 85 34 	sw      0x0000(r5),r4
    4830:	00 00 80 18 	ori     r4,r0,0x0000
    4834:	02 20 06 00 	sub     r0,r6,r4
    4838:	09 00 40 43 	ble     0x0000485c
    483c:	fc ff 9e 04 	addi    r4,r30,0xfffc
    4840:	00 00 a4 30 	lw      r5,0x0000(r4)
    4844:	05 28 c0 00 	orr     r6,r0,r5
    4848:	20 00 e0 18 	ori     r7,r0,0x0020
    484c:	00 00 e6 3c 	sb      0x0000(r6),r7
    4850:	01 00 a5 04 	addi    r5,r5,0x0001
    4854:	00 00 a4 34 	sw      0x0000(r4),r5
    4858:	07 12 00 80 	ajmp    0x0000481c
    485c:	fc ff 9e 30 	lw      r4,0xfffc(r30)
    4860:	bc ff 9e 34 	sw      0xffbc(r30),r4
    4864:	bc ff 5e 30 	lw      r2,0xffbc(r30)
    4868:	48 00 bd 07 	addi    r29,r29,0x0048
    486c:	05 f0 a0 03 	orr     r29,r0,r30
    4870:	0c 00 bd 07 	addi    r29,r29,0x000c
    4874:	fc ff 1d 31 	lw      r8,0xfffc(r29)
    4878:	f8 ff fd 33 	lw      r31,0xfff8(r29)
    487c:	f4 ff dd 33 	lw      r30,0xfff4(r29)
    4880:	00 00 e0 47 	jmpr    r31
    4884:	00 00 00 00 	nop
    4888:	00 00 00 00 	nop
    488c:	00 00 00 00 	nop

00004890 <vsprintf>:
    4890:	f4 ff bd 07 	addi    r29,r29,0xfff4
    4894:	00 00 dd 37 	sw      0x0000(r29),r30
    4898:	04 00 fd 37 	sw      0x0004(r29),r31
    489c:	08 00 1d 35 	sw      0x0008(r29),r8
    48a0:	05 e8 c0 03 	orr     r30,r0,r29
    48a4:	c0 ff bd 07 	addi    r29,r29,0xffc0
    48a8:	fc ff 9e 34 	sw      0xfffc(r30),r4
    48ac:	f8 ff be 34 	sw      0xfff8(r30),r5
    48b0:	f4 ff de 34 	sw      0xfff4(r30),r6
    48b4:	fc ff 9e 30 	lw      r4,0xfffc(r30)
    48b8:	e8 ff 9e 34 	sw      0xffe8(r30),r4
    48bc:	f8 ff 9e 30 	lw      r4,0xfff8(r30)
    48c0:	00 00 84 38 	lb      r4,0x0000(r4)
    48c4:	18 00 84 20 	lsli    r4,r4,0x0018
    48c8:	18 00 84 24 	lsri    r4,r4,0x0018
    48cc:	00 00 a0 18 	ori     r5,r0,0x0000
    48d0:	02 28 04 00 	sub     r0,r4,r5
    48d4:	d0 01 00 40 	beq     0x00005014
    48d8:	f8 ff 9e 30 	lw      r4,0xfff8(r30)
    48dc:	00 00 84 38 	lb      r4,0x0000(r4)
    48e0:	18 00 84 20 	lsli    r4,r4,0x0018
    48e4:	18 00 84 24 	lsri    r4,r4,0x0018
    48e8:	25 00 a0 18 	ori     r5,r0,0x0025
    48ec:	02 28 04 00 	sub     r0,r4,r5
    48f0:	0a 00 00 40 	beq     0x00004918
    48f4:	e8 ff fe 04 	addi    r7,r30,0xffe8
    48f8:	00 00 87 30 	lw      r4,0x0000(r7)
    48fc:	f8 ff de 30 	lw      r6,0xfff8(r30)
    4900:	05 20 a0 00 	orr     r5,r0,r4
    4904:	00 00 c6 38 	lb      r6,0x0000(r6)
    4908:	00 00 c5 3c 	sb      0x0000(r5),r6
    490c:	01 00 84 04 	addi    r4,r4,0x0001
    4910:	00 00 87 34 	sw      0x0000(r7),r4
    4914:	01 14 00 80 	ajmp    0x00005004
    4918:	00 00 80 18 	ori     r4,r0,0x0000
    491c:	dc ff 9e 34 	sw      0xffdc(r30),r4
    4920:	f8 ff 9e 30 	lw      r4,0xfff8(r30)
    4924:	01 00 84 04 	addi    r4,r4,0x0001
    4928:	f8 ff 9e 34 	sw      0xfff8(r30),r4
    492c:	f8 ff 9e 30 	lw      r4,0xfff8(r30)
    4930:	00 00 84 38 	lb      r4,0x0000(r4)
    4934:	18 00 84 20 	lsli    r4,r4,0x0018
    4938:	18 00 84 24 	lsri    r4,r4,0x0018
    493c:	e0 ff 84 04 	addi    r4,r4,0xffe0
    4940:	cc ff 9e 34 	sw      0xffcc(r30),r4
    4944:	10 00 80 18 	ori     r4,r0,0x0010
    4948:	cc ff be 30 	lw      r5,0xffcc(r30)
    494c:	02 20 05 00 	sub     r0,r5,r4
    4950:	1c 00 00 42 	bhi     0x000049c0
    4954:	cc ff 9e 30 	lw      r4,0xffcc(r30)
    4958:	02 00 a4 20 	lsli    r5,r4,0x0002
    495c:	01 00 80 2c 	ldih    r4,0x0001
    4960:	30 71 84 18 	ori     r4,r4,0x7130
    4964:	00 20 85 00 	add     r4,r5,r4
    4968:	00 00 84 30 	lw      r4,0x0000(r4)
    496c:	00 00 80 44 	jmpr    r4
    4970:	dc ff 9e 30 	lw      r4,0xffdc(r30)
    4974:	10 00 84 18 	ori     r4,r4,0x0010
    4978:	dc ff 9e 34 	sw      0xffdc(r30),r4
    497c:	48 12 00 80 	ajmp    0x00004920
    4980:	dc ff 9e 30 	lw      r4,0xffdc(r30)
    4984:	04 00 84 18 	ori     r4,r4,0x0004
    4988:	dc ff 9e 34 	sw      0xffdc(r30),r4
    498c:	48 12 00 80 	ajmp    0x00004920
    4990:	dc ff 9e 30 	lw      r4,0xffdc(r30)
    4994:	08 00 84 18 	ori     r4,r4,0x0008
    4998:	dc ff 9e 34 	sw      0xffdc(r30),r4
    499c:	48 12 00 80 	ajmp    0x00004920
    49a0:	dc ff 9e 30 	lw      r4,0xffdc(r30)
    49a4:	20 00 84 18 	ori     r4,r4,0x0020
    49a8:	dc ff 9e 34 	sw      0xffdc(r30),r4
    49ac:	48 12 00 80 	ajmp    0x00004920
    49b0:	dc ff 9e 30 	lw      r4,0xffdc(r30)
    49b4:	01 00 84 18 	ori     r4,r4,0x0001
    49b8:	dc ff 9e 34 	sw      0xffdc(r30),r4
    49bc:	48 12 00 80 	ajmp    0x00004920
    49c0:	ff ff 80 2c 	ldih    r4,0xffff
    49c4:	ff ff 84 18 	ori     r4,r4,0xffff
    49c8:	d8 ff 9e 34 	sw      0xffd8(r30),r4
    49cc:	f8 ff 9e 30 	lw      r4,0xfff8(r30)
    49d0:	00 00 84 38 	lb      r4,0x0000(r4)
    49d4:	18 00 84 20 	lsli    r4,r4,0x0018
    49d8:	18 00 84 24 	lsri    r4,r4,0x0018
    49dc:	2f 00 a0 18 	ori     r5,r0,0x002f
    49e0:	02 28 04 00 	sub     r0,r4,r5
    49e4:	0d 00 40 42 	bls     0x00004a18
    49e8:	f8 ff 9e 30 	lw      r4,0xfff8(r30)
    49ec:	00 00 84 38 	lb      r4,0x0000(r4)
    49f0:	18 00 84 20 	lsli    r4,r4,0x0018
    49f4:	18 00 84 24 	lsri    r4,r4,0x0018
    49f8:	39 00 a0 18 	ori     r5,r0,0x0039
    49fc:	02 28 04 00 	sub     r0,r4,r5
    4a00:	06 00 00 42 	bhi     0x00004a18
    4a04:	f8 ff 9e 04 	addi    r4,r30,0xfff8
    4a08:	94 10 00 c0 	ajal    0x00004250
    4a0c:	05 10 80 00 	orr     r4,r0,r2
    4a10:	d8 ff 9e 34 	sw      0xffd8(r30),r4
    4a14:	9d 12 00 80 	ajmp    0x00004a74
    4a18:	f8 ff 9e 30 	lw      r4,0xfff8(r30)
    4a1c:	00 00 84 38 	lb      r4,0x0000(r4)
    4a20:	18 00 84 20 	lsli    r4,r4,0x0018
    4a24:	18 00 84 24 	lsri    r4,r4,0x0018
    4a28:	2a 00 a0 18 	ori     r5,r0,0x002a
    4a2c:	02 28 04 00 	sub     r0,r4,r5
    4a30:	11 00 40 40 	bne     0x00004a74
    4a34:	f4 ff be 30 	lw      r5,0xfff4(r30)
    4a38:	f4 ff 9e 30 	lw      r4,0xfff4(r30)
    4a3c:	04 00 84 04 	addi    r4,r4,0x0004
    4a40:	f4 ff 9e 34 	sw      0xfff4(r30),r4
    4a44:	00 00 85 30 	lw      r4,0x0000(r5)
    4a48:	d8 ff 9e 34 	sw      0xffd8(r30),r4
    4a4c:	d8 ff be 30 	lw      r5,0xffd8(r30)
    4a50:	00 00 80 18 	ori     r4,r0,0x0000
    4a54:	02 20 05 00 	sub     r0,r5,r4
    4a58:	07 00 80 42 	bge     0x00004a74
    4a5c:	d8 ff 9e 30 	lw      r4,0xffd8(r30)
    4a60:	02 20 80 00 	sub     r4,r0,r4
    4a64:	d8 ff 9e 34 	sw      0xffd8(r30),r4
    4a68:	dc ff 9e 30 	lw      r4,0xffdc(r30)
    4a6c:	10 00 84 18 	ori     r4,r4,0x0010
    4a70:	dc ff 9e 34 	sw      0xffdc(r30),r4
    4a74:	ff ff 80 2c 	ldih    r4,0xffff
    4a78:	ff ff 84 18 	ori     r4,r4,0xffff
    4a7c:	d4 ff 9e 34 	sw      0xffd4(r30),r4
    4a80:	f8 ff 9e 30 	lw      r4,0xfff8(r30)
    4a84:	00 00 84 38 	lb      r4,0x0000(r4)
    4a88:	18 00 84 20 	lsli    r4,r4,0x0018
    4a8c:	18 00 84 24 	lsri    r4,r4,0x0018
    4a90:	2e 00 a0 18 	ori     r5,r0,0x002e
    4a94:	02 28 04 00 	sub     r0,r4,r5
    4a98:	2a 00 40 40 	bne     0x00004b40
    4a9c:	f8 ff 9e 30 	lw      r4,0xfff8(r30)
    4aa0:	01 00 84 04 	addi    r4,r4,0x0001
    4aa4:	f8 ff 9e 34 	sw      0xfff8(r30),r4
    4aa8:	f8 ff 9e 30 	lw      r4,0xfff8(r30)
    4aac:	00 00 84 38 	lb      r4,0x0000(r4)
    4ab0:	18 00 84 20 	lsli    r4,r4,0x0018
    4ab4:	18 00 84 24 	lsri    r4,r4,0x0018
    4ab8:	2f 00 a0 18 	ori     r5,r0,0x002f
    4abc:	02 28 04 00 	sub     r0,r4,r5
    4ac0:	0d 00 40 42 	bls     0x00004af4
    4ac4:	f8 ff 9e 30 	lw      r4,0xfff8(r30)
    4ac8:	00 00 84 38 	lb      r4,0x0000(r4)
    4acc:	18 00 84 20 	lsli    r4,r4,0x0018
    4ad0:	18 00 84 24 	lsri    r4,r4,0x0018
    4ad4:	39 00 a0 18 	ori     r5,r0,0x0039
    4ad8:	02 28 04 00 	sub     r0,r4,r5
    4adc:	06 00 00 42 	bhi     0x00004af4
    4ae0:	f8 ff 9e 04 	addi    r4,r30,0xfff8
    4ae4:	94 10 00 c0 	ajal    0x00004250
    4ae8:	05 10 80 00 	orr     r4,r0,r2
    4aec:	d4 ff 9e 34 	sw      0xffd4(r30),r4
    4af0:	ca 12 00 80 	ajmp    0x00004b28
    4af4:	f8 ff 9e 30 	lw      r4,0xfff8(r30)
    4af8:	00 00 84 38 	lb      r4,0x0000(r4)
    4afc:	18 00 84 20 	lsli    r4,r4,0x0018
    4b00:	18 00 84 24 	lsri    r4,r4,0x0018
    4b04:	2a 00 a0 18 	ori     r5,r0,0x002a
    4b08:	02 28 04 00 	sub     r0,r4,r5
    4b0c:	07 00 40 40 	bne     0x00004b28
    4b10:	f4 ff be 30 	lw      r5,0xfff4(r30)
    4b14:	f4 ff 9e 30 	lw      r4,0xfff4(r30)
    4b18:	04 00 84 04 	addi    r4,r4,0x0004
    4b1c:	f4 ff 9e 34 	sw      0xfff4(r30),r4
    4b20:	00 00 85 30 	lw      r4,0x0000(r5)
    4b24:	d4 ff 9e 34 	sw      0xffd4(r30),r4
    4b28:	d4 ff be 30 	lw      r5,0xffd4(r30)
    4b2c:	00 00 80 18 	ori     r4,r0,0x0000
    4b30:	02 20 05 00 	sub     r0,r5,r4
    4b34:	03 00 80 42 	bge     0x00004b40
    4b38:	00 00 80 18 	ori     r4,r0,0x0000
    4b3c:	d4 ff 9e 34 	sw      0xffd4(r30),r4
    4b40:	ff ff 80 2c 	ldih    r4,0xffff
    4b44:	ff ff 84 18 	ori     r4,r4,0xffff
    4b48:	d0 ff 9e 34 	sw      0xffd0(r30),r4
    4b4c:	f8 ff 9e 30 	lw      r4,0xfff8(r30)
    4b50:	00 00 84 38 	lb      r4,0x0000(r4)
    4b54:	18 00 84 20 	lsli    r4,r4,0x0018
    4b58:	18 00 84 24 	lsri    r4,r4,0x0018
    4b5c:	68 00 a0 18 	ori     r5,r0,0x0068
    4b60:	02 28 04 00 	sub     r0,r4,r5
    4b64:	10 00 00 40 	beq     0x00004ba4
    4b68:	f8 ff 9e 30 	lw      r4,0xfff8(r30)
    4b6c:	00 00 84 38 	lb      r4,0x0000(r4)
    4b70:	18 00 84 20 	lsli    r4,r4,0x0018
    4b74:	18 00 84 24 	lsri    r4,r4,0x0018
    4b78:	6c 00 a0 18 	ori     r5,r0,0x006c
    4b7c:	02 28 04 00 	sub     r0,r4,r5
    4b80:	09 00 00 40 	beq     0x00004ba4
    4b84:	f8 ff 9e 30 	lw      r4,0xfff8(r30)
    4b88:	00 00 84 38 	lb      r4,0x0000(r4)
    4b8c:	18 00 84 20 	lsli    r4,r4,0x0018
    4b90:	18 00 84 24 	lsri    r4,r4,0x0018
    4b94:	4c 00 a0 18 	ori     r5,r0,0x004c
    4b98:	02 28 04 00 	sub     r0,r4,r5
    4b9c:	02 00 00 40 	beq     0x00004ba4
    4ba0:	f1 12 00 80 	ajmp    0x00004bc4
    4ba4:	f8 ff 9e 30 	lw      r4,0xfff8(r30)
    4ba8:	00 00 84 38 	lb      r4,0x0000(r4)
    4bac:	18 00 84 20 	lsli    r4,r4,0x0018
    4bb0:	18 00 84 24 	lsri    r4,r4,0x0018
    4bb4:	d0 ff 9e 34 	sw      0xffd0(r30),r4
    4bb8:	f8 ff 9e 30 	lw      r4,0xfff8(r30)
    4bbc:	01 00 84 04 	addi    r4,r4,0x0001
    4bc0:	f8 ff 9e 34 	sw      0xfff8(r30),r4
    4bc4:	f8 ff 9e 30 	lw      r4,0xfff8(r30)
    4bc8:	00 00 84 38 	lb      r4,0x0000(r4)
    4bcc:	18 00 84 20 	lsli    r4,r4,0x0018
    4bd0:	18 00 84 24 	lsri    r4,r4,0x0018
    4bd4:	a8 ff 84 04 	addi    r4,r4,0xffa8
    4bd8:	c8 ff 9e 34 	sw      0xffc8(r30),r4
    4bdc:	20 00 80 18 	ori     r4,r0,0x0020
    4be0:	c8 ff fe 30 	lw      r7,0xffc8(r30)
    4be4:	02 20 07 00 	sub     r0,r7,r4
    4be8:	e6 00 00 42 	bhi     0x00004f80
    4bec:	c8 ff 9e 30 	lw      r4,0xffc8(r30)
    4bf0:	02 00 a4 20 	lsli    r5,r4,0x0002
    4bf4:	01 00 80 2c 	ldih    r4,0x0001
    4bf8:	80 71 84 18 	ori     r4,r4,0x7180
    4bfc:	00 20 85 00 	add     r4,r5,r4
    4c00:	00 00 84 30 	lw      r4,0x0000(r4)
    4c04:	00 00 80 44 	jmpr    r4
    4c08:	dc ff 9e 30 	lw      r4,0xffdc(r30)
    4c0c:	04 00 84 24 	lsri    r4,r4,0x0004
    4c10:	01 00 a4 14 	andi    r5,r4,0x0001
    4c14:	00 00 80 18 	ori     r4,r0,0x0000
    4c18:	02 20 05 00 	sub     r0,r5,r4
    4c1c:	10 00 40 40 	bne     0x00004c5c
    4c20:	d8 ff 9e 30 	lw      r4,0xffd8(r30)
    4c24:	ff ff 84 04 	addi    r4,r4,0xffff
    4c28:	05 20 a0 00 	orr     r5,r0,r4
    4c2c:	d8 ff be 34 	sw      0xffd8(r30),r5
    4c30:	00 00 80 18 	ori     r4,r0,0x0000
    4c34:	02 20 05 00 	sub     r0,r5,r4
    4c38:	09 00 40 43 	ble     0x00004c5c
    4c3c:	e8 ff 9e 04 	addi    r4,r30,0xffe8
    4c40:	00 00 a4 30 	lw      r5,0x0000(r4)
    4c44:	05 28 c0 00 	orr     r6,r0,r5
    4c48:	20 00 e0 18 	ori     r7,r0,0x0020
    4c4c:	00 00 e6 3c 	sb      0x0000(r6),r7
    4c50:	01 00 a5 04 	addi    r5,r5,0x0001
    4c54:	00 00 a4 34 	sw      0x0000(r4),r5
    4c58:	08 13 00 80 	ajmp    0x00004c20
    4c5c:	e8 ff fe 04 	addi    r7,r30,0xffe8
    4c60:	00 00 a7 30 	lw      r5,0x0000(r7)
    4c64:	f4 ff de 30 	lw      r6,0xfff4(r30)
    4c68:	f4 ff 9e 30 	lw      r4,0xfff4(r30)
    4c6c:	04 00 84 04 	addi    r4,r4,0x0004
    4c70:	f4 ff 9e 34 	sw      0xfff4(r30),r4
    4c74:	00 00 86 30 	lw      r4,0x0000(r6)
    4c78:	05 20 c0 00 	orr     r6,r0,r4
    4c7c:	05 28 80 00 	orr     r4,r0,r5
    4c80:	00 00 c4 3c 	sb      0x0000(r4),r6
    4c84:	01 00 a5 04 	addi    r5,r5,0x0001
    4c88:	00 00 a7 34 	sw      0x0000(r7),r5
    4c8c:	d8 ff 9e 30 	lw      r4,0xffd8(r30)
    4c90:	ff ff 84 04 	addi    r4,r4,0xffff
    4c94:	05 20 a0 00 	orr     r5,r0,r4
    4c98:	d8 ff be 34 	sw      0xffd8(r30),r5
    4c9c:	00 00 80 18 	ori     r4,r0,0x0000
    4ca0:	02 20 05 00 	sub     r0,r5,r4
    4ca4:	d8 00 40 43 	ble     0x00005004
    4ca8:	e8 ff 9e 04 	addi    r4,r30,0xffe8
    4cac:	00 00 a4 30 	lw      r5,0x0000(r4)
    4cb0:	05 28 c0 00 	orr     r6,r0,r5
    4cb4:	20 00 e0 18 	ori     r7,r0,0x0020
    4cb8:	00 00 e6 3c 	sb      0x0000(r6),r7
    4cbc:	01 00 a5 04 	addi    r5,r5,0x0001
    4cc0:	00 00 a4 34 	sw      0x0000(r4),r5
    4cc4:	23 13 00 80 	ajmp    0x00004c8c
    4cc8:	f4 ff be 30 	lw      r5,0xfff4(r30)
    4ccc:	f4 ff 9e 30 	lw      r4,0xfff4(r30)
    4cd0:	04 00 84 04 	addi    r4,r4,0x0004
    4cd4:	f4 ff 9e 34 	sw      0xfff4(r30),r4
    4cd8:	00 00 85 30 	lw      r4,0x0000(r5)
    4cdc:	e4 ff 9e 34 	sw      0xffe4(r30),r4
    4ce0:	e4 ff 9e 30 	lw      r4,0xffe4(r30)
    4ce4:	24 0e 00 c0 	ajal    0x00003890
    4ce8:	05 10 80 00 	orr     r4,r0,r2
    4cec:	f0 ff 9e 34 	sw      0xfff0(r30),r4
    4cf0:	d4 ff be 30 	lw      r5,0xffd4(r30)
    4cf4:	00 00 80 18 	ori     r4,r0,0x0000
    4cf8:	02 20 05 00 	sub     r0,r5,r4
    4cfc:	04 00 80 42 	bge     0x00004d0c
    4d00:	f0 ff 9e 30 	lw      r4,0xfff0(r30)
    4d04:	d4 ff 9e 34 	sw      0xffd4(r30),r4
    4d08:	49 13 00 80 	ajmp    0x00004d24
    4d0c:	f0 ff be 30 	lw      r5,0xfff0(r30)
    4d10:	d4 ff 9e 30 	lw      r4,0xffd4(r30)
    4d14:	02 20 05 00 	sub     r0,r5,r4
    4d18:	03 00 40 43 	ble     0x00004d24
    4d1c:	d4 ff 9e 30 	lw      r4,0xffd4(r30)
    4d20:	f0 ff 9e 34 	sw      0xfff0(r30),r4
    4d24:	dc ff 9e 30 	lw      r4,0xffdc(r30)
    4d28:	04 00 84 24 	lsri    r4,r4,0x0004
    4d2c:	01 00 a4 14 	andi    r5,r4,0x0001
    4d30:	00 00 80 18 	ori     r4,r0,0x0000
    4d34:	02 20 05 00 	sub     r0,r5,r4
    4d38:	11 00 40 40 	bne     0x00004d7c
    4d3c:	d8 ff be 04 	addi    r5,r30,0xffd8
    4d40:	00 00 85 30 	lw      r4,0x0000(r5)
    4d44:	05 20 c0 00 	orr     r6,r0,r4
    4d48:	ff ff 84 04 	addi    r4,r4,0xffff
    4d4c:	00 00 85 34 	sw      0x0000(r5),r4
    4d50:	f0 ff 9e 30 	lw      r4,0xfff0(r30)
    4d54:	02 20 06 00 	sub     r0,r6,r4
    4d58:	09 00 40 43 	ble     0x00004d7c
    4d5c:	e8 ff 9e 04 	addi    r4,r30,0xffe8
    4d60:	00 00 a4 30 	lw      r5,0x0000(r4)
    4d64:	05 28 c0 00 	orr     r6,r0,r5
    4d68:	20 00 e0 18 	ori     r7,r0,0x0020
    4d6c:	00 00 e6 3c 	sb      0x0000(r6),r7
    4d70:	01 00 a5 04 	addi    r5,r5,0x0001
    4d74:	00 00 a4 34 	sw      0x0000(r4),r5
    4d78:	4f 13 00 80 	ajmp    0x00004d3c
    4d7c:	00 00 80 18 	ori     r4,r0,0x0000
    4d80:	ec ff 9e 34 	sw      0xffec(r30),r4
    4d84:	ec ff be 30 	lw      r5,0xffec(r30)
    4d88:	f0 ff 9e 30 	lw      r4,0xfff0(r30)
    4d8c:	02 20 05 00 	sub     r0,r5,r4
    4d90:	10 00 80 42 	bge     0x00004dd0
    4d94:	e8 ff 1e 05 	addi    r8,r30,0xffe8
    4d98:	00 00 a8 30 	lw      r5,0x0000(r8)
    4d9c:	e4 ff de 04 	addi    r6,r30,0xffe4
    4da0:	00 00 86 30 	lw      r4,0x0000(r6)
    4da4:	00 00 e4 38 	lb      r7,0x0000(r4)
    4da8:	01 00 84 04 	addi    r4,r4,0x0001
    4dac:	00 00 86 34 	sw      0x0000(r6),r4
    4db0:	05 28 80 00 	orr     r4,r0,r5
    4db4:	00 00 e4 3c 	sb      0x0000(r4),r7
    4db8:	01 00 a5 04 	addi    r5,r5,0x0001
    4dbc:	00 00 a8 34 	sw      0x0000(r8),r5
    4dc0:	ec ff 9e 30 	lw      r4,0xffec(r30)
    4dc4:	01 00 84 04 	addi    r4,r4,0x0001
    4dc8:	ec ff 9e 34 	sw      0xffec(r30),r4
    4dcc:	61 13 00 80 	ajmp    0x00004d84
    4dd0:	d8 ff be 04 	addi    r5,r30,0xffd8
    4dd4:	00 00 85 30 	lw      r4,0x0000(r5)
    4dd8:	05 20 c0 00 	orr     r6,r0,r4
    4ddc:	ff ff 84 04 	addi    r4,r4,0xffff
    4de0:	00 00 85 34 	sw      0x0000(r5),r4
    4de4:	f0 ff 9e 30 	lw      r4,0xfff0(r30)
    4de8:	02 20 06 00 	sub     r0,r6,r4
    4dec:	86 00 40 43 	ble     0x00005004
    4df0:	e8 ff 9e 04 	addi    r4,r30,0xffe8
    4df4:	00 00 a4 30 	lw      r5,0x0000(r4)
    4df8:	05 28 c0 00 	orr     r6,r0,r5
    4dfc:	20 00 e0 18 	ori     r7,r0,0x0020
    4e00:	00 00 e6 3c 	sb      0x0000(r6),r7
    4e04:	01 00 a5 04 	addi    r5,r5,0x0001
    4e08:	00 00 a4 34 	sw      0x0000(r4),r5
    4e0c:	74 13 00 80 	ajmp    0x00004dd0
    4e10:	f4 ff be 30 	lw      r5,0xfff4(r30)
    4e14:	f4 ff 9e 30 	lw      r4,0xfff4(r30)
    4e18:	04 00 84 04 	addi    r4,r4,0x0004
    4e1c:	f4 ff 9e 34 	sw      0xfff4(r30),r4
    4e20:	d4 ff 9e 30 	lw      r4,0xffd4(r30)
    4e24:	00 00 9d 34 	sw      0x0000(r29),r4
    4e28:	dc ff 9e 30 	lw      r4,0xffdc(r30)
    4e2c:	04 00 9d 34 	sw      0x0004(r29),r4
    4e30:	e8 ff 9e 30 	lw      r4,0xffe8(r30)
    4e34:	00 00 a5 30 	lw      r5,0x0000(r5)
    4e38:	08 00 c0 18 	ori     r6,r0,0x0008
    4e3c:	d8 ff fe 30 	lw      r7,0xffd8(r30)
    4e40:	dc 10 00 c0 	ajal    0x00004370
    4e44:	05 10 80 00 	orr     r4,r0,r2
    4e48:	e8 ff 9e 34 	sw      0xffe8(r30),r4
    4e4c:	01 14 00 80 	ajmp    0x00005004
    4e50:	d8 ff be 30 	lw      r5,0xffd8(r30)
    4e54:	ff ff 80 2c 	ldih    r4,0xffff
    4e58:	ff ff 84 18 	ori     r4,r4,0xffff
    4e5c:	02 20 05 00 	sub     r0,r5,r4
    4e60:	06 00 40 40 	bne     0x00004e78
    4e64:	08 00 80 18 	ori     r4,r0,0x0008
    4e68:	d8 ff 9e 34 	sw      0xffd8(r30),r4
    4e6c:	dc ff 9e 30 	lw      r4,0xffdc(r30)
    4e70:	01 00 84 18 	ori     r4,r4,0x0001
    4e74:	dc ff 9e 34 	sw      0xffdc(r30),r4
    4e78:	f4 ff be 30 	lw      r5,0xfff4(r30)
    4e7c:	f4 ff 9e 30 	lw      r4,0xfff4(r30)
    4e80:	04 00 84 04 	addi    r4,r4,0x0004
    4e84:	f4 ff 9e 34 	sw      0xfff4(r30),r4
    4e88:	d4 ff 9e 30 	lw      r4,0xffd4(r30)
    4e8c:	00 00 9d 34 	sw      0x0000(r29),r4
    4e90:	dc ff 9e 30 	lw      r4,0xffdc(r30)
    4e94:	04 00 9d 34 	sw      0x0004(r29),r4
    4e98:	e8 ff 9e 30 	lw      r4,0xffe8(r30)
    4e9c:	00 00 a5 30 	lw      r5,0x0000(r5)
    4ea0:	10 00 c0 18 	ori     r6,r0,0x0010
    4ea4:	d8 ff fe 30 	lw      r7,0xffd8(r30)
    4ea8:	dc 10 00 c0 	ajal    0x00004370
    4eac:	05 10 80 00 	orr     r4,r0,r2
    4eb0:	e8 ff 9e 34 	sw      0xffe8(r30),r4
    4eb4:	01 14 00 80 	ajmp    0x00005004
    4eb8:	dc ff 9e 30 	lw      r4,0xffdc(r30)
    4ebc:	40 00 84 18 	ori     r4,r4,0x0040
    4ec0:	dc ff 9e 34 	sw      0xffdc(r30),r4
    4ec4:	f4 ff be 30 	lw      r5,0xfff4(r30)
    4ec8:	f4 ff 9e 30 	lw      r4,0xfff4(r30)
    4ecc:	04 00 84 04 	addi    r4,r4,0x0004
    4ed0:	f4 ff 9e 34 	sw      0xfff4(r30),r4
    4ed4:	d4 ff 9e 30 	lw      r4,0xffd4(r30)
    4ed8:	00 00 9d 34 	sw      0x0000(r29),r4
    4edc:	dc ff 9e 30 	lw      r4,0xffdc(r30)
    4ee0:	04 00 9d 34 	sw      0x0004(r29),r4
    4ee4:	e8 ff 9e 30 	lw      r4,0xffe8(r30)
    4ee8:	00 00 a5 30 	lw      r5,0x0000(r5)
    4eec:	10 00 c0 18 	ori     r6,r0,0x0010
    4ef0:	d8 ff fe 30 	lw      r7,0xffd8(r30)
    4ef4:	dc 10 00 c0 	ajal    0x00004370
    4ef8:	05 10 80 00 	orr     r4,r0,r2
    4efc:	e8 ff 9e 34 	sw      0xffe8(r30),r4
    4f00:	01 14 00 80 	ajmp    0x00005004
    4f04:	dc ff 9e 30 	lw      r4,0xffdc(r30)
    4f08:	02 00 84 18 	ori     r4,r4,0x0002
    4f0c:	dc ff 9e 34 	sw      0xffdc(r30),r4
    4f10:	f4 ff be 30 	lw      r5,0xfff4(r30)
    4f14:	f4 ff 9e 30 	lw      r4,0xfff4(r30)
    4f18:	04 00 84 04 	addi    r4,r4,0x0004
    4f1c:	f4 ff 9e 34 	sw      0xfff4(r30),r4
    4f20:	d4 ff 9e 30 	lw      r4,0xffd4(r30)
    4f24:	00 00 9d 34 	sw      0x0000(r29),r4
    4f28:	dc ff 9e 30 	lw      r4,0xffdc(r30)
    4f2c:	04 00 9d 34 	sw      0x0004(r29),r4
    4f30:	e8 ff 9e 30 	lw      r4,0xffe8(r30)
    4f34:	00 00 a5 30 	lw      r5,0x0000(r5)
    4f38:	0a 00 c0 18 	ori     r6,r0,0x000a
    4f3c:	d8 ff fe 30 	lw      r7,0xffd8(r30)
    4f40:	dc 10 00 c0 	ajal    0x00004370
    4f44:	05 10 80 00 	orr     r4,r0,r2
    4f48:	e8 ff 9e 34 	sw      0xffe8(r30),r4
    4f4c:	01 14 00 80 	ajmp    0x00005004
    4f50:	f4 ff be 30 	lw      r5,0xfff4(r30)
    4f54:	f4 ff 9e 30 	lw      r4,0xfff4(r30)
    4f58:	04 00 84 04 	addi    r4,r4,0x0004
    4f5c:	f4 ff 9e 34 	sw      0xfff4(r30),r4
    4f60:	00 00 85 30 	lw      r4,0x0000(r5)
    4f64:	e0 ff 9e 34 	sw      0xffe0(r30),r4
    4f68:	e0 ff de 30 	lw      r6,0xffe0(r30)
    4f6c:	e8 ff be 30 	lw      r5,0xffe8(r30)
    4f70:	fc ff 9e 30 	lw      r4,0xfffc(r30)
    4f74:	02 20 85 00 	sub     r4,r5,r4
    4f78:	00 00 86 34 	sw      0x0000(r6),r4
    4f7c:	01 14 00 80 	ajmp    0x00005004
    4f80:	f8 ff 9e 30 	lw      r4,0xfff8(r30)
    4f84:	00 00 84 38 	lb      r4,0x0000(r4)
    4f88:	18 00 84 20 	lsli    r4,r4,0x0018
    4f8c:	18 00 84 24 	lsri    r4,r4,0x0018
    4f90:	25 00 a0 18 	ori     r5,r0,0x0025
    4f94:	02 28 04 00 	sub     r0,r4,r5
    4f98:	08 00 00 40 	beq     0x00004fb8
    4f9c:	e8 ff 9e 04 	addi    r4,r30,0xffe8
    4fa0:	00 00 a4 30 	lw      r5,0x0000(r4)
    4fa4:	05 28 c0 00 	orr     r6,r0,r5
    4fa8:	25 00 e0 18 	ori     r7,r0,0x0025
    4fac:	00 00 e6 3c 	sb      0x0000(r6),r7
    4fb0:	01 00 a5 04 	addi    r5,r5,0x0001
    4fb4:	00 00 a4 34 	sw      0x0000(r4),r5
    4fb8:	f8 ff 9e 30 	lw      r4,0xfff8(r30)
    4fbc:	00 00 84 38 	lb      r4,0x0000(r4)
    4fc0:	18 00 84 20 	lsli    r4,r4,0x0018
    4fc4:	18 00 84 24 	lsri    r4,r4,0x0018
    4fc8:	00 00 a0 18 	ori     r5,r0,0x0000
    4fcc:	02 28 04 00 	sub     r0,r4,r5
    4fd0:	0a 00 00 40 	beq     0x00004ff8
    4fd4:	e8 ff fe 04 	addi    r7,r30,0xffe8
    4fd8:	00 00 87 30 	lw      r4,0x0000(r7)
    4fdc:	f8 ff de 30 	lw      r6,0xfff8(r30)
    4fe0:	05 20 a0 00 	orr     r5,r0,r4
    4fe4:	00 00 c6 38 	lb      r6,0x0000(r6)
    4fe8:	00 00 c5 3c 	sb      0x0000(r5),r6
    4fec:	01 00 84 04 	addi    r4,r4,0x0001
    4ff0:	00 00 87 34 	sw      0x0000(r7),r4
    4ff4:	01 14 00 80 	ajmp    0x00005004
    4ff8:	f8 ff 9e 30 	lw      r4,0xfff8(r30)
    4ffc:	ff ff 84 04 	addi    r4,r4,0xffff
    5000:	f8 ff 9e 34 	sw      0xfff8(r30),r4
    5004:	f8 ff 9e 30 	lw      r4,0xfff8(r30)
    5008:	01 00 84 04 	addi    r4,r4,0x0001
    500c:	f8 ff 9e 34 	sw      0xfff8(r30),r4
    5010:	2f 12 00 80 	ajmp    0x000048bc
    5014:	e8 ff 9e 30 	lw      r4,0xffe8(r30)
    5018:	00 00 a0 18 	ori     r5,r0,0x0000
    501c:	00 00 a4 3c 	sb      0x0000(r4),r5
    5020:	e8 ff be 30 	lw      r5,0xffe8(r30)
    5024:	fc ff 9e 30 	lw      r4,0xfffc(r30)
    5028:	02 20 85 00 	sub     r4,r5,r4
    502c:	05 20 40 00 	orr     r2,r0,r4
    5030:	40 00 bd 07 	addi    r29,r29,0x0040
    5034:	05 f0 a0 03 	orr     r29,r0,r30
    5038:	0c 00 bd 07 	addi    r29,r29,0x000c
    503c:	fc ff 1d 31 	lw      r8,0xfffc(r29)
    5040:	f8 ff fd 33 	lw      r31,0xfff8(r29)
    5044:	f4 ff dd 33 	lw      r30,0xfff4(r29)
    5048:	00 00 e0 47 	jmpr    r31
    504c:	00 00 00 00 	nop

00005050 <OSInit>:
    5050:	f8 ff bd 07 	addi    r29,r29,0xfff8
    5054:	00 00 dd 37 	sw      0x0000(r29),r30
    5058:	04 00 fd 37 	sw      0x0004(r29),r31
    505c:	05 e8 c0 03 	orr     r30,r0,r29
    5060:	b4 27 00 c0 	ajal    0x00009ed0
    5064:	c4 17 00 c0 	ajal    0x00005f10
    5068:	f8 17 00 c0 	ajal    0x00005fe0
    506c:	74 18 00 c0 	ajal    0x000061d0
    5070:	74 17 00 c0 	ajal    0x00005dd0
    5074:	2c 18 00 c0 	ajal    0x000060b0
    5078:	50 18 00 c0 	ajal    0x00006140
    507c:	bc 27 00 c0 	ajal    0x00009ef0
    5080:	05 f0 a0 03 	orr     r29,r0,r30
    5084:	08 00 bd 07 	addi    r29,r29,0x0008
    5088:	fc ff fd 33 	lw      r31,0xfffc(r29)
    508c:	f8 ff dd 33 	lw      r30,0xfff8(r29)
    5090:	00 00 e0 47 	jmpr    r31
    5094:	00 00 00 00 	nop
    5098:	00 00 00 00 	nop
    509c:	00 00 00 00 	nop

000050a0 <OSIntEnter>:
    50a0:	fc ff bd 07 	addi    r29,r29,0xfffc
    50a4:	00 00 dd 37 	sw      0x0000(r29),r30
    50a8:	05 e8 c0 03 	orr     r30,r0,r29
    50ac:	01 00 80 2c 	ldih    r4,0x0001
    50b0:	42 33 84 18 	ori     r4,r4,0x3342
    50b4:	00 00 84 38 	lb      r4,0x0000(r4)
    50b8:	18 00 84 20 	lsli    r4,r4,0x0018
    50bc:	18 00 84 24 	lsri    r4,r4,0x0018
    50c0:	01 00 a0 18 	ori     r5,r0,0x0001
    50c4:	02 28 04 00 	sub     r0,r4,r5
    50c8:	10 00 40 40 	bne     0x00005108
    50cc:	01 00 80 2c 	ldih    r4,0x0001
    50d0:	84 4c 84 18 	ori     r4,r4,0x4c84
    50d4:	00 00 84 38 	lb      r4,0x0000(r4)
    50d8:	18 00 84 20 	lsli    r4,r4,0x0018
    50dc:	18 00 84 24 	lsri    r4,r4,0x0018
    50e0:	ff 00 a0 18 	ori     r5,r0,0x00ff
    50e4:	02 28 04 00 	sub     r0,r4,r5
    50e8:	08 00 00 40 	beq     0x00005108
    50ec:	01 00 a0 2c 	ldih    r5,0x0001
    50f0:	84 4c a5 18 	ori     r5,r5,0x4c84
    50f4:	01 00 80 2c 	ldih    r4,0x0001
    50f8:	84 4c 84 18 	ori     r4,r4,0x4c84
    50fc:	00 00 84 38 	lb      r4,0x0000(r4)
    5100:	01 00 84 04 	addi    r4,r4,0x0001
    5104:	00 00 85 3c 	sb      0x0000(r5),r4
    5108:	05 f0 a0 03 	orr     r29,r0,r30
    510c:	04 00 bd 07 	addi    r29,r29,0x0004
    5110:	fc ff dd 33 	lw      r30,0xfffc(r29)
    5114:	00 00 e0 47 	jmpr    r31
    5118:	00 00 00 00 	nop
    511c:	00 00 00 00 	nop

00005120 <OSIntExit>:
    5120:	f8 ff bd 07 	addi    r29,r29,0xfff8
    5124:	00 00 dd 37 	sw      0x0000(r29),r30
    5128:	04 00 fd 37 	sw      0x0004(r29),r31
    512c:	05 e8 c0 03 	orr     r30,r0,r29
    5130:	fc ff bd 07 	addi    r29,r29,0xfffc
    5134:	00 00 80 18 	ori     r4,r0,0x0000
    5138:	fc ff 9e 34 	sw      0xfffc(r30),r4
    513c:	01 00 80 2c 	ldih    r4,0x0001
    5140:	42 33 84 18 	ori     r4,r4,0x3342
    5144:	00 00 84 38 	lb      r4,0x0000(r4)
    5148:	18 00 84 20 	lsli    r4,r4,0x0018
    514c:	18 00 84 24 	lsri    r4,r4,0x0018
    5150:	01 00 a0 18 	ori     r5,r0,0x0001
    5154:	02 28 04 00 	sub     r0,r4,r5
    5158:	50 00 40 40 	bne     0x00005298
    515c:	2a 00 00 c0 	ajal    0x000000a8
    5160:	05 10 80 00 	orr     r4,r0,r2
    5164:	fc ff 9e 34 	sw      0xfffc(r30),r4
    5168:	01 00 80 2c 	ldih    r4,0x0001
    516c:	84 4c 84 18 	ori     r4,r4,0x4c84
    5170:	00 00 84 38 	lb      r4,0x0000(r4)
    5174:	18 00 84 20 	lsli    r4,r4,0x0018
    5178:	18 00 84 24 	lsri    r4,r4,0x0018
    517c:	00 00 a0 18 	ori     r5,r0,0x0000
    5180:	02 28 04 00 	sub     r0,r4,r5
    5184:	08 00 00 40 	beq     0x000051a4
    5188:	01 00 a0 2c 	ldih    r5,0x0001
    518c:	84 4c a5 18 	ori     r5,r5,0x4c84
    5190:	01 00 80 2c 	ldih    r4,0x0001
    5194:	84 4c 84 18 	ori     r4,r4,0x4c84
    5198:	00 00 84 38 	lb      r4,0x0000(r4)
    519c:	ff ff 84 04 	addi    r4,r4,0xffff
    51a0:	00 00 85 3c 	sb      0x0000(r5),r4
    51a4:	01 00 80 2c 	ldih    r4,0x0001
    51a8:	84 4c 84 18 	ori     r4,r4,0x4c84
    51ac:	00 00 84 38 	lb      r4,0x0000(r4)
    51b0:	18 00 84 20 	lsli    r4,r4,0x0018
    51b4:	18 00 84 24 	lsri    r4,r4,0x0018
    51b8:	00 00 a0 18 	ori     r5,r0,0x0000
    51bc:	02 28 04 00 	sub     r0,r4,r5
    51c0:	34 00 40 40 	bne     0x00005290
    51c4:	01 00 80 2c 	ldih    r4,0x0001
    51c8:	40 33 84 18 	ori     r4,r4,0x3340
    51cc:	00 00 84 38 	lb      r4,0x0000(r4)
    51d0:	18 00 84 20 	lsli    r4,r4,0x0018
    51d4:	18 00 84 24 	lsri    r4,r4,0x0018
    51d8:	00 00 a0 18 	ori     r5,r0,0x0000
    51dc:	02 28 04 00 	sub     r0,r4,r5
    51e0:	2c 00 40 40 	bne     0x00005290
    51e4:	60 19 00 c0 	ajal    0x00006580
    51e8:	01 00 a0 2c 	ldih    r5,0x0001
    51ec:	70 4c a5 18 	ori     r5,r5,0x4c70
    51f0:	01 00 c0 2c 	ldih    r6,0x0001
    51f4:	a0 6c c6 18 	ori     r6,r6,0x6ca0
    51f8:	01 00 80 2c 	ldih    r4,0x0001
    51fc:	48 33 84 18 	ori     r4,r4,0x3348
    5200:	00 00 84 38 	lb      r4,0x0000(r4)
    5204:	18 00 84 20 	lsli    r4,r4,0x0018
    5208:	18 00 84 24 	lsri    r4,r4,0x0018
    520c:	02 00 84 20 	lsli    r4,r4,0x0002
    5210:	00 30 84 00 	add     r4,r4,r6
    5214:	00 00 84 30 	lw      r4,0x0000(r4)
    5218:	00 00 85 34 	sw      0x0000(r5),r4
    521c:	01 00 80 2c 	ldih    r4,0x0001
    5220:	48 33 84 18 	ori     r4,r4,0x3348
    5224:	01 00 c0 2c 	ldih    r6,0x0001
    5228:	49 33 c6 18 	ori     r6,r6,0x3349
    522c:	00 00 84 38 	lb      r4,0x0000(r4)
    5230:	18 00 a4 20 	lsli    r5,r4,0x0018
    5234:	18 00 a5 24 	lsri    r5,r5,0x0018
    5238:	00 00 86 38 	lb      r4,0x0000(r6)
    523c:	18 00 84 20 	lsli    r4,r4,0x0018
    5240:	18 00 84 24 	lsri    r4,r4,0x0018
    5244:	02 20 05 00 	sub     r0,r5,r4
    5248:	12 00 00 40 	beq     0x00005290
    524c:	01 00 80 2c 	ldih    r4,0x0001
    5250:	70 4c 84 18 	ori     r4,r4,0x4c70
    5254:	00 00 a4 30 	lw      r5,0x0000(r4)
    5258:	01 00 80 2c 	ldih    r4,0x0001
    525c:	70 4c 84 18 	ori     r4,r4,0x4c70
    5260:	00 00 84 30 	lw      r4,0x0000(r4)
    5264:	2c 00 84 30 	lw      r4,0x002c(r4)
    5268:	01 00 84 04 	addi    r4,r4,0x0001
    526c:	2c 00 85 34 	sw      0x002c(r5),r4
    5270:	01 00 a0 2c 	ldih    r5,0x0001
    5274:	60 4c a5 18 	ori     r5,r5,0x4c60
    5278:	01 00 80 2c 	ldih    r4,0x0001
    527c:	60 4c 84 18 	ori     r4,r4,0x4c60
    5280:	00 00 84 30 	lw      r4,0x0000(r4)
    5284:	01 00 84 04 	addi    r4,r4,0x0001
    5288:	00 00 85 34 	sw      0x0000(r5),r4
    528c:	8c 00 00 c0 	ajal    0x00000230
    5290:	fc ff 9e 30 	lw      r4,0xfffc(r30)
    5294:	2d 00 00 c0 	ajal    0x000000b4
    5298:	04 00 bd 07 	addi    r29,r29,0x0004
    529c:	05 f0 a0 03 	orr     r29,r0,r30
    52a0:	08 00 bd 07 	addi    r29,r29,0x0008
    52a4:	fc ff fd 33 	lw      r31,0xfffc(r29)
    52a8:	f8 ff dd 33 	lw      r30,0xfff8(r29)
    52ac:	00 00 e0 47 	jmpr    r31

000052b0 <OSSchedLock>:
    52b0:	f8 ff bd 07 	addi    r29,r29,0xfff8
    52b4:	00 00 dd 37 	sw      0x0000(r29),r30
    52b8:	04 00 fd 37 	sw      0x0004(r29),r31
    52bc:	05 e8 c0 03 	orr     r30,r0,r29
    52c0:	fc ff bd 07 	addi    r29,r29,0xfffc
    52c4:	00 00 80 18 	ori     r4,r0,0x0000
    52c8:	fc ff 9e 34 	sw      0xfffc(r30),r4
    52cc:	01 00 80 2c 	ldih    r4,0x0001
    52d0:	42 33 84 18 	ori     r4,r4,0x3342
    52d4:	00 00 84 38 	lb      r4,0x0000(r4)
    52d8:	18 00 84 20 	lsli    r4,r4,0x0018
    52dc:	18 00 84 24 	lsri    r4,r4,0x0018
    52e0:	01 00 a0 18 	ori     r5,r0,0x0001
    52e4:	02 28 04 00 	sub     r0,r4,r5
    52e8:	1d 00 40 40 	bne     0x0000535c
    52ec:	2a 00 00 c0 	ajal    0x000000a8
    52f0:	05 10 80 00 	orr     r4,r0,r2
    52f4:	fc ff 9e 34 	sw      0xfffc(r30),r4
    52f8:	01 00 80 2c 	ldih    r4,0x0001
    52fc:	84 4c 84 18 	ori     r4,r4,0x4c84
    5300:	00 00 84 38 	lb      r4,0x0000(r4)
    5304:	18 00 84 20 	lsli    r4,r4,0x0018
    5308:	18 00 84 24 	lsri    r4,r4,0x0018
    530c:	00 00 a0 18 	ori     r5,r0,0x0000
    5310:	02 28 04 00 	sub     r0,r4,r5
    5314:	10 00 40 40 	bne     0x00005354
    5318:	01 00 80 2c 	ldih    r4,0x0001
    531c:	40 33 84 18 	ori     r4,r4,0x3340
    5320:	00 00 84 38 	lb      r4,0x0000(r4)
    5324:	18 00 84 20 	lsli    r4,r4,0x0018
    5328:	18 00 84 24 	lsri    r4,r4,0x0018
    532c:	ff 00 a0 18 	ori     r5,r0,0x00ff
    5330:	02 28 04 00 	sub     r0,r4,r5
    5334:	08 00 00 40 	beq     0x00005354
    5338:	01 00 a0 2c 	ldih    r5,0x0001
    533c:	40 33 a5 18 	ori     r5,r5,0x3340
    5340:	01 00 80 2c 	ldih    r4,0x0001
    5344:	40 33 84 18 	ori     r4,r4,0x3340
    5348:	00 00 84 38 	lb      r4,0x0000(r4)
    534c:	01 00 84 04 	addi    r4,r4,0x0001
    5350:	00 00 85 3c 	sb      0x0000(r5),r4
    5354:	fc ff 9e 30 	lw      r4,0xfffc(r30)
    5358:	2d 00 00 c0 	ajal    0x000000b4
    535c:	04 00 bd 07 	addi    r29,r29,0x0004
    5360:	05 f0 a0 03 	orr     r29,r0,r30
    5364:	08 00 bd 07 	addi    r29,r29,0x0008
    5368:	fc ff fd 33 	lw      r31,0xfffc(r29)
    536c:	f8 ff dd 33 	lw      r30,0xfff8(r29)
    5370:	00 00 e0 47 	jmpr    r31
    5374:	00 00 00 00 	nop
    5378:	00 00 00 00 	nop
    537c:	00 00 00 00 	nop

00005380 <OSSchedUnlock>:
    5380:	f8 ff bd 07 	addi    r29,r29,0xfff8
    5384:	00 00 dd 37 	sw      0x0000(r29),r30
    5388:	04 00 fd 37 	sw      0x0004(r29),r31
    538c:	05 e8 c0 03 	orr     r30,r0,r29
    5390:	fc ff bd 07 	addi    r29,r29,0xfffc
    5394:	00 00 80 18 	ori     r4,r0,0x0000
    5398:	fc ff 9e 34 	sw      0xfffc(r30),r4
    539c:	01 00 80 2c 	ldih    r4,0x0001
    53a0:	42 33 84 18 	ori     r4,r4,0x3342
    53a4:	00 00 84 38 	lb      r4,0x0000(r4)
    53a8:	18 00 84 20 	lsli    r4,r4,0x0018
    53ac:	18 00 84 24 	lsri    r4,r4,0x0018
    53b0:	01 00 a0 18 	ori     r5,r0,0x0001
    53b4:	02 28 04 00 	sub     r0,r4,r5
    53b8:	2f 00 40 40 	bne     0x00005474
    53bc:	2a 00 00 c0 	ajal    0x000000a8
    53c0:	05 10 80 00 	orr     r4,r0,r2
    53c4:	fc ff 9e 34 	sw      0xfffc(r30),r4
    53c8:	01 00 80 2c 	ldih    r4,0x0001
    53cc:	84 4c 84 18 	ori     r4,r4,0x4c84
    53d0:	00 00 84 38 	lb      r4,0x0000(r4)
    53d4:	18 00 84 20 	lsli    r4,r4,0x0018
    53d8:	18 00 84 24 	lsri    r4,r4,0x0018
    53dc:	00 00 a0 18 	ori     r5,r0,0x0000
    53e0:	02 28 04 00 	sub     r0,r4,r5
    53e4:	22 00 40 40 	bne     0x0000546c
    53e8:	01 00 80 2c 	ldih    r4,0x0001
    53ec:	40 33 84 18 	ori     r4,r4,0x3340
    53f0:	00 00 84 38 	lb      r4,0x0000(r4)
    53f4:	18 00 84 20 	lsli    r4,r4,0x0018
    53f8:	18 00 84 24 	lsri    r4,r4,0x0018
    53fc:	00 00 a0 18 	ori     r5,r0,0x0000
    5400:	02 28 04 00 	sub     r0,r4,r5
    5404:	17 00 00 40 	beq     0x00005460
    5408:	01 00 a0 2c 	ldih    r5,0x0001
    540c:	40 33 a5 18 	ori     r5,r5,0x3340
    5410:	01 00 80 2c 	ldih    r4,0x0001
    5414:	40 33 84 18 	ori     r4,r4,0x3340
    5418:	00 00 84 38 	lb      r4,0x0000(r4)
    541c:	ff ff 84 04 	addi    r4,r4,0xffff
    5420:	00 00 85 3c 	sb      0x0000(r5),r4
    5424:	01 00 80 2c 	ldih    r4,0x0001
    5428:	40 33 84 18 	ori     r4,r4,0x3340
    542c:	00 00 84 38 	lb      r4,0x0000(r4)
    5430:	18 00 84 20 	lsli    r4,r4,0x0018
    5434:	18 00 84 24 	lsri    r4,r4,0x0018
    5438:	00 00 a0 18 	ori     r5,r0,0x0000
    543c:	02 28 04 00 	sub     r0,r4,r5
    5440:	05 00 40 40 	bne     0x00005454
    5444:	fc ff 9e 30 	lw      r4,0xfffc(r30)
    5448:	2d 00 00 c0 	ajal    0x000000b4
    544c:	10 19 00 c0 	ajal    0x00006440
    5450:	1d 15 00 80 	ajmp    0x00005474
    5454:	fc ff 9e 30 	lw      r4,0xfffc(r30)
    5458:	2d 00 00 c0 	ajal    0x000000b4
    545c:	1d 15 00 80 	ajmp    0x00005474
    5460:	fc ff 9e 30 	lw      r4,0xfffc(r30)
    5464:	2d 00 00 c0 	ajal    0x000000b4
    5468:	1d 15 00 80 	ajmp    0x00005474
    546c:	fc ff 9e 30 	lw      r4,0xfffc(r30)
    5470:	2d 00 00 c0 	ajal    0x000000b4
    5474:	04 00 bd 07 	addi    r29,r29,0x0004
    5478:	05 f0 a0 03 	orr     r29,r0,r30
    547c:	08 00 bd 07 	addi    r29,r29,0x0008
    5480:	fc ff fd 33 	lw      r31,0xfffc(r29)
    5484:	f8 ff dd 33 	lw      r30,0xfff8(r29)
    5488:	00 00 e0 47 	jmpr    r31
    548c:	00 00 00 00 	nop

00005490 <OSStart>:
    5490:	f8 ff bd 07 	addi    r29,r29,0xfff8
    5494:	00 00 dd 37 	sw      0x0000(r29),r30
    5498:	04 00 fd 37 	sw      0x0004(r29),r31
    549c:	05 e8 c0 03 	orr     r30,r0,r29
    54a0:	01 00 80 2c 	ldih    r4,0x0001
    54a4:	42 33 84 18 	ori     r4,r4,0x3342
    54a8:	00 00 84 38 	lb      r4,0x0000(r4)
    54ac:	18 00 84 20 	lsli    r4,r4,0x0018
    54b0:	18 00 84 24 	lsri    r4,r4,0x0018
    54b4:	00 00 a0 18 	ori     r5,r0,0x0000
    54b8:	02 28 04 00 	sub     r0,r4,r5
    54bc:	1c 00 40 40 	bne     0x0000552c
    54c0:	60 19 00 c0 	ajal    0x00006580
    54c4:	01 00 a0 2c 	ldih    r5,0x0001
    54c8:	49 33 a5 18 	ori     r5,r5,0x3349
    54cc:	01 00 80 2c 	ldih    r4,0x0001
    54d0:	48 33 84 18 	ori     r4,r4,0x3348
    54d4:	00 00 84 38 	lb      r4,0x0000(r4)
    54d8:	00 00 85 3c 	sb      0x0000(r5),r4
    54dc:	01 00 a0 2c 	ldih    r5,0x0001
    54e0:	70 4c a5 18 	ori     r5,r5,0x4c70
    54e4:	01 00 c0 2c 	ldih    r6,0x0001
    54e8:	a0 6c c6 18 	ori     r6,r6,0x6ca0
    54ec:	01 00 80 2c 	ldih    r4,0x0001
    54f0:	48 33 84 18 	ori     r4,r4,0x3348
    54f4:	00 00 84 38 	lb      r4,0x0000(r4)
    54f8:	18 00 84 20 	lsli    r4,r4,0x0018
    54fc:	18 00 84 24 	lsri    r4,r4,0x0018
    5500:	02 00 84 20 	lsli    r4,r4,0x0002
    5504:	00 30 84 00 	add     r4,r4,r6
    5508:	00 00 84 30 	lw      r4,0x0000(r4)
    550c:	00 00 85 34 	sw      0x0000(r5),r4
    5510:	01 00 a0 2c 	ldih    r5,0x0001
    5514:	88 4c a5 18 	ori     r5,r5,0x4c88
    5518:	01 00 80 2c 	ldih    r4,0x0001
    551c:	70 4c 84 18 	ori     r4,r4,0x4c70
    5520:	00 00 84 30 	lw      r4,0x0000(r4)
    5524:	00 00 85 34 	sw      0x0000(r5),r4
    5528:	2f 00 00 c0 	ajal    0x000000bc
    552c:	05 f0 a0 03 	orr     r29,r0,r30
    5530:	08 00 bd 07 	addi    r29,r29,0x0008
    5534:	fc ff fd 33 	lw      r31,0xfffc(r29)
    5538:	f8 ff dd 33 	lw      r30,0xfff8(r29)
    553c:	00 00 e0 47 	jmpr    r31

00005540 <OSStatInit>:
    5540:	f8 ff bd 07 	addi    r29,r29,0xfff8
    5544:	00 00 dd 37 	sw      0x0000(r29),r30
    5548:	04 00 fd 37 	sw      0x0004(r29),r31
    554c:	05 e8 c0 03 	orr     r30,r0,r29
    5550:	fc ff bd 07 	addi    r29,r29,0xfffc
    5554:	00 00 80 18 	ori     r4,r0,0x0000
    5558:	fc ff 9e 34 	sw      0xfffc(r30),r4
    555c:	02 00 80 18 	ori     r4,r0,0x0002
    5560:	08 21 00 c0 	ajal    0x00008420
    5564:	2a 00 00 c0 	ajal    0x000000a8
    5568:	05 10 80 00 	orr     r4,r0,r2
    556c:	fc ff 9e 34 	sw      0xfffc(r30),r4
    5570:	01 00 a0 2c 	ldih    r5,0x0001
    5574:	44 33 a5 18 	ori     r5,r5,0x3344
    5578:	00 00 80 18 	ori     r4,r0,0x0000
    557c:	00 00 85 34 	sw      0x0000(r5),r4
    5580:	fc ff 9e 30 	lw      r4,0xfffc(r30)
    5584:	2d 00 00 c0 	ajal    0x000000b4
    5588:	0a 00 80 18 	ori     r4,r0,0x000a
    558c:	08 21 00 c0 	ajal    0x00008420
    5590:	2a 00 00 c0 	ajal    0x000000a8
    5594:	05 10 80 00 	orr     r4,r0,r2
    5598:	fc ff 9e 34 	sw      0xfffc(r30),r4
    559c:	01 00 a0 2c 	ldih    r5,0x0001
    55a0:	64 4c a5 18 	ori     r5,r5,0x4c64
    55a4:	01 00 80 2c 	ldih    r4,0x0001
    55a8:	44 33 84 18 	ori     r4,r4,0x3344
    55ac:	00 00 84 30 	lw      r4,0x0000(r4)
    55b0:	00 00 85 34 	sw      0x0000(r5),r4
    55b4:	01 00 80 2c 	ldih    r4,0x0001
    55b8:	90 6c 84 18 	ori     r4,r4,0x6c90
    55bc:	01 00 a0 18 	ori     r5,r0,0x0001
    55c0:	00 00 a4 3c 	sb      0x0000(r4),r5
    55c4:	fc ff 9e 30 	lw      r4,0xfffc(r30)
    55c8:	2d 00 00 c0 	ajal    0x000000b4
    55cc:	04 00 bd 07 	addi    r29,r29,0x0004
    55d0:	05 f0 a0 03 	orr     r29,r0,r30
    55d4:	08 00 bd 07 	addi    r29,r29,0x0008
    55d8:	fc ff fd 33 	lw      r31,0xfffc(r29)
    55dc:	f8 ff dd 33 	lw      r30,0xfff8(r29)
    55e0:	00 00 e0 47 	jmpr    r31
    55e4:	00 00 00 00 	nop
    55e8:	00 00 00 00 	nop
    55ec:	00 00 00 00 	nop

000055f0 <OSTimeTick>:
    55f0:	f8 ff bd 07 	addi    r29,r29,0xfff8
    55f4:	00 00 dd 37 	sw      0x0000(r29),r30
    55f8:	04 00 fd 37 	sw      0x0004(r29),r31
    55fc:	05 e8 c0 03 	orr     r30,r0,r29
    5600:	f0 ff bd 07 	addi    r29,r29,0xfff0
    5604:	00 00 80 18 	ori     r4,r0,0x0000
    5608:	f4 ff 9e 34 	sw      0xfff4(r30),r4
    560c:	7c 28 00 c0 	ajal    0x0000a1f0
    5610:	2a 00 00 c0 	ajal    0x000000a8
    5614:	05 10 80 00 	orr     r4,r0,r2
    5618:	f4 ff 9e 34 	sw      0xfff4(r30),r4
    561c:	01 00 a0 2c 	ldih    r5,0x0001
    5620:	8c 4c a5 18 	ori     r5,r5,0x4c8c
    5624:	01 00 80 2c 	ldih    r4,0x0001
    5628:	8c 4c 84 18 	ori     r4,r4,0x4c8c
    562c:	00 00 84 30 	lw      r4,0x0000(r4)
    5630:	01 00 84 04 	addi    r4,r4,0x0001
    5634:	00 00 85 34 	sw      0x0000(r5),r4
    5638:	f4 ff 9e 30 	lw      r4,0xfff4(r30)
    563c:	2d 00 00 c0 	ajal    0x000000b4
    5640:	01 00 80 2c 	ldih    r4,0x0001
    5644:	42 33 84 18 	ori     r4,r4,0x3342
    5648:	00 00 84 38 	lb      r4,0x0000(r4)
    564c:	18 00 84 20 	lsli    r4,r4,0x0018
    5650:	18 00 84 24 	lsri    r4,r4,0x0018
    5654:	01 00 a0 18 	ori     r5,r0,0x0001
    5658:	02 28 04 00 	sub     r0,r4,r5
    565c:	94 00 40 40 	bne     0x000058ac
    5660:	01 00 80 2c 	ldih    r4,0x0001
    5664:	50 33 84 18 	ori     r4,r4,0x3350
    5668:	00 00 84 38 	lb      r4,0x0000(r4)
    566c:	18 00 84 20 	lsli    r4,r4,0x0018
    5670:	f0 ff 9e 34 	sw      0xfff0(r30),r4
    5674:	f0 ff 9e 30 	lw      r4,0xfff0(r30)
    5678:	18 00 84 24 	lsri    r4,r4,0x0018
    567c:	f0 ff 9e 34 	sw      0xfff0(r30),r4
    5680:	01 00 80 18 	ori     r4,r0,0x0001
    5684:	f0 ff be 30 	lw      r5,0xfff0(r30)
    5688:	02 20 05 00 	sub     r0,r5,r4
    568c:	12 00 00 40 	beq     0x000056d4
    5690:	01 00 80 18 	ori     r4,r0,0x0001
    5694:	f0 ff be 30 	lw      r5,0xfff0(r30)
    5698:	02 20 05 00 	sub     r0,r5,r4
    569c:	06 00 00 43 	bgt     0x000056b4
    56a0:	00 00 80 18 	ori     r4,r0,0x0000
    56a4:	f0 ff be 30 	lw      r5,0xfff0(r30)
    56a8:	02 20 05 00 	sub     r0,r5,r4
    56ac:	07 00 00 40 	beq     0x000056c8
    56b0:	bf 15 00 80 	ajmp    0x000056fc
    56b4:	02 00 80 18 	ori     r4,r0,0x0002
    56b8:	f0 ff be 30 	lw      r5,0xfff0(r30)
    56bc:	02 20 05 00 	sub     r0,r5,r4
    56c0:	08 00 00 40 	beq     0x000056e0
    56c4:	bf 15 00 80 	ajmp    0x000056fc
    56c8:	01 00 80 18 	ori     r4,r0,0x0001
    56cc:	fb ff 9e 3c 	sb      0xfffb(r30),r4
    56d0:	c5 15 00 80 	ajmp    0x00005714
    56d4:	00 00 a0 18 	ori     r5,r0,0x0000
    56d8:	fb ff be 3c 	sb      0xfffb(r30),r5
    56dc:	c5 15 00 80 	ajmp    0x00005714
    56e0:	01 00 80 18 	ori     r4,r0,0x0001
    56e4:	fb ff 9e 3c 	sb      0xfffb(r30),r4
    56e8:	01 00 80 2c 	ldih    r4,0x0001
    56ec:	50 33 84 18 	ori     r4,r4,0x3350
    56f0:	01 00 a0 18 	ori     r5,r0,0x0001
    56f4:	00 00 a4 3c 	sb      0x0000(r4),r5
    56f8:	c5 15 00 80 	ajmp    0x00005714
    56fc:	01 00 80 18 	ori     r4,r0,0x0001
    5700:	fb ff 9e 3c 	sb      0xfffb(r30),r4
    5704:	01 00 80 2c 	ldih    r4,0x0001
    5708:	50 33 84 18 	ori     r4,r4,0x3350
    570c:	00 00 a0 18 	ori     r5,r0,0x0000
    5710:	00 00 a4 3c 	sb      0x0000(r4),r5
    5714:	fb ff 9e 38 	lb      r4,0xfffb(r30)
    5718:	18 00 84 20 	lsli    r4,r4,0x0018
    571c:	18 00 84 24 	lsri    r4,r4,0x0018
    5720:	00 00 a0 18 	ori     r5,r0,0x0000
    5724:	02 28 04 00 	sub     r0,r4,r5
    5728:	02 00 40 40 	bne     0x00005730
    572c:	2e 16 00 80 	ajmp    0x000058b8
    5730:	01 00 80 2c 	ldih    r4,0x0001
    5734:	4c 33 84 18 	ori     r4,r4,0x334c
    5738:	00 00 84 30 	lw      r4,0x0000(r4)
    573c:	fc ff 9e 34 	sw      0xfffc(r30),r4
    5740:	fc ff 9e 30 	lw      r4,0xfffc(r30)
    5744:	26 00 84 38 	lb      r4,0x0026(r4)
    5748:	18 00 84 20 	lsli    r4,r4,0x0018
    574c:	18 00 84 24 	lsri    r4,r4,0x0018
    5750:	3f 00 a0 18 	ori     r5,r0,0x003f
    5754:	02 28 04 00 	sub     r0,r4,r5
    5758:	58 00 00 40 	beq     0x000058b8
    575c:	2a 00 00 c0 	ajal    0x000000a8
    5760:	05 10 80 00 	orr     r4,r0,r2
    5764:	f4 ff 9e 34 	sw      0xfff4(r30),r4
    5768:	fc ff 9e 30 	lw      r4,0xfffc(r30)
    576c:	20 00 a4 30 	lw      r5,0x0020(r4)
    5770:	00 00 80 18 	ori     r4,r0,0x0000
    5774:	02 20 05 00 	sub     r0,r5,r4
    5778:	47 00 00 40 	beq     0x00005894
    577c:	fc ff be 30 	lw      r5,0xfffc(r30)
    5780:	fc ff 9e 30 	lw      r4,0xfffc(r30)
    5784:	20 00 84 30 	lw      r4,0x0020(r4)
    5788:	ff ff 84 04 	addi    r4,r4,0xffff
    578c:	20 00 85 34 	sw      0x0020(r5),r4
    5790:	fc ff 9e 30 	lw      r4,0xfffc(r30)
    5794:	20 00 a4 30 	lw      r5,0x0020(r4)
    5798:	00 00 80 18 	ori     r4,r0,0x0000
    579c:	02 20 05 00 	sub     r0,r5,r4
    57a0:	3d 00 40 40 	bne     0x00005894
    57a4:	fc ff 9e 30 	lw      r4,0xfffc(r30)
    57a8:	24 00 84 38 	lb      r4,0x0024(r4)
    57ac:	18 00 84 20 	lsli    r4,r4,0x0018
    57b0:	18 00 84 24 	lsri    r4,r4,0x0018
    57b4:	37 00 a4 14 	andi    r5,r4,0x0037
    57b8:	00 00 80 18 	ori     r4,r0,0x0000
    57bc:	02 20 05 00 	sub     r0,r5,r4
    57c0:	0c 00 00 40 	beq     0x000057f0
    57c4:	fc ff de 30 	lw      r6,0xfffc(r30)
    57c8:	fc ff 9e 30 	lw      r4,0xfffc(r30)
    57cc:	ff ff a0 2c 	ldih    r5,0xffff
    57d0:	c8 ff a5 18 	ori     r5,r5,0xffc8
    57d4:	24 00 84 38 	lb      r4,0x0024(r4)
    57d8:	04 28 84 00 	and     r4,r4,r5
    57dc:	24 00 86 3c 	sb      0x0024(r6),r4
    57e0:	fc ff 9e 30 	lw      r4,0xfffc(r30)
    57e4:	01 00 a0 18 	ori     r5,r0,0x0001
    57e8:	25 00 a4 3c 	sb      0x0025(r4),r5
    57ec:	ff 15 00 80 	ajmp    0x000057fc
    57f0:	fc ff 9e 30 	lw      r4,0xfffc(r30)
    57f4:	00 00 a0 18 	ori     r5,r0,0x0000
    57f8:	25 00 a4 3c 	sb      0x0025(r4),r5
    57fc:	fc ff 9e 30 	lw      r4,0xfffc(r30)
    5800:	24 00 84 38 	lb      r4,0x0024(r4)
    5804:	18 00 84 20 	lsli    r4,r4,0x0018
    5808:	18 00 84 24 	lsri    r4,r4,0x0018
    580c:	03 00 84 24 	lsri    r4,r4,0x0003
    5810:	01 00 84 1c 	xori    r4,r4,0x0001
    5814:	01 00 a4 14 	andi    r5,r4,0x0001
    5818:	00 00 80 18 	ori     r4,r0,0x0000
    581c:	02 20 05 00 	sub     r0,r5,r4
    5820:	1d 00 00 40 	beq     0x00005894
    5824:	01 00 e0 2c 	ldih    r7,0x0001
    5828:	74 4c e7 18 	ori     r7,r7,0x4c74
    582c:	fc ff 9e 30 	lw      r4,0xfffc(r30)
    5830:	01 00 a0 2c 	ldih    r5,0x0001
    5834:	74 4c a5 18 	ori     r5,r5,0x4c74
    5838:	2a 00 c4 38 	lb      r6,0x002a(r4)
    583c:	00 00 85 38 	lb      r4,0x0000(r5)
    5840:	05 20 86 00 	orr     r4,r6,r4
    5844:	00 00 87 3c 	sb      0x0000(r7),r4
    5848:	01 00 a0 2c 	ldih    r5,0x0001
    584c:	78 4c a5 18 	ori     r5,r5,0x4c78
    5850:	fc ff 9e 30 	lw      r4,0xfffc(r30)
    5854:	28 00 84 38 	lb      r4,0x0028(r4)
    5858:	18 00 84 20 	lsli    r4,r4,0x0018
    585c:	18 00 84 24 	lsri    r4,r4,0x0018
    5860:	00 20 e5 00 	add     r7,r5,r4
    5864:	01 00 a0 2c 	ldih    r5,0x0001
    5868:	78 4c a5 18 	ori     r5,r5,0x4c78
    586c:	fc ff 9e 30 	lw      r4,0xfffc(r30)
    5870:	28 00 84 38 	lb      r4,0x0028(r4)
    5874:	18 00 84 20 	lsli    r4,r4,0x0018
    5878:	18 00 84 24 	lsri    r4,r4,0x0018
    587c:	00 20 85 00 	add     r4,r5,r4
    5880:	fc ff be 30 	lw      r5,0xfffc(r30)
    5884:	00 00 c4 38 	lb      r6,0x0000(r4)
    5888:	29 00 85 38 	lb      r4,0x0029(r5)
    588c:	05 20 86 00 	orr     r4,r6,r4
    5890:	00 00 87 3c 	sb      0x0000(r7),r4
    5894:	fc ff 9e 30 	lw      r4,0xfffc(r30)
    5898:	14 00 84 30 	lw      r4,0x0014(r4)
    589c:	fc ff 9e 34 	sw      0xfffc(r30),r4
    58a0:	f4 ff 9e 30 	lw      r4,0xfff4(r30)
    58a4:	2d 00 00 c0 	ajal    0x000000b4
    58a8:	d0 15 00 80 	ajmp    0x00005740
    58ac:	01 00 80 2c 	ldih    r4,0x0001
    58b0:	04 73 84 18 	ori     r4,r4,0x7304
    58b4:	d4 0c 00 c0 	ajal    0x00003350
    58b8:	10 00 bd 07 	addi    r29,r29,0x0010
    58bc:	05 f0 a0 03 	orr     r29,r0,r30
    58c0:	08 00 bd 07 	addi    r29,r29,0x0008
    58c4:	fc ff fd 33 	lw      r31,0xfffc(r29)
    58c8:	f8 ff dd 33 	lw      r30,0xfff8(r29)
    58cc:	00 00 e0 47 	jmpr    r31

000058d0 <OSVersion>:
    58d0:	fc ff bd 07 	addi    r29,r29,0xfffc
    58d4:	00 00 dd 37 	sw      0x0000(r29),r30
    58d8:	05 e8 c0 03 	orr     r30,r0,r29
