logic32-elf-objdump -d a.out

a.out:     file format elf32-logic32

Disassembly of section .text:

00000000 <halt-0x94>:
       0:	10 00 a0 2f 	ldih    r29,0x0010
       4:	00 00 bd 1b 	ori     r29,r29,0x0000
       8:	68 01 00 c0 	ajal    0x000005a0
       c:	03 00 00 6c 	halt    
      10:	c1 00 00 80 	ajmp    0x00000304
      14:	03 00 00 6c 	halt    
      18:	00 00 00 00 	nop
      1c:	00 00 00 00 	nop
      20:	03 00 00 6c 	halt    
      24:	00 00 00 00 	nop
      28:	00 00 00 00 	nop
      2c:	00 00 00 00 	nop
      30:	05 00 00 6c 	disi    
      34:	28 01 00 c0 	ajal    0x000004a0
      38:	03 00 00 6c 	halt    
      3c:	00 00 00 00 	nop
      40:	65 00 00 80 	ajmp    0x00000194
      44:	03 00 00 6c 	halt    
      48:	00 00 00 00 	nop
      4c:	00 00 00 00 	nop
      50:	03 00 00 6c 	halt    
      54:	00 00 00 00 	nop
      58:	00 00 00 00 	nop
      5c:	00 00 00 00 	nop
      60:	03 00 00 6c 	halt    
      64:	00 00 00 00 	nop
      68:	00 00 00 00 	nop
      6c:	00 00 00 00 	nop
      70:	03 00 00 6c 	halt    
      74:	00 00 00 00 	nop
      78:	00 00 00 00 	nop
      7c:	00 00 00 00 	nop
      80:	05 00 00 6c 	disi    
      84:	38 01 00 c0 	ajal    0x000004e0
      88:	03 00 00 6c 	halt    
      8c:	00 00 00 00 	nop
      90:	03 00 00 6c 	halt    

00000094 <halt>:
      94:	03 00 00 6c 	halt    

00000098 <sei>:
      98:	04 00 00 6c 	enai    
      9c:	00 00 e0 47 	jmpr    r31

000000a0 <cli>:
      a0:	05 00 00 6c 	disi    
      a4:	00 00 e0 47 	jmpr    r31

000000a8 <OS_CPU_SR_Save>:
      a8:	07 00 41 6c 	mfc     r2,psw
      ac:	05 00 00 6c 	disi    
      b0:	00 00 e0 47 	jmpr    r31

000000b4 <OS_CPU_SR_Restore>:
      b4:	06 00 24 6c 	mtc     psw,r4
      b8:	00 00 e0 47 	jmpr    r31

000000bc <OSStartHighRdy>:
      bc:	01 00 60 1b 	ori     r27,r0,0x0001
      c0:	01 00 40 2f 	ldih    r26,0x0001
      c4:	42 33 5a 1b 	ori     r26,r26,0x3342
      c8:	00 00 7a 3f 	sb      0x0000(r26),r27
      cc:	01 00 40 2f 	ldih    r26,0x0001
      d0:	70 4c 5a 1b 	ori     r26,r26,0x4c70
      d4:	00 00 7a 33 	lw      r27,0x0000(r26)
      d8:	00 00 bb 33 	lw      r29,0x0000(r27)
      dc:	00 04 60 1b 	ori     r27,r0,0x0400
      e0:	00 83 40 2f 	ldih    r26,0x8300
      e4:	04 00 5a 1b 	ori     r26,r26,0x0004
      e8:	00 00 7a 37 	sw      0x0000(r26),r27
      ec:	03 00 60 1b 	ori     r27,r0,0x0003
      f0:	00 83 40 2f 	ldih    r26,0x8300
      f4:	00 00 5a 1b 	ori     r26,r26,0x0000
      f8:	00 00 7a 37 	sw      0x0000(r26),r27
      fc:	04 00 3d 30 	lw      r1,0x0004(r29)
     100:	08 00 5d 30 	lw      r2,0x0008(r29)
     104:	0c 00 7d 30 	lw      r3,0x000c(r29)
     108:	10 00 9d 30 	lw      r4,0x0010(r29)
     10c:	14 00 bd 30 	lw      r5,0x0014(r29)
     110:	18 00 dd 30 	lw      r6,0x0018(r29)
     114:	1c 00 fd 30 	lw      r7,0x001c(r29)
     118:	20 00 1d 31 	lw      r8,0x0020(r29)
     11c:	24 00 3d 31 	lw      r9,0x0024(r29)
     120:	28 00 5d 31 	lw      r10,0x0028(r29)
     124:	2c 00 7d 31 	lw      r11,0x002c(r29)
     128:	30 00 9d 31 	lw      r12,0x0030(r29)
     12c:	34 00 bd 31 	lw      r13,0x0034(r29)
     130:	38 00 dd 31 	lw      r14,0x0038(r29)
     134:	3c 00 fd 31 	lw      r15,0x003c(r29)
     138:	40 00 1d 32 	lw      r16,0x0040(r29)
     13c:	44 00 3d 32 	lw      r17,0x0044(r29)
     140:	48 00 5d 32 	lw      r18,0x0048(r29)
     144:	4c 00 7d 32 	lw      r19,0x004c(r29)
     148:	50 00 9d 32 	lw      r20,0x0050(r29)
     14c:	54 00 bd 32 	lw      r21,0x0054(r29)
     150:	58 00 dd 32 	lw      r22,0x0058(r29)
     154:	5c 00 fd 32 	lw      r23,0x005c(r29)
     158:	60 00 1d 33 	lw      r24,0x0060(r29)
     15c:	64 00 3d 33 	lw      r25,0x0064(r29)
     160:	68 00 5d 33 	lw      r26,0x0068(r29)
     164:	6c 00 7d 33 	lw      r27,0x006c(r29)
     168:	70 00 9d 33 	lw      r28,0x0070(r29)
     16c:	78 00 dd 33 	lw      r30,0x0078(r29)
     170:	7c 00 fd 33 	lw      r31,0x007c(r29)
     174:	80 00 7d 33 	lw      r27,0x0080(r29)
     178:	06 00 9b 6c 	mtc     epc,r27
     17c:	84 00 7d 33 	lw      r27,0x0084(r29)
     180:	06 00 bb 6c 	mtc     esr,r27
     184:	88 00 bd 07 	addi    r29,r29,0x0088
     188:	01 00 00 6c 	reti    

0000018c <OSCtxSw>:
     18c:	02 00 00 6c 	trap    
     190:	00 00 e0 47 	jmpr    r31

00000194 <OSIntCtxSw_no_save>:
     194:	78 ff bd 07 	addi    r29,r29,0xff78
     198:	04 00 3d 34 	sw      0x0004(r29),r1
     19c:	08 00 5d 34 	sw      0x0008(r29),r2
     1a0:	0c 00 7d 34 	sw      0x000c(r29),r3
     1a4:	10 00 9d 34 	sw      0x0010(r29),r4
     1a8:	14 00 bd 34 	sw      0x0014(r29),r5
     1ac:	18 00 dd 34 	sw      0x0018(r29),r6
     1b0:	1c 00 fd 34 	sw      0x001c(r29),r7
     1b4:	20 00 1d 35 	sw      0x0020(r29),r8
     1b8:	24 00 3d 35 	sw      0x0024(r29),r9
     1bc:	28 00 5d 35 	sw      0x0028(r29),r10
     1c0:	2c 00 7d 35 	sw      0x002c(r29),r11
     1c4:	30 00 9d 35 	sw      0x0030(r29),r12
     1c8:	34 00 bd 35 	sw      0x0034(r29),r13
     1cc:	38 00 dd 35 	sw      0x0038(r29),r14
     1d0:	3c 00 fd 35 	sw      0x003c(r29),r15
     1d4:	40 00 1d 36 	sw      0x0040(r29),r16
     1d8:	44 00 3d 36 	sw      0x0044(r29),r17
     1dc:	48 00 5d 36 	sw      0x0048(r29),r18
     1e0:	4c 00 7d 36 	sw      0x004c(r29),r19
     1e4:	50 00 9d 36 	sw      0x0050(r29),r20
     1e8:	54 00 bd 36 	sw      0x0054(r29),r21
     1ec:	58 00 dd 36 	sw      0x0058(r29),r22
     1f0:	5c 00 fd 36 	sw      0x005c(r29),r23
     1f4:	60 00 1d 37 	sw      0x0060(r29),r24
     1f8:	64 00 3d 37 	sw      0x0064(r29),r25
     1fc:	68 00 5d 37 	sw      0x0068(r29),r26
     200:	6c 00 7d 37 	sw      0x006c(r29),r27
     204:	70 00 9d 37 	sw      0x0070(r29),r28
     208:	78 00 dd 37 	sw      0x0078(r29),r30
     20c:	7c 00 fd 37 	sw      0x007c(r29),r31
     210:	07 00 64 6f 	mfc     r27,epc
     214:	80 00 7d 37 	sw      0x0080(r29),r27
     218:	07 00 65 6f 	mfc     r27,esr
     21c:	84 00 7d 37 	sw      0x0084(r29),r27
     220:	01 00 40 2f 	ldih    r26,0x0001
     224:	88 4c 5a 1b 	ori     r26,r26,0x4c88
     228:	00 00 7a 33 	lw      r27,0x0000(r26)
     22c:	00 00 bb 37 	sw      0x0000(r27),r29

00000230 <OSIntCtxSw>:
     230:	01 00 40 2f 	ldih    r26,0x0001
     234:	70 4c 5a 1b 	ori     r26,r26,0x4c70
     238:	00 00 7a 33 	lw      r27,0x0000(r26)
     23c:	00 00 bb 33 	lw      r29,0x0000(r27)
     240:	60 28 00 c0 	ajal    0x0000a180
     244:	01 00 40 2f 	ldih    r26,0x0001
     248:	70 4c 5a 1b 	ori     r26,r26,0x4c70
     24c:	00 00 7a 33 	lw      r27,0x0000(r26)
     250:	01 00 40 2f 	ldih    r26,0x0001
     254:	88 4c 5a 1b 	ori     r26,r26,0x4c88
     258:	00 00 7a 37 	sw      0x0000(r26),r27
     25c:	01 00 40 2f 	ldih    r26,0x0001
     260:	48 33 5a 1b 	ori     r26,r26,0x3348
     264:	00 00 7a 3b 	lb      r27,0x0000(r26)
     268:	01 00 40 2f 	ldih    r26,0x0001
     26c:	49 33 5a 1b 	ori     r26,r26,0x3349
     270:	00 00 7a 3f 	sb      0x0000(r26),r27
     274:	04 00 3d 30 	lw      r1,0x0004(r29)
     278:	08 00 5d 30 	lw      r2,0x0008(r29)
     27c:	0c 00 7d 30 	lw      r3,0x000c(r29)
     280:	10 00 9d 30 	lw      r4,0x0010(r29)
     284:	14 00 bd 30 	lw      r5,0x0014(r29)
     288:	18 00 dd 30 	lw      r6,0x0018(r29)
     28c:	1c 00 fd 30 	lw      r7,0x001c(r29)
     290:	20 00 1d 31 	lw      r8,0x0020(r29)
     294:	24 00 3d 31 	lw      r9,0x0024(r29)
     298:	28 00 5d 31 	lw      r10,0x0028(r29)
     29c:	2c 00 7d 31 	lw      r11,0x002c(r29)
     2a0:	30 00 9d 31 	lw      r12,0x0030(r29)
     2a4:	34 00 bd 31 	lw      r13,0x0034(r29)
     2a8:	38 00 dd 31 	lw      r14,0x0038(r29)
     2ac:	3c 00 fd 31 	lw      r15,0x003c(r29)
     2b0:	40 00 1d 32 	lw      r16,0x0040(r29)
     2b4:	44 00 3d 32 	lw      r17,0x0044(r29)
     2b8:	48 00 5d 32 	lw      r18,0x0048(r29)
     2bc:	4c 00 7d 32 	lw      r19,0x004c(r29)
     2c0:	50 00 9d 32 	lw      r20,0x0050(r29)
     2c4:	54 00 bd 32 	lw      r21,0x0054(r29)
     2c8:	58 00 dd 32 	lw      r22,0x0058(r29)
     2cc:	5c 00 fd 32 	lw      r23,0x005c(r29)
     2d0:	60 00 1d 33 	lw      r24,0x0060(r29)
     2d4:	64 00 3d 33 	lw      r25,0x0064(r29)
     2d8:	68 00 5d 33 	lw      r26,0x0068(r29)
     2dc:	6c 00 7d 33 	lw      r27,0x006c(r29)
     2e0:	70 00 9d 33 	lw      r28,0x0070(r29)
     2e4:	78 00 dd 33 	lw      r30,0x0078(r29)
     2e8:	7c 00 fd 33 	lw      r31,0x007c(r29)
     2ec:	80 00 7d 33 	lw      r27,0x0080(r29)
     2f0:	06 00 9b 6c 	mtc     epc,r27
     2f4:	84 00 7d 33 	lw      r27,0x0084(r29)
     2f8:	06 00 bb 6c 	mtc     esr,r27
     2fc:	88 00 bd 07 	addi    r29,r29,0x0088
     300:	01 00 00 6c 	reti    

00000304 <systick_isr>:
     304:	78 ff bd 07 	addi    r29,r29,0xff78
     308:	04 00 3d 34 	sw      0x0004(r29),r1
     30c:	08 00 5d 34 	sw      0x0008(r29),r2
     310:	0c 00 7d 34 	sw      0x000c(r29),r3
     314:	10 00 9d 34 	sw      0x0010(r29),r4
     318:	14 00 bd 34 	sw      0x0014(r29),r5
     31c:	18 00 dd 34 	sw      0x0018(r29),r6
     320:	1c 00 fd 34 	sw      0x001c(r29),r7
     324:	20 00 1d 35 	sw      0x0020(r29),r8
     328:	24 00 3d 35 	sw      0x0024(r29),r9
     32c:	28 00 5d 35 	sw      0x0028(r29),r10
     330:	2c 00 7d 35 	sw      0x002c(r29),r11
     334:	30 00 9d 35 	sw      0x0030(r29),r12
     338:	34 00 bd 35 	sw      0x0034(r29),r13
     33c:	38 00 dd 35 	sw      0x0038(r29),r14
     340:	3c 00 fd 35 	sw      0x003c(r29),r15
     344:	40 00 1d 36 	sw      0x0040(r29),r16
     348:	44 00 3d 36 	sw      0x0044(r29),r17
     34c:	48 00 5d 36 	sw      0x0048(r29),r18
     350:	4c 00 7d 36 	sw      0x004c(r29),r19
     354:	50 00 9d 36 	sw      0x0050(r29),r20
     358:	54 00 bd 36 	sw      0x0054(r29),r21
     35c:	58 00 dd 36 	sw      0x0058(r29),r22
     360:	5c 00 fd 36 	sw      0x005c(r29),r23
     364:	60 00 1d 37 	sw      0x0060(r29),r24
     368:	64 00 3d 37 	sw      0x0064(r29),r25
     36c:	68 00 5d 37 	sw      0x0068(r29),r26
     370:	6c 00 7d 37 	sw      0x006c(r29),r27
     374:	70 00 9d 37 	sw      0x0070(r29),r28
     378:	78 00 dd 37 	sw      0x0078(r29),r30
     37c:	7c 00 fd 37 	sw      0x007c(r29),r31
     380:	07 00 64 6f 	mfc     r27,epc
     384:	80 00 7d 37 	sw      0x0080(r29),r27
     388:	07 00 65 6f 	mfc     r27,esr
     38c:	84 00 7d 37 	sw      0x0084(r29),r27
     390:	01 00 40 2f 	ldih    r26,0x0001
     394:	84 4c 5a 1b 	ori     r26,r26,0x4c84
     398:	00 00 7a 3b 	lb      r27,0x0000(r26)
     39c:	01 00 7b 07 	addi    r27,r27,0x0001
     3a0:	00 00 7a 3f 	sb      0x0000(r26),r27
     3a4:	ff ff 1b 04 	addi    r0,r27,0xffff
     3a8:	05 00 40 40 	bne     0x000003bc
     3ac:	01 00 40 2f 	ldih    r26,0x0001
     3b0:	88 4c 5a 1b 	ori     r26,r26,0x4c88
     3b4:	00 00 7a 33 	lw      r27,0x0000(r26)
     3b8:	00 00 bb 37 	sw      0x0000(r27),r29

000003bc <NO_SAVE_SP>:
     3bc:	7c 15 00 c0 	ajal    0x000055f0
     3c0:	48 14 00 c0 	ajal    0x00005120
     3c4:	04 00 3d 30 	lw      r1,0x0004(r29)
     3c8:	08 00 5d 30 	lw      r2,0x0008(r29)
     3cc:	0c 00 7d 30 	lw      r3,0x000c(r29)
     3d0:	10 00 9d 30 	lw      r4,0x0010(r29)
     3d4:	14 00 bd 30 	lw      r5,0x0014(r29)
     3d8:	18 00 dd 30 	lw      r6,0x0018(r29)
     3dc:	1c 00 fd 30 	lw      r7,0x001c(r29)
     3e0:	20 00 1d 31 	lw      r8,0x0020(r29)
     3e4:	24 00 3d 31 	lw      r9,0x0024(r29)
     3e8:	28 00 5d 31 	lw      r10,0x0028(r29)
     3ec:	2c 00 7d 31 	lw      r11,0x002c(r29)
     3f0:	30 00 9d 31 	lw      r12,0x0030(r29)
     3f4:	34 00 bd 31 	lw      r13,0x0034(r29)
     3f8:	38 00 dd 31 	lw      r14,0x0038(r29)
     3fc:	3c 00 fd 31 	lw      r15,0x003c(r29)
     400:	40 00 1d 32 	lw      r16,0x0040(r29)
     404:	44 00 3d 32 	lw      r17,0x0044(r29)
     408:	48 00 5d 32 	lw      r18,0x0048(r29)
     40c:	4c 00 7d 32 	lw      r19,0x004c(r29)
     410:	50 00 9d 32 	lw      r20,0x0050(r29)
     414:	54 00 bd 32 	lw      r21,0x0054(r29)
     418:	58 00 dd 32 	lw      r22,0x0058(r29)
     41c:	5c 00 fd 32 	lw      r23,0x005c(r29)
     420:	60 00 1d 33 	lw      r24,0x0060(r29)
     424:	64 00 3d 33 	lw      r25,0x0064(r29)
     428:	68 00 5d 33 	lw      r26,0x0068(r29)
     42c:	6c 00 7d 33 	lw      r27,0x006c(r29)
     430:	70 00 9d 33 	lw      r28,0x0070(r29)
     434:	78 00 dd 33 	lw      r30,0x0078(r29)
     438:	7c 00 fd 33 	lw      r31,0x007c(r29)
     43c:	80 00 7d 33 	lw      r27,0x0080(r29)
     440:	06 00 9b 6c 	mtc     epc,r27
     444:	84 00 7d 33 	lw      r27,0x0084(r29)
     448:	06 00 bb 6c 	mtc     esr,r27
     44c:	88 00 bd 07 	addi    r29,r29,0x0088
     450:	01 00 00 6c 	reti    
     454:	00 00 00 00 	nop
     458:	00 00 00 00 	nop
     45c:	00 00 00 00 	nop

00000460 <panic>:
     460:	f8 ff bd 07 	addi    r29,r29,0xfff8
     464:	00 00 dd 37 	sw      0x0000(r29),r30
     468:	04 00 fd 37 	sw      0x0004(r29),r31
     46c:	05 e8 c0 03 	orr     r30,r0,r29
     470:	28 00 00 c0 	ajal    0x000000a0
     474:	01 00 80 2c 	ldih    r4,0x0001
     478:	b0 6d 84 18 	ori     r4,r4,0x6db0
     47c:	d4 0c 00 c0 	ajal    0x00003350
     480:	25 00 00 c0 	ajal    0x00000094
     484:	05 f0 a0 03 	orr     r29,r0,r30
     488:	08 00 bd 07 	addi    r29,r29,0x0008
     48c:	fc ff fd 33 	lw      r31,0xfffc(r29)
     490:	f8 ff dd 33 	lw      r30,0xfff8(r29)
     494:	00 00 e0 47 	jmpr    r31
     498:	00 00 00 00 	nop
     49c:	00 00 00 00 	nop

000004a0 <panic_undef_inst>:
     4a0:	f8 ff bd 07 	addi    r29,r29,0xfff8
     4a4:	00 00 dd 37 	sw      0x0000(r29),r30
     4a8:	04 00 fd 37 	sw      0x0004(r29),r31
     4ac:	05 e8 c0 03 	orr     r30,r0,r29
     4b0:	28 00 00 c0 	ajal    0x000000a0
     4b4:	01 00 80 2c 	ldih    r4,0x0001
     4b8:	c4 6d 84 18 	ori     r4,r4,0x6dc4
     4bc:	d4 0c 00 c0 	ajal    0x00003350
     4c0:	25 00 00 c0 	ajal    0x00000094
     4c4:	05 f0 a0 03 	orr     r29,r0,r30
     4c8:	08 00 bd 07 	addi    r29,r29,0x0008
     4cc:	fc ff fd 33 	lw      r31,0xfffc(r29)
     4d0:	f8 ff dd 33 	lw      r30,0xfff8(r29)
     4d4:	00 00 e0 47 	jmpr    r31
     4d8:	00 00 00 00 	nop
     4dc:	00 00 00 00 	nop

000004e0 <panic_div_by_zero>:
     4e0:	f8 ff bd 07 	addi    r29,r29,0xfff8
     4e4:	00 00 dd 37 	sw      0x0000(r29),r30
     4e8:	04 00 fd 37 	sw      0x0004(r29),r31
     4ec:	05 e8 c0 03 	orr     r30,r0,r29
     4f0:	28 00 00 c0 	ajal    0x000000a0
     4f4:	01 00 80 2c 	ldih    r4,0x0001
     4f8:	e6 6d 84 18 	ori     r4,r4,0x6de6
     4fc:	d4 0c 00 c0 	ajal    0x00003350
     500:	25 00 00 c0 	ajal    0x00000094
     504:	05 f0 a0 03 	orr     r29,r0,r30
     508:	08 00 bd 07 	addi    r29,r29,0x0008
     50c:	fc ff fd 33 	lw      r31,0xfffc(r29)
     510:	f8 ff dd 33 	lw      r30,0xfff8(r29)
     514:	00 00 e0 47 	jmpr    r31
     518:	00 00 00 00 	nop
     51c:	00 00 00 00 	nop

00000520 <save_sp>:
     520:	fc ff bd 07 	addi    r29,r29,0xfffc
     524:	00 00 dd 37 	sw      0x0000(r29),r30
     528:	05 e8 c0 03 	orr     r30,r0,r29
     52c:	fc ff bd 07 	addi    r29,r29,0xfffc
     530:	fc ff 9e 34 	sw      0xfffc(r30),r4
     534:	01 00 a0 2c 	ldih    r5,0x0001
     538:	84 4c a5 18 	ori     r5,r5,0x4c84
     53c:	01 00 80 2c 	ldih    r4,0x0001
     540:	84 4c 84 18 	ori     r4,r4,0x4c84
     544:	00 00 84 38 	lb      r4,0x0000(r4)
     548:	01 00 84 04 	addi    r4,r4,0x0001
     54c:	00 00 85 3c 	sb      0x0000(r5),r4
     550:	01 00 80 2c 	ldih    r4,0x0001
     554:	84 4c 84 18 	ori     r4,r4,0x4c84
     558:	00 00 84 38 	lb      r4,0x0000(r4)
     55c:	18 00 84 20 	lsli    r4,r4,0x0018
     560:	18 00 84 24 	lsri    r4,r4,0x0018
     564:	01 00 a0 18 	ori     r5,r0,0x0001
     568:	02 28 04 00 	sub     r0,r4,r5
     56c:	06 00 40 40 	bne     0x00000584
     570:	01 00 80 2c 	ldih    r4,0x0001
     574:	88 4c 84 18 	ori     r4,r4,0x4c88
     578:	00 00 a4 30 	lw      r5,0x0000(r4)
     57c:	fc ff 9e 30 	lw      r4,0xfffc(r30)
     580:	00 00 85 34 	sw      0x0000(r5),r4
     584:	04 00 bd 07 	addi    r29,r29,0x0004
     588:	05 f0 a0 03 	orr     r29,r0,r30
     58c:	04 00 bd 07 	addi    r29,r29,0x0004
     590:	fc ff dd 33 	lw      r30,0xfffc(r29)
     594:	00 00 e0 47 	jmpr    r31
     598:	00 00 00 00 	nop
     59c:	00 00 00 00 	nop

000005a0 <main>:
     5a0:	f8 ff bd 07 	addi    r29,r29,0xfff8
     5a4:	00 00 dd 37 	sw      0x0000(r29),r30
     5a8:	04 00 fd 37 	sw      0x0004(r29),r31
     5ac:	05 e8 c0 03 	orr     r30,r0,r29
     5b0:	e0 01 00 c0 	ajal    0x00000780
     5b4:	14 14 00 c0 	ajal    0x00005050
     5b8:	00 00 80 2c 	ldih    r4,0x0000
     5bc:	60 08 84 18 	ori     r4,r4,0x0860
     5c0:	00 00 a0 18 	ori     r5,r0,0x0000
     5c4:	01 00 c0 2c 	ldih    r6,0x0001
     5c8:	0c 1a c6 18 	ori     r6,r6,0x1a0c
     5cc:	06 00 e0 18 	ori     r7,r0,0x0006
     5d0:	24 1c 00 c0 	ajal    0x00007090
     5d4:	00 00 80 2c 	ldih    r4,0x0000
     5d8:	50 09 84 18 	ori     r4,r4,0x0950
     5dc:	00 00 a0 18 	ori     r5,r0,0x0000
     5e0:	01 00 c0 2c 	ldih    r6,0x0001
     5e4:	0c 33 c6 18 	ori     r6,r6,0x330c
     5e8:	04 00 e0 18 	ori     r7,r0,0x0004
     5ec:	24 1c 00 c0 	ajal    0x00007090
     5f0:	24 15 00 c0 	ajal    0x00005490
     5f4:	00 00 80 18 	ori     r4,r0,0x0000
     5f8:	05 20 40 00 	orr     r2,r0,r4
     5fc:	05 f0 a0 03 	orr     r29,r0,r30
     600:	08 00 bd 07 	addi    r29,r29,0x0008
     604:	fc ff fd 33 	lw      r31,0xfffc(r29)
     608:	f8 ff dd 33 	lw      r30,0xfff8(r29)
     60c:	00 00 e0 47 	jmpr    r31

00000610 <App_TaskCreateHook>:
     610:	fc ff bd 07 	addi    r29,r29,0xfffc
     614:	00 00 dd 37 	sw      0x0000(r29),r30
     618:	05 e8 c0 03 	orr     r30,r0,r29
     61c:	fc ff bd 07 	addi    r29,r29,0xfffc
     620:	fc ff 9e 34 	sw      0xfffc(r30),r4
     624:	04 00 bd 07 	addi    r29,r29,0x0004
     628:	05 f0 a0 03 	orr     r29,r0,r30
     62c:	04 00 bd 07 	addi    r29,r29,0x0004
     630:	fc ff dd 33 	lw      r30,0xfffc(r29)
     634:	00 00 e0 47 	jmpr    r31
     638:	00 00 00 00 	nop
     63c:	00 00 00 00 	nop

00000640 <App_TaskDelHook>:
     640:	fc ff bd 07 	addi    r29,r29,0xfffc
     644:	00 00 dd 37 	sw      0x0000(r29),r30
     648:	05 e8 c0 03 	orr     r30,r0,r29
     64c:	fc ff bd 07 	addi    r29,r29,0xfffc
     650:	fc ff 9e 34 	sw      0xfffc(r30),r4
     654:	04 00 bd 07 	addi    r29,r29,0x0004
     658:	05 f0 a0 03 	orr     r29,r0,r30
     65c:	04 00 bd 07 	addi    r29,r29,0x0004
     660:	fc ff dd 33 	lw      r30,0xfffc(r29)
     664:	00 00 e0 47 	jmpr    r31
     668:	00 00 00 00 	nop
     66c:	00 00 00 00 	nop

00000670 <App_TaskIdleHook>:
     670:	fc ff bd 07 	addi    r29,r29,0xfffc
     674:	00 00 dd 37 	sw      0x0000(r29),r30
     678:	05 e8 c0 03 	orr     r30,r0,r29
     67c:	05 f0 a0 03 	orr     r29,r0,r30
     680:	04 00 bd 07 	addi    r29,r29,0x0004
     684:	fc ff dd 33 	lw      r30,0xfffc(r29)
     688:	00 00 e0 47 	jmpr    r31
     68c:	00 00 00 00 	nop

00000690 <App_TaskReturnHook>:
     690:	fc ff bd 07 	addi    r29,r29,0xfffc
     694:	00 00 dd 37 	sw      0x0000(r29),r30
     698:	05 e8 c0 03 	orr     r30,r0,r29
     69c:	fc ff bd 07 	addi    r29,r29,0xfffc
     6a0:	fc ff 9e 34 	sw      0xfffc(r30),r4
     6a4:	04 00 bd 07 	addi    r29,r29,0x0004
     6a8:	05 f0 a0 03 	orr     r29,r0,r30
     6ac:	04 00 bd 07 	addi    r29,r29,0x0004
     6b0:	fc ff dd 33 	lw      r30,0xfffc(r29)
     6b4:	00 00 e0 47 	jmpr    r31
     6b8:	00 00 00 00 	nop
     6bc:	00 00 00 00 	nop

000006c0 <App_TaskStatHook>:
     6c0:	fc ff bd 07 	addi    r29,r29,0xfffc
     6c4:	00 00 dd 37 	sw      0x0000(r29),r30
     6c8:	05 e8 c0 03 	orr     r30,r0,r29
     6cc:	05 f0 a0 03 	orr     r29,r0,r30
     6d0:	04 00 bd 07 	addi    r29,r29,0x0004
     6d4:	fc ff dd 33 	lw      r30,0xfffc(r29)
     6d8:	00 00 e0 47 	jmpr    r31
     6dc:	00 00 00 00 	nop

000006e0 <App_TaskSwHook>:
     6e0:	fc ff bd 07 	addi    r29,r29,0xfffc
     6e4:	00 00 dd 37 	sw      0x0000(r29),r30
     6e8:	05 e8 c0 03 	orr     r30,r0,r29
     6ec:	05 f0 a0 03 	orr     r29,r0,r30
     6f0:	04 00 bd 07 	addi    r29,r29,0x0004
     6f4:	fc ff dd 33 	lw      r30,0xfffc(r29)
     6f8:	00 00 e0 47 	jmpr    r31
     6fc:	00 00 00 00 	nop

00000700 <App_TCBInitHook>:
     700:	fc ff bd 07 	addi    r29,r29,0xfffc
     704:	00 00 dd 37 	sw      0x0000(r29),r30
     708:	05 e8 c0 03 	orr     r30,r0,r29
     70c:	fc ff bd 07 	addi    r29,r29,0xfffc
     710:	fc ff 9e 34 	sw      0xfffc(r30),r4
     714:	04 00 bd 07 	addi    r29,r29,0x0004
     718:	05 f0 a0 03 	orr     r29,r0,r30
     71c:	04 00 bd 07 	addi    r29,r29,0x0004
     720:	fc ff dd 33 	lw      r30,0xfffc(r29)
     724:	00 00 e0 47 	jmpr    r31
     728:	00 00 00 00 	nop
     72c:	00 00 00 00 	nop

00000730 <App_TimeTickHook>:
     730:	f8 ff bd 07 	addi    r29,r29,0xfff8
     734:	00 00 dd 37 	sw      0x0000(r29),r30
     738:	04 00 fd 37 	sw      0x0004(r29),r31
     73c:	05 e8 c0 03 	orr     r30,r0,r29
     740:	01 00 80 2c 	ldih    r4,0x0001
     744:	42 33 84 18 	ori     r4,r4,0x3342
     748:	00 00 84 38 	lb      r4,0x0000(r4)
     74c:	18 00 84 20 	lsli    r4,r4,0x0018
     750:	18 00 84 24 	lsri    r4,r4,0x0018
     754:	00 00 a0 18 	ori     r5,r0,0x0000
     758:	02 28 04 00 	sub     r0,r4,r5
     75c:	04 00 40 40 	bne     0x0000076c
     760:	01 00 80 2c 	ldih    r4,0x0001
     764:	fe 6d 84 18 	ori     r4,r4,0x6dfe
     768:	d4 0c 00 c0 	ajal    0x00003350
     76c:	05 f0 a0 03 	orr     r29,r0,r30
     770:	08 00 bd 07 	addi    r29,r29,0x0008
     774:	fc ff fd 33 	lw      r31,0xfffc(r29)
     778:	f8 ff dd 33 	lw      r30,0xfff8(r29)
     77c:	00 00 e0 47 	jmpr    r31

00000780 <BSP_Init>:
     780:	fc ff bd 07 	addi    r29,r29,0xfffc
     784:	00 00 dd 37 	sw      0x0000(r29),r30
     788:	05 e8 c0 03 	orr     r30,r0,r29
     78c:	05 f0 a0 03 	orr     r29,r0,r30
     790:	04 00 bd 07 	addi    r29,r29,0x0004
     794:	fc ff dd 33 	lw      r30,0xfffc(r29)
     798:	00 00 e0 47 	jmpr    r31
     79c:	00 00 00 00 	nop

000007a0 <SysTick_init>:
     7a0:	fc ff bd 07 	addi    r29,r29,0xfffc
     7a4:	00 00 dd 37 	sw      0x0000(r29),r30
     7a8:	05 e8 c0 03 	orr     r30,r0,r29
     7ac:	05 f0 a0 03 	orr     r29,r0,r30
     7b0:	04 00 bd 07 	addi    r29,r29,0x0004
     7b4:	fc ff dd 33 	lw      r30,0xfffc(r29)
     7b8:	00 00 e0 47 	jmpr    r31
     7bc:	00 00 00 00 	nop

000007c0 <LED_GPIO_Config>:
     7c0:	fc ff bd 07 	addi    r29,r29,0xfffc
     7c4:	00 00 dd 37 	sw      0x0000(r29),r30
     7c8:	05 e8 c0 03 	orr     r30,r0,r29
     7cc:	05 f0 a0 03 	orr     r29,r0,r30
     7d0:	04 00 bd 07 	addi    r29,r29,0x0004
     7d4:	fc ff dd 33 	lw      r30,0xfffc(r29)
     7d8:	00 00 e0 47 	jmpr    r31
     7dc:	00 00 00 00 	nop

000007e0 <LED>:
     7e0:	f8 ff bd 07 	addi    r29,r29,0xfff8
     7e4:	00 00 dd 37 	sw      0x0000(r29),r30
     7e8:	04 00 fd 37 	sw      0x0004(r29),r31
     7ec:	05 e8 c0 03 	orr     r30,r0,r29
     7f0:	f0 ff bd 07 	addi    r29,r29,0xfff0
     7f4:	fc ff 9e 34 	sw      0xfffc(r30),r4
     7f8:	f8 ff be 34 	sw      0xfff8(r30),r5
     7fc:	f8 ff be 30 	lw      r5,0xfff8(r30)
     800:	00 00 80 18 	ori     r4,r0,0x0000
     804:	02 20 05 00 	sub     r0,r5,r4
     808:	08 00 00 40 	beq     0x00000828
     80c:	01 00 80 2c 	ldih    r4,0x0001
     810:	23 6e 84 18 	ori     r4,r4,0x6e23
     814:	00 00 9d 34 	sw      0x0000(r29),r4
     818:	fc ff 9e 30 	lw      r4,0xfffc(r30)
     81c:	04 00 9d 34 	sw      0x0004(r29),r4
     820:	48 0c 00 c0 	ajal    0x00003120
     824:	10 02 00 80 	ajmp    0x00000840
     828:	01 00 80 2c 	ldih    r4,0x0001
     82c:	2d 6e 84 18 	ori     r4,r4,0x6e2d
     830:	00 00 9d 34 	sw      0x0000(r29),r4
     834:	fc ff 9e 30 	lw      r4,0xfffc(r30)
     838:	04 00 9d 34 	sw      0x0004(r29),r4
     83c:	48 0c 00 c0 	ajal    0x00003120
     840:	10 00 bd 07 	addi    r29,r29,0x0010
     844:	05 f0 a0 03 	orr     r29,r0,r30
     848:	08 00 bd 07 	addi    r29,r29,0x0008
     84c:	fc ff fd 33 	lw      r31,0xfffc(r29)
     850:	f8 ff dd 33 	lw      r30,0xfff8(r29)
     854:	00 00 e0 47 	jmpr    r31
     858:	00 00 00 00 	nop
     85c:	00 00 00 00 	nop

00000860 <Task_LED>:
     860:	f8 ff bd 07 	addi    r29,r29,0xfff8
     864:	00 00 dd 37 	sw      0x0000(r29),r30
     868:	04 00 fd 37 	sw      0x0004(r29),r31
     86c:	05 e8 c0 03 	orr     r30,r0,r29
     870:	f0 ff bd 07 	addi    r29,r29,0xfff0
     874:	fc ff 9e 34 	sw      0xfffc(r30),r4
     878:	34 16 00 c0 	ajal    0x000058d0
     87c:	05 10 80 00 	orr     r4,r0,r2
     880:	f8 ff 9e 68 	sh      0xfff8(r30),r4
     884:	01 00 80 18 	ori     r4,r0,0x0001
     888:	01 00 a0 18 	ori     r5,r0,0x0001
     88c:	f8 01 00 c0 	ajal    0x000007e0
     890:	00 00 80 18 	ori     r4,r0,0x0000
     894:	00 00 a0 18 	ori     r5,r0,0x0000
     898:	00 00 c0 18 	ori     r6,r0,0x0000
     89c:	64 00 e0 18 	ori     r7,r0,0x0064
     8a0:	6c 21 00 c0 	ajal    0x000085b0
     8a4:	05 10 80 00 	orr     r4,r0,r2
     8a8:	fb ff 9e 3c 	sb      0xfffb(r30),r4
     8ac:	fb ff 9e 38 	lb      r4,0xfffb(r30)
     8b0:	18 00 84 20 	lsli    r4,r4,0x0018
     8b4:	18 00 84 24 	lsri    r4,r4,0x0018
     8b8:	00 00 a0 18 	ori     r5,r0,0x0000
     8bc:	02 28 04 00 	sub     r0,r4,r5
     8c0:	0a 00 00 40 	beq     0x000008e8
     8c4:	01 00 80 2c 	ldih    r4,0x0001
     8c8:	38 6e 84 18 	ori     r4,r4,0x6e38
     8cc:	00 00 9d 34 	sw      0x0000(r29),r4
     8d0:	fb ff 9e 38 	lb      r4,0xfffb(r30)
     8d4:	18 00 84 20 	lsli    r4,r4,0x0018
     8d8:	18 00 84 24 	lsri    r4,r4,0x0018
     8dc:	04 00 9d 34 	sw      0x0004(r29),r4
     8e0:	48 0c 00 c0 	ajal    0x00003120
     8e4:	39 02 00 80 	ajmp    0x000008e4
     8e8:	01 00 80 18 	ori     r4,r0,0x0001
     8ec:	00 00 a0 18 	ori     r5,r0,0x0000
     8f0:	f8 01 00 c0 	ajal    0x000007e0
     8f4:	00 00 80 18 	ori     r4,r0,0x0000
     8f8:	00 00 a0 18 	ori     r5,r0,0x0000
     8fc:	00 00 c0 18 	ori     r6,r0,0x0000
     900:	64 00 e0 18 	ori     r7,r0,0x0064
     904:	6c 21 00 c0 	ajal    0x000085b0
     908:	05 10 80 00 	orr     r4,r0,r2
     90c:	fb ff 9e 3c 	sb      0xfffb(r30),r4
     910:	fb ff 9e 38 	lb      r4,0xfffb(r30)
     914:	18 00 84 20 	lsli    r4,r4,0x0018
     918:	18 00 84 24 	lsri    r4,r4,0x0018
     91c:	00 00 a0 18 	ori     r5,r0,0x0000
     920:	02 28 04 00 	sub     r0,r4,r5
     924:	d8 ff 3f 40 	beq     0x00000884
     928:	01 00 80 2c 	ldih    r4,0x0001
     92c:	55 6e 84 18 	ori     r4,r4,0x6e55
     930:	00 00 9d 34 	sw      0x0000(r29),r4
     934:	fb ff 9e 38 	lb      r4,0xfffb(r30)
     938:	18 00 84 20 	lsli    r4,r4,0x0018
     93c:	18 00 84 24 	lsri    r4,r4,0x0018
     940:	04 00 9d 34 	sw      0x0004(r29),r4
     944:	48 0c 00 c0 	ajal    0x00003120
     948:	52 02 00 80 	ajmp    0x00000948
     94c:	00 00 00 00 	nop

00000950 <Task_Key>:
     950:	f8 ff bd 07 	addi    r29,r29,0xfff8
     954:	00 00 dd 37 	sw      0x0000(r29),r30
     958:	04 00 fd 37 	sw      0x0004(r29),r31
     95c:	05 e8 c0 03 	orr     r30,r0,r29
     960:	e8 ff bd 07 	addi    r29,r29,0xffe8
     964:	fc ff 9e 34 	sw      0xfffc(r30),r4
     968:	00 00 80 18 	ori     r4,r0,0x0000
     96c:	f8 ff 9e 34 	sw      0xfff8(r30),r4
     970:	01 00 80 2c 	ldih    r4,0x0001
     974:	72 6e 84 18 	ori     r4,r4,0x6e72
     978:	00 00 9d 34 	sw      0x0000(r29),r4
     97c:	48 0c 00 c0 	ajal    0x00003120
     980:	f8 0c 00 c0 	ajal    0x000033e0
     984:	05 10 a0 00 	orr     r5,r0,r2
     988:	00 00 80 18 	ori     r4,r0,0x0000
     98c:	02 20 05 00 	sub     r0,r5,r4
     990:	0c 00 00 40 	beq     0x000009c0
     994:	0c 0d 00 c0 	ajal    0x00003430
     998:	05 10 80 00 	orr     r4,r0,r2
     99c:	f4 ff 9e 34 	sw      0xfff4(r30),r4
     9a0:	01 00 80 2c 	ldih    r4,0x0001
     9a4:	84 6e 84 18 	ori     r4,r4,0x6e84
     9a8:	00 00 9d 34 	sw      0x0000(r29),r4
     9ac:	f4 ff 9e 30 	lw      r4,0xfff4(r30)
     9b0:	04 00 9d 34 	sw      0x0004(r29),r4
     9b4:	f4 ff 9e 30 	lw      r4,0xfff4(r30)
     9b8:	08 00 9d 34 	sw      0x0008(r29),r4
     9bc:	48 0c 00 c0 	ajal    0x00003120
     9c0:	64 00 80 18 	ori     r4,r0,0x0064
     9c4:	08 21 00 c0 	ajal    0x00008420
     9c8:	5c 02 00 80 	ajmp    0x00000970
     9cc:	00 00 00 00 	nop

000009d0 <fifo_init>:
     9d0:	fc ff bd 07 	addi    r29,r29,0xfffc
     9d4:	00 00 dd 37 	sw      0x0000(r29),r30
     9d8:	05 e8 c0 03 	orr     r30,r0,r29
     9dc:	fc ff bd 07 	addi    r29,r29,0xfffc
     9e0:	fc ff 9e 34 	sw      0xfffc(r30),r4
     9e4:	fc ff be 30 	lw      r5,0xfffc(r30)
     9e8:	00 00 80 18 	ori     r4,r0,0x0000
     9ec:	00 00 85 34 	sw      0x0000(r5),r4
     9f0:	fc ff be 30 	lw      r5,0xfffc(r30)
     9f4:	01 00 80 18 	ori     r4,r0,0x0001
     9f8:	04 00 85 34 	sw      0x0004(r5),r4
     9fc:	fc ff be 30 	lw      r5,0xfffc(r30)
     a00:	fc ff 9e 30 	lw      r4,0xfffc(r30)
     a04:	10 00 84 04 	addi    r4,r4,0x0010
     a08:	08 00 85 34 	sw      0x0008(r5),r4
     a0c:	fc ff be 30 	lw      r5,0xfffc(r30)
     a10:	fc ff 9e 30 	lw      r4,0xfffc(r30)
     a14:	10 00 84 04 	addi    r4,r4,0x0010
     a18:	0c 00 85 34 	sw      0x000c(r5),r4
     a1c:	04 00 bd 07 	addi    r29,r29,0x0004
     a20:	05 f0 a0 03 	orr     r29,r0,r30
     a24:	04 00 bd 07 	addi    r29,r29,0x0004
     a28:	fc ff dd 33 	lw      r30,0xfffc(r29)
     a2c:	00 00 e0 47 	jmpr    r31

00000a30 <fifo_put>:
     a30:	fc ff bd 07 	addi    r29,r29,0xfffc
     a34:	00 00 dd 37 	sw      0x0000(r29),r30
     a38:	05 e8 c0 03 	orr     r30,r0,r29
     a3c:	f4 ff bd 07 	addi    r29,r29,0xfff4
     a40:	fc ff 9e 34 	sw      0xfffc(r30),r4
     a44:	fb ff be 3c 	sb      0xfffb(r30),r5
     a48:	fc ff 9e 30 	lw      r4,0xfffc(r30)
     a4c:	00 00 a4 30 	lw      r5,0x0000(r4)
     a50:	00 00 80 18 	ori     r4,r0,0x0000
     a54:	02 20 05 00 	sub     r0,r5,r4
     a58:	35 00 40 40 	bne     0x00000b2c
     a5c:	fc ff 9e 30 	lw      r4,0xfffc(r30)
     a60:	08 00 84 30 	lw      r4,0x0008(r4)
     a64:	fb ff be 38 	lb      r5,0xfffb(r30)
     a68:	00 00 a4 3c 	sb      0x0000(r4),r5
     a6c:	fc ff de 30 	lw      r6,0xfffc(r30)
     a70:	fc ff 9e 30 	lw      r4,0xfffc(r30)
     a74:	2f 00 a4 04 	addi    r5,r4,0x002f
     a78:	08 00 86 30 	lw      r4,0x0008(r6)
     a7c:	02 28 04 00 	sub     r0,r4,r5
     a80:	06 00 40 40 	bne     0x00000a98
     a84:	fc ff 9e 30 	lw      r4,0xfffc(r30)
     a88:	fc ff be 30 	lw      r5,0xfffc(r30)
     a8c:	10 00 a5 04 	addi    r5,r5,0x0010
     a90:	08 00 a4 34 	sw      0x0008(r4),r5
     a94:	ab 02 00 80 	ajmp    0x00000aac
     a98:	fc ff be 30 	lw      r5,0xfffc(r30)
     a9c:	fc ff 9e 30 	lw      r4,0xfffc(r30)
     aa0:	08 00 84 30 	lw      r4,0x0008(r4)
     aa4:	01 00 84 04 	addi    r4,r4,0x0001
     aa8:	08 00 85 34 	sw      0x0008(r5),r4
     aac:	fc ff de 30 	lw      r6,0xfffc(r30)
     ab0:	fc ff 9e 30 	lw      r4,0xfffc(r30)
     ab4:	2f 00 a4 04 	addi    r5,r4,0x002f
     ab8:	08 00 86 30 	lw      r4,0x0008(r6)
     abc:	02 28 04 00 	sub     r0,r4,r5
     ac0:	0b 00 40 40 	bne     0x00000aec
     ac4:	fc ff de 30 	lw      r6,0xfffc(r30)
     ac8:	fc ff 9e 30 	lw      r4,0xfffc(r30)
     acc:	10 00 a4 04 	addi    r5,r4,0x0010
     ad0:	0c 00 86 30 	lw      r4,0x000c(r6)
     ad4:	02 28 04 00 	sub     r0,r4,r5
     ad8:	05 00 40 40 	bne     0x00000aec
     adc:	fc ff be 30 	lw      r5,0xfffc(r30)
     ae0:	01 00 80 18 	ori     r4,r0,0x0001
     ae4:	00 00 85 34 	sw      0x0000(r5),r4
     ae8:	c5 02 00 80 	ajmp    0x00000b14
     aec:	fc ff 9e 30 	lw      r4,0xfffc(r30)
     af0:	08 00 84 30 	lw      r4,0x0008(r4)
     af4:	01 00 a4 04 	addi    r5,r4,0x0001
     af8:	fc ff 9e 30 	lw      r4,0xfffc(r30)
     afc:	0c 00 84 30 	lw      r4,0x000c(r4)
     b00:	02 20 05 00 	sub     r0,r5,r4
     b04:	04 00 40 40 	bne     0x00000b14
     b08:	fc ff be 30 	lw      r5,0xfffc(r30)
     b0c:	01 00 80 18 	ori     r4,r0,0x0001
     b10:	00 00 85 34 	sw      0x0000(r5),r4
     b14:	fc ff be 30 	lw      r5,0xfffc(r30)
     b18:	00 00 80 18 	ori     r4,r0,0x0000
     b1c:	04 00 85 34 	sw      0x0004(r5),r4
     b20:	00 00 80 18 	ori     r4,r0,0x0000
     b24:	f4 ff 9e 34 	sw      0xfff4(r30),r4
     b28:	cd 02 00 80 	ajmp    0x00000b34
     b2c:	ff 00 a0 18 	ori     r5,r0,0x00ff
     b30:	f4 ff be 34 	sw      0xfff4(r30),r5
     b34:	f4 ff 5e 30 	lw      r2,0xfff4(r30)
     b38:	0c 00 bd 07 	addi    r29,r29,0x000c
     b3c:	05 f0 a0 03 	orr     r29,r0,r30
     b40:	04 00 bd 07 	addi    r29,r29,0x0004
     b44:	fc ff dd 33 	lw      r30,0xfffc(r29)
     b48:	00 00 e0 47 	jmpr    r31
     b4c:	00 00 00 00 	nop

00000b50 <fifo_get>:
     b50:	fc ff bd 07 	addi    r29,r29,0xfffc
     b54:	00 00 dd 37 	sw      0x0000(r29),r30
     b58:	05 e8 c0 03 	orr     r30,r0,r29
     b5c:	ec ff bd 07 	addi    r29,r29,0xffec
     b60:	fc ff 9e 34 	sw      0xfffc(r30),r4
     b64:	f8 ff be 34 	sw      0xfff8(r30),r5
     b68:	fc ff 9e 30 	lw      r4,0xfffc(r30)
     b6c:	04 00 a4 30 	lw      r5,0x0004(r4)
     b70:	01 00 80 18 	ori     r4,r0,0x0001
     b74:	02 20 05 00 	sub     r0,r5,r4
     b78:	04 00 40 40 	bne     0x00000b88
     b7c:	ff 00 80 18 	ori     r4,r0,0x00ff
     b80:	f4 ff 9e 34 	sw      0xfff4(r30),r4
     b84:	08 03 00 80 	ajmp    0x00000c20
     b88:	f8 ff be 30 	lw      r5,0xfff8(r30)
     b8c:	fc ff 9e 30 	lw      r4,0xfffc(r30)
     b90:	0c 00 84 30 	lw      r4,0x000c(r4)
     b94:	00 00 84 38 	lb      r4,0x0000(r4)
     b98:	00 00 85 3c 	sb      0x0000(r5),r4
     b9c:	fc ff de 30 	lw      r6,0xfffc(r30)
     ba0:	fc ff 9e 30 	lw      r4,0xfffc(r30)
     ba4:	2f 00 a4 04 	addi    r5,r4,0x002f
     ba8:	0c 00 86 30 	lw      r4,0x000c(r6)
     bac:	02 28 04 00 	sub     r0,r4,r5
     bb0:	06 00 40 40 	bne     0x00000bc8
     bb4:	fc ff 9e 30 	lw      r4,0xfffc(r30)
     bb8:	fc ff be 30 	lw      r5,0xfffc(r30)
     bbc:	10 00 a5 04 	addi    r5,r5,0x0010
     bc0:	0c 00 a4 34 	sw      0x000c(r4),r5
     bc4:	f7 02 00 80 	ajmp    0x00000bdc
     bc8:	fc ff be 30 	lw      r5,0xfffc(r30)
     bcc:	fc ff 9e 30 	lw      r4,0xfffc(r30)
     bd0:	0c 00 84 30 	lw      r4,0x000c(r4)
     bd4:	01 00 84 04 	addi    r4,r4,0x0001
     bd8:	0c 00 85 34 	sw      0x000c(r5),r4
     bdc:	fc ff be 30 	lw      r5,0xfffc(r30)
     be0:	f0 ff be 34 	sw      0xfff0(r30),r5
     be4:	00 00 80 18 	ori     r4,r0,0x0000
     be8:	ec ff 9e 34 	sw      0xffec(r30),r4
     bec:	fc ff 9e 30 	lw      r4,0xfffc(r30)
     bf0:	fc ff be 30 	lw      r5,0xfffc(r30)
     bf4:	08 00 c4 30 	lw      r6,0x0008(r4)
     bf8:	0c 00 85 30 	lw      r4,0x000c(r5)
     bfc:	02 20 06 00 	sub     r0,r6,r4
     c00:	03 00 40 40 	bne     0x00000c0c
     c04:	01 00 a0 18 	ori     r5,r0,0x0001
     c08:	ec ff be 34 	sw      0xffec(r30),r5
     c0c:	ec ff be 30 	lw      r5,0xffec(r30)
     c10:	f0 ff 9e 30 	lw      r4,0xfff0(r30)
     c14:	04 00 a4 34 	sw      0x0004(r4),r5
     c18:	00 00 80 18 	ori     r4,r0,0x0000
     c1c:	f4 ff 9e 34 	sw      0xfff4(r30),r4
     c20:	f4 ff 5e 30 	lw      r2,0xfff4(r30)
     c24:	14 00 bd 07 	addi    r29,r29,0x0014
     c28:	05 f0 a0 03 	orr     r29,r0,r30
     c2c:	04 00 bd 07 	addi    r29,r29,0x0004
     c30:	fc ff dd 33 	lw      r30,0xfffc(r29)
     c34:	00 00 e0 47 	jmpr    r31
     c38:	00 00 00 00 	nop
     c3c:	00 00 00 00 	nop

00000c40 <OS_HeapCreate>:
     c40:	fc ff bd 07 	addi    r29,r29,0xfffc
     c44:	00 00 dd 37 	sw      0x0000(r29),r30
     c48:	05 e8 c0 03 	orr     r30,r0,r29
     c4c:	f0 ff bd 07 	addi    r29,r29,0xfff0
     c50:	fc ff 9e 34 	sw      0xfffc(r30),r4
     c54:	f8 ff be 34 	sw      0xfff8(r30),r5
     c58:	f4 ff de 34 	sw      0xfff4(r30),r6
     c5c:	f8 ff 9e 30 	lw      r4,0xfff8(r30)
     c60:	f0 ff 9e 34 	sw      0xfff0(r30),r4
     c64:	f0 ff be 30 	lw      r5,0xfff0(r30)
     c68:	34 12 80 2c 	ldih    r4,0x1234
     c6c:	cd ab 84 18 	ori     r4,r4,0xabcd
     c70:	00 00 85 34 	sw      0x0000(r5),r4
     c74:	f0 ff be 30 	lw      r5,0xfff0(r30)
     c78:	fc ff 9e 30 	lw      r4,0xfffc(r30)
     c7c:	04 00 85 34 	sw      0x0004(r5),r4
     c80:	f0 ff be 30 	lw      r5,0xfff0(r30)
     c84:	f0 ff 9e 30 	lw      r4,0xfff0(r30)
     c88:	1c 00 84 04 	addi    r4,r4,0x001c
     c8c:	08 00 85 34 	sw      0x0008(r5),r4
     c90:	f0 ff 9e 30 	lw      r4,0xfff0(r30)
     c94:	08 00 a4 30 	lw      r5,0x0008(r4)
     c98:	f0 ff 9e 30 	lw      r4,0xfff0(r30)
     c9c:	0c 00 84 04 	addi    r4,r4,0x000c
     ca0:	00 00 85 34 	sw      0x0000(r5),r4
     ca4:	f0 ff 9e 30 	lw      r4,0xfff0(r30)
     ca8:	08 00 a4 30 	lw      r5,0x0008(r4)
     cac:	f4 ff 9e 30 	lw      r4,0xfff4(r30)
     cb0:	e4 ff 84 04 	addi    r4,r4,0xffe4
     cb4:	03 00 84 24 	lsri    r4,r4,0x0003
     cb8:	04 00 85 34 	sw      0x0004(r5),r4
     cbc:	f0 ff be 30 	lw      r5,0xfff0(r30)
     cc0:	f0 ff 9e 30 	lw      r4,0xfff0(r30)
     cc4:	08 00 84 30 	lw      r4,0x0008(r4)
     cc8:	0c 00 85 34 	sw      0x000c(r5),r4
     ccc:	f0 ff be 30 	lw      r5,0xfff0(r30)
     cd0:	00 00 80 18 	ori     r4,r0,0x0000
     cd4:	10 00 85 34 	sw      0x0010(r5),r4
     cd8:	f0 ff be 30 	lw      r5,0xfff0(r30)
     cdc:	00 00 80 18 	ori     r4,r0,0x0000
     ce0:	14 00 85 34 	sw      0x0014(r5),r4
     ce4:	f0 ff be 30 	lw      r5,0xfff0(r30)
     ce8:	00 00 80 18 	ori     r4,r0,0x0000
     cec:	18 00 85 34 	sw      0x0018(r5),r4
     cf0:	f0 ff 9e 30 	lw      r4,0xfff0(r30)
     cf4:	05 20 40 00 	orr     r2,r0,r4
     cf8:	10 00 bd 07 	addi    r29,r29,0x0010
     cfc:	05 f0 a0 03 	orr     r29,r0,r30
     d00:	04 00 bd 07 	addi    r29,r29,0x0004
     d04:	fc ff dd 33 	lw      r30,0xfffc(r29)
     d08:	00 00 e0 47 	jmpr    r31
     d0c:	00 00 00 00 	nop

00000d10 <OS_HeapDestroy>:
     d10:	fc ff bd 07 	addi    r29,r29,0xfffc
     d14:	00 00 dd 37 	sw      0x0000(r29),r30
     d18:	05 e8 c0 03 	orr     r30,r0,r29
     d1c:	fc ff bd 07 	addi    r29,r29,0xfffc
     d20:	fc ff 9e 34 	sw      0xfffc(r30),r4
     d24:	04 00 bd 07 	addi    r29,r29,0x0004
     d28:	05 f0 a0 03 	orr     r29,r0,r30
     d2c:	04 00 bd 07 	addi    r29,r29,0x0004
     d30:	fc ff dd 33 	lw      r30,0xfffc(r29)
     d34:	00 00 e0 47 	jmpr    r31
     d38:	00 00 00 00 	nop
     d3c:	00 00 00 00 	nop

00000d40 <OS_HeapMalloc>:
     d40:	f8 ff bd 07 	addi    r29,r29,0xfff8
     d44:	00 00 dd 37 	sw      0x0000(r29),r30
     d48:	04 00 fd 37 	sw      0x0004(r29),r31
     d4c:	05 e8 c0 03 	orr     r30,r0,r29
     d50:	e8 ff bd 07 	addi    r29,r29,0xffe8
     d54:	fc ff 9e 34 	sw      0xfffc(r30),r4
     d58:	f8 ff be 34 	sw      0xfff8(r30),r5
     d5c:	fc ff be 30 	lw      r5,0xfffc(r30)
     d60:	07 00 80 18 	ori     r4,r0,0x0007
     d64:	02 20 05 00 	sub     r0,r5,r4
     d68:	08 00 00 42 	bhi     0x00000d88
     d6c:	01 00 a0 2c 	ldih    r5,0x0001
     d70:	10 33 a5 18 	ori     r5,r5,0x3310
     d74:	fc ff 9e 30 	lw      r4,0xfffc(r30)
     d78:	02 00 84 20 	lsli    r4,r4,0x0002
     d7c:	00 28 84 00 	add     r4,r4,r5
     d80:	00 00 84 30 	lw      r4,0x0000(r4)
     d84:	fc ff 9e 34 	sw      0xfffc(r30),r4
     d88:	f8 ff 9e 30 	lw      r4,0xfff8(r30)
     d8c:	07 00 84 04 	addi    r4,r4,0x0007
     d90:	03 00 84 24 	lsri    r4,r4,0x0003
     d94:	01 00 84 04 	addi    r4,r4,0x0001
     d98:	ec ff 9e 34 	sw      0xffec(r30),r4
     d9c:	fc ff 9e 30 	lw      r4,0xfffc(r30)
     da0:	08 00 84 30 	lw      r4,0x0008(r4)
     da4:	f0 ff 9e 34 	sw      0xfff0(r30),r4
     da8:	f0 ff 9e 30 	lw      r4,0xfff0(r30)
     dac:	00 00 84 30 	lw      r4,0x0000(r4)
     db0:	f4 ff 9e 34 	sw      0xfff4(r30),r4
     db4:	f4 ff 9e 30 	lw      r4,0xfff4(r30)
     db8:	04 00 a4 30 	lw      r5,0x0004(r4)
     dbc:	ec ff 9e 30 	lw      r4,0xffec(r30)
     dc0:	02 20 05 00 	sub     r0,r5,r4
     dc4:	29 00 c0 42 	blt     0x00000e68
     dc8:	f4 ff 9e 30 	lw      r4,0xfff4(r30)
     dcc:	04 00 a4 30 	lw      r5,0x0004(r4)
     dd0:	ec ff 9e 30 	lw      r4,0xffec(r30)
     dd4:	02 20 05 00 	sub     r0,r5,r4
     dd8:	06 00 40 40 	bne     0x00000df0
     ddc:	f0 ff 9e 30 	lw      r4,0xfff0(r30)
     de0:	f4 ff be 30 	lw      r5,0xfff4(r30)
     de4:	00 00 a5 30 	lw      r5,0x0000(r5)
     de8:	00 00 a4 34 	sw      0x0000(r4),r5
     dec:	8b 03 00 80 	ajmp    0x00000e2c
     df0:	f4 ff de 30 	lw      r6,0xfff4(r30)
     df4:	f4 ff 9e 30 	lw      r4,0xfff4(r30)
     df8:	04 00 a4 30 	lw      r5,0x0004(r4)
     dfc:	ec ff 9e 30 	lw      r4,0xffec(r30)
     e00:	02 20 85 00 	sub     r4,r5,r4
     e04:	04 00 86 34 	sw      0x0004(r6),r4
     e08:	f4 ff 9e 30 	lw      r4,0xfff4(r30)
     e0c:	04 00 84 30 	lw      r4,0x0004(r4)
     e10:	03 00 a4 20 	lsli    r5,r4,0x0003
     e14:	f4 ff 9e 30 	lw      r4,0xfff4(r30)
     e18:	00 28 84 00 	add     r4,r4,r5
     e1c:	f4 ff 9e 34 	sw      0xfff4(r30),r4
     e20:	f4 ff be 30 	lw      r5,0xfff4(r30)
     e24:	ec ff 9e 30 	lw      r4,0xffec(r30)
     e28:	04 00 85 34 	sw      0x0004(r5),r4
     e2c:	fc ff be 30 	lw      r5,0xfffc(r30)
     e30:	f0 ff 9e 30 	lw      r4,0xfff0(r30)
     e34:	08 00 85 34 	sw      0x0008(r5),r4
     e38:	f4 ff be 30 	lw      r5,0xfff4(r30)
     e3c:	fc ff 9e 30 	lw      r4,0xfffc(r30)
     e40:	00 00 85 34 	sw      0x0000(r5),r4
     e44:	fc ff be 30 	lw      r5,0xfffc(r30)
     e48:	fc ff 9e 30 	lw      r4,0xfffc(r30)
     e4c:	14 00 84 30 	lw      r4,0x0014(r4)
     e50:	01 00 84 04 	addi    r4,r4,0x0001
     e54:	14 00 85 34 	sw      0x0014(r5),r4
     e58:	f4 ff 9e 30 	lw      r4,0xfff4(r30)
     e5c:	08 00 84 04 	addi    r4,r4,0x0008
     e60:	e8 ff 9e 34 	sw      0xffe8(r30),r4
     e64:	b4 03 00 80 	ajmp    0x00000ed0
     e68:	fc ff 9e 30 	lw      r4,0xfffc(r30)
     e6c:	08 00 a4 30 	lw      r5,0x0008(r4)
     e70:	f4 ff 9e 30 	lw      r4,0xfff4(r30)
     e74:	02 20 05 00 	sub     r0,r5,r4
     e78:	10 00 40 40 	bne     0x00000eb8
     e7c:	fc ff 9e 30 	lw      r4,0xfffc(r30)
     e80:	18 00 a4 30 	lw      r5,0x0018(r4)
     e84:	00 00 80 18 	ori     r4,r0,0x0000
     e88:	02 20 05 00 	sub     r0,r5,r4
     e8c:	08 00 00 40 	beq     0x00000eac
     e90:	fc ff 9e 30 	lw      r4,0xfffc(r30)
     e94:	18 00 84 30 	lw      r4,0x0018(r4)
     e98:	f8 ff be 30 	lw      r5,0xfff8(r30)
     e9c:	50 03 00 c0 	ajal    0x00000d40
     ea0:	05 10 80 00 	orr     r4,r0,r2
     ea4:	e8 ff 9e 34 	sw      0xffe8(r30),r4
     ea8:	b4 03 00 80 	ajmp    0x00000ed0
     eac:	00 00 80 18 	ori     r4,r0,0x0000
     eb0:	e8 ff 9e 34 	sw      0xffe8(r30),r4
     eb4:	b4 03 00 80 	ajmp    0x00000ed0
     eb8:	f4 ff 9e 30 	lw      r4,0xfff4(r30)
     ebc:	f0 ff 9e 34 	sw      0xfff0(r30),r4
     ec0:	f4 ff 9e 30 	lw      r4,0xfff4(r30)
     ec4:	00 00 84 30 	lw      r4,0x0000(r4)
     ec8:	f4 ff 9e 34 	sw      0xfff4(r30),r4
     ecc:	6d 03 00 80 	ajmp    0x00000db4
     ed0:	e8 ff 5e 30 	lw      r2,0xffe8(r30)
     ed4:	18 00 bd 07 	addi    r29,r29,0x0018
     ed8:	05 f0 a0 03 	orr     r29,r0,r30
     edc:	08 00 bd 07 	addi    r29,r29,0x0008
     ee0:	fc ff fd 33 	lw      r31,0xfffc(r29)
     ee4:	f8 ff dd 33 	lw      r30,0xfff8(r29)
     ee8:	00 00 e0 47 	jmpr    r31
     eec:	00 00 00 00 	nop

00000ef0 <OS_HeapFree>:
     ef0:	fc ff bd 07 	addi    r29,r29,0xfffc
     ef4:	00 00 dd 37 	sw      0x0000(r29),r30
     ef8:	05 e8 c0 03 	orr     r30,r0,r29
     efc:	f0 ff bd 07 	addi    r29,r29,0xfff0
     f00:	fc ff 9e 34 	sw      0xfffc(r30),r4
     f04:	fc ff be 30 	lw      r5,0xfffc(r30)
     f08:	00 00 80 18 	ori     r4,r0,0x0000
     f0c:	02 20 05 00 	sub     r0,r5,r4
     f10:	02 00 40 40 	bne     0x00000f18
     f14:	2c 04 00 80 	ajmp    0x000010b0
     f18:	fc ff 9e 30 	lw      r4,0xfffc(r30)
     f1c:	f8 ff 84 04 	addi    r4,r4,0xfff8
     f20:	f4 ff 9e 34 	sw      0xfff4(r30),r4
     f24:	f4 ff 9e 30 	lw      r4,0xfff4(r30)
     f28:	00 00 84 30 	lw      r4,0x0000(r4)
     f2c:	f8 ff 9e 34 	sw      0xfff8(r30),r4
     f30:	f8 ff 9e 30 	lw      r4,0xfff8(r30)
     f34:	00 00 a4 30 	lw      r5,0x0000(r4)
     f38:	34 12 80 2c 	ldih    r4,0x1234
     f3c:	cd ab 84 18 	ori     r4,r4,0xabcd
     f40:	02 20 05 00 	sub     r0,r5,r4
     f44:	02 00 00 40 	beq     0x00000f4c
     f48:	2c 04 00 80 	ajmp    0x000010b0
     f4c:	f8 ff be 30 	lw      r5,0xfff8(r30)
     f50:	f8 ff 9e 30 	lw      r4,0xfff8(r30)
     f54:	14 00 84 30 	lw      r4,0x0014(r4)
     f58:	ff ff 84 04 	addi    r4,r4,0xffff
     f5c:	14 00 85 34 	sw      0x0014(r5),r4
     f60:	f8 ff 9e 30 	lw      r4,0xfff8(r30)
     f64:	08 00 84 30 	lw      r4,0x0008(r4)
     f68:	f0 ff 9e 34 	sw      0xfff0(r30),r4
     f6c:	f0 ff be 30 	lw      r5,0xfff0(r30)
     f70:	f4 ff 9e 30 	lw      r4,0xfff4(r30)
     f74:	02 20 05 00 	sub     r0,r5,r4
     f78:	07 00 00 41 	bhs     0x00000f94
     f7c:	f0 ff 9e 30 	lw      r4,0xfff0(r30)
     f80:	00 00 a4 30 	lw      r5,0x0000(r4)
     f84:	f4 ff 9e 30 	lw      r4,0xfff4(r30)
     f88:	02 20 05 00 	sub     r0,r5,r4
     f8c:	02 00 40 42 	bls     0x00000f94
     f90:	f7 03 00 80 	ajmp    0x00000fdc
     f94:	f0 ff 9e 30 	lw      r4,0xfff0(r30)
     f98:	00 00 a4 30 	lw      r5,0x0000(r4)
     f9c:	f0 ff 9e 30 	lw      r4,0xfff0(r30)
     fa0:	02 20 05 00 	sub     r0,r5,r4
     fa4:	0a 00 00 42 	bhi     0x00000fcc
     fa8:	f4 ff be 30 	lw      r5,0xfff4(r30)
     fac:	f0 ff 9e 30 	lw      r4,0xfff0(r30)
     fb0:	02 20 05 00 	sub     r0,r5,r4
     fb4:	0a 00 00 42 	bhi     0x00000fdc
     fb8:	f0 ff 9e 30 	lw      r4,0xfff0(r30)
     fbc:	00 00 a4 30 	lw      r5,0x0000(r4)
     fc0:	f4 ff 9e 30 	lw      r4,0xfff4(r30)
     fc4:	02 20 05 00 	sub     r0,r5,r4
     fc8:	05 00 00 42 	bhi     0x00000fdc
     fcc:	f0 ff 9e 30 	lw      r4,0xfff0(r30)
     fd0:	00 00 84 30 	lw      r4,0x0000(r4)
     fd4:	f0 ff 9e 34 	sw      0xfff0(r30),r4
     fd8:	db 03 00 80 	ajmp    0x00000f6c
     fdc:	f4 ff 9e 30 	lw      r4,0xfff4(r30)
     fe0:	04 00 84 30 	lw      r4,0x0004(r4)
     fe4:	03 00 a4 20 	lsli    r5,r4,0x0003
     fe8:	f4 ff 9e 30 	lw      r4,0xfff4(r30)
     fec:	00 20 a5 00 	add     r5,r5,r4
     ff0:	f0 ff 9e 30 	lw      r4,0xfff0(r30)
     ff4:	00 00 84 30 	lw      r4,0x0000(r4)
     ff8:	02 20 05 00 	sub     r0,r5,r4
     ffc:	0f 00 40 40 	bne     0x00001038
    1000:	f4 ff de 30 	lw      r6,0xfff4(r30)
    1004:	f4 ff be 30 	lw      r5,0xfff4(r30)
    1008:	f0 ff 9e 30 	lw      r4,0xfff0(r30)
    100c:	00 00 84 30 	lw      r4,0x0000(r4)
    1010:	04 00 a5 30 	lw      r5,0x0004(r5)
    1014:	04 00 84 30 	lw      r4,0x0004(r4)
    1018:	00 20 85 00 	add     r4,r5,r4
    101c:	04 00 86 34 	sw      0x0004(r6),r4
    1020:	f4 ff be 30 	lw      r5,0xfff4(r30)
    1024:	f0 ff 9e 30 	lw      r4,0xfff0(r30)
    1028:	00 00 84 30 	lw      r4,0x0000(r4)
    102c:	00 00 84 30 	lw      r4,0x0000(r4)
    1030:	00 00 85 34 	sw      0x0000(r5),r4
    1034:	12 04 00 80 	ajmp    0x00001048
    1038:	f4 ff 9e 30 	lw      r4,0xfff4(r30)
    103c:	f0 ff be 30 	lw      r5,0xfff0(r30)
    1040:	00 00 a5 30 	lw      r5,0x0000(r5)
    1044:	00 00 a4 34 	sw      0x0000(r4),r5
    1048:	f0 ff 9e 30 	lw      r4,0xfff0(r30)
    104c:	04 00 84 30 	lw      r4,0x0004(r4)
    1050:	03 00 a4 20 	lsli    r5,r4,0x0003
    1054:	f0 ff 9e 30 	lw      r4,0xfff0(r30)
    1058:	00 20 a5 00 	add     r5,r5,r4
    105c:	f4 ff 9e 30 	lw      r4,0xfff4(r30)
    1060:	02 20 05 00 	sub     r0,r5,r4
    1064:	0d 00 40 40 	bne     0x00001098
    1068:	f0 ff fe 30 	lw      r7,0xfff0(r30)
    106c:	f0 ff 9e 30 	lw      r4,0xfff0(r30)
    1070:	f4 ff be 30 	lw      r5,0xfff4(r30)
    1074:	04 00 c4 30 	lw      r6,0x0004(r4)
    1078:	04 00 85 30 	lw      r4,0x0004(r5)
    107c:	00 20 86 00 	add     r4,r6,r4
    1080:	04 00 87 34 	sw      0x0004(r7),r4
    1084:	f0 ff be 30 	lw      r5,0xfff0(r30)
    1088:	f4 ff 9e 30 	lw      r4,0xfff4(r30)
    108c:	00 00 84 30 	lw      r4,0x0000(r4)
    1090:	00 00 85 34 	sw      0x0000(r5),r4
    1094:	29 04 00 80 	ajmp    0x000010a4
    1098:	f0 ff be 30 	lw      r5,0xfff0(r30)
    109c:	f4 ff 9e 30 	lw      r4,0xfff4(r30)
    10a0:	00 00 85 34 	sw      0x0000(r5),r4
    10a4:	f8 ff be 30 	lw      r5,0xfff8(r30)
    10a8:	f0 ff 9e 30 	lw      r4,0xfff0(r30)
    10ac:	08 00 85 34 	sw      0x0008(r5),r4
    10b0:	10 00 bd 07 	addi    r29,r29,0x0010
    10b4:	05 f0 a0 03 	orr     r29,r0,r30
    10b8:	04 00 bd 07 	addi    r29,r29,0x0004
    10bc:	fc ff dd 33 	lw      r30,0xfffc(r29)
    10c0:	00 00 e0 47 	jmpr    r31
    10c4:	00 00 00 00 	nop
    10c8:	00 00 00 00 	nop
    10cc:	00 00 00 00 	nop

000010d0 <OS_HeapAlternate>:
    10d0:	fc ff bd 07 	addi    r29,r29,0xfffc
    10d4:	00 00 dd 37 	sw      0x0000(r29),r30
    10d8:	05 e8 c0 03 	orr     r30,r0,r29
    10dc:	f8 ff bd 07 	addi    r29,r29,0xfff8
    10e0:	fc ff 9e 34 	sw      0xfffc(r30),r4
    10e4:	f8 ff be 34 	sw      0xfff8(r30),r5
    10e8:	fc ff be 30 	lw      r5,0xfffc(r30)
    10ec:	f8 ff 9e 30 	lw      r4,0xfff8(r30)
    10f0:	18 00 85 34 	sw      0x0018(r5),r4
    10f4:	08 00 bd 07 	addi    r29,r29,0x0008
    10f8:	05 f0 a0 03 	orr     r29,r0,r30
    10fc:	04 00 bd 07 	addi    r29,r29,0x0004
    1100:	fc ff dd 33 	lw      r30,0xfffc(r29)
    1104:	00 00 e0 47 	jmpr    r31
    1108:	00 00 00 00 	nop
    110c:	00 00 00 00 	nop

00001110 <OS_HeapRegister>:
    1110:	fc ff bd 07 	addi    r29,r29,0xfffc
    1114:	00 00 dd 37 	sw      0x0000(r29),r30
    1118:	05 e8 c0 03 	orr     r30,r0,r29
    111c:	f8 ff bd 07 	addi    r29,r29,0xfff8
    1120:	fc ff 9e 34 	sw      0xfffc(r30),r4
    1124:	f8 ff be 34 	sw      0xfff8(r30),r5
    1128:	fc ff be 30 	lw      r5,0xfffc(r30)
    112c:	07 00 80 18 	ori     r4,r0,0x0007
    1130:	02 20 05 00 	sub     r0,r5,r4
    1134:	08 00 00 42 	bhi     0x00001154
    1138:	01 00 a0 2c 	ldih    r5,0x0001
    113c:	10 33 a5 18 	ori     r5,r5,0x3310
    1140:	fc ff 9e 30 	lw      r4,0xfffc(r30)
    1144:	02 00 84 20 	lsli    r4,r4,0x0002
    1148:	00 28 a4 00 	add     r5,r4,r5
    114c:	f8 ff 9e 30 	lw      r4,0xfff8(r30)
    1150:	00 00 85 34 	sw      0x0000(r5),r4
    1154:	08 00 bd 07 	addi    r29,r29,0x0008
    1158:	05 f0 a0 03 	orr     r29,r0,r30
    115c:	04 00 bd 07 	addi    r29,r29,0x0004
    1160:	fc ff dd 33 	lw      r30,0xfffc(r29)
    1164:	00 00 e0 47 	jmpr    r31
    1168:	00 00 00 00 	nop
    116c:	00 00 00 00 	nop

00001170 <_strlen>:
    1170:	fc ff bd 07 	addi    r29,r29,0xfffc
    1174:	00 00 dd 37 	sw      0x0000(r29),r30
    1178:	05 e8 c0 03 	orr     r30,r0,r29
    117c:	f8 ff bd 07 	addi    r29,r29,0xfff8
    1180:	fc ff 9e 34 	sw      0xfffc(r30),r4
    1184:	00 00 80 18 	ori     r4,r0,0x0000
    1188:	f8 ff 9e 34 	sw      0xfff8(r30),r4
    118c:	fc ff be 30 	lw      r5,0xfffc(r30)
    1190:	f8 ff 9e 30 	lw      r4,0xfff8(r30)
    1194:	00 20 85 00 	add     r4,r5,r4
    1198:	00 00 84 38 	lb      r4,0x0000(r4)
    119c:	18 00 84 20 	lsli    r4,r4,0x0018
    11a0:	18 00 84 24 	lsri    r4,r4,0x0018
    11a4:	00 00 a0 18 	ori     r5,r0,0x0000
    11a8:	02 28 04 00 	sub     r0,r4,r5
    11ac:	05 00 00 40 	beq     0x000011c0
    11b0:	f8 ff 9e 30 	lw      r4,0xfff8(r30)
    11b4:	01 00 84 04 	addi    r4,r4,0x0001
    11b8:	f8 ff 9e 34 	sw      0xfff8(r30),r4
    11bc:	63 04 00 80 	ajmp    0x0000118c
    11c0:	f8 ff 9e 30 	lw      r4,0xfff8(r30)
    11c4:	05 20 40 00 	orr     r2,r0,r4
    11c8:	08 00 bd 07 	addi    r29,r29,0x0008
    11cc:	05 f0 a0 03 	orr     r29,r0,r30
    11d0:	04 00 bd 07 	addi    r29,r29,0x0004
    11d4:	fc ff dd 33 	lw      r30,0xfffc(r29)
    11d8:	00 00 e0 47 	jmpr    r31
    11dc:	00 00 00 00 	nop

000011e0 <_is_digit>:
    11e0:	fc ff bd 07 	addi    r29,r29,0xfffc
    11e4:	00 00 dd 37 	sw      0x0000(r29),r30
    11e8:	05 e8 c0 03 	orr     r30,r0,r29
    11ec:	f8 ff bd 07 	addi    r29,r29,0xfff8
    11f0:	ff ff 9e 3c 	sb      0xffff(r30),r4
    11f4:	00 00 80 18 	ori     r4,r0,0x0000
    11f8:	f8 ff 9e 34 	sw      0xfff8(r30),r4
    11fc:	ff ff 9e 38 	lb      r4,0xffff(r30)
    1200:	18 00 84 20 	lsli    r4,r4,0x0018
    1204:	18 00 84 24 	lsri    r4,r4,0x0018
    1208:	2f 00 a0 18 	ori     r5,r0,0x002f
    120c:	02 28 04 00 	sub     r0,r4,r5
    1210:	09 00 40 42 	bls     0x00001234
    1214:	ff ff 9e 38 	lb      r4,0xffff(r30)
    1218:	18 00 84 20 	lsli    r4,r4,0x0018
    121c:	18 00 84 24 	lsri    r4,r4,0x0018
    1220:	39 00 a0 18 	ori     r5,r0,0x0039
    1224:	02 28 04 00 	sub     r0,r4,r5
    1228:	03 00 00 42 	bhi     0x00001234
    122c:	01 00 80 18 	ori     r4,r0,0x0001
    1230:	f8 ff 9e 34 	sw      0xfff8(r30),r4
    1234:	f8 ff 9e 30 	lw      r4,0xfff8(r30)
    1238:	05 20 40 00 	orr     r2,r0,r4
    123c:	08 00 bd 07 	addi    r29,r29,0x0008
    1240:	05 f0 a0 03 	orr     r29,r0,r30
    1244:	04 00 bd 07 	addi    r29,r29,0x0004
    1248:	fc ff dd 33 	lw      r30,0xfffc(r29)
    124c:	00 00 e0 47 	jmpr    r31

00001250 <_atoi>:
    1250:	f8 ff bd 07 	addi    r29,r29,0xfff8
    1254:	00 00 dd 37 	sw      0x0000(r29),r30
    1258:	04 00 fd 37 	sw      0x0004(r29),r31
    125c:	05 e8 c0 03 	orr     r30,r0,r29
    1260:	f8 ff bd 07 	addi    r29,r29,0xfff8
    1264:	fc ff 9e 34 	sw      0xfffc(r30),r4
    1268:	00 00 80 18 	ori     r4,r0,0x0000
    126c:	f8 ff 9e 34 	sw      0xfff8(r30),r4
    1270:	fc ff 9e 30 	lw      r4,0xfffc(r30)
    1274:	00 00 84 30 	lw      r4,0x0000(r4)
    1278:	00 00 84 38 	lb      r4,0x0000(r4)
    127c:	78 04 00 c0 	ajal    0x000011e0
    1280:	05 10 a0 00 	orr     r5,r0,r2
    1284:	00 00 80 18 	ori     r4,r0,0x0000
    1288:	02 20 05 00 	sub     r0,r5,r4
    128c:	12 00 00 40 	beq     0x000012d4
    1290:	f8 ff be 30 	lw      r5,0xfff8(r30)
    1294:	05 28 80 00 	orr     r4,r0,r5
    1298:	03 00 84 20 	lsli    r4,r4,0x0003
    129c:	00 28 84 00 	add     r4,r4,r5
    12a0:	00 28 c4 00 	add     r6,r4,r5
    12a4:	fc ff fe 30 	lw      r7,0xfffc(r30)
    12a8:	00 00 a7 30 	lw      r5,0x0000(r7)
    12ac:	05 28 80 00 	orr     r4,r0,r5
    12b0:	00 00 84 38 	lb      r4,0x0000(r4)
    12b4:	18 00 84 20 	lsli    r4,r4,0x0018
    12b8:	18 00 84 24 	lsri    r4,r4,0x0018
    12bc:	00 20 86 00 	add     r4,r6,r4
    12c0:	d0 ff 84 04 	addi    r4,r4,0xffd0
    12c4:	01 00 a5 04 	addi    r5,r5,0x0001
    12c8:	00 00 a7 34 	sw      0x0000(r7),r5
    12cc:	f8 ff 9e 34 	sw      0xfff8(r30),r4
    12d0:	9c 04 00 80 	ajmp    0x00001270
    12d4:	f8 ff 9e 30 	lw      r4,0xfff8(r30)
    12d8:	05 20 40 00 	orr     r2,r0,r4
    12dc:	08 00 bd 07 	addi    r29,r29,0x0008
    12e0:	05 f0 a0 03 	orr     r29,r0,r30
    12e4:	08 00 bd 07 	addi    r29,r29,0x0008
    12e8:	fc ff fd 33 	lw      r31,0xfffc(r29)
    12ec:	f8 ff dd 33 	lw      r30,0xfff8(r29)
    12f0:	00 00 e0 47 	jmpr    r31
    12f4:	00 00 00 00 	nop
    12f8:	00 00 00 00 	nop
    12fc:	00 00 00 00 	nop

00001300 <_ntoa>:
    1300:	fc ff bd 07 	addi    r29,r29,0xfffc
    1304:	00 00 dd 37 	sw      0x0000(r29),r30
    1308:	05 e8 c0 03 	orr     r30,r0,r29
    130c:	9c ff bd 07 	addi    r29,r29,0xff9c
    1310:	fc ff 9e 34 	sw      0xfffc(r30),r4
    1314:	f8 ff be 34 	sw      0xfff8(r30),r5
    1318:	f4 ff de 34 	sw      0xfff4(r30),r6
    131c:	f0 ff fe 34 	sw      0xfff0(r30),r7
    1320:	00 00 80 18 	ori     r4,r0,0x0000
    1324:	cc ff 9e 34 	sw      0xffcc(r30),r4
    1328:	00 00 80 18 	ori     r4,r0,0x0000
    132c:	c8 ff 9e 34 	sw      0xffc8(r30),r4
    1330:	f8 ff 9e 30 	lw      r4,0xfff8(r30)
    1334:	c0 ff 9e 34 	sw      0xffc0(r30),r4
    1338:	04 00 be 30 	lw      r5,0x0004(r30)
    133c:	00 00 80 18 	ori     r4,r0,0x0000
    1340:	02 20 05 00 	sub     r0,r5,r4
    1344:	04 00 40 40 	bne     0x00001354
    1348:	00 00 80 18 	ori     r4,r0,0x0000
    134c:	b4 ff 9e 34 	sw      0xffb4(r30),r4
    1350:	9c 06 00 80 	ajmp    0x00001a70
    1354:	f0 ff be 30 	lw      r5,0xfff0(r30)
    1358:	10 00 80 18 	ori     r4,r0,0x0010
    135c:	02 20 05 00 	sub     r0,r5,r4
    1360:	04 00 40 42 	bls     0x00001370
    1364:	00 00 a0 18 	ori     r5,r0,0x0000
    1368:	b4 ff be 34 	sw      0xffb4(r30),r5
    136c:	9c 06 00 80 	ajmp    0x00001a70
    1370:	fc ff be 30 	lw      r5,0xfffc(r30)
    1374:	00 00 80 18 	ori     r4,r0,0x0000
    1378:	02 20 05 00 	sub     r0,r5,r4
    137c:	4e 00 40 40 	bne     0x000014b4
    1380:	f8 ff be 30 	lw      r5,0xfff8(r30)
    1384:	00 00 80 18 	ori     r4,r0,0x0000
    1388:	02 20 05 00 	sub     r0,r5,r4
    138c:	06 00 80 42 	bge     0x000013a4
    1390:	01 00 80 18 	ori     r4,r0,0x0001
    1394:	c8 ff 9e 34 	sw      0xffc8(r30),r4
    1398:	f8 ff 9e 30 	lw      r4,0xfff8(r30)
    139c:	02 20 80 00 	sub     r4,r0,r4
    13a0:	f8 ff 9e 34 	sw      0xfff8(r30),r4
    13a4:	10 00 9e 30 	lw      r4,0x0010(r30)
    13a8:	08 00 84 24 	lsri    r4,r4,0x0008
    13ac:	01 00 a4 14 	andi    r5,r4,0x0001
    13b0:	00 00 80 18 	ori     r4,r0,0x0000
    13b4:	02 20 05 00 	sub     r0,r5,r4
    13b8:	06 00 00 40 	beq     0x000013d0
    13bc:	f8 ff be 30 	lw      r5,0xfff8(r30)
    13c0:	00 00 80 18 	ori     r4,r0,0x0000
    13c4:	02 20 05 00 	sub     r0,r5,r4
    13c8:	02 00 40 40 	bne     0x000013d0
    13cc:	73 05 00 80 	ajmp    0x000015cc
    13d0:	f8 ff be 30 	lw      r5,0xfff8(r30)
    13d4:	f0 ff 9e 30 	lw      r4,0xfff0(r30)
    13d8:	0c 20 85 00 	mod     r4,r5,r4
    13dc:	bf ff 9e 3c 	sb      0xffbf(r30),r4
    13e0:	cc ff de 04 	addi    r6,r30,0xffcc
    13e4:	00 00 86 30 	lw      r4,0x0000(r6)
    13e8:	05 20 a0 00 	orr     r5,r0,r4
    13ec:	00 f0 a5 00 	add     r5,r5,r30
    13f0:	d0 ff a5 04 	addi    r5,r5,0xffd0
    13f4:	b0 ff be 34 	sw      0xffb0(r30),r5
    13f8:	01 00 84 04 	addi    r4,r4,0x0001
    13fc:	00 00 86 34 	sw      0x0000(r6),r4
    1400:	bf ff 9e 38 	lb      r4,0xffbf(r30)
    1404:	18 00 84 20 	lsli    r4,r4,0x0018
    1408:	18 00 84 24 	lsri    r4,r4,0x0018
    140c:	09 00 a0 18 	ori     r5,r0,0x0009
    1410:	02 28 04 00 	sub     r0,r4,r5
    1414:	05 00 00 42 	bhi     0x00001428
    1418:	bf ff 9e 38 	lb      r4,0xffbf(r30)
    141c:	30 00 84 04 	addi    r4,r4,0x0030
    1420:	af ff 9e 3c 	sb      0xffaf(r30),r4
    1424:	1d 05 00 80 	ajmp    0x00001474
    1428:	bf ff 9e 38 	lb      r4,0xffbf(r30)
    142c:	18 00 84 20 	lsli    r4,r4,0x0018
    1430:	a8 ff 9e 34 	sw      0xffa8(r30),r4
    1434:	a8 ff de 30 	lw      r6,0xffa8(r30)
    1438:	18 00 c6 24 	lsri    r6,r6,0x0018
    143c:	a8 ff de 34 	sw      0xffa8(r30),r6
    1440:	10 00 9e 30 	lw      r4,0x0010(r30)
    1444:	05 00 84 24 	lsri    r4,r4,0x0005
    1448:	01 00 a4 14 	andi    r5,r4,0x0001
    144c:	00 00 80 18 	ori     r4,r0,0x0000
    1450:	02 20 05 00 	sub     r0,r5,r4
    1454:	05 00 00 40 	beq     0x00001468
    1458:	a8 ff fe 30 	lw      r7,0xffa8(r30)
    145c:	37 00 87 04 	addi    r4,r7,0x0037
    1460:	af ff 9e 3c 	sb      0xffaf(r30),r4
    1464:	1d 05 00 80 	ajmp    0x00001474
    1468:	a8 ff be 30 	lw      r5,0xffa8(r30)
    146c:	57 00 85 04 	addi    r4,r5,0x0057
    1470:	af ff 9e 3c 	sb      0xffaf(r30),r4
    1474:	af ff fe 38 	lb      r7,0xffaf(r30)
    1478:	b0 ff de 30 	lw      r6,0xffb0(r30)
    147c:	00 00 e6 3c 	sb      0x0000(r6),r7
    1480:	f8 ff be 30 	lw      r5,0xfff8(r30)
    1484:	f0 ff 9e 30 	lw      r4,0xfff0(r30)
    1488:	0b 20 85 00 	div     r4,r5,r4
    148c:	f8 ff 9e 34 	sw      0xfff8(r30),r4
    1490:	cc ff be 30 	lw      r5,0xffcc(r30)
    1494:	1f 00 80 18 	ori     r4,r0,0x001f
    1498:	02 20 05 00 	sub     r0,r5,r4
    149c:	4c 00 00 42 	bhi     0x000015cc
    14a0:	f8 ff be 30 	lw      r5,0xfff8(r30)
    14a4:	00 00 80 18 	ori     r4,r0,0x0000
    14a8:	02 20 05 00 	sub     r0,r5,r4
    14ac:	48 00 40 43 	ble     0x000015cc
    14b0:	f4 04 00 80 	ajmp    0x000013d0
    14b4:	c0 ff 9e 30 	lw      r4,0xffc0(r30)
    14b8:	b8 ff 9e 34 	sw      0xffb8(r30),r4
    14bc:	10 00 9e 30 	lw      r4,0x0010(r30)
    14c0:	08 00 84 24 	lsri    r4,r4,0x0008
    14c4:	01 00 a4 14 	andi    r5,r4,0x0001
    14c8:	00 00 80 18 	ori     r4,r0,0x0000
    14cc:	02 20 05 00 	sub     r0,r5,r4
    14d0:	06 00 00 40 	beq     0x000014e8
    14d4:	b8 ff be 30 	lw      r5,0xffb8(r30)
    14d8:	00 00 80 18 	ori     r4,r0,0x0000
    14dc:	02 20 05 00 	sub     r0,r5,r4
    14e0:	02 00 40 40 	bne     0x000014e8
    14e4:	73 05 00 80 	ajmp    0x000015cc
    14e8:	b8 ff be 30 	lw      r5,0xffb8(r30)
    14ec:	f0 ff 9e 30 	lw      r4,0xfff0(r30)
    14f0:	0f 20 85 00 	modu    r4,r5,r4
    14f4:	bf ff 9e 3c 	sb      0xffbf(r30),r4
    14f8:	cc ff de 04 	addi    r6,r30,0xffcc
    14fc:	00 00 86 30 	lw      r4,0x0000(r6)
    1500:	05 20 a0 00 	orr     r5,r0,r4
    1504:	00 f0 a5 00 	add     r5,r5,r30
    1508:	d0 ff a5 04 	addi    r5,r5,0xffd0
    150c:	a4 ff be 34 	sw      0xffa4(r30),r5
    1510:	01 00 84 04 	addi    r4,r4,0x0001
    1514:	00 00 86 34 	sw      0x0000(r6),r4
    1518:	bf ff 9e 38 	lb      r4,0xffbf(r30)
    151c:	18 00 84 20 	lsli    r4,r4,0x0018
    1520:	18 00 84 24 	lsri    r4,r4,0x0018
    1524:	09 00 a0 18 	ori     r5,r0,0x0009
    1528:	02 28 04 00 	sub     r0,r4,r5
    152c:	05 00 00 42 	bhi     0x00001540
    1530:	bf ff 9e 38 	lb      r4,0xffbf(r30)
    1534:	30 00 84 04 	addi    r4,r4,0x0030
    1538:	a3 ff 9e 3c 	sb      0xffa3(r30),r4
    153c:	63 05 00 80 	ajmp    0x0000158c
    1540:	bf ff 9e 38 	lb      r4,0xffbf(r30)
    1544:	18 00 84 20 	lsli    r4,r4,0x0018
    1548:	9c ff 9e 34 	sw      0xff9c(r30),r4
    154c:	9c ff 9e 30 	lw      r4,0xff9c(r30)
    1550:	18 00 84 24 	lsri    r4,r4,0x0018
    1554:	9c ff 9e 34 	sw      0xff9c(r30),r4
    1558:	10 00 9e 30 	lw      r4,0x0010(r30)
    155c:	05 00 84 24 	lsri    r4,r4,0x0005
    1560:	01 00 a4 14 	andi    r5,r4,0x0001
    1564:	00 00 80 18 	ori     r4,r0,0x0000
    1568:	02 20 05 00 	sub     r0,r5,r4
    156c:	05 00 00 40 	beq     0x00001580
    1570:	9c ff be 30 	lw      r5,0xff9c(r30)
    1574:	37 00 85 04 	addi    r4,r5,0x0037
    1578:	a3 ff 9e 3c 	sb      0xffa3(r30),r4
    157c:	63 05 00 80 	ajmp    0x0000158c
    1580:	9c ff de 30 	lw      r6,0xff9c(r30)
    1584:	57 00 86 04 	addi    r4,r6,0x0057
    1588:	a3 ff 9e 3c 	sb      0xffa3(r30),r4
    158c:	a3 ff 9e 38 	lb      r4,0xffa3(r30)
    1590:	a4 ff fe 30 	lw      r7,0xffa4(r30)
    1594:	00 00 87 3c 	sb      0x0000(r7),r4
    1598:	b8 ff be 30 	lw      r5,0xffb8(r30)
    159c:	f0 ff 9e 30 	lw      r4,0xfff0(r30)
    15a0:	0e 20 85 00 	divu    r4,r5,r4
    15a4:	b8 ff 9e 34 	sw      0xffb8(r30),r4
    15a8:	cc ff be 30 	lw      r5,0xffcc(r30)
    15ac:	1f 00 80 18 	ori     r4,r0,0x001f
    15b0:	02 20 05 00 	sub     r0,r5,r4
    15b4:	06 00 00 42 	bhi     0x000015cc
    15b8:	b8 ff be 30 	lw      r5,0xffb8(r30)
    15bc:	00 00 80 18 	ori     r4,r0,0x0000
    15c0:	02 20 05 00 	sub     r0,r5,r4
    15c4:	02 00 00 40 	beq     0x000015cc
    15c8:	3a 05 00 80 	ajmp    0x000014e8
    15cc:	10 00 9e 30 	lw      r4,0x0010(r30)
    15d0:	01 00 84 24 	lsri    r4,r4,0x0001
    15d4:	01 00 a4 14 	andi    r5,r4,0x0001
    15d8:	00 00 80 18 	ori     r4,r0,0x0000
    15dc:	02 20 05 00 	sub     r0,r5,r4
    15e0:	13 00 40 40 	bne     0x0000162c
    15e4:	cc ff be 30 	lw      r5,0xffcc(r30)
    15e8:	08 00 9e 30 	lw      r4,0x0008(r30)
    15ec:	02 20 05 00 	sub     r0,r5,r4
    15f0:	0f 00 00 41 	bhs     0x0000162c
    15f4:	cc ff be 30 	lw      r5,0xffcc(r30)
    15f8:	1f 00 80 18 	ori     r4,r0,0x001f
    15fc:	02 20 05 00 	sub     r0,r5,r4
    1600:	0b 00 00 42 	bhi     0x0000162c
    1604:	cc ff de 04 	addi    r6,r30,0xffcc
    1608:	00 00 a6 30 	lw      r5,0x0000(r6)
    160c:	05 28 80 00 	orr     r4,r0,r5
    1610:	00 f0 84 00 	add     r4,r4,r30
    1614:	d0 ff 84 04 	addi    r4,r4,0xffd0
    1618:	30 00 e0 18 	ori     r7,r0,0x0030
    161c:	00 00 e4 3c 	sb      0x0000(r4),r7
    1620:	01 00 a5 04 	addi    r5,r5,0x0001
    1624:	00 00 a6 34 	sw      0x0000(r6),r5
    1628:	73 05 00 80 	ajmp    0x000015cc
    162c:	10 00 9e 30 	lw      r4,0x0010(r30)
    1630:	01 00 84 24 	lsri    r4,r4,0x0001
    1634:	01 00 a4 14 	andi    r5,r4,0x0001
    1638:	00 00 80 18 	ori     r4,r0,0x0000
    163c:	02 20 05 00 	sub     r0,r5,r4
    1640:	18 00 40 40 	bne     0x000016a0
    1644:	10 00 9e 30 	lw      r4,0x0010(r30)
    1648:	01 00 a4 14 	andi    r5,r4,0x0001
    164c:	00 00 80 18 	ori     r4,r0,0x0000
    1650:	02 20 05 00 	sub     r0,r5,r4
    1654:	13 00 00 40 	beq     0x000016a0
    1658:	cc ff be 30 	lw      r5,0xffcc(r30)
    165c:	0c 00 9e 30 	lw      r4,0x000c(r30)
    1660:	02 20 05 00 	sub     r0,r5,r4
    1664:	0f 00 00 41 	bhs     0x000016a0
    1668:	cc ff be 30 	lw      r5,0xffcc(r30)
    166c:	1f 00 80 18 	ori     r4,r0,0x001f
    1670:	02 20 05 00 	sub     r0,r5,r4
    1674:	0b 00 00 42 	bhi     0x000016a0
    1678:	cc ff de 04 	addi    r6,r30,0xffcc
    167c:	00 00 a6 30 	lw      r5,0x0000(r6)
    1680:	05 28 80 00 	orr     r4,r0,r5
    1684:	00 f0 84 00 	add     r4,r4,r30
    1688:	d0 ff 84 04 	addi    r4,r4,0xffd0
    168c:	30 00 e0 18 	ori     r7,r0,0x0030
    1690:	00 00 e4 3c 	sb      0x0000(r4),r7
    1694:	01 00 a5 04 	addi    r5,r5,0x0001
    1698:	00 00 a6 34 	sw      0x0000(r6),r5
    169c:	8b 05 00 80 	ajmp    0x0000162c
    16a0:	10 00 9e 30 	lw      r4,0x0010(r30)
    16a4:	04 00 84 24 	lsri    r4,r4,0x0004
    16a8:	01 00 a4 14 	andi    r5,r4,0x0001
    16ac:	00 00 80 18 	ori     r4,r0,0x0000
    16b0:	02 20 05 00 	sub     r0,r5,r4
    16b4:	57 00 00 40 	beq     0x00001810
    16b8:	cc ff be 30 	lw      r5,0xffcc(r30)
    16bc:	08 00 9e 30 	lw      r4,0x0008(r30)
    16c0:	02 20 05 00 	sub     r0,r5,r4
    16c4:	06 00 00 40 	beq     0x000016dc
    16c8:	cc ff be 30 	lw      r5,0xffcc(r30)
    16cc:	0c 00 9e 30 	lw      r4,0x000c(r30)
    16d0:	02 20 05 00 	sub     r0,r5,r4
    16d4:	02 00 00 40 	beq     0x000016dc
    16d8:	c9 05 00 80 	ajmp    0x00001724
    16dc:	cc ff be 30 	lw      r5,0xffcc(r30)
    16e0:	00 00 80 18 	ori     r4,r0,0x0000
    16e4:	02 20 05 00 	sub     r0,r5,r4
    16e8:	0f 00 00 40 	beq     0x00001724
    16ec:	cc ff 9e 30 	lw      r4,0xffcc(r30)
    16f0:	ff ff 84 04 	addi    r4,r4,0xffff
    16f4:	cc ff 9e 34 	sw      0xffcc(r30),r4
    16f8:	f0 ff be 30 	lw      r5,0xfff0(r30)
    16fc:	10 00 80 18 	ori     r4,r0,0x0010
    1700:	02 20 05 00 	sub     r0,r5,r4
    1704:	08 00 40 40 	bne     0x00001724
    1708:	cc ff be 30 	lw      r5,0xffcc(r30)
    170c:	00 00 80 18 	ori     r4,r0,0x0000
    1710:	02 20 05 00 	sub     r0,r5,r4
    1714:	04 00 00 40 	beq     0x00001724
    1718:	cc ff 9e 30 	lw      r4,0xffcc(r30)
    171c:	ff ff 84 04 	addi    r4,r4,0xffff
    1720:	cc ff 9e 34 	sw      0xffcc(r30),r4
    1724:	f0 ff be 30 	lw      r5,0xfff0(r30)
    1728:	10 00 80 18 	ori     r4,r0,0x0010
    172c:	02 20 05 00 	sub     r0,r5,r4
    1730:	14 00 40 40 	bne     0x00001780
    1734:	10 00 9e 30 	lw      r4,0x0010(r30)
    1738:	05 00 84 24 	lsri    r4,r4,0x0005
    173c:	01 00 a4 14 	andi    r5,r4,0x0001
    1740:	00 00 80 18 	ori     r4,r0,0x0000
    1744:	02 20 05 00 	sub     r0,r5,r4
    1748:	0e 00 40 40 	bne     0x00001780
    174c:	cc ff be 30 	lw      r5,0xffcc(r30)
    1750:	1f 00 80 18 	ori     r4,r0,0x001f
    1754:	02 20 05 00 	sub     r0,r5,r4
    1758:	0a 00 00 42 	bhi     0x00001780
    175c:	cc ff de 04 	addi    r6,r30,0xffcc
    1760:	00 00 a6 30 	lw      r5,0x0000(r6)
    1764:	05 28 80 00 	orr     r4,r0,r5
    1768:	00 f0 84 00 	add     r4,r4,r30
    176c:	d0 ff 84 04 	addi    r4,r4,0xffd0
    1770:	78 00 e0 18 	ori     r7,r0,0x0078
    1774:	00 00 e4 3c 	sb      0x0000(r4),r7
    1778:	01 00 a5 04 	addi    r5,r5,0x0001
    177c:	00 00 a6 34 	sw      0x0000(r6),r5
    1780:	f0 ff be 30 	lw      r5,0xfff0(r30)
    1784:	10 00 80 18 	ori     r4,r0,0x0010
    1788:	02 20 05 00 	sub     r0,r5,r4
    178c:	14 00 40 40 	bne     0x000017dc
    1790:	10 00 9e 30 	lw      r4,0x0010(r30)
    1794:	05 00 84 24 	lsri    r4,r4,0x0005
    1798:	01 00 a4 14 	andi    r5,r4,0x0001
    179c:	00 00 80 18 	ori     r4,r0,0x0000
    17a0:	02 20 05 00 	sub     r0,r5,r4
    17a4:	0e 00 00 40 	beq     0x000017dc
    17a8:	cc ff be 30 	lw      r5,0xffcc(r30)
    17ac:	1f 00 80 18 	ori     r4,r0,0x001f
    17b0:	02 20 05 00 	sub     r0,r5,r4
    17b4:	0a 00 00 42 	bhi     0x000017dc
    17b8:	cc ff de 04 	addi    r6,r30,0xffcc
    17bc:	00 00 a6 30 	lw      r5,0x0000(r6)
    17c0:	05 28 80 00 	orr     r4,r0,r5
    17c4:	00 f0 84 00 	add     r4,r4,r30
    17c8:	d0 ff 84 04 	addi    r4,r4,0xffd0
    17cc:	58 00 e0 18 	ori     r7,r0,0x0058
    17d0:	00 00 e4 3c 	sb      0x0000(r4),r7
    17d4:	01 00 a5 04 	addi    r5,r5,0x0001
    17d8:	00 00 a6 34 	sw      0x0000(r6),r5
    17dc:	cc ff be 30 	lw      r5,0xffcc(r30)
    17e0:	1f 00 80 18 	ori     r4,r0,0x001f
    17e4:	02 20 05 00 	sub     r0,r5,r4
    17e8:	0a 00 00 42 	bhi     0x00001810
    17ec:	cc ff de 04 	addi    r6,r30,0xffcc
    17f0:	00 00 a6 30 	lw      r5,0x0000(r6)
    17f4:	05 28 80 00 	orr     r4,r0,r5
    17f8:	00 f0 84 00 	add     r4,r4,r30
    17fc:	d0 ff 84 04 	addi    r4,r4,0xffd0
    1800:	30 00 e0 18 	ori     r7,r0,0x0030
    1804:	00 00 e4 3c 	sb      0x0000(r4),r7
    1808:	01 00 a5 04 	addi    r5,r5,0x0001
    180c:	00 00 a6 34 	sw      0x0000(r6),r5
    1810:	cc ff be 30 	lw      r5,0xffcc(r30)
    1814:	0c 00 9e 30 	lw      r4,0x000c(r30)
    1818:	02 20 05 00 	sub     r0,r5,r4
    181c:	15 00 40 40 	bne     0x00001870
    1820:	c8 ff be 30 	lw      r5,0xffc8(r30)
    1824:	00 00 80 18 	ori     r4,r0,0x0000
    1828:	02 20 05 00 	sub     r0,r5,r4
    182c:	0e 00 40 40 	bne     0x00001864
    1830:	10 00 9e 30 	lw      r4,0x0010(r30)
    1834:	02 00 84 24 	lsri    r4,r4,0x0002
    1838:	01 00 a4 14 	andi    r5,r4,0x0001
    183c:	00 00 80 18 	ori     r4,r0,0x0000
    1840:	02 20 05 00 	sub     r0,r5,r4
    1844:	08 00 40 40 	bne     0x00001864
    1848:	10 00 9e 30 	lw      r4,0x0010(r30)
    184c:	03 00 84 24 	lsri    r4,r4,0x0003
    1850:	01 00 a4 14 	andi    r5,r4,0x0001
    1854:	00 00 80 18 	ori     r4,r0,0x0000
    1858:	02 20 05 00 	sub     r0,r5,r4
    185c:	02 00 40 40 	bne     0x00001864
    1860:	1c 06 00 80 	ajmp    0x00001870
    1864:	cc ff 9e 30 	lw      r4,0xffcc(r30)
    1868:	ff ff 84 04 	addi    r4,r4,0xffff
    186c:	cc ff 9e 34 	sw      0xffcc(r30),r4
    1870:	cc ff be 30 	lw      r5,0xffcc(r30)
    1874:	1f 00 80 18 	ori     r4,r0,0x001f
    1878:	02 20 05 00 	sub     r0,r5,r4
    187c:	2e 00 00 42 	bhi     0x00001934
    1880:	c8 ff be 30 	lw      r5,0xffc8(r30)
    1884:	00 00 80 18 	ori     r4,r0,0x0000
    1888:	02 20 05 00 	sub     r0,r5,r4
    188c:	0b 00 00 40 	beq     0x000018b8
    1890:	cc ff de 04 	addi    r6,r30,0xffcc
    1894:	00 00 a6 30 	lw      r5,0x0000(r6)
    1898:	05 28 80 00 	orr     r4,r0,r5
    189c:	00 f0 84 00 	add     r4,r4,r30
    18a0:	d0 ff 84 04 	addi    r4,r4,0xffd0
    18a4:	2d 00 e0 18 	ori     r7,r0,0x002d
    18a8:	00 00 e4 3c 	sb      0x0000(r4),r7
    18ac:	01 00 a5 04 	addi    r5,r5,0x0001
    18b0:	00 00 a6 34 	sw      0x0000(r6),r5
    18b4:	4d 06 00 80 	ajmp    0x00001934
    18b8:	10 00 9e 30 	lw      r4,0x0010(r30)
    18bc:	02 00 84 24 	lsri    r4,r4,0x0002
    18c0:	01 00 a4 14 	andi    r5,r4,0x0001
    18c4:	00 00 80 18 	ori     r4,r0,0x0000
    18c8:	02 20 05 00 	sub     r0,r5,r4
    18cc:	0b 00 00 40 	beq     0x000018f8
    18d0:	cc ff de 04 	addi    r6,r30,0xffcc
    18d4:	00 00 a6 30 	lw      r5,0x0000(r6)
    18d8:	05 28 80 00 	orr     r4,r0,r5
    18dc:	00 f0 84 00 	add     r4,r4,r30
    18e0:	d0 ff 84 04 	addi    r4,r4,0xffd0
    18e4:	2b 00 e0 18 	ori     r7,r0,0x002b
    18e8:	00 00 e4 3c 	sb      0x0000(r4),r7
    18ec:	01 00 a5 04 	addi    r5,r5,0x0001
    18f0:	00 00 a6 34 	sw      0x0000(r6),r5
    18f4:	4d 06 00 80 	ajmp    0x00001934
    18f8:	10 00 9e 30 	lw      r4,0x0010(r30)
    18fc:	03 00 84 24 	lsri    r4,r4,0x0003
    1900:	01 00 a4 14 	andi    r5,r4,0x0001
    1904:	00 00 80 18 	ori     r4,r0,0x0000
    1908:	02 20 05 00 	sub     r0,r5,r4
    190c:	0a 00 00 40 	beq     0x00001934
    1910:	cc ff de 04 	addi    r6,r30,0xffcc
    1914:	00 00 a6 30 	lw      r5,0x0000(r6)
    1918:	05 28 80 00 	orr     r4,r0,r5
    191c:	00 f0 84 00 	add     r4,r4,r30
    1920:	d0 ff 84 04 	addi    r4,r4,0xffd0
    1924:	20 00 e0 18 	ori     r7,r0,0x0020
    1928:	00 00 e4 3c 	sb      0x0000(r4),r7
    192c:	01 00 a5 04 	addi    r5,r5,0x0001
    1930:	00 00 a6 34 	sw      0x0000(r6),r5
    1934:	10 00 9e 30 	lw      r4,0x0010(r30)
    1938:	01 00 84 24 	lsri    r4,r4,0x0001
    193c:	01 00 a4 14 	andi    r5,r4,0x0001
    1940:	00 00 80 18 	ori     r4,r0,0x0000
    1944:	02 20 05 00 	sub     r0,r5,r4
    1948:	18 00 40 40 	bne     0x000019a8
    194c:	10 00 9e 30 	lw      r4,0x0010(r30)
    1950:	01 00 a4 14 	andi    r5,r4,0x0001
    1954:	00 00 80 18 	ori     r4,r0,0x0000
    1958:	02 20 05 00 	sub     r0,r5,r4
    195c:	13 00 40 40 	bne     0x000019a8
    1960:	cc ff be 30 	lw      r5,0xffcc(r30)
    1964:	0c 00 9e 30 	lw      r4,0x000c(r30)
    1968:	02 20 05 00 	sub     r0,r5,r4
    196c:	0f 00 00 41 	bhs     0x000019a8
    1970:	cc ff be 30 	lw      r5,0xffcc(r30)
    1974:	1f 00 80 18 	ori     r4,r0,0x001f
    1978:	02 20 05 00 	sub     r0,r5,r4
    197c:	0b 00 00 42 	bhi     0x000019a8
    1980:	cc ff de 04 	addi    r6,r30,0xffcc
    1984:	00 00 a6 30 	lw      r5,0x0000(r6)
    1988:	05 28 80 00 	orr     r4,r0,r5
    198c:	00 f0 84 00 	add     r4,r4,r30
    1990:	d0 ff 84 04 	addi    r4,r4,0xffd0
    1994:	20 00 e0 18 	ori     r7,r0,0x0020
    1998:	00 00 e4 3c 	sb      0x0000(r4),r7
    199c:	01 00 a5 04 	addi    r5,r5,0x0001
    19a0:	00 00 a6 34 	sw      0x0000(r6),r5
    19a4:	58 06 00 80 	ajmp    0x00001960
    19a8:	00 00 80 18 	ori     r4,r0,0x0000
    19ac:	c4 ff 9e 34 	sw      0xffc4(r30),r4
    19b0:	c4 ff be 30 	lw      r5,0xffc4(r30)
    19b4:	cc ff 9e 30 	lw      r4,0xffcc(r30)
    19b8:	02 20 05 00 	sub     r0,r5,r4
    19bc:	13 00 00 41 	bhs     0x00001a08
    19c0:	c4 ff be 30 	lw      r5,0xffc4(r30)
    19c4:	04 00 9e 30 	lw      r4,0x0004(r30)
    19c8:	02 20 05 00 	sub     r0,r5,r4
    19cc:	0f 00 00 41 	bhs     0x00001a08
    19d0:	f4 ff be 30 	lw      r5,0xfff4(r30)
    19d4:	c4 ff 9e 30 	lw      r4,0xffc4(r30)
    19d8:	00 20 c5 00 	add     r6,r5,r4
    19dc:	cc ff be 30 	lw      r5,0xffcc(r30)
    19e0:	c4 ff 9e 30 	lw      r4,0xffc4(r30)
    19e4:	02 20 a5 00 	sub     r5,r5,r4
    19e8:	cf ff 9e 04 	addi    r4,r30,0xffcf
    19ec:	00 28 84 00 	add     r4,r4,r5
    19f0:	00 00 84 38 	lb      r4,0x0000(r4)
    19f4:	00 00 86 3c 	sb      0x0000(r6),r4
    19f8:	c4 ff 9e 30 	lw      r4,0xffc4(r30)
    19fc:	01 00 84 04 	addi    r4,r4,0x0001
    1a00:	c4 ff 9e 34 	sw      0xffc4(r30),r4
    1a04:	6c 06 00 80 	ajmp    0x000019b0
    1a08:	10 00 9e 30 	lw      r4,0x0010(r30)
    1a0c:	01 00 84 24 	lsri    r4,r4,0x0001
    1a10:	01 00 a4 14 	andi    r5,r4,0x0001
    1a14:	00 00 80 18 	ori     r4,r0,0x0000
    1a18:	02 20 05 00 	sub     r0,r5,r4
    1a1c:	13 00 00 40 	beq     0x00001a68
    1a20:	cc ff be 30 	lw      r5,0xffcc(r30)
    1a24:	0c 00 9e 30 	lw      r4,0x000c(r30)
    1a28:	02 20 05 00 	sub     r0,r5,r4
    1a2c:	0f 00 00 41 	bhs     0x00001a68
    1a30:	cc ff be 30 	lw      r5,0xffcc(r30)
    1a34:	04 00 9e 30 	lw      r4,0x0004(r30)
    1a38:	02 20 05 00 	sub     r0,r5,r4
    1a3c:	0b 00 00 41 	bhs     0x00001a68
    1a40:	cc ff fe 04 	addi    r7,r30,0xffcc
    1a44:	00 00 a7 30 	lw      r5,0x0000(r7)
    1a48:	05 28 c0 00 	orr     r6,r0,r5
    1a4c:	f4 ff 9e 30 	lw      r4,0xfff4(r30)
    1a50:	00 20 86 00 	add     r4,r6,r4
    1a54:	20 00 c0 18 	ori     r6,r0,0x0020
    1a58:	00 00 c4 3c 	sb      0x0000(r4),r6
    1a5c:	01 00 a5 04 	addi    r5,r5,0x0001
    1a60:	00 00 a7 34 	sw      0x0000(r7),r5
    1a64:	88 06 00 80 	ajmp    0x00001a20
    1a68:	cc ff 9e 30 	lw      r4,0xffcc(r30)
    1a6c:	b4 ff 9e 34 	sw      0xffb4(r30),r4
    1a70:	b4 ff 5e 30 	lw      r2,0xffb4(r30)
    1a74:	64 00 bd 07 	addi    r29,r29,0x0064
    1a78:	05 f0 a0 03 	orr     r29,r0,r30
    1a7c:	04 00 bd 07 	addi    r29,r29,0x0004
    1a80:	fc ff dd 33 	lw      r30,0xfffc(r29)
    1a84:	00 00 e0 47 	jmpr    r31
    1a88:	00 00 00 00 	nop
    1a8c:	00 00 00 00 	nop

00001a90 <_ftoa>:
    1a90:	f4 ff bd 07 	addi    r29,r29,0xfff4
    1a94:	00 00 dd 37 	sw      0x0000(r29),r30
    1a98:	04 00 fd 37 	sw      0x0004(r29),r31
    1a9c:	08 00 1d 35 	sw      0x0008(r29),r8
    1aa0:	05 e8 c0 03 	orr     r30,r0,r29
    1aa4:	14 ff bd 07 	addi    r29,r29,0xff14
    1aa8:	f8 ff 9e 34 	sw      0xfff8(r30),r4
    1aac:	fc ff be 34 	sw      0xfffc(r30),r5
    1ab0:	f4 ff de 34 	sw      0xfff4(r30),r6
    1ab4:	f0 ff fe 34 	sw      0xfff0(r30),r7
    1ab8:	c0 ff 80 2c 	ldih    r4,0xffc0
    1abc:	00 00 84 18 	ori     r4,r4,0x0000
    1ac0:	e8 ff 9e 34 	sw      0xffe8(r30),r4
    1ac4:	df 41 80 2c 	ldih    r4,0x41df
    1ac8:	ff ff 84 18 	ori     r4,r4,0xffff
    1acc:	ec ff 9e 34 	sw      0xffec(r30),r4
    1ad0:	00 00 80 18 	ori     r4,r0,0x0000
    1ad4:	c4 ff 9e 34 	sw      0xffc4(r30),r4
    1ad8:	00 00 80 18 	ori     r4,r0,0x0000
    1adc:	bc ff 9e 34 	sw      0xffbc(r30),r4
    1ae0:	00 00 80 18 	ori     r4,r0,0x0000
    1ae4:	c0 ff 9e 34 	sw      0xffc0(r30),r4
    1ae8:	00 00 80 18 	ori     r4,r0,0x0000
    1aec:	b8 ff 9e 34 	sw      0xffb8(r30),r4
    1af0:	f8 ff 9e 30 	lw      r4,0xfff8(r30)
    1af4:	fc ff be 30 	lw      r5,0xfffc(r30)
    1af8:	f8 ff de 30 	lw      r6,0xfff8(r30)
    1afc:	fc ff fe 30 	lw      r7,0xfffc(r30)
    1b00:	a4 28 00 c0 	ajal    0x0000a290
    1b04:	05 10 a0 00 	orr     r5,r0,r2
    1b08:	00 00 80 18 	ori     r4,r0,0x0000
    1b0c:	02 20 05 00 	sub     r0,r5,r4
    1b10:	02 00 40 40 	bne     0x00001b18
    1b14:	d8 06 00 80 	ajmp    0x00001b60
    1b18:	f0 ff be 30 	lw      r5,0xfff0(r30)
    1b1c:	02 00 80 18 	ori     r4,r0,0x0002
    1b20:	02 20 05 00 	sub     r0,r5,r4
    1b24:	0f 00 40 42 	bls     0x00001b60
    1b28:	f4 ff 9e 30 	lw      r4,0xfff4(r30)
    1b2c:	6e 00 a0 18 	ori     r5,r0,0x006e
    1b30:	00 00 a4 3c 	sb      0x0000(r4),r5
    1b34:	f4 ff 9e 30 	lw      r4,0xfff4(r30)
    1b38:	01 00 84 04 	addi    r4,r4,0x0001
    1b3c:	61 00 c0 18 	ori     r6,r0,0x0061
    1b40:	00 00 c4 3c 	sb      0x0000(r4),r6
    1b44:	f4 ff 9e 30 	lw      r4,0xfff4(r30)
    1b48:	02 00 84 04 	addi    r4,r4,0x0002
    1b4c:	6e 00 e0 18 	ori     r7,r0,0x006e
    1b50:	00 00 e4 3c 	sb      0x0000(r4),r7
    1b54:	03 00 80 18 	ori     r4,r0,0x0003
    1b58:	84 ff 9e 34 	sw      0xff84(r30),r4
    1b5c:	1b 09 00 80 	ajmp    0x0000246c
    1b60:	14 00 9e 30 	lw      r4,0x0014(r30)
    1b64:	08 00 84 24 	lsri    r4,r4,0x0008
    1b68:	01 00 a4 14 	andi    r5,r4,0x0001
    1b6c:	00 00 80 18 	ori     r4,r0,0x0000
    1b70:	02 20 05 00 	sub     r0,r5,r4
    1b74:	03 00 40 40 	bne     0x00001b80
    1b78:	06 00 80 18 	ori     r4,r0,0x0006
    1b7c:	0c 00 9e 34 	sw      0x000c(r30),r4
    1b80:	0c 00 be 30 	lw      r5,0x000c(r30)
    1b84:	09 00 80 18 	ori     r4,r0,0x0009
    1b88:	02 20 05 00 	sub     r0,r5,r4
    1b8c:	03 00 40 42 	bls     0x00001b98
    1b90:	09 00 80 18 	ori     r4,r0,0x0009
    1b94:	0c 00 9e 34 	sw      0x000c(r30),r4
    1b98:	f8 ff 9e 30 	lw      r4,0xfff8(r30)
    1b9c:	fc ff be 30 	lw      r5,0xfffc(r30)
    1ba0:	00 00 c0 18 	ori     r6,r0,0x0000
    1ba4:	00 00 e0 18 	ori     r7,r0,0x0000
    1ba8:	f4 28 00 c0 	ajal    0x0000a3d0
    1bac:	05 10 a0 00 	orr     r5,r0,r2
    1bb0:	00 00 80 18 	ori     r4,r0,0x0000
    1bb4:	02 20 05 00 	sub     r0,r5,r4
    1bb8:	02 00 c0 42 	blt     0x00001bc0
    1bbc:	03 07 00 80 	ajmp    0x00001c0c
    1bc0:	01 00 80 18 	ori     r4,r0,0x0001
    1bc4:	b8 ff 9e 34 	sw      0xffb8(r30),r4
    1bc8:	9c ff be 04 	addi    r5,r30,0xff9c
    1bcc:	f8 ff 9e 30 	lw      r4,0xfff8(r30)
    1bd0:	00 00 9d 34 	sw      0x0000(r29),r4
    1bd4:	fc ff 9e 30 	lw      r4,0xfffc(r30)
    1bd8:	04 00 9d 34 	sw      0x0004(r29),r4
    1bdc:	05 28 80 00 	orr     r4,r0,r5
    1be0:	00 00 a0 18 	ori     r5,r0,0x0000
    1be4:	00 00 c0 18 	ori     r6,r0,0x0000
    1be8:	b0 2b 00 c0 	ajal    0x0000aec0
    1bec:	9c ff be 30 	lw      r5,0xff9c(r30)
    1bf0:	7c ff be 34 	sw      0xff7c(r30),r5
    1bf4:	a0 ff de 30 	lw      r6,0xffa0(r30)
    1bf8:	80 ff de 34 	sw      0xff80(r30),r6
    1bfc:	7c ff fe 30 	lw      r7,0xff7c(r30)
    1c00:	f8 ff fe 34 	sw      0xfff8(r30),r7
    1c04:	80 ff 9e 30 	lw      r4,0xff80(r30)
    1c08:	fc ff 9e 34 	sw      0xfffc(r30),r4
    1c0c:	f8 ff 9e 30 	lw      r4,0xfff8(r30)
    1c10:	fc ff be 30 	lw      r5,0xfffc(r30)
    1c14:	dc 2b 00 c0 	ajal    0x0000af70
    1c18:	05 10 80 00 	orr     r4,r0,r2
    1c1c:	b4 ff 9e 34 	sw      0xffb4(r30),r4
    1c20:	9c ff 9e 04 	addi    r4,r30,0xff9c
    1c24:	b4 ff be 30 	lw      r5,0xffb4(r30)
    1c28:	98 2c 00 c0 	ajal    0x0000b260
    1c2c:	9c ff be 30 	lw      r5,0xff9c(r30)
    1c30:	74 ff be 34 	sw      0xff74(r30),r5
    1c34:	a0 ff de 30 	lw      r6,0xffa0(r30)
    1c38:	78 ff de 34 	sw      0xff78(r30),r6
    1c3c:	94 ff 9e 04 	addi    r4,r30,0xff94
    1c40:	74 ff fe 30 	lw      r7,0xff74(r30)
    1c44:	00 00 fd 34 	sw      0x0000(r29),r7
    1c48:	78 ff be 30 	lw      r5,0xff78(r30)
    1c4c:	04 00 bd 34 	sw      0x0004(r29),r5
    1c50:	f8 ff be 30 	lw      r5,0xfff8(r30)
    1c54:	fc ff de 30 	lw      r6,0xfffc(r30)
    1c58:	b0 2b 00 c0 	ajal    0x0000aec0
    1c5c:	94 ff de 30 	lw      r6,0xff94(r30)
    1c60:	6c ff de 34 	sw      0xff6c(r30),r6
    1c64:	98 ff fe 30 	lw      r7,0xff98(r30)
    1c68:	70 ff fe 34 	sw      0xff70(r30),r7
    1c6c:	01 00 a0 2c 	ldih    r5,0x0001
    1c70:	a0 6e a5 18 	ori     r5,r5,0x6ea0
    1c74:	0c 00 9e 30 	lw      r4,0x000c(r30)
    1c78:	03 00 84 20 	lsli    r4,r4,0x0003
    1c7c:	00 28 84 00 	add     r4,r4,r5
    1c80:	00 00 a4 30 	lw      r5,0x0000(r4)
    1c84:	64 ff be 34 	sw      0xff64(r30),r5
    1c88:	04 00 84 30 	lw      r4,0x0004(r4)
    1c8c:	68 ff 9e 34 	sw      0xff68(r30),r4
    1c90:	8c ff 9e 04 	addi    r4,r30,0xff8c
    1c94:	64 ff de 30 	lw      r6,0xff64(r30)
    1c98:	00 00 dd 34 	sw      0x0000(r29),r6
    1c9c:	68 ff fe 30 	lw      r7,0xff68(r30)
    1ca0:	04 00 fd 34 	sw      0x0004(r29),r7
    1ca4:	6c ff be 30 	lw      r5,0xff6c(r30)
    1ca8:	70 ff de 30 	lw      r6,0xff70(r30)
    1cac:	00 2d 00 c0 	ajal    0x0000b400
    1cb0:	8c ff 9e 30 	lw      r4,0xff8c(r30)
    1cb4:	5c ff 9e 34 	sw      0xff5c(r30),r4
    1cb8:	90 ff be 30 	lw      r5,0xff90(r30)
    1cbc:	60 ff be 34 	sw      0xff60(r30),r5
    1cc0:	5c ff de 30 	lw      r6,0xff5c(r30)
    1cc4:	ac ff de 34 	sw      0xffac(r30),r6
    1cc8:	60 ff fe 30 	lw      r7,0xff60(r30)
    1ccc:	b0 ff fe 34 	sw      0xffb0(r30),r7
    1cd0:	ac ff 9e 30 	lw      r4,0xffac(r30)
    1cd4:	b0 ff be 30 	lw      r5,0xffb0(r30)
    1cd8:	9c 30 00 c0 	ajal    0x0000c270
    1cdc:	05 10 80 00 	orr     r4,r0,r2
    1ce0:	a8 ff 9e 34 	sw      0xffa8(r30),r4
    1ce4:	8c ff 9e 04 	addi    r4,r30,0xff8c
    1ce8:	a8 ff be 30 	lw      r5,0xffa8(r30)
    1cec:	98 2c 00 c0 	ajal    0x0000b260
    1cf0:	8c ff 9e 30 	lw      r4,0xff8c(r30)
    1cf4:	54 ff 9e 34 	sw      0xff54(r30),r4
    1cf8:	90 ff be 30 	lw      r5,0xff90(r30)
    1cfc:	58 ff be 34 	sw      0xff58(r30),r5
    1d00:	a8 ff be 30 	lw      r5,0xffa8(r30)
    1d04:	00 00 80 18 	ori     r4,r0,0x0000
    1d08:	02 20 05 00 	sub     r0,r5,r4
    1d0c:	13 00 80 42 	bge     0x00001d58
    1d10:	94 ff de 04 	addi    r6,r30,0xff94
    1d14:	00 00 80 18 	ori     r4,r0,0x0000
    1d18:	f0 41 a0 2c 	ldih    r5,0x41f0
    1d1c:	00 00 a5 18 	ori     r5,r5,0x0000
    1d20:	00 00 9d 34 	sw      0x0000(r29),r4
    1d24:	04 00 bd 34 	sw      0x0004(r29),r5
    1d28:	05 30 80 00 	orr     r4,r0,r6
    1d2c:	54 ff be 30 	lw      r5,0xff54(r30)
    1d30:	58 ff de 30 	lw      r6,0xff58(r30)
    1d34:	88 2b 00 c0 	ajal    0x0000ae20
    1d38:	94 ff de 30 	lw      r6,0xff94(r30)
    1d3c:	4c ff de 34 	sw      0xff4c(r30),r6
    1d40:	98 ff fe 30 	lw      r7,0xff98(r30)
    1d44:	50 ff fe 34 	sw      0xff50(r30),r7
    1d48:	4c ff 9e 30 	lw      r4,0xff4c(r30)
    1d4c:	54 ff 9e 34 	sw      0xff54(r30),r4
    1d50:	50 ff be 30 	lw      r5,0xff50(r30)
    1d54:	58 ff be 34 	sw      0xff58(r30),r5
    1d58:	9c ff 9e 04 	addi    r4,r30,0xff9c
    1d5c:	54 ff de 30 	lw      r6,0xff54(r30)
    1d60:	00 00 dd 34 	sw      0x0000(r29),r6
    1d64:	58 ff fe 30 	lw      r7,0xff58(r30)
    1d68:	04 00 fd 34 	sw      0x0004(r29),r7
    1d6c:	ac ff be 30 	lw      r5,0xffac(r30)
    1d70:	b0 ff de 30 	lw      r6,0xffb0(r30)
    1d74:	b0 2b 00 c0 	ajal    0x0000aec0
    1d78:	9c ff 9e 30 	lw      r4,0xff9c(r30)
    1d7c:	44 ff 9e 34 	sw      0xff44(r30),r4
    1d80:	a0 ff be 30 	lw      r5,0xffa0(r30)
    1d84:	48 ff be 34 	sw      0xff48(r30),r5
    1d88:	44 ff de 30 	lw      r6,0xff44(r30)
    1d8c:	bc ff de 34 	sw      0xffbc(r30),r6
    1d90:	48 ff fe 30 	lw      r7,0xff48(r30)
    1d94:	c0 ff fe 34 	sw      0xffc0(r30),r7
    1d98:	bc ff 9e 30 	lw      r4,0xffbc(r30)
    1d9c:	c0 ff be 30 	lw      r5,0xffc0(r30)
    1da0:	00 00 c0 18 	ori     r6,r0,0x0000
    1da4:	e0 3f e0 2c 	ldih    r7,0x3fe0
    1da8:	00 00 e7 18 	ori     r7,r7,0x0000
    1dac:	d4 30 00 c0 	ajal    0x0000c350
    1db0:	05 10 a0 00 	orr     r5,r0,r2
    1db4:	00 00 80 18 	ori     r4,r0,0x0000
    1db8:	02 20 05 00 	sub     r0,r5,r4
    1dbc:	02 00 00 43 	bgt     0x00001dc4
    1dc0:	aa 07 00 80 	ajmp    0x00001ea8
    1dc4:	a8 ff 9e 30 	lw      r4,0xffa8(r30)
    1dc8:	01 00 84 04 	addi    r4,r4,0x0001
    1dcc:	a8 ff 9e 34 	sw      0xffa8(r30),r4
    1dd0:	8c ff 9e 04 	addi    r4,r30,0xff8c
    1dd4:	a8 ff be 30 	lw      r5,0xffa8(r30)
    1dd8:	98 2c 00 c0 	ajal    0x0000b260
    1ddc:	8c ff 9e 30 	lw      r4,0xff8c(r30)
    1de0:	3c ff 9e 34 	sw      0xff3c(r30),r4
    1de4:	90 ff be 30 	lw      r5,0xff90(r30)
    1de8:	40 ff be 34 	sw      0xff40(r30),r5
    1dec:	a8 ff be 30 	lw      r5,0xffa8(r30)
    1df0:	00 00 80 18 	ori     r4,r0,0x0000
    1df4:	02 20 05 00 	sub     r0,r5,r4
    1df8:	13 00 80 42 	bge     0x00001e44
    1dfc:	94 ff de 04 	addi    r6,r30,0xff94
    1e00:	00 00 80 18 	ori     r4,r0,0x0000
    1e04:	f0 41 a0 2c 	ldih    r5,0x41f0
    1e08:	00 00 a5 18 	ori     r5,r5,0x0000
    1e0c:	00 00 9d 34 	sw      0x0000(r29),r4
    1e10:	04 00 bd 34 	sw      0x0004(r29),r5
    1e14:	05 30 80 00 	orr     r4,r0,r6
    1e18:	3c ff be 30 	lw      r5,0xff3c(r30)
    1e1c:	40 ff de 30 	lw      r6,0xff40(r30)
    1e20:	88 2b 00 c0 	ajal    0x0000ae20
    1e24:	94 ff de 30 	lw      r6,0xff94(r30)
    1e28:	34 ff de 34 	sw      0xff34(r30),r6
    1e2c:	98 ff fe 30 	lw      r7,0xff98(r30)
    1e30:	38 ff fe 34 	sw      0xff38(r30),r7
    1e34:	34 ff 9e 30 	lw      r4,0xff34(r30)
    1e38:	3c ff 9e 34 	sw      0xff3c(r30),r4
    1e3c:	38 ff be 30 	lw      r5,0xff38(r30)
    1e40:	40 ff be 34 	sw      0xff40(r30),r5
    1e44:	01 00 a0 2c 	ldih    r5,0x0001
    1e48:	a0 6e a5 18 	ori     r5,r5,0x6ea0
    1e4c:	0c 00 9e 30 	lw      r4,0x000c(r30)
    1e50:	03 00 84 20 	lsli    r4,r4,0x0003
    1e54:	00 28 84 00 	add     r4,r4,r5
    1e58:	00 00 c4 30 	lw      r6,0x0000(r4)
    1e5c:	2c ff de 34 	sw      0xff2c(r30),r6
    1e60:	04 00 84 30 	lw      r4,0x0004(r4)
    1e64:	30 ff 9e 34 	sw      0xff30(r30),r4
    1e68:	3c ff 9e 30 	lw      r4,0xff3c(r30)
    1e6c:	40 ff be 30 	lw      r5,0xff40(r30)
    1e70:	2c ff de 30 	lw      r6,0xff2c(r30)
    1e74:	30 ff fe 30 	lw      r7,0xff30(r30)
    1e78:	24 31 00 c0 	ajal    0x0000c490
    1e7c:	05 10 a0 00 	orr     r5,r0,r2
    1e80:	00 00 80 18 	ori     r4,r0,0x0000
    1e84:	02 20 05 00 	sub     r0,r5,r4
    1e88:	02 00 80 42 	bge     0x00001e90
    1e8c:	c2 07 00 80 	ajmp    0x00001f08
    1e90:	00 00 80 18 	ori     r4,r0,0x0000
    1e94:	a8 ff 9e 34 	sw      0xffa8(r30),r4
    1e98:	b4 ff 9e 30 	lw      r4,0xffb4(r30)
    1e9c:	01 00 84 04 	addi    r4,r4,0x0001
    1ea0:	b4 ff 9e 34 	sw      0xffb4(r30),r4
    1ea4:	c2 07 00 80 	ajmp    0x00001f08
    1ea8:	bc ff 9e 30 	lw      r4,0xffbc(r30)
    1eac:	c0 ff be 30 	lw      r5,0xffc0(r30)
    1eb0:	00 00 c0 18 	ori     r6,r0,0x0000
    1eb4:	e0 3f e0 2c 	ldih    r7,0x3fe0
    1eb8:	00 00 e7 18 	ori     r7,r7,0x0000
    1ebc:	74 31 00 c0 	ajal    0x0000c5d0
    1ec0:	05 10 a0 00 	orr     r5,r0,r2
    1ec4:	00 00 80 18 	ori     r4,r0,0x0000
    1ec8:	02 20 05 00 	sub     r0,r5,r4
    1ecc:	02 00 00 40 	beq     0x00001ed4
    1ed0:	c2 07 00 80 	ajmp    0x00001f08
    1ed4:	a8 ff be 30 	lw      r5,0xffa8(r30)
    1ed8:	00 00 80 18 	ori     r4,r0,0x0000
    1edc:	02 20 05 00 	sub     r0,r5,r4
    1ee0:	07 00 00 40 	beq     0x00001efc
    1ee4:	a8 ff 9e 30 	lw      r4,0xffa8(r30)
    1ee8:	01 00 a4 14 	andi    r5,r4,0x0001
    1eec:	00 00 80 18 	ori     r4,r0,0x0000
    1ef0:	02 20 05 00 	sub     r0,r5,r4
    1ef4:	02 00 40 40 	bne     0x00001efc
    1ef8:	c2 07 00 80 	ajmp    0x00001f08
    1efc:	a8 ff 9e 30 	lw      r4,0xffa8(r30)
    1f00:	01 00 84 04 	addi    r4,r4,0x0001
    1f04:	a8 ff 9e 34 	sw      0xffa8(r30),r4
    1f08:	f8 ff 9e 30 	lw      r4,0xfff8(r30)
    1f0c:	fc ff be 30 	lw      r5,0xfffc(r30)
    1f10:	e8 ff de 30 	lw      r6,0xffe8(r30)
    1f14:	ec ff fe 30 	lw      r7,0xffec(r30)
    1f18:	d4 30 00 c0 	ajal    0x0000c350
    1f1c:	05 10 a0 00 	orr     r5,r0,r2
    1f20:	00 00 80 18 	ori     r4,r0,0x0000
    1f24:	02 20 05 00 	sub     r0,r5,r4
    1f28:	02 00 00 43 	bgt     0x00001f30
    1f2c:	cf 07 00 80 	ajmp    0x00001f3c
    1f30:	00 00 e0 18 	ori     r7,r0,0x0000
    1f34:	84 ff fe 34 	sw      0xff84(r30),r7
    1f38:	1b 09 00 80 	ajmp    0x0000246c
    1f3c:	0c 00 be 30 	lw      r5,0x000c(r30)
    1f40:	00 00 80 18 	ori     r4,r0,0x0000
    1f44:	02 20 05 00 	sub     r0,r5,r4
    1f48:	3b 00 40 40 	bne     0x00002034
    1f4c:	8c ff 9e 04 	addi    r4,r30,0xff8c
    1f50:	b4 ff be 30 	lw      r5,0xffb4(r30)
    1f54:	98 2c 00 c0 	ajal    0x0000b260
    1f58:	8c ff 9e 30 	lw      r4,0xff8c(r30)
    1f5c:	24 ff 9e 34 	sw      0xff24(r30),r4
    1f60:	90 ff be 30 	lw      r5,0xff90(r30)
    1f64:	28 ff be 34 	sw      0xff28(r30),r5
    1f68:	94 ff 9e 04 	addi    r4,r30,0xff94
    1f6c:	24 ff de 30 	lw      r6,0xff24(r30)
    1f70:	00 00 dd 34 	sw      0x0000(r29),r6
    1f74:	28 ff fe 30 	lw      r7,0xff28(r30)
    1f78:	04 00 fd 34 	sw      0x0004(r29),r7
    1f7c:	f8 ff be 30 	lw      r5,0xfff8(r30)
    1f80:	fc ff de 30 	lw      r6,0xfffc(r30)
    1f84:	b0 2b 00 c0 	ajal    0x0000aec0
    1f88:	94 ff 9e 30 	lw      r4,0xff94(r30)
    1f8c:	1c ff 9e 34 	sw      0xff1c(r30),r4
    1f90:	98 ff be 30 	lw      r5,0xff98(r30)
    1f94:	20 ff be 34 	sw      0xff20(r30),r5
    1f98:	1c ff de 30 	lw      r6,0xff1c(r30)
    1f9c:	bc ff de 34 	sw      0xffbc(r30),r6
    1fa0:	20 ff fe 30 	lw      r7,0xff20(r30)
    1fa4:	c0 ff fe 34 	sw      0xffc0(r30),r7
    1fa8:	bc ff 9e 30 	lw      r4,0xffbc(r30)
    1fac:	c0 ff be 30 	lw      r5,0xffc0(r30)
    1fb0:	00 00 c0 18 	ori     r6,r0,0x0000
    1fb4:	e0 3f e0 2c 	ldih    r7,0x3fe0
    1fb8:	00 00 e7 18 	ori     r7,r7,0x0000
    1fbc:	d4 30 00 c0 	ajal    0x0000c350
    1fc0:	05 10 a0 00 	orr     r5,r0,r2
    1fc4:	00 00 80 18 	ori     r4,r0,0x0000
    1fc8:	02 20 05 00 	sub     r0,r5,r4
    1fcc:	02 00 00 43 	bgt     0x00001fd4
    1fd0:	f9 07 00 80 	ajmp    0x00001fe4
    1fd4:	b4 ff 9e 30 	lw      r4,0xffb4(r30)
    1fd8:	01 00 84 04 	addi    r4,r4,0x0001
    1fdc:	b4 ff 9e 34 	sw      0xffb4(r30),r4
    1fe0:	4e 08 00 80 	ajmp    0x00002138
    1fe4:	bc ff 9e 30 	lw      r4,0xffbc(r30)
    1fe8:	c0 ff be 30 	lw      r5,0xffc0(r30)
    1fec:	00 00 c0 18 	ori     r6,r0,0x0000
    1ff0:	e0 3f e0 2c 	ldih    r7,0x3fe0
    1ff4:	00 00 e7 18 	ori     r7,r7,0x0000
    1ff8:	74 31 00 c0 	ajal    0x0000c5d0
    1ffc:	05 10 a0 00 	orr     r5,r0,r2
    2000:	00 00 80 18 	ori     r4,r0,0x0000
    2004:	02 20 05 00 	sub     r0,r5,r4
    2008:	02 00 00 40 	beq     0x00002010
    200c:	4e 08 00 80 	ajmp    0x00002138
    2010:	b4 ff 9e 30 	lw      r4,0xffb4(r30)
    2014:	01 00 a4 14 	andi    r5,r4,0x0001
    2018:	00 00 80 18 	ori     r4,r0,0x0000
    201c:	02 20 05 00 	sub     r0,r5,r4
    2020:	46 00 00 40 	beq     0x00002138
    2024:	b4 ff 9e 30 	lw      r4,0xffb4(r30)
    2028:	01 00 84 04 	addi    r4,r4,0x0001
    202c:	b4 ff 9e 34 	sw      0xffb4(r30),r4
    2030:	4e 08 00 80 	ajmp    0x00002138
    2034:	0c 00 9e 30 	lw      r4,0x000c(r30)
    2038:	88 ff 9e 34 	sw      0xff88(r30),r4
    203c:	88 ff 9e 30 	lw      r4,0xff88(r30)
    2040:	ff ff 84 04 	addi    r4,r4,0xffff
    2044:	88 ff 9e 34 	sw      0xff88(r30),r4
    2048:	c4 ff fe 04 	addi    r7,r30,0xffc4
    204c:	00 00 c7 30 	lw      r6,0x0000(r7)
    2050:	05 30 80 00 	orr     r4,r0,r6
    2054:	00 f0 84 00 	add     r4,r4,r30
    2058:	c8 ff 04 05 	addi    r8,r4,0xffc8
    205c:	a8 ff be 30 	lw      r5,0xffa8(r30)
    2060:	0a 00 80 18 	ori     r4,r0,0x000a
    2064:	0f 20 85 00 	modu    r4,r5,r4
    2068:	30 00 84 04 	addi    r4,r4,0x0030
    206c:	00 00 88 3c 	sb      0x0000(r8),r4
    2070:	01 00 c6 04 	addi    r6,r6,0x0001
    2074:	00 00 c7 34 	sw      0x0000(r7),r6
    2078:	c4 ff be 30 	lw      r5,0xffc4(r30)
    207c:	1f 00 80 18 	ori     r4,r0,0x001f
    2080:	02 20 05 00 	sub     r0,r5,r4
    2084:	0a 00 00 42 	bhi     0x000020ac
    2088:	a8 ff be 30 	lw      r5,0xffa8(r30)
    208c:	0a 00 80 18 	ori     r4,r0,0x000a
    2090:	0e 20 85 00 	divu    r4,r5,r4
    2094:	05 20 a0 00 	orr     r5,r0,r4
    2098:	a8 ff be 34 	sw      0xffa8(r30),r5
    209c:	00 00 80 18 	ori     r4,r0,0x0000
    20a0:	02 20 05 00 	sub     r0,r5,r4
    20a4:	02 00 00 40 	beq     0x000020ac
    20a8:	0f 08 00 80 	ajmp    0x0000203c
    20ac:	c4 ff be 30 	lw      r5,0xffc4(r30)
    20b0:	1f 00 80 18 	ori     r4,r0,0x001f
    20b4:	02 20 05 00 	sub     r0,r5,r4
    20b8:	13 00 00 42 	bhi     0x00002104
    20bc:	88 ff 9e 30 	lw      r4,0xff88(r30)
    20c0:	ff ff 84 04 	addi    r4,r4,0xffff
    20c4:	05 20 a0 00 	orr     r5,r0,r4
    20c8:	88 ff be 34 	sw      0xff88(r30),r5
    20cc:	ff ff 80 2c 	ldih    r4,0xffff
    20d0:	ff ff 84 18 	ori     r4,r4,0xffff
    20d4:	02 20 05 00 	sub     r0,r5,r4
    20d8:	0b 00 00 40 	beq     0x00002104
    20dc:	c4 ff de 04 	addi    r6,r30,0xffc4
    20e0:	00 00 a6 30 	lw      r5,0x0000(r6)
    20e4:	05 28 80 00 	orr     r4,r0,r5
    20e8:	00 f0 84 00 	add     r4,r4,r30
    20ec:	c8 ff 84 04 	addi    r4,r4,0xffc8
    20f0:	30 00 e0 18 	ori     r7,r0,0x0030
    20f4:	00 00 e4 3c 	sb      0x0000(r4),r7
    20f8:	01 00 a5 04 	addi    r5,r5,0x0001
    20fc:	00 00 a6 34 	sw      0x0000(r6),r5
    2100:	2b 08 00 80 	ajmp    0x000020ac
    2104:	c4 ff be 30 	lw      r5,0xffc4(r30)
    2108:	1f 00 80 18 	ori     r4,r0,0x001f
    210c:	02 20 05 00 	sub     r0,r5,r4
    2110:	0a 00 00 42 	bhi     0x00002138
    2114:	c4 ff de 04 	addi    r6,r30,0xffc4
    2118:	00 00 a6 30 	lw      r5,0x0000(r6)
    211c:	05 28 80 00 	orr     r4,r0,r5
    2120:	00 f0 84 00 	add     r4,r4,r30
    2124:	c8 ff 84 04 	addi    r4,r4,0xffc8
    2128:	2e 00 e0 18 	ori     r7,r0,0x002e
    212c:	00 00 e4 3c 	sb      0x0000(r4),r7
    2130:	01 00 a5 04 	addi    r5,r5,0x0001
    2134:	00 00 a6 34 	sw      0x0000(r6),r5
    2138:	c4 ff be 30 	lw      r5,0xffc4(r30)
    213c:	1f 00 80 18 	ori     r4,r0,0x001f
    2140:	02 20 05 00 	sub     r0,r5,r4
    2144:	15 00 00 42 	bhi     0x00002198
    2148:	c4 ff fe 04 	addi    r7,r30,0xffc4
    214c:	00 00 c7 30 	lw      r6,0x0000(r7)
    2150:	05 30 80 00 	orr     r4,r0,r6
    2154:	00 f0 84 00 	add     r4,r4,r30
    2158:	c8 ff 04 05 	addi    r8,r4,0xffc8
    215c:	b4 ff be 30 	lw      r5,0xffb4(r30)
    2160:	0a 00 80 18 	ori     r4,r0,0x000a
    2164:	0c 20 85 00 	mod     r4,r5,r4
    2168:	30 00 84 04 	addi    r4,r4,0x0030
    216c:	00 00 88 3c 	sb      0x0000(r8),r4
    2170:	01 00 c6 04 	addi    r6,r6,0x0001
    2174:	00 00 c7 34 	sw      0x0000(r7),r6
    2178:	b4 ff be 30 	lw      r5,0xffb4(r30)
    217c:	0a 00 80 18 	ori     r4,r0,0x000a
    2180:	0b 20 85 00 	div     r4,r5,r4
    2184:	05 20 a0 00 	orr     r5,r0,r4
    2188:	b4 ff be 34 	sw      0xffb4(r30),r5
    218c:	00 00 80 18 	ori     r4,r0,0x0000
    2190:	02 20 05 00 	sub     r0,r5,r4
    2194:	e9 ff 7f 40 	bne     0x00002138
    2198:	14 00 9e 30 	lw      r4,0x0014(r30)
    219c:	01 00 84 24 	lsri    r4,r4,0x0001
    21a0:	01 00 a4 14 	andi    r5,r4,0x0001
    21a4:	00 00 80 18 	ori     r4,r0,0x0000
    21a8:	02 20 05 00 	sub     r0,r5,r4
    21ac:	13 00 40 40 	bne     0x000021f8
    21b0:	c4 ff be 30 	lw      r5,0xffc4(r30)
    21b4:	0c 00 9e 30 	lw      r4,0x000c(r30)
    21b8:	02 20 05 00 	sub     r0,r5,r4
    21bc:	0f 00 00 41 	bhs     0x000021f8
    21c0:	c4 ff be 30 	lw      r5,0xffc4(r30)
    21c4:	1f 00 80 18 	ori     r4,r0,0x001f
    21c8:	02 20 05 00 	sub     r0,r5,r4
    21cc:	0b 00 00 42 	bhi     0x000021f8
    21d0:	c4 ff de 04 	addi    r6,r30,0xffc4
    21d4:	00 00 a6 30 	lw      r5,0x0000(r6)
    21d8:	05 28 80 00 	orr     r4,r0,r5
    21dc:	00 f0 84 00 	add     r4,r4,r30
    21e0:	c8 ff 84 04 	addi    r4,r4,0xffc8
    21e4:	30 00 e0 18 	ori     r7,r0,0x0030
    21e8:	00 00 e4 3c 	sb      0x0000(r4),r7
    21ec:	01 00 a5 04 	addi    r5,r5,0x0001
    21f0:	00 00 a6 34 	sw      0x0000(r6),r5
    21f4:	66 08 00 80 	ajmp    0x00002198
    21f8:	14 00 9e 30 	lw      r4,0x0014(r30)
    21fc:	01 00 84 24 	lsri    r4,r4,0x0001
    2200:	01 00 a4 14 	andi    r5,r4,0x0001
    2204:	00 00 80 18 	ori     r4,r0,0x0000
    2208:	02 20 05 00 	sub     r0,r5,r4
    220c:	18 00 40 40 	bne     0x0000226c
    2210:	14 00 9e 30 	lw      r4,0x0014(r30)
    2214:	01 00 a4 14 	andi    r5,r4,0x0001
    2218:	00 00 80 18 	ori     r4,r0,0x0000
    221c:	02 20 05 00 	sub     r0,r5,r4
    2220:	13 00 00 40 	beq     0x0000226c
    2224:	c4 ff be 30 	lw      r5,0xffc4(r30)
    2228:	10 00 9e 30 	lw      r4,0x0010(r30)
    222c:	02 20 05 00 	sub     r0,r5,r4
    2230:	0f 00 00 41 	bhs     0x0000226c
    2234:	c4 ff be 30 	lw      r5,0xffc4(r30)
    2238:	1f 00 80 18 	ori     r4,r0,0x001f
    223c:	02 20 05 00 	sub     r0,r5,r4
    2240:	0b 00 00 42 	bhi     0x0000226c
    2244:	c4 ff de 04 	addi    r6,r30,0xffc4
    2248:	00 00 a6 30 	lw      r5,0x0000(r6)
    224c:	05 28 80 00 	orr     r4,r0,r5
    2250:	00 f0 84 00 	add     r4,r4,r30
    2254:	c8 ff 84 04 	addi    r4,r4,0xffc8
    2258:	30 00 e0 18 	ori     r7,r0,0x0030
    225c:	00 00 e4 3c 	sb      0x0000(r4),r7
    2260:	01 00 a5 04 	addi    r5,r5,0x0001
    2264:	00 00 a6 34 	sw      0x0000(r6),r5
    2268:	7e 08 00 80 	ajmp    0x000021f8
    226c:	c4 ff be 30 	lw      r5,0xffc4(r30)
    2270:	1f 00 80 18 	ori     r4,r0,0x001f
    2274:	02 20 05 00 	sub     r0,r5,r4
    2278:	2e 00 00 42 	bhi     0x00002330
    227c:	b8 ff be 30 	lw      r5,0xffb8(r30)
    2280:	00 00 80 18 	ori     r4,r0,0x0000
    2284:	02 20 05 00 	sub     r0,r5,r4
    2288:	0b 00 00 40 	beq     0x000022b4
    228c:	c4 ff de 04 	addi    r6,r30,0xffc4
    2290:	00 00 a6 30 	lw      r5,0x0000(r6)
    2294:	05 28 80 00 	orr     r4,r0,r5
    2298:	00 f0 84 00 	add     r4,r4,r30
    229c:	c8 ff 84 04 	addi    r4,r4,0xffc8
    22a0:	2d 00 e0 18 	ori     r7,r0,0x002d
    22a4:	00 00 e4 3c 	sb      0x0000(r4),r7
    22a8:	01 00 a5 04 	addi    r5,r5,0x0001
    22ac:	00 00 a6 34 	sw      0x0000(r6),r5
    22b0:	cc 08 00 80 	ajmp    0x00002330
    22b4:	14 00 9e 30 	lw      r4,0x0014(r30)
    22b8:	02 00 84 24 	lsri    r4,r4,0x0002
    22bc:	01 00 a4 14 	andi    r5,r4,0x0001
    22c0:	00 00 80 18 	ori     r4,r0,0x0000
    22c4:	02 20 05 00 	sub     r0,r5,r4
    22c8:	0b 00 00 40 	beq     0x000022f4
    22cc:	c4 ff de 04 	addi    r6,r30,0xffc4
    22d0:	00 00 a6 30 	lw      r5,0x0000(r6)
    22d4:	05 28 80 00 	orr     r4,r0,r5
    22d8:	00 f0 84 00 	add     r4,r4,r30
    22dc:	c8 ff 84 04 	addi    r4,r4,0xffc8
    22e0:	2b 00 e0 18 	ori     r7,r0,0x002b
    22e4:	00 00 e4 3c 	sb      0x0000(r4),r7
    22e8:	01 00 a5 04 	addi    r5,r5,0x0001
    22ec:	00 00 a6 34 	sw      0x0000(r6),r5
    22f0:	cc 08 00 80 	ajmp    0x00002330
    22f4:	14 00 9e 30 	lw      r4,0x0014(r30)
    22f8:	03 00 84 24 	lsri    r4,r4,0x0003
    22fc:	01 00 a4 14 	andi    r5,r4,0x0001
    2300:	00 00 80 18 	ori     r4,r0,0x0000
    2304:	02 20 05 00 	sub     r0,r5,r4
    2308:	0a 00 00 40 	beq     0x00002330
    230c:	c4 ff de 04 	addi    r6,r30,0xffc4
    2310:	00 00 a6 30 	lw      r5,0x0000(r6)
    2314:	05 28 80 00 	orr     r4,r0,r5
    2318:	00 f0 84 00 	add     r4,r4,r30
    231c:	c8 ff 84 04 	addi    r4,r4,0xffc8
    2320:	20 00 e0 18 	ori     r7,r0,0x0020
    2324:	00 00 e4 3c 	sb      0x0000(r4),r7
    2328:	01 00 a5 04 	addi    r5,r5,0x0001
    232c:	00 00 a6 34 	sw      0x0000(r6),r5
    2330:	14 00 9e 30 	lw      r4,0x0014(r30)
    2334:	01 00 84 24 	lsri    r4,r4,0x0001
    2338:	01 00 a4 14 	andi    r5,r4,0x0001
    233c:	00 00 80 18 	ori     r4,r0,0x0000
    2340:	02 20 05 00 	sub     r0,r5,r4
    2344:	18 00 40 40 	bne     0x000023a4
    2348:	14 00 9e 30 	lw      r4,0x0014(r30)
    234c:	01 00 a4 14 	andi    r5,r4,0x0001
    2350:	00 00 80 18 	ori     r4,r0,0x0000
    2354:	02 20 05 00 	sub     r0,r5,r4
    2358:	13 00 40 40 	bne     0x000023a4
    235c:	c4 ff be 30 	lw      r5,0xffc4(r30)
    2360:	10 00 9e 30 	lw      r4,0x0010(r30)
    2364:	02 20 05 00 	sub     r0,r5,r4
    2368:	0f 00 00 41 	bhs     0x000023a4
    236c:	c4 ff be 30 	lw      r5,0xffc4(r30)
    2370:	1f 00 80 18 	ori     r4,r0,0x001f
    2374:	02 20 05 00 	sub     r0,r5,r4
    2378:	0b 00 00 42 	bhi     0x000023a4
    237c:	c4 ff de 04 	addi    r6,r30,0xffc4
    2380:	00 00 a6 30 	lw      r5,0x0000(r6)
    2384:	05 28 80 00 	orr     r4,r0,r5
    2388:	00 f0 84 00 	add     r4,r4,r30
    238c:	c8 ff 84 04 	addi    r4,r4,0xffc8
    2390:	20 00 e0 18 	ori     r7,r0,0x0020
    2394:	00 00 e4 3c 	sb      0x0000(r4),r7
    2398:	01 00 a5 04 	addi    r5,r5,0x0001
    239c:	00 00 a6 34 	sw      0x0000(r6),r5
    23a0:	d7 08 00 80 	ajmp    0x0000235c
    23a4:	00 00 80 18 	ori     r4,r0,0x0000
    23a8:	a4 ff 9e 34 	sw      0xffa4(r30),r4
    23ac:	a4 ff be 30 	lw      r5,0xffa4(r30)
    23b0:	c4 ff 9e 30 	lw      r4,0xffc4(r30)
    23b4:	02 20 05 00 	sub     r0,r5,r4
    23b8:	13 00 00 41 	bhs     0x00002404
    23bc:	a4 ff be 30 	lw      r5,0xffa4(r30)
    23c0:	f0 ff 9e 30 	lw      r4,0xfff0(r30)
    23c4:	02 20 05 00 	sub     r0,r5,r4
    23c8:	0f 00 00 41 	bhs     0x00002404
    23cc:	f4 ff be 30 	lw      r5,0xfff4(r30)
    23d0:	a4 ff 9e 30 	lw      r4,0xffa4(r30)
    23d4:	00 20 c5 00 	add     r6,r5,r4
    23d8:	c4 ff be 30 	lw      r5,0xffc4(r30)
    23dc:	a4 ff 9e 30 	lw      r4,0xffa4(r30)
    23e0:	02 20 a5 00 	sub     r5,r5,r4
    23e4:	c7 ff 9e 04 	addi    r4,r30,0xffc7
    23e8:	00 28 84 00 	add     r4,r4,r5
    23ec:	00 00 84 38 	lb      r4,0x0000(r4)
    23f0:	00 00 86 3c 	sb      0x0000(r6),r4
    23f4:	a4 ff 9e 30 	lw      r4,0xffa4(r30)
    23f8:	01 00 84 04 	addi    r4,r4,0x0001
    23fc:	a4 ff 9e 34 	sw      0xffa4(r30),r4
    2400:	eb 08 00 80 	ajmp    0x000023ac
    2404:	14 00 9e 30 	lw      r4,0x0014(r30)
    2408:	01 00 84 24 	lsri    r4,r4,0x0001
    240c:	01 00 a4 14 	andi    r5,r4,0x0001
    2410:	00 00 80 18 	ori     r4,r0,0x0000
    2414:	02 20 05 00 	sub     r0,r5,r4
    2418:	13 00 00 40 	beq     0x00002464
    241c:	c4 ff be 30 	lw      r5,0xffc4(r30)
    2420:	10 00 9e 30 	lw      r4,0x0010(r30)
    2424:	02 20 05 00 	sub     r0,r5,r4
    2428:	0f 00 00 41 	bhs     0x00002464
    242c:	c4 ff be 30 	lw      r5,0xffc4(r30)
    2430:	f0 ff 9e 30 	lw      r4,0xfff0(r30)
    2434:	02 20 05 00 	sub     r0,r5,r4
    2438:	0b 00 00 41 	bhs     0x00002464
    243c:	c4 ff fe 04 	addi    r7,r30,0xffc4
    2440:	00 00 a7 30 	lw      r5,0x0000(r7)
    2444:	05 28 c0 00 	orr     r6,r0,r5
    2448:	f4 ff 9e 30 	lw      r4,0xfff4(r30)
    244c:	00 20 86 00 	add     r4,r6,r4
    2450:	20 00 c0 18 	ori     r6,r0,0x0020
    2454:	00 00 c4 3c 	sb      0x0000(r4),r6
    2458:	01 00 a5 04 	addi    r5,r5,0x0001
    245c:	00 00 a7 34 	sw      0x0000(r7),r5
    2460:	07 09 00 80 	ajmp    0x0000241c
    2464:	c4 ff 9e 30 	lw      r4,0xffc4(r30)
    2468:	84 ff 9e 34 	sw      0xff84(r30),r4
    246c:	84 ff 5e 30 	lw      r2,0xff84(r30)
    2470:	ec 00 bd 07 	addi    r29,r29,0x00ec
    2474:	05 f0 a0 03 	orr     r29,r0,r30
    2478:	0c 00 bd 07 	addi    r29,r29,0x000c
    247c:	fc ff 1d 31 	lw      r8,0xfffc(r29)
    2480:	f8 ff fd 33 	lw      r31,0xfff8(r29)
    2484:	f4 ff dd 33 	lw      r30,0xfff4(r29)
    2488:	00 00 e0 47 	jmpr    r31
    248c:	00 00 00 00 	nop

00002490 <vsnprintf>:
    2490:	f0 ff bd 07 	addi    r29,r29,0xfff0
    2494:	00 00 dd 37 	sw      0x0000(r29),r30
    2498:	04 00 fd 37 	sw      0x0004(r29),r31
    249c:	08 00 3d 35 	sw      0x0008(r29),r9
    24a0:	0c 00 1d 35 	sw      0x000c(r29),r8
    24a4:	05 e8 c0 03 	orr     r30,r0,r29
    24a8:	b8 ff bd 07 	addi    r29,r29,0xffb8
    24ac:	fc ff 9e 34 	sw      0xfffc(r30),r4
    24b0:	f8 ff be 34 	sw      0xfff8(r30),r5
    24b4:	f4 ff de 34 	sw      0xfff4(r30),r6
    24b8:	f0 ff fe 34 	sw      0xfff0(r30),r7
    24bc:	00 00 80 18 	ori     r4,r0,0x0000
    24c0:	dc ff 9e 34 	sw      0xffdc(r30),r4
    24c4:	dc ff be 30 	lw      r5,0xffdc(r30)
    24c8:	f8 ff 9e 30 	lw      r4,0xfff8(r30)
    24cc:	02 20 05 00 	sub     r0,r5,r4
    24d0:	09 03 00 41 	bhs     0x000030f4
    24d4:	f4 ff 9e 30 	lw      r4,0xfff4(r30)
    24d8:	00 00 84 38 	lb      r4,0x0000(r4)
    24dc:	18 00 84 20 	lsli    r4,r4,0x0018
    24e0:	18 00 84 24 	lsri    r4,r4,0x0018
    24e4:	00 00 a0 18 	ori     r5,r0,0x0000
    24e8:	02 28 04 00 	sub     r0,r4,r5
    24ec:	07 00 40 40 	bne     0x00002508
    24f0:	fc ff 9e 30 	lw      r4,0xfffc(r30)
    24f4:	dc ff be 30 	lw      r5,0xffdc(r30)
    24f8:	00 28 84 00 	add     r4,r4,r5
    24fc:	00 00 a0 18 	ori     r5,r0,0x0000
    2500:	00 00 a4 3c 	sb      0x0000(r4),r5
    2504:	3d 0c 00 80 	ajmp    0x000030f4
    2508:	f4 ff 9e 30 	lw      r4,0xfff4(r30)
    250c:	00 00 84 38 	lb      r4,0x0000(r4)
    2510:	18 00 84 20 	lsli    r4,r4,0x0018
    2514:	18 00 84 24 	lsri    r4,r4,0x0018
    2518:	25 00 a0 18 	ori     r5,r0,0x0025
    251c:	02 28 04 00 	sub     r0,r4,r5
    2520:	0f 00 00 40 	beq     0x0000255c
    2524:	dc ff fe 04 	addi    r7,r30,0xffdc
    2528:	00 00 a7 30 	lw      r5,0x0000(r7)
    252c:	05 28 c0 00 	orr     r6,r0,r5
    2530:	fc ff 9e 30 	lw      r4,0xfffc(r30)
    2534:	00 20 c6 00 	add     r6,r6,r4
    2538:	f4 ff 9e 30 	lw      r4,0xfff4(r30)
    253c:	00 00 84 38 	lb      r4,0x0000(r4)
    2540:	00 00 86 3c 	sb      0x0000(r6),r4
    2544:	01 00 a5 04 	addi    r5,r5,0x0001
    2548:	00 00 a7 34 	sw      0x0000(r7),r5
    254c:	f4 ff 9e 30 	lw      r4,0xfff4(r30)
    2550:	01 00 84 04 	addi    r4,r4,0x0001
    2554:	f4 ff 9e 34 	sw      0xfff4(r30),r4
    2558:	31 09 00 80 	ajmp    0x000024c4
    255c:	f4 ff 9e 30 	lw      r4,0xfff4(r30)
    2560:	01 00 84 04 	addi    r4,r4,0x0001
    2564:	f4 ff 9e 34 	sw      0xfff4(r30),r4
    2568:	00 00 80 18 	ori     r4,r0,0x0000
    256c:	ec ff 9e 34 	sw      0xffec(r30),r4
    2570:	f4 ff 9e 30 	lw      r4,0xfff4(r30)
    2574:	00 00 84 38 	lb      r4,0x0000(r4)
    2578:	18 00 84 20 	lsli    r4,r4,0x0018
    257c:	18 00 84 24 	lsri    r4,r4,0x0018
    2580:	e0 ff 84 04 	addi    r4,r4,0xffe0
    2584:	d0 ff 9e 34 	sw      0xffd0(r30),r4
    2588:	10 00 80 18 	ori     r4,r0,0x0010
    258c:	d0 ff de 30 	lw      r6,0xffd0(r30)
    2590:	02 20 06 00 	sub     r0,r6,r4
    2594:	35 00 00 42 	bhi     0x00002668
    2598:	d0 ff 9e 30 	lw      r4,0xffd0(r30)
    259c:	02 00 a4 20 	lsli    r5,r4,0x0002
    25a0:	01 00 80 2c 	ldih    r4,0x0001
    25a4:	f0 6e 84 18 	ori     r4,r4,0x6ef0
    25a8:	00 20 85 00 	add     r4,r5,r4
    25ac:	00 00 84 30 	lw      r4,0x0000(r4)
    25b0:	00 00 80 44 	jmpr    r4
    25b4:	ec ff 9e 30 	lw      r4,0xffec(r30)
    25b8:	01 00 84 18 	ori     r4,r4,0x0001
    25bc:	ec ff 9e 34 	sw      0xffec(r30),r4
    25c0:	f4 ff 9e 30 	lw      r4,0xfff4(r30)
    25c4:	01 00 84 04 	addi    r4,r4,0x0001
    25c8:	f4 ff 9e 34 	sw      0xfff4(r30),r4
    25cc:	01 00 80 18 	ori     r4,r0,0x0001
    25d0:	e0 ff 9e 34 	sw      0xffe0(r30),r4
    25d4:	9c 09 00 80 	ajmp    0x00002670
    25d8:	ec ff 9e 30 	lw      r4,0xffec(r30)
    25dc:	02 00 84 18 	ori     r4,r4,0x0002
    25e0:	ec ff 9e 34 	sw      0xffec(r30),r4
    25e4:	f4 ff 9e 30 	lw      r4,0xfff4(r30)
    25e8:	01 00 84 04 	addi    r4,r4,0x0001
    25ec:	f4 ff 9e 34 	sw      0xfff4(r30),r4
    25f0:	01 00 80 18 	ori     r4,r0,0x0001
    25f4:	e0 ff 9e 34 	sw      0xffe0(r30),r4
    25f8:	9c 09 00 80 	ajmp    0x00002670
    25fc:	ec ff 9e 30 	lw      r4,0xffec(r30)
    2600:	04 00 84 18 	ori     r4,r4,0x0004
    2604:	ec ff 9e 34 	sw      0xffec(r30),r4
    2608:	f4 ff 9e 30 	lw      r4,0xfff4(r30)
    260c:	01 00 84 04 	addi    r4,r4,0x0001
    2610:	f4 ff 9e 34 	sw      0xfff4(r30),r4
    2614:	01 00 80 18 	ori     r4,r0,0x0001
    2618:	e0 ff 9e 34 	sw      0xffe0(r30),r4
    261c:	9c 09 00 80 	ajmp    0x00002670
    2620:	ec ff 9e 30 	lw      r4,0xffec(r30)
    2624:	08 00 84 18 	ori     r4,r4,0x0008
    2628:	ec ff 9e 34 	sw      0xffec(r30),r4
    262c:	f4 ff 9e 30 	lw      r4,0xfff4(r30)
    2630:	01 00 84 04 	addi    r4,r4,0x0001
    2634:	f4 ff 9e 34 	sw      0xfff4(r30),r4
    2638:	01 00 80 18 	ori     r4,r0,0x0001
    263c:	e0 ff 9e 34 	sw      0xffe0(r30),r4
    2640:	9c 09 00 80 	ajmp    0x00002670
    2644:	ec ff 9e 30 	lw      r4,0xffec(r30)
    2648:	10 00 84 18 	ori     r4,r4,0x0010
    264c:	ec ff 9e 34 	sw      0xffec(r30),r4
    2650:	f4 ff 9e 30 	lw      r4,0xfff4(r30)
    2654:	01 00 84 04 	addi    r4,r4,0x0001
    2658:	f4 ff 9e 34 	sw      0xfff4(r30),r4
    265c:	01 00 80 18 	ori     r4,r0,0x0001
    2660:	e0 ff 9e 34 	sw      0xffe0(r30),r4
    2664:	9c 09 00 80 	ajmp    0x00002670
    2668:	00 00 80 18 	ori     r4,r0,0x0000
    266c:	e0 ff 9e 34 	sw      0xffe0(r30),r4
    2670:	e0 ff be 30 	lw      r5,0xffe0(r30)
    2674:	00 00 80 18 	ori     r4,r0,0x0000
    2678:	02 20 05 00 	sub     r0,r5,r4
    267c:	02 00 00 40 	beq     0x00002684
    2680:	5c 09 00 80 	ajmp    0x00002570
    2684:	00 00 80 18 	ori     r4,r0,0x0000
    2688:	e8 ff 9e 34 	sw      0xffe8(r30),r4
    268c:	f4 ff 9e 30 	lw      r4,0xfff4(r30)
    2690:	00 00 84 38 	lb      r4,0x0000(r4)
    2694:	78 04 00 c0 	ajal    0x000011e0
    2698:	05 10 a0 00 	orr     r5,r0,r2
    269c:	00 00 80 18 	ori     r4,r0,0x0000
    26a0:	02 20 05 00 	sub     r0,r5,r4
    26a4:	06 00 00 40 	beq     0x000026bc
    26a8:	f4 ff 9e 04 	addi    r4,r30,0xfff4
    26ac:	94 04 00 c0 	ajal    0x00001250
    26b0:	05 10 80 00 	orr     r4,r0,r2
    26b4:	e8 ff 9e 34 	sw      0xffe8(r30),r4
    26b8:	cc 09 00 80 	ajmp    0x00002730
    26bc:	f4 ff 9e 30 	lw      r4,0xfff4(r30)
    26c0:	00 00 84 38 	lb      r4,0x0000(r4)
    26c4:	18 00 84 20 	lsli    r4,r4,0x0018
    26c8:	18 00 84 24 	lsri    r4,r4,0x0018
    26cc:	2a 00 a0 18 	ori     r5,r0,0x002a
    26d0:	02 28 04 00 	sub     r0,r4,r5
    26d4:	17 00 40 40 	bne     0x00002730
    26d8:	f0 ff be 30 	lw      r5,0xfff0(r30)
    26dc:	f0 ff 9e 30 	lw      r4,0xfff0(r30)
    26e0:	04 00 84 04 	addi    r4,r4,0x0004
    26e4:	f0 ff 9e 34 	sw      0xfff0(r30),r4
    26e8:	00 00 85 30 	lw      r4,0x0000(r5)
    26ec:	d8 ff 9e 34 	sw      0xffd8(r30),r4
    26f0:	d8 ff be 30 	lw      r5,0xffd8(r30)
    26f4:	00 00 80 18 	ori     r4,r0,0x0000
    26f8:	02 20 05 00 	sub     r0,r5,r4
    26fc:	08 00 80 42 	bge     0x0000271c
    2700:	ec ff 9e 30 	lw      r4,0xffec(r30)
    2704:	02 00 84 18 	ori     r4,r4,0x0002
    2708:	ec ff 9e 34 	sw      0xffec(r30),r4
    270c:	d8 ff 9e 30 	lw      r4,0xffd8(r30)
    2710:	02 20 80 00 	sub     r4,r0,r4
    2714:	e8 ff 9e 34 	sw      0xffe8(r30),r4
    2718:	c9 09 00 80 	ajmp    0x00002724
    271c:	d8 ff 9e 30 	lw      r4,0xffd8(r30)
    2720:	e8 ff 9e 34 	sw      0xffe8(r30),r4
    2724:	f4 ff 9e 30 	lw      r4,0xfff4(r30)
    2728:	01 00 84 04 	addi    r4,r4,0x0001
    272c:	f4 ff 9e 34 	sw      0xfff4(r30),r4
    2730:	00 00 80 18 	ori     r4,r0,0x0000
    2734:	e4 ff 9e 34 	sw      0xffe4(r30),r4
    2738:	f4 ff 9e 30 	lw      r4,0xfff4(r30)
    273c:	00 00 84 38 	lb      r4,0x0000(r4)
    2740:	18 00 84 20 	lsli    r4,r4,0x0018
    2744:	18 00 84 24 	lsri    r4,r4,0x0018
    2748:	2e 00 a0 18 	ori     r5,r0,0x002e
    274c:	02 28 04 00 	sub     r0,r4,r5
    2750:	23 00 40 40 	bne     0x000027dc
    2754:	ec ff 9e 30 	lw      r4,0xffec(r30)
    2758:	00 01 84 18 	ori     r4,r4,0x0100
    275c:	ec ff 9e 34 	sw      0xffec(r30),r4
    2760:	f4 ff 9e 30 	lw      r4,0xfff4(r30)
    2764:	01 00 84 04 	addi    r4,r4,0x0001
    2768:	f4 ff 9e 34 	sw      0xfff4(r30),r4
    276c:	f4 ff 9e 30 	lw      r4,0xfff4(r30)
    2770:	00 00 84 38 	lb      r4,0x0000(r4)
    2774:	78 04 00 c0 	ajal    0x000011e0
    2778:	05 10 a0 00 	orr     r5,r0,r2
    277c:	00 00 80 18 	ori     r4,r0,0x0000
    2780:	02 20 05 00 	sub     r0,r5,r4
    2784:	06 00 00 40 	beq     0x0000279c
    2788:	f4 ff 9e 04 	addi    r4,r30,0xfff4
    278c:	94 04 00 c0 	ajal    0x00001250
    2790:	05 10 80 00 	orr     r4,r0,r2
    2794:	e4 ff 9e 34 	sw      0xffe4(r30),r4
    2798:	f7 09 00 80 	ajmp    0x000027dc
    279c:	f4 ff 9e 30 	lw      r4,0xfff4(r30)
    27a0:	00 00 84 38 	lb      r4,0x0000(r4)
    27a4:	18 00 84 20 	lsli    r4,r4,0x0018
    27a8:	18 00 84 24 	lsri    r4,r4,0x0018
    27ac:	2a 00 a0 18 	ori     r5,r0,0x002a
    27b0:	02 28 04 00 	sub     r0,r4,r5
    27b4:	0a 00 40 40 	bne     0x000027dc
    27b8:	f0 ff be 30 	lw      r5,0xfff0(r30)
    27bc:	f0 ff 9e 30 	lw      r4,0xfff0(r30)
    27c0:	04 00 84 04 	addi    r4,r4,0x0004
    27c4:	f0 ff 9e 34 	sw      0xfff0(r30),r4
    27c8:	00 00 85 30 	lw      r4,0x0000(r5)
    27cc:	e4 ff 9e 34 	sw      0xffe4(r30),r4
    27d0:	f4 ff 9e 30 	lw      r4,0xfff4(r30)
    27d4:	01 00 84 04 	addi    r4,r4,0x0001
    27d8:	f4 ff 9e 34 	sw      0xfff4(r30),r4
    27dc:	f4 ff 9e 30 	lw      r4,0xfff4(r30)
    27e0:	00 00 84 38 	lb      r4,0x0000(r4)
    27e4:	18 00 84 20 	lsli    r4,r4,0x0018
    27e8:	18 00 84 24 	lsri    r4,r4,0x0018
    27ec:	6c 00 a0 18 	ori     r5,r0,0x006c
    27f0:	02 28 04 00 	sub     r0,r4,r5
    27f4:	09 00 00 40 	beq     0x00002818
    27f8:	f4 ff 9e 30 	lw      r4,0xfff4(r30)
    27fc:	00 00 84 38 	lb      r4,0x0000(r4)
    2800:	18 00 84 20 	lsli    r4,r4,0x0018
    2804:	18 00 84 24 	lsri    r4,r4,0x0018
    2808:	4c 00 a0 18 	ori     r5,r0,0x004c
    280c:	02 28 04 00 	sub     r0,r4,r5
    2810:	02 00 00 40 	beq     0x00002818
    2814:	0c 0a 00 80 	ajmp    0x00002830
    2818:	ec ff 9e 30 	lw      r4,0xffec(r30)
    281c:	40 00 84 18 	ori     r4,r4,0x0040
    2820:	ec ff 9e 34 	sw      0xffec(r30),r4
    2824:	f4 ff 9e 30 	lw      r4,0xfff4(r30)
    2828:	01 00 84 04 	addi    r4,r4,0x0001
    282c:	f4 ff 9e 34 	sw      0xfff4(r30),r4
    2830:	f4 ff 9e 30 	lw      r4,0xfff4(r30)
    2834:	00 00 84 38 	lb      r4,0x0000(r4)
    2838:	18 00 84 20 	lsli    r4,r4,0x0018
    283c:	18 00 84 24 	lsri    r4,r4,0x0018
    2840:	6c 00 a0 18 	ori     r5,r0,0x006c
    2844:	02 28 04 00 	sub     r0,r4,r5
    2848:	0a 00 40 40 	bne     0x00002870
    284c:	ec ff 9e 30 	lw      r4,0xffec(r30)
    2850:	06 00 84 24 	lsri    r4,r4,0x0006
    2854:	01 00 a4 14 	andi    r5,r4,0x0001
    2858:	00 00 80 18 	ori     r4,r0,0x0000
    285c:	02 20 05 00 	sub     r0,r5,r4
    2860:	04 00 00 40 	beq     0x00002870
    2864:	f4 ff 9e 30 	lw      r4,0xfff4(r30)
    2868:	01 00 84 04 	addi    r4,r4,0x0001
    286c:	f4 ff 9e 34 	sw      0xfff4(r30),r4
    2870:	f4 ff 9e 30 	lw      r4,0xfff4(r30)
    2874:	00 00 84 38 	lb      r4,0x0000(r4)
    2878:	18 00 84 20 	lsli    r4,r4,0x0018
    287c:	18 00 84 24 	lsri    r4,r4,0x0018
    2880:	db ff 84 04 	addi    r4,r4,0xffdb
    2884:	c8 ff 9e 34 	sw      0xffc8(r30),r4
    2888:	53 00 80 18 	ori     r4,r0,0x0053
    288c:	c8 ff be 30 	lw      r5,0xffc8(r30)
    2890:	02 20 05 00 	sub     r0,r5,r4
    2894:	0a 02 00 42 	bhi     0x000030bc
    2898:	c8 ff 9e 30 	lw      r4,0xffc8(r30)
    289c:	02 00 a4 20 	lsli    r5,r4,0x0002
    28a0:	01 00 80 2c 	ldih    r4,0x0001
    28a4:	40 6f 84 18 	ori     r4,r4,0x6f40
    28a8:	00 20 85 00 	add     r4,r5,r4
    28ac:	00 00 84 30 	lw      r4,0x0000(r4)
    28b0:	00 00 80 44 	jmpr    r4
    28b4:	f4 ff 9e 30 	lw      r4,0xfff4(r30)
    28b8:	00 00 84 38 	lb      r4,0x0000(r4)
    28bc:	18 00 84 20 	lsli    r4,r4,0x0018
    28c0:	18 00 84 24 	lsri    r4,r4,0x0018
    28c4:	78 00 a0 18 	ori     r5,r0,0x0078
    28c8:	02 28 04 00 	sub     r0,r4,r5
    28cc:	09 00 00 40 	beq     0x000028f0
    28d0:	f4 ff 9e 30 	lw      r4,0xfff4(r30)
    28d4:	00 00 84 38 	lb      r4,0x0000(r4)
    28d8:	18 00 84 20 	lsli    r4,r4,0x0018
    28dc:	18 00 84 24 	lsri    r4,r4,0x0018
    28e0:	58 00 a0 18 	ori     r5,r0,0x0058
    28e4:	02 28 04 00 	sub     r0,r4,r5
    28e8:	02 00 00 40 	beq     0x000028f0
    28ec:	3f 0a 00 80 	ajmp    0x000028fc
    28f0:	10 00 80 18 	ori     r4,r0,0x0010
    28f4:	d8 ff 9e 34 	sw      0xffd8(r30),r4
    28f8:	5f 0a 00 80 	ajmp    0x0000297c
    28fc:	f4 ff 9e 30 	lw      r4,0xfff4(r30)
    2900:	00 00 84 38 	lb      r4,0x0000(r4)
    2904:	18 00 84 20 	lsli    r4,r4,0x0018
    2908:	18 00 84 24 	lsri    r4,r4,0x0018
    290c:	6f 00 a0 18 	ori     r5,r0,0x006f
    2910:	02 28 04 00 	sub     r0,r4,r5
    2914:	04 00 40 40 	bne     0x00002924
    2918:	08 00 80 18 	ori     r4,r0,0x0008
    291c:	d8 ff 9e 34 	sw      0xffd8(r30),r4
    2920:	5f 0a 00 80 	ajmp    0x0000297c
    2924:	f4 ff 9e 30 	lw      r4,0xfff4(r30)
    2928:	00 00 84 38 	lb      r4,0x0000(r4)
    292c:	18 00 84 20 	lsli    r4,r4,0x0018
    2930:	18 00 84 24 	lsri    r4,r4,0x0018
    2934:	62 00 a0 18 	ori     r5,r0,0x0062
    2938:	02 28 04 00 	sub     r0,r4,r5
    293c:	09 00 40 40 	bne     0x00002960
    2940:	02 00 80 18 	ori     r4,r0,0x0002
    2944:	d8 ff 9e 34 	sw      0xffd8(r30),r4
    2948:	ec ff be 30 	lw      r5,0xffec(r30)
    294c:	ff ff 80 2c 	ldih    r4,0xffff
    2950:	ef ff 84 18 	ori     r4,r4,0xffef
    2954:	04 20 85 00 	and     r4,r5,r4
    2958:	ec ff 9e 34 	sw      0xffec(r30),r4
    295c:	5f 0a 00 80 	ajmp    0x0000297c
    2960:	0a 00 80 18 	ori     r4,r0,0x000a
    2964:	d8 ff 9e 34 	sw      0xffd8(r30),r4
    2968:	ec ff be 30 	lw      r5,0xffec(r30)
    296c:	ff ff 80 2c 	ldih    r4,0xffff
    2970:	ef ff 84 18 	ori     r4,r4,0xffef
    2974:	04 20 85 00 	and     r4,r5,r4
    2978:	ec ff 9e 34 	sw      0xffec(r30),r4
    297c:	f4 ff 9e 30 	lw      r4,0xfff4(r30)
    2980:	00 00 84 38 	lb      r4,0x0000(r4)
    2984:	18 00 84 20 	lsli    r4,r4,0x0018
    2988:	18 00 84 24 	lsri    r4,r4,0x0018
    298c:	58 00 a0 18 	ori     r5,r0,0x0058
    2990:	02 28 04 00 	sub     r0,r4,r5
    2994:	04 00 40 40 	bne     0x000029a4
    2998:	ec ff 9e 30 	lw      r4,0xffec(r30)
    299c:	20 00 84 18 	ori     r4,r4,0x0020
    29a0:	ec ff 9e 34 	sw      0xffec(r30),r4
    29a4:	f4 ff 9e 30 	lw      r4,0xfff4(r30)
    29a8:	00 00 84 38 	lb      r4,0x0000(r4)
    29ac:	18 00 84 20 	lsli    r4,r4,0x0018
    29b0:	18 00 84 24 	lsri    r4,r4,0x0018
    29b4:	69 00 a0 18 	ori     r5,r0,0x0069
    29b8:	02 28 04 00 	sub     r0,r4,r5
    29bc:	0d 00 00 40 	beq     0x000029f0
    29c0:	f4 ff 9e 30 	lw      r4,0xfff4(r30)
    29c4:	00 00 84 38 	lb      r4,0x0000(r4)
    29c8:	18 00 84 20 	lsli    r4,r4,0x0018
    29cc:	18 00 84 24 	lsri    r4,r4,0x0018
    29d0:	64 00 a0 18 	ori     r5,r0,0x0064
    29d4:	02 28 04 00 	sub     r0,r4,r5
    29d8:	06 00 00 40 	beq     0x000029f0
    29dc:	ec ff 9e 30 	lw      r4,0xffec(r30)
    29e0:	ff ff a0 2c 	ldih    r5,0xffff
    29e4:	f3 ff a5 18 	ori     r5,r5,0xfff3
    29e8:	04 28 84 00 	and     r4,r4,r5
    29ec:	ec ff 9e 34 	sw      0xffec(r30),r4
    29f0:	f4 ff 9e 30 	lw      r4,0xfff4(r30)
    29f4:	00 00 84 38 	lb      r4,0x0000(r4)
    29f8:	18 00 84 20 	lsli    r4,r4,0x0018
    29fc:	18 00 84 24 	lsri    r4,r4,0x0018
    2a00:	69 00 a0 18 	ori     r5,r0,0x0069
    2a04:	02 28 04 00 	sub     r0,r4,r5
    2a08:	09 00 00 40 	beq     0x00002a2c
    2a0c:	f4 ff 9e 30 	lw      r4,0xfff4(r30)
    2a10:	00 00 84 38 	lb      r4,0x0000(r4)
    2a14:	18 00 84 20 	lsli    r4,r4,0x0018
    2a18:	18 00 84 24 	lsri    r4,r4,0x0018
    2a1c:	64 00 a0 18 	ori     r5,r0,0x0064
    2a20:	02 28 04 00 	sub     r0,r4,r5
    2a24:	02 00 00 40 	beq     0x00002a2c
    2a28:	c7 0a 00 80 	ajmp    0x00002b1c
    2a2c:	ec ff 9e 30 	lw      r4,0xffec(r30)
    2a30:	06 00 84 24 	lsri    r4,r4,0x0006
    2a34:	01 00 a4 14 	andi    r5,r4,0x0001
    2a38:	00 00 80 18 	ori     r4,r0,0x0000
    2a3c:	02 20 05 00 	sub     r0,r5,r4
    2a40:	1c 00 00 40 	beq     0x00002ab0
    2a44:	f0 ff de 30 	lw      r6,0xfff0(r30)
    2a48:	f0 ff 9e 30 	lw      r4,0xfff0(r30)
    2a4c:	04 00 84 04 	addi    r4,r4,0x0004
    2a50:	f0 ff 9e 34 	sw      0xfff0(r30),r4
    2a54:	fc ff be 30 	lw      r5,0xfffc(r30)
    2a58:	dc ff 9e 30 	lw      r4,0xffdc(r30)
    2a5c:	00 20 e5 00 	add     r7,r5,r4
    2a60:	f8 ff be 30 	lw      r5,0xfff8(r30)
    2a64:	dc ff 9e 30 	lw      r4,0xffdc(r30)
    2a68:	02 20 85 00 	sub     r4,r5,r4
    2a6c:	00 00 9d 34 	sw      0x0000(r29),r4
    2a70:	e4 ff 9e 30 	lw      r4,0xffe4(r30)
    2a74:	04 00 9d 34 	sw      0x0004(r29),r4
    2a78:	e8 ff 9e 30 	lw      r4,0xffe8(r30)
    2a7c:	08 00 9d 34 	sw      0x0008(r29),r4
    2a80:	ec ff 9e 30 	lw      r4,0xffec(r30)
    2a84:	0c 00 9d 34 	sw      0x000c(r29),r4
    2a88:	00 00 80 18 	ori     r4,r0,0x0000
    2a8c:	00 00 a6 30 	lw      r5,0x0000(r6)
    2a90:	05 38 c0 00 	orr     r6,r0,r7
    2a94:	d8 ff fe 30 	lw      r7,0xffd8(r30)
    2a98:	c0 04 00 c0 	ajal    0x00001300
    2a9c:	05 10 a0 00 	orr     r5,r0,r2
    2aa0:	dc ff 9e 30 	lw      r4,0xffdc(r30)
    2aa4:	00 28 84 00 	add     r4,r4,r5
    2aa8:	dc ff 9e 34 	sw      0xffdc(r30),r4
    2aac:	02 0b 00 80 	ajmp    0x00002c08
    2ab0:	f0 ff de 30 	lw      r6,0xfff0(r30)
    2ab4:	f0 ff 9e 30 	lw      r4,0xfff0(r30)
    2ab8:	04 00 84 04 	addi    r4,r4,0x0004
    2abc:	f0 ff 9e 34 	sw      0xfff0(r30),r4
    2ac0:	fc ff be 30 	lw      r5,0xfffc(r30)
    2ac4:	dc ff 9e 30 	lw      r4,0xffdc(r30)
    2ac8:	00 20 e5 00 	add     r7,r5,r4
    2acc:	f8 ff be 30 	lw      r5,0xfff8(r30)
    2ad0:	dc ff 9e 30 	lw      r4,0xffdc(r30)
    2ad4:	02 20 85 00 	sub     r4,r5,r4
    2ad8:	00 00 9d 34 	sw      0x0000(r29),r4
    2adc:	e4 ff 9e 30 	lw      r4,0xffe4(r30)
    2ae0:	04 00 9d 34 	sw      0x0004(r29),r4
    2ae4:	e8 ff 9e 30 	lw      r4,0xffe8(r30)
    2ae8:	08 00 9d 34 	sw      0x0008(r29),r4
    2aec:	ec ff 9e 30 	lw      r4,0xffec(r30)
    2af0:	0c 00 9d 34 	sw      0x000c(r29),r4
    2af4:	00 00 80 18 	ori     r4,r0,0x0000
    2af8:	00 00 a6 30 	lw      r5,0x0000(r6)
    2afc:	05 38 c0 00 	orr     r6,r0,r7
    2b00:	d8 ff fe 30 	lw      r7,0xffd8(r30)
    2b04:	c0 04 00 c0 	ajal    0x00001300
    2b08:	05 10 a0 00 	orr     r5,r0,r2
    2b0c:	dc ff 9e 30 	lw      r4,0xffdc(r30)
    2b10:	00 28 84 00 	add     r4,r4,r5
    2b14:	dc ff 9e 34 	sw      0xffdc(r30),r4
    2b18:	02 0b 00 80 	ajmp    0x00002c08
    2b1c:	ec ff 9e 30 	lw      r4,0xffec(r30)
    2b20:	06 00 84 24 	lsri    r4,r4,0x0006
    2b24:	01 00 a4 14 	andi    r5,r4,0x0001
    2b28:	00 00 80 18 	ori     r4,r0,0x0000
    2b2c:	02 20 05 00 	sub     r0,r5,r4
    2b30:	1c 00 00 40 	beq     0x00002ba0
    2b34:	f0 ff de 30 	lw      r6,0xfff0(r30)
    2b38:	f0 ff 9e 30 	lw      r4,0xfff0(r30)
    2b3c:	04 00 84 04 	addi    r4,r4,0x0004
    2b40:	f0 ff 9e 34 	sw      0xfff0(r30),r4
    2b44:	fc ff be 30 	lw      r5,0xfffc(r30)
    2b48:	dc ff 9e 30 	lw      r4,0xffdc(r30)
    2b4c:	00 20 e5 00 	add     r7,r5,r4
    2b50:	f8 ff be 30 	lw      r5,0xfff8(r30)
    2b54:	dc ff 9e 30 	lw      r4,0xffdc(r30)
    2b58:	02 20 85 00 	sub     r4,r5,r4
    2b5c:	00 00 9d 34 	sw      0x0000(r29),r4
    2b60:	e4 ff 9e 30 	lw      r4,0xffe4(r30)
    2b64:	04 00 9d 34 	sw      0x0004(r29),r4
    2b68:	e8 ff 9e 30 	lw      r4,0xffe8(r30)
    2b6c:	08 00 9d 34 	sw      0x0008(r29),r4
    2b70:	ec ff 9e 30 	lw      r4,0xffec(r30)
    2b74:	0c 00 9d 34 	sw      0x000c(r29),r4
    2b78:	01 00 80 18 	ori     r4,r0,0x0001
    2b7c:	00 00 a6 30 	lw      r5,0x0000(r6)
    2b80:	05 38 c0 00 	orr     r6,r0,r7
    2b84:	d8 ff fe 30 	lw      r7,0xffd8(r30)
    2b88:	c0 04 00 c0 	ajal    0x00001300
    2b8c:	05 10 a0 00 	orr     r5,r0,r2
    2b90:	dc ff 9e 30 	lw      r4,0xffdc(r30)
    2b94:	00 28 84 00 	add     r4,r4,r5
    2b98:	dc ff 9e 34 	sw      0xffdc(r30),r4
    2b9c:	02 0b 00 80 	ajmp    0x00002c08
    2ba0:	f0 ff de 30 	lw      r6,0xfff0(r30)
    2ba4:	f0 ff 9e 30 	lw      r4,0xfff0(r30)
    2ba8:	04 00 84 04 	addi    r4,r4,0x0004
    2bac:	f0 ff 9e 34 	sw      0xfff0(r30),r4
    2bb0:	fc ff be 30 	lw      r5,0xfffc(r30)
    2bb4:	dc ff 9e 30 	lw      r4,0xffdc(r30)
    2bb8:	00 20 e5 00 	add     r7,r5,r4
    2bbc:	f8 ff be 30 	lw      r5,0xfff8(r30)
    2bc0:	dc ff 9e 30 	lw      r4,0xffdc(r30)
    2bc4:	02 20 85 00 	sub     r4,r5,r4
    2bc8:	00 00 9d 34 	sw      0x0000(r29),r4
    2bcc:	e4 ff 9e 30 	lw      r4,0xffe4(r30)
    2bd0:	04 00 9d 34 	sw      0x0004(r29),r4
    2bd4:	e8 ff 9e 30 	lw      r4,0xffe8(r30)
    2bd8:	08 00 9d 34 	sw      0x0008(r29),r4
    2bdc:	ec ff 9e 30 	lw      r4,0xffec(r30)
    2be0:	0c 00 9d 34 	sw      0x000c(r29),r4
    2be4:	01 00 80 18 	ori     r4,r0,0x0001
    2be8:	00 00 a6 30 	lw      r5,0x0000(r6)
    2bec:	05 38 c0 00 	orr     r6,r0,r7
    2bf0:	d8 ff fe 30 	lw      r7,0xffd8(r30)
    2bf4:	c0 04 00 c0 	ajal    0x00001300
    2bf8:	05 10 a0 00 	orr     r5,r0,r2
    2bfc:	dc ff 9e 30 	lw      r4,0xffdc(r30)
    2c00:	00 28 84 00 	add     r4,r4,r5
    2c04:	dc ff 9e 34 	sw      0xffdc(r30),r4
    2c08:	f4 ff 9e 30 	lw      r4,0xfff4(r30)
    2c0c:	01 00 84 04 	addi    r4,r4,0x0001
    2c10:	f4 ff 9e 34 	sw      0xfff4(r30),r4
    2c14:	31 09 00 80 	ajmp    0x000024c4
    2c18:	f0 ff de 30 	lw      r6,0xfff0(r30)
    2c1c:	f0 ff 9e 30 	lw      r4,0xfff0(r30)
    2c20:	08 00 84 04 	addi    r4,r4,0x0008
    2c24:	f0 ff 9e 34 	sw      0xfff0(r30),r4
    2c28:	fc ff be 30 	lw      r5,0xfffc(r30)
    2c2c:	dc ff 9e 30 	lw      r4,0xffdc(r30)
    2c30:	00 20 05 01 	add     r8,r5,r4
    2c34:	f8 ff be 30 	lw      r5,0xfff8(r30)
    2c38:	dc ff 9e 30 	lw      r4,0xffdc(r30)
    2c3c:	02 20 e5 00 	sub     r7,r5,r4
    2c40:	e4 ff 9e 30 	lw      r4,0xffe4(r30)
    2c44:	00 00 9d 34 	sw      0x0000(r29),r4
    2c48:	e8 ff 9e 30 	lw      r4,0xffe8(r30)
    2c4c:	04 00 9d 34 	sw      0x0004(r29),r4
    2c50:	ec ff 9e 30 	lw      r4,0xffec(r30)
    2c54:	08 00 9d 34 	sw      0x0008(r29),r4
    2c58:	00 00 86 30 	lw      r4,0x0000(r6)
    2c5c:	04 00 a6 30 	lw      r5,0x0004(r6)
    2c60:	05 40 c0 00 	orr     r6,r0,r8
    2c64:	a4 06 00 c0 	ajal    0x00001a90
    2c68:	05 10 a0 00 	orr     r5,r0,r2
    2c6c:	dc ff 9e 30 	lw      r4,0xffdc(r30)
    2c70:	00 28 84 00 	add     r4,r4,r5
    2c74:	dc ff 9e 34 	sw      0xffdc(r30),r4
    2c78:	f4 ff 9e 30 	lw      r4,0xfff4(r30)
    2c7c:	01 00 84 04 	addi    r4,r4,0x0001
    2c80:	f4 ff 9e 34 	sw      0xfff4(r30),r4
    2c84:	31 09 00 80 	ajmp    0x000024c4
    2c88:	01 00 80 18 	ori     r4,r0,0x0001
    2c8c:	d8 ff 9e 34 	sw      0xffd8(r30),r4
    2c90:	ec ff 9e 30 	lw      r4,0xffec(r30)
    2c94:	01 00 84 24 	lsri    r4,r4,0x0001
    2c98:	01 00 a4 14 	andi    r5,r4,0x0001
    2c9c:	00 00 80 18 	ori     r4,r0,0x0000
    2ca0:	02 20 05 00 	sub     r0,r5,r4
    2ca4:	17 00 40 40 	bne     0x00002d00
    2ca8:	dc ff be 30 	lw      r5,0xffdc(r30)
    2cac:	f8 ff 9e 30 	lw      r4,0xfff8(r30)
    2cb0:	02 20 05 00 	sub     r0,r5,r4
    2cb4:	13 00 00 41 	bhs     0x00002d00
    2cb8:	d8 ff be 04 	addi    r5,r30,0xffd8
    2cbc:	00 00 85 30 	lw      r4,0x0000(r5)
    2cc0:	05 20 c0 00 	orr     r6,r0,r4
    2cc4:	01 00 84 04 	addi    r4,r4,0x0001
    2cc8:	00 00 85 34 	sw      0x0000(r5),r4
    2ccc:	e8 ff 9e 30 	lw      r4,0xffe8(r30)
    2cd0:	02 20 06 00 	sub     r0,r6,r4
    2cd4:	0b 00 00 41 	bhs     0x00002d00
    2cd8:	dc ff fe 04 	addi    r7,r30,0xffdc
    2cdc:	00 00 a7 30 	lw      r5,0x0000(r7)
    2ce0:	05 28 c0 00 	orr     r6,r0,r5
    2ce4:	fc ff 9e 30 	lw      r4,0xfffc(r30)
    2ce8:	00 20 86 00 	add     r4,r6,r4
    2cec:	20 00 c0 18 	ori     r6,r0,0x0020
    2cf0:	00 00 c4 3c 	sb      0x0000(r4),r6
    2cf4:	01 00 a5 04 	addi    r5,r5,0x0001
    2cf8:	00 00 a7 34 	sw      0x0000(r7),r5
    2cfc:	2a 0b 00 80 	ajmp    0x00002ca8
    2d00:	dc ff fe 04 	addi    r7,r30,0xffdc
    2d04:	00 00 c7 30 	lw      r6,0x0000(r7)
    2d08:	05 30 a0 00 	orr     r5,r0,r6
    2d0c:	fc ff 9e 30 	lw      r4,0xfffc(r30)
    2d10:	00 20 05 01 	add     r8,r5,r4
    2d14:	f0 ff be 30 	lw      r5,0xfff0(r30)
    2d18:	f0 ff 9e 30 	lw      r4,0xfff0(r30)
    2d1c:	04 00 84 04 	addi    r4,r4,0x0004
    2d20:	f0 ff 9e 34 	sw      0xfff0(r30),r4
    2d24:	00 00 85 30 	lw      r4,0x0000(r5)
    2d28:	00 00 88 3c 	sb      0x0000(r8),r4
    2d2c:	01 00 c6 04 	addi    r6,r6,0x0001
    2d30:	00 00 c7 34 	sw      0x0000(r7),r6
    2d34:	ec ff 9e 30 	lw      r4,0xffec(r30)
    2d38:	01 00 84 24 	lsri    r4,r4,0x0001
    2d3c:	01 00 a4 14 	andi    r5,r4,0x0001
    2d40:	00 00 80 18 	ori     r4,r0,0x0000
    2d44:	02 20 05 00 	sub     r0,r5,r4
    2d48:	17 00 00 40 	beq     0x00002da4
    2d4c:	dc ff be 30 	lw      r5,0xffdc(r30)
    2d50:	f8 ff 9e 30 	lw      r4,0xfff8(r30)
    2d54:	02 20 05 00 	sub     r0,r5,r4
    2d58:	13 00 00 41 	bhs     0x00002da4
    2d5c:	d8 ff be 04 	addi    r5,r30,0xffd8
    2d60:	00 00 85 30 	lw      r4,0x0000(r5)
    2d64:	05 20 c0 00 	orr     r6,r0,r4
    2d68:	01 00 84 04 	addi    r4,r4,0x0001
    2d6c:	00 00 85 34 	sw      0x0000(r5),r4
    2d70:	e8 ff 9e 30 	lw      r4,0xffe8(r30)
    2d74:	02 20 06 00 	sub     r0,r6,r4
    2d78:	0b 00 00 41 	bhs     0x00002da4
    2d7c:	dc ff fe 04 	addi    r7,r30,0xffdc
    2d80:	00 00 a7 30 	lw      r5,0x0000(r7)
    2d84:	05 28 c0 00 	orr     r6,r0,r5
    2d88:	fc ff 9e 30 	lw      r4,0xfffc(r30)
    2d8c:	00 20 86 00 	add     r4,r6,r4
    2d90:	20 00 c0 18 	ori     r6,r0,0x0020
    2d94:	00 00 c4 3c 	sb      0x0000(r4),r6
    2d98:	01 00 a5 04 	addi    r5,r5,0x0001
    2d9c:	00 00 a7 34 	sw      0x0000(r7),r5
    2da0:	53 0b 00 80 	ajmp    0x00002d4c
    2da4:	f4 ff 9e 30 	lw      r4,0xfff4(r30)
    2da8:	01 00 84 04 	addi    r4,r4,0x0001
    2dac:	f4 ff 9e 34 	sw      0xfff4(r30),r4
    2db0:	31 09 00 80 	ajmp    0x000024c4
    2db4:	f0 ff be 30 	lw      r5,0xfff0(r30)
    2db8:	f0 ff 9e 30 	lw      r4,0xfff0(r30)
    2dbc:	04 00 84 04 	addi    r4,r4,0x0004
    2dc0:	f0 ff 9e 34 	sw      0xfff0(r30),r4
    2dc4:	00 00 85 30 	lw      r4,0x0000(r5)
    2dc8:	d8 ff 9e 34 	sw      0xffd8(r30),r4
    2dcc:	d8 ff 9e 30 	lw      r4,0xffd8(r30)
    2dd0:	5c 04 00 c0 	ajal    0x00001170
    2dd4:	05 10 80 00 	orr     r4,r0,r2
    2dd8:	d4 ff 9e 34 	sw      0xffd4(r30),r4
    2ddc:	ec ff 9e 30 	lw      r4,0xffec(r30)
    2de0:	08 00 84 24 	lsri    r4,r4,0x0008
    2de4:	01 00 a4 14 	andi    r5,r4,0x0001
    2de8:	00 00 80 18 	ori     r4,r0,0x0000
    2dec:	02 20 05 00 	sub     r0,r5,r4
    2df0:	0b 00 00 40 	beq     0x00002e1c
    2df4:	e4 ff 9e 30 	lw      r4,0xffe4(r30)
    2df8:	cc ff 9e 34 	sw      0xffcc(r30),r4
    2dfc:	d4 ff 9e 30 	lw      r4,0xffd4(r30)
    2e00:	cc ff be 30 	lw      r5,0xffcc(r30)
    2e04:	02 20 05 00 	sub     r0,r5,r4
    2e08:	03 00 40 42 	bls     0x00002e14
    2e0c:	d4 ff de 30 	lw      r6,0xffd4(r30)
    2e10:	cc ff de 34 	sw      0xffcc(r30),r6
    2e14:	cc ff 9e 30 	lw      r4,0xffcc(r30)
    2e18:	d4 ff 9e 34 	sw      0xffd4(r30),r4
    2e1c:	ec ff 9e 30 	lw      r4,0xffec(r30)
    2e20:	01 00 84 24 	lsri    r4,r4,0x0001
    2e24:	01 00 a4 14 	andi    r5,r4,0x0001
    2e28:	00 00 80 18 	ori     r4,r0,0x0000
    2e2c:	02 20 05 00 	sub     r0,r5,r4
    2e30:	17 00 40 40 	bne     0x00002e8c
    2e34:	dc ff be 30 	lw      r5,0xffdc(r30)
    2e38:	f8 ff 9e 30 	lw      r4,0xfff8(r30)
    2e3c:	02 20 05 00 	sub     r0,r5,r4
    2e40:	13 00 00 41 	bhs     0x00002e8c
    2e44:	d4 ff be 04 	addi    r5,r30,0xffd4
    2e48:	00 00 85 30 	lw      r4,0x0000(r5)
    2e4c:	05 20 c0 00 	orr     r6,r0,r4
    2e50:	01 00 84 04 	addi    r4,r4,0x0001
    2e54:	00 00 85 34 	sw      0x0000(r5),r4
    2e58:	e8 ff 9e 30 	lw      r4,0xffe8(r30)
    2e5c:	02 20 06 00 	sub     r0,r6,r4
    2e60:	0b 00 00 41 	bhs     0x00002e8c
    2e64:	dc ff fe 04 	addi    r7,r30,0xffdc
    2e68:	00 00 a7 30 	lw      r5,0x0000(r7)
    2e6c:	05 28 c0 00 	orr     r6,r0,r5
    2e70:	fc ff 9e 30 	lw      r4,0xfffc(r30)
    2e74:	00 20 86 00 	add     r4,r6,r4
    2e78:	20 00 c0 18 	ori     r6,r0,0x0020
    2e7c:	00 00 c4 3c 	sb      0x0000(r4),r6
    2e80:	01 00 a5 04 	addi    r5,r5,0x0001
    2e84:	00 00 a7 34 	sw      0x0000(r7),r5
    2e88:	8d 0b 00 80 	ajmp    0x00002e34
    2e8c:	dc ff be 30 	lw      r5,0xffdc(r30)
    2e90:	f8 ff 9e 30 	lw      r4,0xfff8(r30)
    2e94:	02 20 05 00 	sub     r0,r5,r4
    2e98:	25 00 00 41 	bhs     0x00002f2c
    2e9c:	d8 ff 9e 30 	lw      r4,0xffd8(r30)
    2ea0:	00 00 84 38 	lb      r4,0x0000(r4)
    2ea4:	18 00 84 20 	lsli    r4,r4,0x0018
    2ea8:	18 00 84 24 	lsri    r4,r4,0x0018
    2eac:	00 00 a0 18 	ori     r5,r0,0x0000
    2eb0:	02 28 04 00 	sub     r0,r4,r5
    2eb4:	1e 00 00 40 	beq     0x00002f2c
    2eb8:	ec ff 9e 30 	lw      r4,0xffec(r30)
    2ebc:	08 00 84 24 	lsri    r4,r4,0x0008
    2ec0:	01 00 a4 14 	andi    r5,r4,0x0001
    2ec4:	00 00 80 18 	ori     r4,r0,0x0000
    2ec8:	02 20 05 00 	sub     r0,r5,r4
    2ecc:	0a 00 00 40 	beq     0x00002ef4
    2ed0:	e4 ff 9e 30 	lw      r4,0xffe4(r30)
    2ed4:	ff ff 84 04 	addi    r4,r4,0xffff
    2ed8:	05 20 a0 00 	orr     r5,r0,r4
    2edc:	e4 ff be 34 	sw      0xffe4(r30),r5
    2ee0:	ff ff 80 2c 	ldih    r4,0xffff
    2ee4:	ff ff 84 18 	ori     r4,r4,0xffff
    2ee8:	02 20 05 00 	sub     r0,r5,r4
    2eec:	02 00 40 40 	bne     0x00002ef4
    2ef0:	cb 0b 00 80 	ajmp    0x00002f2c
    2ef4:	dc ff 1e 05 	addi    r8,r30,0xffdc
    2ef8:	00 00 c8 30 	lw      r6,0x0000(r8)
    2efc:	05 30 a0 00 	orr     r5,r0,r6
    2f00:	fc ff 9e 30 	lw      r4,0xfffc(r30)
    2f04:	00 20 25 01 	add     r9,r5,r4
    2f08:	d8 ff be 04 	addi    r5,r30,0xffd8
    2f0c:	00 00 85 30 	lw      r4,0x0000(r5)
    2f10:	00 00 e4 38 	lb      r7,0x0000(r4)
    2f14:	01 00 84 04 	addi    r4,r4,0x0001
    2f18:	00 00 85 34 	sw      0x0000(r5),r4
    2f1c:	00 00 e9 3c 	sb      0x0000(r9),r7
    2f20:	01 00 c6 04 	addi    r6,r6,0x0001
    2f24:	00 00 c8 34 	sw      0x0000(r8),r6
    2f28:	a3 0b 00 80 	ajmp    0x00002e8c
    2f2c:	ec ff 9e 30 	lw      r4,0xffec(r30)
    2f30:	01 00 84 24 	lsri    r4,r4,0x0001
    2f34:	01 00 a4 14 	andi    r5,r4,0x0001
    2f38:	00 00 80 18 	ori     r4,r0,0x0000
    2f3c:	02 20 05 00 	sub     r0,r5,r4
    2f40:	17 00 00 40 	beq     0x00002f9c
    2f44:	dc ff be 30 	lw      r5,0xffdc(r30)
    2f48:	f8 ff 9e 30 	lw      r4,0xfff8(r30)
    2f4c:	02 20 05 00 	sub     r0,r5,r4
    2f50:	13 00 00 41 	bhs     0x00002f9c
    2f54:	d4 ff be 04 	addi    r5,r30,0xffd4
    2f58:	00 00 85 30 	lw      r4,0x0000(r5)
    2f5c:	05 20 c0 00 	orr     r6,r0,r4
    2f60:	01 00 84 04 	addi    r4,r4,0x0001
    2f64:	00 00 85 34 	sw      0x0000(r5),r4
    2f68:	e8 ff 9e 30 	lw      r4,0xffe8(r30)
    2f6c:	02 20 06 00 	sub     r0,r6,r4
    2f70:	0b 00 00 41 	bhs     0x00002f9c
    2f74:	dc ff fe 04 	addi    r7,r30,0xffdc
    2f78:	00 00 a7 30 	lw      r5,0x0000(r7)
    2f7c:	05 28 c0 00 	orr     r6,r0,r5
    2f80:	fc ff 9e 30 	lw      r4,0xfffc(r30)
    2f84:	00 20 86 00 	add     r4,r6,r4
    2f88:	20 00 c0 18 	ori     r6,r0,0x0020
    2f8c:	00 00 c4 3c 	sb      0x0000(r4),r6
    2f90:	01 00 a5 04 	addi    r5,r5,0x0001
    2f94:	00 00 a7 34 	sw      0x0000(r7),r5
    2f98:	d1 0b 00 80 	ajmp    0x00002f44
    2f9c:	f4 ff 9e 30 	lw      r4,0xfff4(r30)
    2fa0:	01 00 84 04 	addi    r4,r4,0x0001
    2fa4:	f4 ff 9e 34 	sw      0xfff4(r30),r4
    2fa8:	31 09 00 80 	ajmp    0x000024c4
    2fac:	08 00 80 18 	ori     r4,r0,0x0008
    2fb0:	e8 ff 9e 34 	sw      0xffe8(r30),r4
    2fb4:	ec ff 9e 30 	lw      r4,0xffec(r30)
    2fb8:	01 00 84 18 	ori     r4,r4,0x0001
    2fbc:	ec ff 9e 34 	sw      0xffec(r30),r4
    2fc0:	04 00 80 18 	ori     r4,r0,0x0004
    2fc4:	d4 ff 9e 34 	sw      0xffd4(r30),r4
    2fc8:	dc ff fe 04 	addi    r7,r30,0xffdc
    2fcc:	00 00 a7 30 	lw      r5,0x0000(r7)
    2fd0:	05 28 c0 00 	orr     r6,r0,r5
    2fd4:	fc ff 9e 30 	lw      r4,0xfffc(r30)
    2fd8:	00 20 86 00 	add     r4,r6,r4
    2fdc:	30 00 c0 18 	ori     r6,r0,0x0030
    2fe0:	00 00 c4 3c 	sb      0x0000(r4),r6
    2fe4:	01 00 a5 04 	addi    r5,r5,0x0001
    2fe8:	00 00 a7 34 	sw      0x0000(r7),r5
    2fec:	dc ff fe 04 	addi    r7,r30,0xffdc
    2ff0:	00 00 a7 30 	lw      r5,0x0000(r7)
    2ff4:	05 28 c0 00 	orr     r6,r0,r5
    2ff8:	fc ff 9e 30 	lw      r4,0xfffc(r30)
    2ffc:	00 20 86 00 	add     r4,r6,r4
    3000:	78 00 c0 18 	ori     r6,r0,0x0078
    3004:	00 00 c4 3c 	sb      0x0000(r4),r6
    3008:	01 00 a5 04 	addi    r5,r5,0x0001
    300c:	00 00 a7 34 	sw      0x0000(r7),r5
    3010:	f0 ff de 30 	lw      r6,0xfff0(r30)
    3014:	f0 ff 9e 30 	lw      r4,0xfff0(r30)
    3018:	04 00 84 04 	addi    r4,r4,0x0004
    301c:	f0 ff 9e 34 	sw      0xfff0(r30),r4
    3020:	fc ff be 30 	lw      r5,0xfffc(r30)
    3024:	dc ff 9e 30 	lw      r4,0xffdc(r30)
    3028:	00 20 e5 00 	add     r7,r5,r4
    302c:	f8 ff be 30 	lw      r5,0xfff8(r30)
    3030:	dc ff 9e 30 	lw      r4,0xffdc(r30)
    3034:	02 20 85 00 	sub     r4,r5,r4
    3038:	00 00 9d 34 	sw      0x0000(r29),r4
    303c:	e4 ff 9e 30 	lw      r4,0xffe4(r30)
    3040:	04 00 9d 34 	sw      0x0004(r29),r4
    3044:	e8 ff 9e 30 	lw      r4,0xffe8(r30)
    3048:	08 00 9d 34 	sw      0x0008(r29),r4
    304c:	ec ff 9e 30 	lw      r4,0xffec(r30)
    3050:	0c 00 9d 34 	sw      0x000c(r29),r4
    3054:	01 00 80 18 	ori     r4,r0,0x0001
    3058:	00 00 a6 30 	lw      r5,0x0000(r6)
    305c:	05 38 c0 00 	orr     r6,r0,r7
    3060:	10 00 e0 18 	ori     r7,r0,0x0010
    3064:	c0 04 00 c0 	ajal    0x00001300
    3068:	05 10 a0 00 	orr     r5,r0,r2
    306c:	dc ff 9e 30 	lw      r4,0xffdc(r30)
    3070:	00 28 84 00 	add     r4,r4,r5
    3074:	dc ff 9e 34 	sw      0xffdc(r30),r4
    3078:	f4 ff 9e 30 	lw      r4,0xfff4(r30)
    307c:	01 00 84 04 	addi    r4,r4,0x0001
    3080:	f4 ff 9e 34 	sw      0xfff4(r30),r4
    3084:	31 09 00 80 	ajmp    0x000024c4
    3088:	dc ff fe 04 	addi    r7,r30,0xffdc
    308c:	00 00 a7 30 	lw      r5,0x0000(r7)
    3090:	05 28 c0 00 	orr     r6,r0,r5
    3094:	fc ff 9e 30 	lw      r4,0xfffc(r30)
    3098:	00 20 86 00 	add     r4,r6,r4
    309c:	25 00 c0 18 	ori     r6,r0,0x0025
    30a0:	00 00 c4 3c 	sb      0x0000(r4),r6
    30a4:	01 00 a5 04 	addi    r5,r5,0x0001
    30a8:	00 00 a7 34 	sw      0x0000(r7),r5
    30ac:	f4 ff 9e 30 	lw      r4,0xfff4(r30)
    30b0:	01 00 84 04 	addi    r4,r4,0x0001
    30b4:	f4 ff 9e 34 	sw      0xfff4(r30),r4
    30b8:	31 09 00 80 	ajmp    0x000024c4
    30bc:	dc ff fe 04 	addi    r7,r30,0xffdc
    30c0:	00 00 a7 30 	lw      r5,0x0000(r7)
    30c4:	05 28 c0 00 	orr     r6,r0,r5
    30c8:	fc ff 9e 30 	lw      r4,0xfffc(r30)
    30cc:	00 20 c6 00 	add     r6,r6,r4
    30d0:	f4 ff 9e 30 	lw      r4,0xfff4(r30)
    30d4:	00 00 84 38 	lb      r4,0x0000(r4)
    30d8:	00 00 86 3c 	sb      0x0000(r6),r4
    30dc:	01 00 a5 04 	addi    r5,r5,0x0001
    30e0:	00 00 a7 34 	sw      0x0000(r7),r5
    30e4:	f4 ff 9e 30 	lw      r4,0xfff4(r30)
    30e8:	01 00 84 04 	addi    r4,r4,0x0001
    30ec:	f4 ff 9e 34 	sw      0xfff4(r30),r4
    30f0:	31 09 00 80 	ajmp    0x000024c4
    30f4:	dc ff 9e 30 	lw      r4,0xffdc(r30)
    30f8:	05 20 40 00 	orr     r2,r0,r4
    30fc:	48 00 bd 07 	addi    r29,r29,0x0048
    3100:	05 f0 a0 03 	orr     r29,r0,r30
    3104:	10 00 bd 07 	addi    r29,r29,0x0010
    3108:	fc ff 1d 31 	lw      r8,0xfffc(r29)
    310c:	f8 ff 3d 31 	lw      r9,0xfff8(r29)
    3110:	f4 ff fd 33 	lw      r31,0xfff4(r29)
    3114:	f0 ff dd 33 	lw      r30,0xfff0(r29)
    3118:	00 00 e0 47 	jmpr    r31
    311c:	00 00 00 00 	nop

00003120 <printf>:
    3120:	f8 ff bd 07 	addi    r29,r29,0xfff8
    3124:	00 00 dd 37 	sw      0x0000(r29),r30
    3128:	04 00 fd 37 	sw      0x0004(r29),r31
    312c:	05 e8 c0 03 	orr     r30,r0,r29
    3130:	74 ff bd 07 	addi    r29,r29,0xff74
    3134:	0c 00 9e 04 	addi    r4,r30,0x000c
    3138:	fc ff 9e 34 	sw      0xfffc(r30),r4
    313c:	78 ff 9e 04 	addi    r4,r30,0xff78
    3140:	80 00 a0 18 	ori     r5,r0,0x0080
    3144:	08 00 de 30 	lw      r6,0x0008(r30)
    3148:	fc ff fe 30 	lw      r7,0xfffc(r30)
    314c:	24 09 00 c0 	ajal    0x00002490
    3150:	05 10 80 00 	orr     r4,r0,r2
    3154:	f8 ff 9e 34 	sw      0xfff8(r30),r4
    3158:	00 00 80 18 	ori     r4,r0,0x0000
    315c:	74 ff 9e 34 	sw      0xff74(r30),r4
    3160:	74 ff be 30 	lw      r5,0xff74(r30)
    3164:	f8 ff 9e 30 	lw      r4,0xfff8(r30)
    3168:	02 20 05 00 	sub     r0,r5,r4
    316c:	0c 00 00 41 	bhs     0x0000319c
    3170:	78 ff be 04 	addi    r5,r30,0xff78
    3174:	74 ff 9e 30 	lw      r4,0xff74(r30)
    3178:	00 20 85 00 	add     r4,r5,r4
    317c:	00 00 84 38 	lb      r4,0x0000(r4)
    3180:	18 00 84 20 	lsli    r4,r4,0x0018
    3184:	18 00 84 24 	lsri    r4,r4,0x0018
    3188:	c4 0c 00 c0 	ajal    0x00003310
    318c:	74 ff 9e 30 	lw      r4,0xff74(r30)
    3190:	01 00 84 04 	addi    r4,r4,0x0001
    3194:	74 ff 9e 34 	sw      0xff74(r30),r4
    3198:	58 0c 00 80 	ajmp    0x00003160
    319c:	f8 ff 9e 30 	lw      r4,0xfff8(r30)
    31a0:	05 20 40 00 	orr     r2,r0,r4
    31a4:	8c 00 bd 07 	addi    r29,r29,0x008c
    31a8:	05 f0 a0 03 	orr     r29,r0,r30
    31ac:	08 00 bd 07 	addi    r29,r29,0x0008
    31b0:	fc ff fd 33 	lw      r31,0xfffc(r29)
    31b4:	f8 ff dd 33 	lw      r30,0xfff8(r29)
    31b8:	00 00 e0 47 	jmpr    r31
    31bc:	00 00 00 00 	nop

000031c0 <sprintf>:
    31c0:	f8 ff bd 07 	addi    r29,r29,0xfff8
    31c4:	00 00 dd 37 	sw      0x0000(r29),r30
    31c8:	04 00 fd 37 	sw      0x0004(r29),r31
    31cc:	05 e8 c0 03 	orr     r30,r0,r29
    31d0:	f4 ff bd 07 	addi    r29,r29,0xfff4
    31d4:	fc ff 9e 34 	sw      0xfffc(r30),r4
    31d8:	0c 00 9e 04 	addi    r4,r30,0x000c
    31dc:	f8 ff 9e 34 	sw      0xfff8(r30),r4
    31e0:	fc ff 9e 30 	lw      r4,0xfffc(r30)
    31e4:	ff ff a0 2c 	ldih    r5,0xffff
    31e8:	ff ff a5 18 	ori     r5,r5,0xffff
    31ec:	08 00 de 30 	lw      r6,0x0008(r30)
    31f0:	f8 ff fe 30 	lw      r7,0xfff8(r30)
    31f4:	24 09 00 c0 	ajal    0x00002490
    31f8:	05 10 80 00 	orr     r4,r0,r2
    31fc:	f4 ff 9e 34 	sw      0xfff4(r30),r4
    3200:	f4 ff 9e 30 	lw      r4,0xfff4(r30)
    3204:	05 20 40 00 	orr     r2,r0,r4
    3208:	0c 00 bd 07 	addi    r29,r29,0x000c
    320c:	05 f0 a0 03 	orr     r29,r0,r30
    3210:	08 00 bd 07 	addi    r29,r29,0x0008
    3214:	fc ff fd 33 	lw      r31,0xfffc(r29)
    3218:	f8 ff dd 33 	lw      r30,0xfff8(r29)
    321c:	00 00 e0 47 	jmpr    r31

00003220 <snprintf>:
    3220:	f8 ff bd 07 	addi    r29,r29,0xfff8
    3224:	00 00 dd 37 	sw      0x0000(r29),r30
    3228:	04 00 fd 37 	sw      0x0004(r29),r31
    322c:	05 e8 c0 03 	orr     r30,r0,r29
    3230:	f0 ff bd 07 	addi    r29,r29,0xfff0
    3234:	fc ff 9e 34 	sw      0xfffc(r30),r4
    3238:	f8 ff be 34 	sw      0xfff8(r30),r5
    323c:	0c 00 9e 04 	addi    r4,r30,0x000c
    3240:	f4 ff 9e 34 	sw      0xfff4(r30),r4
    3244:	fc ff 9e 30 	lw      r4,0xfffc(r30)
    3248:	f8 ff be 30 	lw      r5,0xfff8(r30)
    324c:	08 00 de 30 	lw      r6,0x0008(r30)
    3250:	f4 ff fe 30 	lw      r7,0xfff4(r30)
    3254:	24 09 00 c0 	ajal    0x00002490
    3258:	05 10 80 00 	orr     r4,r0,r2
    325c:	f0 ff 9e 34 	sw      0xfff0(r30),r4
    3260:	f0 ff 9e 30 	lw      r4,0xfff0(r30)
    3264:	05 20 40 00 	orr     r2,r0,r4
    3268:	10 00 bd 07 	addi    r29,r29,0x0010
    326c:	05 f0 a0 03 	orr     r29,r0,r30
    3270:	08 00 bd 07 	addi    r29,r29,0x0008
    3274:	fc ff fd 33 	lw      r31,0xfffc(r29)
    3278:	f8 ff dd 33 	lw      r30,0xfff8(r29)
    327c:	00 00 e0 47 	jmpr    r31

00003280 <heap_init>:
    3280:	f8 ff bd 07 	addi    r29,r29,0xfff8
    3284:	00 00 dd 37 	sw      0x0000(r29),r30
    3288:	04 00 fd 37 	sw      0x0004(r29),r31
    328c:	05 e8 c0 03 	orr     r30,r0,r29
    3290:	fc ff bd 07 	addi    r29,r29,0xfffc
    3294:	01 00 80 2c 	ldih    r4,0x0001
    3298:	90 70 84 18 	ori     r4,r4,0x7090
    329c:	e0 01 a0 2c 	ldih    r5,0x01e0
    32a0:	00 00 a5 18 	ori     r5,r5,0x0000
    32a4:	20 00 c0 2c 	ldih    r6,0x0020
    32a8:	00 00 c6 18 	ori     r6,r6,0x0000
    32ac:	10 03 00 c0 	ajal    0x00000c40
    32b0:	05 10 80 00 	orr     r4,r0,r2
    32b4:	fc ff 9e 34 	sw      0xfffc(r30),r4
    32b8:	00 00 80 18 	ori     r4,r0,0x0000
    32bc:	fc ff be 30 	lw      r5,0xfffc(r30)
    32c0:	44 04 00 c0 	ajal    0x00001110
    32c4:	04 00 bd 07 	addi    r29,r29,0x0004
    32c8:	05 f0 a0 03 	orr     r29,r0,r30
    32cc:	08 00 bd 07 	addi    r29,r29,0x0008
    32d0:	fc ff fd 33 	lw      r31,0xfffc(r29)
    32d4:	f8 ff dd 33 	lw      r30,0xfff8(r29)
    32d8:	00 00 e0 47 	jmpr    r31
    32dc:	00 00 00 00 	nop

000032e0 <soc_init>:
    32e0:	f8 ff bd 07 	addi    r29,r29,0xfff8
    32e4:	00 00 dd 37 	sw      0x0000(r29),r30
    32e8:	04 00 fd 37 	sw      0x0004(r29),r31
    32ec:	05 e8 c0 03 	orr     r30,r0,r29
    32f0:	a0 0c 00 c0 	ajal    0x00003280
    32f4:	05 f0 a0 03 	orr     r29,r0,r30
    32f8:	08 00 bd 07 	addi    r29,r29,0x0008
    32fc:	fc ff fd 33 	lw      r31,0xfffc(r29)
    3300:	f8 ff dd 33 	lw      r30,0xfff8(r29)
    3304:	00 00 e0 47 	jmpr    r31
    3308:	00 00 00 00 	nop
    330c:	00 00 00 00 	nop

00003310 <putchar>:
    3310:	fc ff bd 07 	addi    r29,r29,0xfffc
    3314:	00 00 dd 37 	sw      0x0000(r29),r30
    3318:	05 e8 c0 03 	orr     r30,r0,r29
    331c:	fc ff bd 07 	addi    r29,r29,0xfffc
    3320:	fc ff 9e 34 	sw      0xfffc(r30),r4
    3324:	00 80 80 2c 	ldih    r4,0x8000
    3328:	00 00 84 18 	ori     r4,r4,0x0000
    332c:	fc ff be 30 	lw      r5,0xfffc(r30)
    3330:	00 00 a4 3c 	sb      0x0000(r4),r5
    3334:	00 00 80 18 	ori     r4,r0,0x0000
    3338:	05 20 40 00 	orr     r2,r0,r4
    333c:	04 00 bd 07 	addi    r29,r29,0x0004
    3340:	05 f0 a0 03 	orr     r29,r0,r30
    3344:	04 00 bd 07 	addi    r29,r29,0x0004
    3348:	fc ff dd 33 	lw      r30,0xfffc(r29)
    334c:	00 00 e0 47 	jmpr    r31

00003350 <puts>:
    3350:	f8 ff bd 07 	addi    r29,r29,0xfff8
    3354:	00 00 dd 37 	sw      0x0000(r29),r30
    3358:	04 00 fd 37 	sw      0x0004(r29),r31
    335c:	05 e8 c0 03 	orr     r30,r0,r29
    3360:	fc ff bd 07 	addi    r29,r29,0xfffc
    3364:	fc ff 9e 34 	sw      0xfffc(r30),r4
    3368:	fc ff 9e 30 	lw      r4,0xfffc(r30)
    336c:	00 00 84 38 	lb      r4,0x0000(r4)
    3370:	18 00 84 20 	lsli    r4,r4,0x0018
    3374:	18 00 84 24 	lsri    r4,r4,0x0018
    3378:	00 00 a0 18 	ori     r5,r0,0x0000
    337c:	02 28 04 00 	sub     r0,r4,r5
    3380:	0b 00 00 40 	beq     0x000033ac
    3384:	fc ff de 04 	addi    r6,r30,0xfffc
    3388:	00 00 a6 30 	lw      r5,0x0000(r6)
    338c:	05 28 80 00 	orr     r4,r0,r5
    3390:	00 00 84 38 	lb      r4,0x0000(r4)
    3394:	18 00 84 20 	lsli    r4,r4,0x0018
    3398:	18 00 84 24 	lsri    r4,r4,0x0018
    339c:	01 00 a5 04 	addi    r5,r5,0x0001
    33a0:	00 00 a6 34 	sw      0x0000(r6),r5
    33a4:	c4 0c 00 c0 	ajal    0x00003310
    33a8:	da 0c 00 80 	ajmp    0x00003368
    33ac:	0a 00 80 18 	ori     r4,r0,0x000a
    33b0:	c4 0c 00 c0 	ajal    0x00003310
    33b4:	00 00 80 18 	ori     r4,r0,0x0000
    33b8:	05 20 40 00 	orr     r2,r0,r4
    33bc:	04 00 bd 07 	addi    r29,r29,0x0004
    33c0:	05 f0 a0 03 	orr     r29,r0,r30
    33c4:	08 00 bd 07 	addi    r29,r29,0x0008
    33c8:	fc ff fd 33 	lw      r31,0xfffc(r29)
    33cc:	f8 ff dd 33 	lw      r30,0xfff8(r29)
    33d0:	00 00 e0 47 	jmpr    r31
    33d4:	00 00 00 00 	nop
    33d8:	00 00 00 00 	nop
    33dc:	00 00 00 00 	nop

000033e0 <kbhit>:
    33e0:	fc ff bd 07 	addi    r29,r29,0xfffc
    33e4:	00 00 dd 37 	sw      0x0000(r29),r30
    33e8:	05 e8 c0 03 	orr     r30,r0,r29
    33ec:	fc ff bd 07 	addi    r29,r29,0xfffc
    33f0:	00 80 80 2c 	ldih    r4,0x8000
    33f4:	04 00 84 18 	ori     r4,r4,0x0004
    33f8:	fc ff 9e 34 	sw      0xfffc(r30),r4
    33fc:	fc ff 9e 30 	lw      r4,0xfffc(r30)
    3400:	00 00 84 38 	lb      r4,0x0000(r4)
    3404:	18 00 84 20 	lsli    r4,r4,0x0018
    3408:	18 00 84 24 	lsri    r4,r4,0x0018
    340c:	01 00 84 14 	andi    r4,r4,0x0001
    3410:	05 20 40 00 	orr     r2,r0,r4
    3414:	04 00 bd 07 	addi    r29,r29,0x0004
    3418:	05 f0 a0 03 	orr     r29,r0,r30
    341c:	04 00 bd 07 	addi    r29,r29,0x0004
    3420:	fc ff dd 33 	lw      r30,0xfffc(r29)
    3424:	00 00 e0 47 	jmpr    r31
    3428:	00 00 00 00 	nop
    342c:	00 00 00 00 	nop

00003430 <_getchar>:
    3430:	f8 ff bd 07 	addi    r29,r29,0xfff8
    3434:	00 00 dd 37 	sw      0x0000(r29),r30
    3438:	04 00 fd 37 	sw      0x0004(r29),r31
    343c:	05 e8 c0 03 	orr     r30,r0,r29
    3440:	f8 0c 00 c0 	ajal    0x000033e0
    3444:	05 10 a0 00 	orr     r5,r0,r2
    3448:	00 00 80 18 	ori     r4,r0,0x0000
    344c:	02 20 05 00 	sub     r0,r5,r4
    3450:	02 00 40 40 	bne     0x00003458
    3454:	10 0d 00 80 	ajmp    0x00003440
    3458:	00 80 80 2c 	ldih    r4,0x8000
    345c:	00 00 84 18 	ori     r4,r4,0x0000
    3460:	00 00 84 38 	lb      r4,0x0000(r4)
    3464:	18 00 84 20 	lsli    r4,r4,0x0018
    3468:	18 00 84 24 	lsri    r4,r4,0x0018
    346c:	05 20 40 00 	orr     r2,r0,r4
    3470:	05 f0 a0 03 	orr     r29,r0,r30
    3474:	08 00 bd 07 	addi    r29,r29,0x0008
    3478:	fc ff fd 33 	lw      r31,0xfffc(r29)
    347c:	f8 ff dd 33 	lw      r30,0xfff8(r29)
    3480:	00 00 e0 47 	jmpr    r31
    3484:	00 00 00 00 	nop
    3488:	00 00 00 00 	nop
    348c:	00 00 00 00 	nop

00003490 <_putint0>:
    3490:	f8 ff bd 07 	addi    r29,r29,0xfff8
    3494:	00 00 dd 37 	sw      0x0000(r29),r30
    3498:	04 00 fd 37 	sw      0x0004(r29),r31
    349c:	05 e8 c0 03 	orr     r30,r0,r29
    34a0:	fc ff bd 07 	addi    r29,r29,0xfffc
    34a4:	fc ff 9e 34 	sw      0xfffc(r30),r4
    34a8:	fc ff be 30 	lw      r5,0xfffc(r30)
    34ac:	09 00 80 18 	ori     r4,r0,0x0009
    34b0:	02 20 05 00 	sub     r0,r5,r4
    34b4:	05 00 40 42 	bls     0x000034c8
    34b8:	fc ff 9e 30 	lw      r4,0xfffc(r30)
    34bc:	0a 00 a0 18 	ori     r5,r0,0x000a
    34c0:	0e 28 84 00 	divu    r4,r4,r5
    34c4:	24 0d 00 c0 	ajal    0x00003490
    34c8:	fc ff be 30 	lw      r5,0xfffc(r30)
    34cc:	0a 00 80 18 	ori     r4,r0,0x000a
    34d0:	0f 20 85 00 	modu    r4,r5,r4
    34d4:	30 00 84 04 	addi    r4,r4,0x0030
    34d8:	c4 0c 00 c0 	ajal    0x00003310
    34dc:	04 00 bd 07 	addi    r29,r29,0x0004
    34e0:	05 f0 a0 03 	orr     r29,r0,r30
    34e4:	08 00 bd 07 	addi    r29,r29,0x0008
    34e8:	fc ff fd 33 	lw      r31,0xfffc(r29)
    34ec:	f8 ff dd 33 	lw      r30,0xfff8(r29)
    34f0:	00 00 e0 47 	jmpr    r31
    34f4:	00 00 00 00 	nop
    34f8:	00 00 00 00 	nop
    34fc:	00 00 00 00 	nop

00003500 <putint>:
    3500:	f8 ff bd 07 	addi    r29,r29,0xfff8
    3504:	00 00 dd 37 	sw      0x0000(r29),r30
    3508:	04 00 fd 37 	sw      0x0004(r29),r31
    350c:	05 e8 c0 03 	orr     r30,r0,r29
    3510:	fc ff bd 07 	addi    r29,r29,0xfffc
    3514:	fc ff 9e 34 	sw      0xfffc(r30),r4
    3518:	fc ff be 30 	lw      r5,0xfffc(r30)
    351c:	00 00 80 18 	ori     r4,r0,0x0000
    3520:	02 20 05 00 	sub     r0,r5,r4
    3524:	06 00 80 42 	bge     0x0000353c
    3528:	2d 00 80 18 	ori     r4,r0,0x002d
    352c:	c4 0c 00 c0 	ajal    0x00003310
    3530:	fc ff 9e 30 	lw      r4,0xfffc(r30)
    3534:	02 20 80 00 	sub     r4,r0,r4
    3538:	fc ff 9e 34 	sw      0xfffc(r30),r4
    353c:	fc ff 9e 30 	lw      r4,0xfffc(r30)
    3540:	24 0d 00 c0 	ajal    0x00003490
    3544:	0a 00 80 18 	ori     r4,r0,0x000a
    3548:	c4 0c 00 c0 	ajal    0x00003310
    354c:	04 00 bd 07 	addi    r29,r29,0x0004
    3550:	05 f0 a0 03 	orr     r29,r0,r30
    3554:	08 00 bd 07 	addi    r29,r29,0x0008
    3558:	fc ff fd 33 	lw      r31,0xfffc(r29)
    355c:	f8 ff dd 33 	lw      r30,0xfff8(r29)
    3560:	00 00 e0 47 	jmpr    r31
    3564:	00 00 00 00 	nop
    3568:	00 00 00 00 	nop
    356c:	00 00 00 00 	nop

00003570 <puthex>:
    3570:	f8 ff bd 07 	addi    r29,r29,0xfff8
    3574:	00 00 dd 37 	sw      0x0000(r29),r30
    3578:	04 00 fd 37 	sw      0x0004(r29),r31
    357c:	05 e8 c0 03 	orr     r30,r0,r29
    3580:	e8 ff bd 07 	addi    r29,r29,0xffe8
    3584:	fc ff 9e 34 	sw      0xfffc(r30),r4
    3588:	01 00 80 2c 	ldih    r4,0x0001
    358c:	9a 70 84 18 	ori     r4,r4,0x709a
    3590:	f4 ff 9e 34 	sw      0xfff4(r30),r4
    3594:	00 00 80 18 	ori     r4,r0,0x0000
    3598:	f8 ff 9e 34 	sw      0xfff8(r30),r4
    359c:	f8 ff be 30 	lw      r5,0xfff8(r30)
    35a0:	07 00 80 18 	ori     r4,r0,0x0007
    35a4:	02 20 05 00 	sub     r0,r5,r4
    35a8:	13 00 00 43 	bgt     0x000035f4
    35ac:	07 00 a0 18 	ori     r5,r0,0x0007
    35b0:	f8 ff 9e 30 	lw      r4,0xfff8(r30)
    35b4:	02 20 a5 00 	sub     r5,r5,r4
    35b8:	e8 ff 9e 04 	addi    r4,r30,0xffe8
    35bc:	00 28 c4 00 	add     r6,r4,r5
    35c0:	fc ff 9e 30 	lw      r4,0xfffc(r30)
    35c4:	0f 00 a4 14 	andi    r5,r4,0x000f
    35c8:	f4 ff 9e 30 	lw      r4,0xfff4(r30)
    35cc:	00 20 85 00 	add     r4,r5,r4
    35d0:	00 00 84 38 	lb      r4,0x0000(r4)
    35d4:	00 00 86 3c 	sb      0x0000(r6),r4
    35d8:	fc ff 9e 30 	lw      r4,0xfffc(r30)
    35dc:	04 00 84 24 	lsri    r4,r4,0x0004
    35e0:	fc ff 9e 34 	sw      0xfffc(r30),r4
    35e4:	f8 ff 9e 30 	lw      r4,0xfff8(r30)
    35e8:	01 00 84 04 	addi    r4,r4,0x0001
    35ec:	f8 ff 9e 34 	sw      0xfff8(r30),r4
    35f0:	67 0d 00 80 	ajmp    0x0000359c
    35f4:	00 00 80 18 	ori     r4,r0,0x0000
    35f8:	f1 ff 9e 3c 	sb      0xfff1(r30),r4
    35fc:	e8 ff 9e 04 	addi    r4,r30,0xffe8
    3600:	d4 0c 00 c0 	ajal    0x00003350
    3604:	18 00 bd 07 	addi    r29,r29,0x0018
    3608:	05 f0 a0 03 	orr     r29,r0,r30
    360c:	08 00 bd 07 	addi    r29,r29,0x0008
    3610:	fc ff fd 33 	lw      r31,0xfffc(r29)
    3614:	f8 ff dd 33 	lw      r30,0xfff8(r29)
    3618:	00 00 e0 47 	jmpr    r31
    361c:	00 00 00 00 	nop

00003620 <malloc>:
    3620:	f8 ff bd 07 	addi    r29,r29,0xfff8
    3624:	00 00 dd 37 	sw      0x0000(r29),r30
    3628:	04 00 fd 37 	sw      0x0004(r29),r31
    362c:	05 e8 c0 03 	orr     r30,r0,r29
    3630:	fc ff bd 07 	addi    r29,r29,0xfffc
    3634:	fc ff 9e 34 	sw      0xfffc(r30),r4
    3638:	01 00 80 2c 	ldih    r4,0x0001
    363c:	ab 70 84 18 	ori     r4,r4,0x70ab
    3640:	d4 0c 00 c0 	ajal    0x00003350
    3644:	00 00 80 18 	ori     r4,r0,0x0000
    3648:	fc ff be 30 	lw      r5,0xfffc(r30)
    364c:	50 03 00 c0 	ajal    0x00000d40
    3650:	05 10 80 00 	orr     r4,r0,r2
    3654:	05 20 40 00 	orr     r2,r0,r4
    3658:	04 00 bd 07 	addi    r29,r29,0x0004
    365c:	05 f0 a0 03 	orr     r29,r0,r30
    3660:	08 00 bd 07 	addi    r29,r29,0x0008
    3664:	fc ff fd 33 	lw      r31,0xfffc(r29)
    3668:	f8 ff dd 33 	lw      r30,0xfff8(r29)
    366c:	00 00 e0 47 	jmpr    r31

00003670 <calloc>:
    3670:	f8 ff bd 07 	addi    r29,r29,0xfff8
    3674:	00 00 dd 37 	sw      0x0000(r29),r30
    3678:	04 00 fd 37 	sw      0x0004(r29),r31
    367c:	05 e8 c0 03 	orr     r30,r0,r29
    3680:	ec ff bd 07 	addi    r29,r29,0xffec
    3684:	fc ff 9e 34 	sw      0xfffc(r30),r4
    3688:	f8 ff be 34 	sw      0xfff8(r30),r5
    368c:	01 00 80 2c 	ldih    r4,0x0001
    3690:	b9 70 84 18 	ori     r4,r4,0x70b9
    3694:	d4 0c 00 c0 	ajal    0x00003350
    3698:	fc ff be 30 	lw      r5,0xfffc(r30)
    369c:	f8 ff 9e 30 	lw      r4,0xfff8(r30)
    36a0:	0a 20 85 00 	mul     r4,r5,r4
    36a4:	f4 ff 9e 34 	sw      0xfff4(r30),r4
    36a8:	00 00 80 18 	ori     r4,r0,0x0000
    36ac:	f4 ff be 30 	lw      r5,0xfff4(r30)
    36b0:	50 03 00 c0 	ajal    0x00000d40
    36b4:	05 10 80 00 	orr     r4,r0,r2
    36b8:	f0 ff 9e 34 	sw      0xfff0(r30),r4
    36bc:	f0 ff be 30 	lw      r5,0xfff0(r30)
    36c0:	00 00 80 18 	ori     r4,r0,0x0000
    36c4:	02 20 05 00 	sub     r0,r5,r4
    36c8:	04 00 40 40 	bne     0x000036d8
    36cc:	00 00 80 18 	ori     r4,r0,0x0000
    36d0:	ec ff 9e 34 	sw      0xffec(r30),r4
    36d4:	bc 0d 00 80 	ajmp    0x000036f0
    36d8:	f0 ff 9e 30 	lw      r4,0xfff0(r30)
    36dc:	00 00 a0 18 	ori     r5,r0,0x0000
    36e0:	f4 ff de 30 	lw      r6,0xfff4(r30)
    36e4:	c0 0f 00 c0 	ajal    0x00003f00
    36e8:	05 10 80 00 	orr     r4,r0,r2
    36ec:	ec ff 9e 34 	sw      0xffec(r30),r4
    36f0:	ec ff 5e 30 	lw      r2,0xffec(r30)
    36f4:	14 00 bd 07 	addi    r29,r29,0x0014
    36f8:	05 f0 a0 03 	orr     r29,r0,r30
    36fc:	08 00 bd 07 	addi    r29,r29,0x0008
    3700:	fc ff fd 33 	lw      r31,0xfffc(r29)
    3704:	f8 ff dd 33 	lw      r30,0xfff8(r29)
    3708:	00 00 e0 47 	jmpr    r31
    370c:	00 00 00 00 	nop

00003710 <free>:
    3710:	f8 ff bd 07 	addi    r29,r29,0xfff8
    3714:	00 00 dd 37 	sw      0x0000(r29),r30
    3718:	04 00 fd 37 	sw      0x0004(r29),r31
    371c:	05 e8 c0 03 	orr     r30,r0,r29
    3720:	fc ff bd 07 	addi    r29,r29,0xfffc
    3724:	fc ff 9e 34 	sw      0xfffc(r30),r4
    3728:	01 00 80 2c 	ldih    r4,0x0001
    372c:	c7 70 84 18 	ori     r4,r4,0x70c7
    3730:	d4 0c 00 c0 	ajal    0x00003350
    3734:	fc ff 9e 30 	lw      r4,0xfffc(r30)
    3738:	bc 03 00 c0 	ajal    0x00000ef0
    373c:	04 00 bd 07 	addi    r29,r29,0x0004
    3740:	05 f0 a0 03 	orr     r29,r0,r30
    3744:	08 00 bd 07 	addi    r29,r29,0x0008
    3748:	fc ff fd 33 	lw      r31,0xfffc(r29)
    374c:	f8 ff dd 33 	lw      r30,0xfff8(r29)
    3750:	00 00 e0 47 	jmpr    r31
    3754:	00 00 00 00 	nop
    3758:	00 00 00 00 	nop
    375c:	00 00 00 00 	nop

00003760 <exit>:
    3760:	f8 ff bd 07 	addi    r29,r29,0xfff8
    3764:	00 00 dd 37 	sw      0x0000(r29),r30
    3768:	04 00 fd 37 	sw      0x0004(r29),r31
    376c:	05 e8 c0 03 	orr     r30,r0,r29
    3770:	fc ff bd 07 	addi    r29,r29,0xfffc
    3774:	fc ff 9e 34 	sw      0xfffc(r30),r4
    3778:	25 00 00 c0 	ajal    0x00000094
    377c:	04 00 bd 07 	addi    r29,r29,0x0004
    3780:	05 f0 a0 03 	orr     r29,r0,r30
    3784:	08 00 bd 07 	addi    r29,r29,0x0008
    3788:	fc ff fd 33 	lw      r31,0xfffc(r29)
    378c:	f8 ff dd 33 	lw      r30,0xfff8(r29)
    3790:	00 00 e0 47 	jmpr    r31
    3794:	00 00 00 00 	nop
    3798:	00 00 00 00 	nop
    379c:	00 00 00 00 	nop

000037a0 <labs>:
    37a0:	fc ff bd 07 	addi    r29,r29,0xfffc
    37a4:	00 00 dd 37 	sw      0x0000(r29),r30
    37a8:	05 e8 c0 03 	orr     r30,r0,r29
    37ac:	f8 ff bd 07 	addi    r29,r29,0xfff8
    37b0:	fc ff 9e 34 	sw      0xfffc(r30),r4
    37b4:	fc ff 9e 30 	lw      r4,0xfffc(r30)
    37b8:	f8 ff 9e 34 	sw      0xfff8(r30),r4
    37bc:	00 00 80 18 	ori     r4,r0,0x0000
    37c0:	f8 ff be 30 	lw      r5,0xfff8(r30)
    37c4:	02 20 05 00 	sub     r0,r5,r4
    37c8:	04 00 80 42 	bge     0x000037d8
    37cc:	f8 ff 9e 30 	lw      r4,0xfff8(r30)
    37d0:	02 20 80 00 	sub     r4,r0,r4
    37d4:	f8 ff 9e 34 	sw      0xfff8(r30),r4
    37d8:	f8 ff 9e 30 	lw      r4,0xfff8(r30)
    37dc:	05 20 40 00 	orr     r2,r0,r4
    37e0:	08 00 bd 07 	addi    r29,r29,0x0008
    37e4:	05 f0 a0 03 	orr     r29,r0,r30
    37e8:	04 00 bd 07 	addi    r29,r29,0x0004
    37ec:	fc ff dd 33 	lw      r30,0xfffc(r29)
    37f0:	00 00 e0 47 	jmpr    r31
    37f4:	00 00 00 00 	nop
    37f8:	00 00 00 00 	nop
    37fc:	00 00 00 00 	nop

00003800 <abs>:
    3800:	fc ff bd 07 	addi    r29,r29,0xfffc
    3804:	00 00 dd 37 	sw      0x0000(r29),r30
    3808:	05 e8 c0 03 	orr     r30,r0,r29
    380c:	f8 ff bd 07 	addi    r29,r29,0xfff8
    3810:	fc ff 9e 34 	sw      0xfffc(r30),r4
    3814:	fc ff 9e 30 	lw      r4,0xfffc(r30)
    3818:	f8 ff 9e 34 	sw      0xfff8(r30),r4
    381c:	00 00 80 18 	ori     r4,r0,0x0000
    3820:	f8 ff be 30 	lw      r5,0xfff8(r30)
    3824:	02 20 05 00 	sub     r0,r5,r4
    3828:	04 00 80 42 	bge     0x00003838
    382c:	f8 ff 9e 30 	lw      r4,0xfff8(r30)
    3830:	02 20 80 00 	sub     r4,r0,r4
    3834:	f8 ff 9e 34 	sw      0xfff8(r30),r4
    3838:	f8 ff 9e 30 	lw      r4,0xfff8(r30)
    383c:	05 20 40 00 	orr     r2,r0,r4
    3840:	08 00 bd 07 	addi    r29,r29,0x0008
    3844:	05 f0 a0 03 	orr     r29,r0,r30
    3848:	04 00 bd 07 	addi    r29,r29,0x0004
    384c:	fc ff dd 33 	lw      r30,0xfffc(r29)
    3850:	00 00 e0 47 	jmpr    r31
    3854:	00 00 00 00 	nop
    3858:	00 00 00 00 	nop
    385c:	00 00 00 00 	nop

00003860 <rand>:
    3860:	fc ff bd 07 	addi    r29,r29,0xfffc
    3864:	00 00 dd 37 	sw      0x0000(r29),r30
    3868:	05 e8 c0 03 	orr     r30,r0,r29
    386c:	00 86 80 2c 	ldih    r4,0x8600
    3870:	00 00 84 18 	ori     r4,r4,0x0000
    3874:	00 00 84 30 	lw      r4,0x0000(r4)
    3878:	05 20 40 00 	orr     r2,r0,r4
    387c:	05 f0 a0 03 	orr     r29,r0,r30
    3880:	04 00 bd 07 	addi    r29,r29,0x0004
    3884:	fc ff dd 33 	lw      r30,0xfffc(r29)
    3888:	00 00 e0 47 	jmpr    r31
    388c:	00 00 00 00 	nop

00003890 <strlen>:
    3890:	fc ff bd 07 	addi    r29,r29,0xfffc
    3894:	00 00 dd 37 	sw      0x0000(r29),r30
    3898:	05 e8 c0 03 	orr     r30,r0,r29
    389c:	f8 ff bd 07 	addi    r29,r29,0xfff8
    38a0:	fc ff 9e 34 	sw      0xfffc(r30),r4
    38a4:	00 00 80 18 	ori     r4,r0,0x0000
    38a8:	f8 ff 9e 34 	sw      0xfff8(r30),r4
    38ac:	fc ff be 04 	addi    r5,r30,0xfffc
    38b0:	00 00 85 30 	lw      r4,0x0000(r5)
    38b4:	00 00 c4 38 	lb      r6,0x0000(r4)
    38b8:	01 00 84 04 	addi    r4,r4,0x0001
    38bc:	00 00 85 34 	sw      0x0000(r5),r4
    38c0:	18 00 86 20 	lsli    r4,r6,0x0018
    38c4:	18 00 84 24 	lsri    r4,r4,0x0018
    38c8:	00 00 a0 18 	ori     r5,r0,0x0000
    38cc:	02 28 04 00 	sub     r0,r4,r5
    38d0:	05 00 00 40 	beq     0x000038e4
    38d4:	f8 ff 9e 30 	lw      r4,0xfff8(r30)
    38d8:	01 00 84 04 	addi    r4,r4,0x0001
    38dc:	f8 ff 9e 34 	sw      0xfff8(r30),r4
    38e0:	2b 0e 00 80 	ajmp    0x000038ac
    38e4:	f8 ff 9e 30 	lw      r4,0xfff8(r30)
    38e8:	05 20 40 00 	orr     r2,r0,r4
    38ec:	08 00 bd 07 	addi    r29,r29,0x0008
    38f0:	05 f0 a0 03 	orr     r29,r0,r30
    38f4:	04 00 bd 07 	addi    r29,r29,0x0004
    38f8:	fc ff dd 33 	lw      r30,0xfffc(r29)
    38fc:	00 00 e0 47 	jmpr    r31

00003900 <strcmp>:
    3900:	fc ff bd 07 	addi    r29,r29,0xfffc
    3904:	00 00 dd 37 	sw      0x0000(r29),r30
    3908:	05 e8 c0 03 	orr     r30,r0,r29
    390c:	f8 ff bd 07 	addi    r29,r29,0xfff8
    3910:	fc ff 9e 34 	sw      0xfffc(r30),r4
    3914:	f8 ff be 34 	sw      0xfff8(r30),r5
    3918:	fc ff 9e 30 	lw      r4,0xfffc(r30)
    391c:	00 00 84 38 	lb      r4,0x0000(r4)
    3920:	18 00 84 20 	lsli    r4,r4,0x0018
    3924:	18 00 84 24 	lsri    r4,r4,0x0018
    3928:	00 00 a0 18 	ori     r5,r0,0x0000
    392c:	02 28 04 00 	sub     r0,r4,r5
    3930:	12 00 00 40 	beq     0x00003978
    3934:	fc ff 9e 30 	lw      r4,0xfffc(r30)
    3938:	f8 ff de 30 	lw      r6,0xfff8(r30)
    393c:	00 00 84 38 	lb      r4,0x0000(r4)
    3940:	18 00 a4 20 	lsli    r5,r4,0x0018
    3944:	18 00 a5 24 	lsri    r5,r5,0x0018
    3948:	00 00 86 38 	lb      r4,0x0000(r6)
    394c:	18 00 84 20 	lsli    r4,r4,0x0018
    3950:	18 00 84 24 	lsri    r4,r4,0x0018
    3954:	02 20 05 00 	sub     r0,r5,r4
    3958:	08 00 40 40 	bne     0x00003978
    395c:	fc ff 9e 30 	lw      r4,0xfffc(r30)
    3960:	01 00 84 04 	addi    r4,r4,0x0001
    3964:	fc ff 9e 34 	sw      0xfffc(r30),r4
    3968:	f8 ff 9e 30 	lw      r4,0xfff8(r30)
    396c:	01 00 84 04 	addi    r4,r4,0x0001
    3970:	f8 ff 9e 34 	sw      0xfff8(r30),r4
    3974:	46 0e 00 80 	ajmp    0x00003918
    3978:	fc ff 9e 30 	lw      r4,0xfffc(r30)
    397c:	00 00 84 38 	lb      r4,0x0000(r4)
    3980:	18 00 a4 20 	lsli    r5,r4,0x0018
    3984:	18 00 a5 24 	lsri    r5,r5,0x0018
    3988:	f8 ff 9e 30 	lw      r4,0xfff8(r30)
    398c:	00 00 84 38 	lb      r4,0x0000(r4)
    3990:	18 00 84 20 	lsli    r4,r4,0x0018
    3994:	18 00 84 24 	lsri    r4,r4,0x0018
    3998:	02 20 a5 00 	sub     r5,r5,r4
    399c:	05 28 80 00 	orr     r4,r0,r5
    39a0:	05 20 40 00 	orr     r2,r0,r4
    39a4:	08 00 bd 07 	addi    r29,r29,0x0008
    39a8:	05 f0 a0 03 	orr     r29,r0,r30
    39ac:	04 00 bd 07 	addi    r29,r29,0x0004
    39b0:	fc ff dd 33 	lw      r30,0xfffc(r29)
    39b4:	00 00 e0 47 	jmpr    r31
    39b8:	00 00 00 00 	nop
    39bc:	00 00 00 00 	nop

000039c0 <strncmp>:
    39c0:	fc ff bd 07 	addi    r29,r29,0xfffc
    39c4:	00 00 dd 37 	sw      0x0000(r29),r30
    39c8:	05 e8 c0 03 	orr     r30,r0,r29
    39cc:	f0 ff bd 07 	addi    r29,r29,0xfff0
    39d0:	fc ff 9e 34 	sw      0xfffc(r30),r4
    39d4:	f8 ff be 34 	sw      0xfff8(r30),r5
    39d8:	f4 ff de 34 	sw      0xfff4(r30),r6
    39dc:	fc ff 9e 30 	lw      r4,0xfffc(r30)
    39e0:	00 00 84 38 	lb      r4,0x0000(r4)
    39e4:	18 00 84 20 	lsli    r4,r4,0x0018
    39e8:	18 00 84 24 	lsri    r4,r4,0x0018
    39ec:	00 00 a0 18 	ori     r5,r0,0x0000
    39f0:	02 28 04 00 	sub     r0,r4,r5
    39f4:	1a 00 00 40 	beq     0x00003a5c
    39f8:	fc ff 9e 30 	lw      r4,0xfffc(r30)
    39fc:	f8 ff de 30 	lw      r6,0xfff8(r30)
    3a00:	00 00 84 38 	lb      r4,0x0000(r4)
    3a04:	18 00 a4 20 	lsli    r5,r4,0x0018
    3a08:	18 00 a5 24 	lsri    r5,r5,0x0018
    3a0c:	00 00 86 38 	lb      r4,0x0000(r6)
    3a10:	18 00 84 20 	lsli    r4,r4,0x0018
    3a14:	18 00 84 24 	lsri    r4,r4,0x0018
    3a18:	02 20 05 00 	sub     r0,r5,r4
    3a1c:	10 00 40 40 	bne     0x00003a5c
    3a20:	f4 ff 9e 30 	lw      r4,0xfff4(r30)
    3a24:	ff ff 84 04 	addi    r4,r4,0xffff
    3a28:	05 20 a0 00 	orr     r5,r0,r4
    3a2c:	f4 ff be 34 	sw      0xfff4(r30),r5
    3a30:	ff ff 80 2c 	ldih    r4,0xffff
    3a34:	ff ff 84 18 	ori     r4,r4,0xffff
    3a38:	02 20 05 00 	sub     r0,r5,r4
    3a3c:	08 00 00 40 	beq     0x00003a5c
    3a40:	fc ff 9e 30 	lw      r4,0xfffc(r30)
    3a44:	01 00 84 04 	addi    r4,r4,0x0001
    3a48:	fc ff 9e 34 	sw      0xfffc(r30),r4
    3a4c:	f8 ff 9e 30 	lw      r4,0xfff8(r30)
    3a50:	01 00 84 04 	addi    r4,r4,0x0001
    3a54:	f8 ff 9e 34 	sw      0xfff8(r30),r4
    3a58:	77 0e 00 80 	ajmp    0x000039dc
    3a5c:	f4 ff be 30 	lw      r5,0xfff4(r30)
    3a60:	00 00 80 18 	ori     r4,r0,0x0000
    3a64:	02 20 05 00 	sub     r0,r5,r4
    3a68:	10 00 00 40 	beq     0x00003aa8
    3a6c:	fc ff 9e 30 	lw      r4,0xfffc(r30)
    3a70:	00 00 84 38 	lb      r4,0x0000(r4)
    3a74:	18 00 84 20 	lsli    r4,r4,0x0018
    3a78:	f0 ff 9e 34 	sw      0xfff0(r30),r4
    3a7c:	f0 ff 9e 30 	lw      r4,0xfff0(r30)
    3a80:	18 00 84 24 	lsri    r4,r4,0x0018
    3a84:	f0 ff 9e 34 	sw      0xfff0(r30),r4
    3a88:	f8 ff 9e 30 	lw      r4,0xfff8(r30)
    3a8c:	00 00 84 38 	lb      r4,0x0000(r4)
    3a90:	18 00 84 20 	lsli    r4,r4,0x0018
    3a94:	18 00 84 24 	lsri    r4,r4,0x0018
    3a98:	f0 ff be 30 	lw      r5,0xfff0(r30)
    3a9c:	02 20 a5 00 	sub     r5,r5,r4
    3aa0:	f0 ff be 34 	sw      0xfff0(r30),r5
    3aa4:	ac 0e 00 80 	ajmp    0x00003ab0
    3aa8:	00 00 80 18 	ori     r4,r0,0x0000
    3aac:	f0 ff 9e 34 	sw      0xfff0(r30),r4
    3ab0:	f0 ff 9e 30 	lw      r4,0xfff0(r30)
    3ab4:	05 20 40 00 	orr     r2,r0,r4
    3ab8:	10 00 bd 07 	addi    r29,r29,0x0010
    3abc:	05 f0 a0 03 	orr     r29,r0,r30
    3ac0:	04 00 bd 07 	addi    r29,r29,0x0004
    3ac4:	fc ff dd 33 	lw      r30,0xfffc(r29)
    3ac8:	00 00 e0 47 	jmpr    r31
    3acc:	00 00 00 00 	nop

00003ad0 <strcpy>:
    3ad0:	f8 ff bd 07 	addi    r29,r29,0xfff8
    3ad4:	00 00 dd 37 	sw      0x0000(r29),r30
    3ad8:	04 00 1d 35 	sw      0x0004(r29),r8
    3adc:	05 e8 c0 03 	orr     r30,r0,r29
    3ae0:	f4 ff bd 07 	addi    r29,r29,0xfff4
    3ae4:	fc ff 9e 34 	sw      0xfffc(r30),r4
    3ae8:	f8 ff be 34 	sw      0xfff8(r30),r5
    3aec:	fc ff 9e 30 	lw      r4,0xfffc(r30)
    3af0:	f4 ff 9e 34 	sw      0xfff4(r30),r4
    3af4:	fc ff 1e 05 	addi    r8,r30,0xfffc
    3af8:	00 00 a8 30 	lw      r5,0x0000(r8)
    3afc:	f8 ff de 04 	addi    r6,r30,0xfff8
    3b00:	00 00 86 30 	lw      r4,0x0000(r6)
    3b04:	00 00 e4 38 	lb      r7,0x0000(r4)
    3b08:	01 00 84 04 	addi    r4,r4,0x0001
    3b0c:	00 00 86 34 	sw      0x0000(r6),r4
    3b10:	05 28 80 00 	orr     r4,r0,r5
    3b14:	00 00 e4 3c 	sb      0x0000(r4),r7
    3b18:	01 00 a5 04 	addi    r5,r5,0x0001
    3b1c:	00 00 a8 34 	sw      0x0000(r8),r5
    3b20:	18 00 87 20 	lsli    r4,r7,0x0018
    3b24:	18 00 84 24 	lsri    r4,r4,0x0018
    3b28:	00 00 a0 18 	ori     r5,r0,0x0000
    3b2c:	02 28 04 00 	sub     r0,r4,r5
    3b30:	02 00 00 40 	beq     0x00003b38
    3b34:	bd 0e 00 80 	ajmp    0x00003af4
    3b38:	f4 ff 9e 30 	lw      r4,0xfff4(r30)
    3b3c:	05 20 40 00 	orr     r2,r0,r4
    3b40:	0c 00 bd 07 	addi    r29,r29,0x000c
    3b44:	05 f0 a0 03 	orr     r29,r0,r30
    3b48:	08 00 bd 07 	addi    r29,r29,0x0008
    3b4c:	fc ff 1d 31 	lw      r8,0xfffc(r29)
    3b50:	f8 ff dd 33 	lw      r30,0xfff8(r29)
    3b54:	00 00 e0 47 	jmpr    r31
    3b58:	00 00 00 00 	nop
    3b5c:	00 00 00 00 	nop

00003b60 <strncpy>:
    3b60:	fc ff bd 07 	addi    r29,r29,0xfffc
    3b64:	00 00 dd 37 	sw      0x0000(r29),r30
    3b68:	05 e8 c0 03 	orr     r30,r0,r29
    3b6c:	f0 ff bd 07 	addi    r29,r29,0xfff0
    3b70:	fc ff 9e 34 	sw      0xfffc(r30),r4
    3b74:	f8 ff be 34 	sw      0xfff8(r30),r5
    3b78:	f4 ff de 34 	sw      0xfff4(r30),r6
    3b7c:	fc ff 9e 30 	lw      r4,0xfffc(r30)
    3b80:	f0 ff 9e 34 	sw      0xfff0(r30),r4
    3b84:	f4 ff 9e 30 	lw      r4,0xfff4(r30)
    3b88:	ff ff 84 04 	addi    r4,r4,0xffff
    3b8c:	05 20 a0 00 	orr     r5,r0,r4
    3b90:	f4 ff be 34 	sw      0xfff4(r30),r5
    3b94:	ff ff 80 2c 	ldih    r4,0xffff
    3b98:	ff ff 84 18 	ori     r4,r4,0xffff
    3b9c:	02 20 05 00 	sub     r0,r5,r4
    3ba0:	14 00 00 40 	beq     0x00003bf0
    3ba4:	fc ff fe 04 	addi    r7,r30,0xfffc
    3ba8:	00 00 87 30 	lw      r4,0x0000(r7)
    3bac:	f8 ff de 30 	lw      r6,0xfff8(r30)
    3bb0:	05 20 a0 00 	orr     r5,r0,r4
    3bb4:	00 00 c6 38 	lb      r6,0x0000(r6)
    3bb8:	00 00 c5 3c 	sb      0x0000(r5),r6
    3bbc:	01 00 84 04 	addi    r4,r4,0x0001
    3bc0:	00 00 87 34 	sw      0x0000(r7),r4
    3bc4:	f8 ff 9e 30 	lw      r4,0xfff8(r30)
    3bc8:	00 00 84 38 	lb      r4,0x0000(r4)
    3bcc:	18 00 84 20 	lsli    r4,r4,0x0018
    3bd0:	18 00 84 24 	lsri    r4,r4,0x0018
    3bd4:	00 00 a0 18 	ori     r5,r0,0x0000
    3bd8:	02 28 04 00 	sub     r0,r4,r5
    3bdc:	ea ff 3f 40 	beq     0x00003b84
    3be0:	f8 ff 9e 30 	lw      r4,0xfff8(r30)
    3be4:	01 00 84 04 	addi    r4,r4,0x0001
    3be8:	f8 ff 9e 34 	sw      0xfff8(r30),r4
    3bec:	e1 0e 00 80 	ajmp    0x00003b84
    3bf0:	f0 ff 9e 30 	lw      r4,0xfff0(r30)
    3bf4:	05 20 40 00 	orr     r2,r0,r4
    3bf8:	10 00 bd 07 	addi    r29,r29,0x0010
    3bfc:	05 f0 a0 03 	orr     r29,r0,r30
    3c00:	04 00 bd 07 	addi    r29,r29,0x0004
    3c04:	fc ff dd 33 	lw      r30,0xfffc(r29)
    3c08:	00 00 e0 47 	jmpr    r31
    3c0c:	00 00 00 00 	nop

00003c10 <strcat>:
    3c10:	f4 ff bd 07 	addi    r29,r29,0xfff4
    3c14:	00 00 dd 37 	sw      0x0000(r29),r30
    3c18:	04 00 fd 37 	sw      0x0004(r29),r31
    3c1c:	08 00 1d 35 	sw      0x0008(r29),r8
    3c20:	05 e8 c0 03 	orr     r30,r0,r29
    3c24:	f4 ff bd 07 	addi    r29,r29,0xfff4
    3c28:	fc ff 9e 34 	sw      0xfffc(r30),r4
    3c2c:	f8 ff be 34 	sw      0xfff8(r30),r5
    3c30:	fc ff 9e 30 	lw      r4,0xfffc(r30)
    3c34:	f4 ff 9e 34 	sw      0xfff4(r30),r4
    3c38:	fc ff 9e 30 	lw      r4,0xfffc(r30)
    3c3c:	24 0e 00 c0 	ajal    0x00003890
    3c40:	05 10 80 00 	orr     r4,r0,r2
    3c44:	05 20 a0 00 	orr     r5,r0,r4
    3c48:	fc ff 9e 30 	lw      r4,0xfffc(r30)
    3c4c:	00 28 84 00 	add     r4,r4,r5
    3c50:	fc ff 9e 34 	sw      0xfffc(r30),r4
    3c54:	fc ff 1e 05 	addi    r8,r30,0xfffc
    3c58:	00 00 a8 30 	lw      r5,0x0000(r8)
    3c5c:	f8 ff de 04 	addi    r6,r30,0xfff8
    3c60:	00 00 86 30 	lw      r4,0x0000(r6)
    3c64:	00 00 e4 38 	lb      r7,0x0000(r4)
    3c68:	01 00 84 04 	addi    r4,r4,0x0001
    3c6c:	00 00 86 34 	sw      0x0000(r6),r4
    3c70:	05 28 80 00 	orr     r4,r0,r5
    3c74:	00 00 e4 3c 	sb      0x0000(r4),r7
    3c78:	01 00 a5 04 	addi    r5,r5,0x0001
    3c7c:	00 00 a8 34 	sw      0x0000(r8),r5
    3c80:	18 00 87 20 	lsli    r4,r7,0x0018
    3c84:	18 00 84 24 	lsri    r4,r4,0x0018
    3c88:	00 00 a0 18 	ori     r5,r0,0x0000
    3c8c:	02 28 04 00 	sub     r0,r4,r5
    3c90:	02 00 00 40 	beq     0x00003c98
    3c94:	15 0f 00 80 	ajmp    0x00003c54
    3c98:	f4 ff 9e 30 	lw      r4,0xfff4(r30)
    3c9c:	05 20 40 00 	orr     r2,r0,r4
    3ca0:	0c 00 bd 07 	addi    r29,r29,0x000c
    3ca4:	05 f0 a0 03 	orr     r29,r0,r30
    3ca8:	0c 00 bd 07 	addi    r29,r29,0x000c
    3cac:	fc ff 1d 31 	lw      r8,0xfffc(r29)
    3cb0:	f8 ff fd 33 	lw      r31,0xfff8(r29)
    3cb4:	f4 ff dd 33 	lw      r30,0xfff4(r29)
    3cb8:	00 00 e0 47 	jmpr    r31
    3cbc:	00 00 00 00 	nop

00003cc0 <strncat>:
    3cc0:	f4 ff bd 07 	addi    r29,r29,0xfff4
    3cc4:	00 00 dd 37 	sw      0x0000(r29),r30
    3cc8:	04 00 fd 37 	sw      0x0004(r29),r31
    3ccc:	08 00 1d 35 	sw      0x0008(r29),r8
    3cd0:	05 e8 c0 03 	orr     r30,r0,r29
    3cd4:	f0 ff bd 07 	addi    r29,r29,0xfff0
    3cd8:	fc ff 9e 34 	sw      0xfffc(r30),r4
    3cdc:	f8 ff be 34 	sw      0xfff8(r30),r5
    3ce0:	f4 ff de 34 	sw      0xfff4(r30),r6
    3ce4:	fc ff 9e 30 	lw      r4,0xfffc(r30)
    3ce8:	f0 ff 9e 34 	sw      0xfff0(r30),r4
    3cec:	fc ff 9e 30 	lw      r4,0xfffc(r30)
    3cf0:	24 0e 00 c0 	ajal    0x00003890
    3cf4:	05 10 80 00 	orr     r4,r0,r2
    3cf8:	05 20 a0 00 	orr     r5,r0,r4
    3cfc:	fc ff 9e 30 	lw      r4,0xfffc(r30)
    3d00:	00 28 84 00 	add     r4,r4,r5
    3d04:	fc ff 9e 34 	sw      0xfffc(r30),r4
    3d08:	f4 ff 9e 30 	lw      r4,0xfff4(r30)
    3d0c:	ff ff 84 04 	addi    r4,r4,0xffff
    3d10:	05 20 a0 00 	orr     r5,r0,r4
    3d14:	f4 ff be 34 	sw      0xfff4(r30),r5
    3d18:	ff ff 80 2c 	ldih    r4,0xffff
    3d1c:	ff ff 84 18 	ori     r4,r4,0xffff
    3d20:	02 20 05 00 	sub     r0,r5,r4
    3d24:	12 00 00 40 	beq     0x00003d6c
    3d28:	fc ff 1e 05 	addi    r8,r30,0xfffc
    3d2c:	00 00 a8 30 	lw      r5,0x0000(r8)
    3d30:	f8 ff de 04 	addi    r6,r30,0xfff8
    3d34:	00 00 86 30 	lw      r4,0x0000(r6)
    3d38:	00 00 e4 38 	lb      r7,0x0000(r4)
    3d3c:	01 00 84 04 	addi    r4,r4,0x0001
    3d40:	00 00 86 34 	sw      0x0000(r6),r4
    3d44:	05 28 80 00 	orr     r4,r0,r5
    3d48:	00 00 e4 3c 	sb      0x0000(r4),r7
    3d4c:	01 00 a5 04 	addi    r5,r5,0x0001
    3d50:	00 00 a8 34 	sw      0x0000(r8),r5
    3d54:	18 00 87 20 	lsli    r4,r7,0x0018
    3d58:	18 00 84 24 	lsri    r4,r4,0x0018
    3d5c:	00 00 a0 18 	ori     r5,r0,0x0000
    3d60:	02 28 04 00 	sub     r0,r4,r5
    3d64:	02 00 00 40 	beq     0x00003d6c
    3d68:	42 0f 00 80 	ajmp    0x00003d08
    3d6c:	fc ff 9e 30 	lw      r4,0xfffc(r30)
    3d70:	00 00 a0 18 	ori     r5,r0,0x0000
    3d74:	00 00 a4 3c 	sb      0x0000(r4),r5
    3d78:	f0 ff 9e 30 	lw      r4,0xfff0(r30)
    3d7c:	05 20 40 00 	orr     r2,r0,r4
    3d80:	10 00 bd 07 	addi    r29,r29,0x0010
    3d84:	05 f0 a0 03 	orr     r29,r0,r30
    3d88:	0c 00 bd 07 	addi    r29,r29,0x000c
    3d8c:	fc ff 1d 31 	lw      r8,0xfffc(r29)
    3d90:	f8 ff fd 33 	lw      r31,0xfff8(r29)
    3d94:	f4 ff dd 33 	lw      r30,0xfff4(r29)
    3d98:	00 00 e0 47 	jmpr    r31
    3d9c:	00 00 00 00 	nop

00003da0 <strchr>:
    3da0:	fc ff bd 07 	addi    r29,r29,0xfffc
    3da4:	00 00 dd 37 	sw      0x0000(r29),r30
    3da8:	05 e8 c0 03 	orr     r30,r0,r29
    3dac:	f4 ff bd 07 	addi    r29,r29,0xfff4
    3db0:	fc ff 9e 34 	sw      0xfffc(r30),r4
    3db4:	f8 ff be 34 	sw      0xfff8(r30),r5
    3db8:	fc ff 9e 30 	lw      r4,0xfffc(r30)
    3dbc:	00 00 84 38 	lb      r4,0x0000(r4)
    3dc0:	18 00 84 20 	lsli    r4,r4,0x0018
    3dc4:	18 00 84 24 	lsri    r4,r4,0x0018
    3dc8:	00 00 a0 18 	ori     r5,r0,0x0000
    3dcc:	02 28 04 00 	sub     r0,r4,r5
    3dd0:	0f 00 00 40 	beq     0x00003e0c
    3dd4:	fc ff 9e 30 	lw      r4,0xfffc(r30)
    3dd8:	00 00 84 38 	lb      r4,0x0000(r4)
    3ddc:	18 00 84 20 	lsli    r4,r4,0x0018
    3de0:	18 00 84 24 	lsri    r4,r4,0x0018
    3de4:	f8 ff be 30 	lw      r5,0xfff8(r30)
    3de8:	02 28 04 00 	sub     r0,r4,r5
    3dec:	04 00 40 40 	bne     0x00003dfc
    3df0:	fc ff 9e 30 	lw      r4,0xfffc(r30)
    3df4:	f4 ff 9e 34 	sw      0xfff4(r30),r4
    3df8:	85 0f 00 80 	ajmp    0x00003e14
    3dfc:	fc ff 9e 30 	lw      r4,0xfffc(r30)
    3e00:	01 00 84 04 	addi    r4,r4,0x0001
    3e04:	fc ff 9e 34 	sw      0xfffc(r30),r4
    3e08:	6e 0f 00 80 	ajmp    0x00003db8
    3e0c:	00 00 80 18 	ori     r4,r0,0x0000
    3e10:	f4 ff 9e 34 	sw      0xfff4(r30),r4
    3e14:	f4 ff 5e 30 	lw      r2,0xfff4(r30)
    3e18:	0c 00 bd 07 	addi    r29,r29,0x000c
    3e1c:	05 f0 a0 03 	orr     r29,r0,r30
    3e20:	04 00 bd 07 	addi    r29,r29,0x0004
    3e24:	fc ff dd 33 	lw      r30,0xfffc(r29)
    3e28:	00 00 e0 47 	jmpr    r31
    3e2c:	00 00 00 00 	nop

00003e30 <strstr>:
    3e30:	f8 ff bd 07 	addi    r29,r29,0xfff8
    3e34:	00 00 dd 37 	sw      0x0000(r29),r30
    3e38:	04 00 fd 37 	sw      0x0004(r29),r31
    3e3c:	05 e8 c0 03 	orr     r30,r0,r29
    3e40:	ec ff bd 07 	addi    r29,r29,0xffec
    3e44:	fc ff 9e 34 	sw      0xfffc(r30),r4
    3e48:	f8 ff be 34 	sw      0xfff8(r30),r5
    3e4c:	fc ff 9e 30 	lw      r4,0xfffc(r30)
    3e50:	f4 ff 9e 34 	sw      0xfff4(r30),r4
    3e54:	f8 ff 9e 30 	lw      r4,0xfff8(r30)
    3e58:	24 0e 00 c0 	ajal    0x00003890
    3e5c:	05 10 80 00 	orr     r4,r0,r2
    3e60:	f0 ff 9e 34 	sw      0xfff0(r30),r4
    3e64:	f8 ff 9e 30 	lw      r4,0xfff8(r30)
    3e68:	00 00 84 38 	lb      r4,0x0000(r4)
    3e6c:	18 00 a4 20 	lsli    r5,r4,0x0018
    3e70:	18 00 a5 24 	lsri    r5,r5,0x0018
    3e74:	f4 ff 9e 30 	lw      r4,0xfff4(r30)
    3e78:	68 0f 00 c0 	ajal    0x00003da0
    3e7c:	05 10 80 00 	orr     r4,r0,r2
    3e80:	f4 ff 9e 34 	sw      0xfff4(r30),r4
    3e84:	f4 ff be 30 	lw      r5,0xfff4(r30)
    3e88:	00 00 80 18 	ori     r4,r0,0x0000
    3e8c:	02 20 05 00 	sub     r0,r5,r4
    3e90:	11 00 00 40 	beq     0x00003ed4
    3e94:	f4 ff 9e 30 	lw      r4,0xfff4(r30)
    3e98:	f8 ff be 30 	lw      r5,0xfff8(r30)
    3e9c:	f0 ff de 30 	lw      r6,0xfff0(r30)
    3ea0:	70 0e 00 c0 	ajal    0x000039c0
    3ea4:	05 10 80 00 	orr     r4,r0,r2
    3ea8:	05 20 a0 00 	orr     r5,r0,r4
    3eac:	00 00 80 18 	ori     r4,r0,0x0000
    3eb0:	02 20 05 00 	sub     r0,r5,r4
    3eb4:	04 00 40 40 	bne     0x00003ec4
    3eb8:	f4 ff 9e 30 	lw      r4,0xfff4(r30)
    3ebc:	ec ff 9e 34 	sw      0xffec(r30),r4
    3ec0:	b7 0f 00 80 	ajmp    0x00003edc
    3ec4:	f4 ff 9e 30 	lw      r4,0xfff4(r30)
    3ec8:	01 00 84 04 	addi    r4,r4,0x0001
    3ecc:	f4 ff 9e 34 	sw      0xfff4(r30),r4
    3ed0:	99 0f 00 80 	ajmp    0x00003e64
    3ed4:	00 00 80 18 	ori     r4,r0,0x0000
    3ed8:	ec ff 9e 34 	sw      0xffec(r30),r4
    3edc:	ec ff 5e 30 	lw      r2,0xffec(r30)
    3ee0:	14 00 bd 07 	addi    r29,r29,0x0014
    3ee4:	05 f0 a0 03 	orr     r29,r0,r30
    3ee8:	08 00 bd 07 	addi    r29,r29,0x0008
    3eec:	fc ff fd 33 	lw      r31,0xfffc(r29)
    3ef0:	f8 ff dd 33 	lw      r30,0xfff8(r29)
    3ef4:	00 00 e0 47 	jmpr    r31
    3ef8:	00 00 00 00 	nop
    3efc:	00 00 00 00 	nop

00003f00 <memset>:
    3f00:	fc ff bd 07 	addi    r29,r29,0xfffc
    3f04:	00 00 dd 37 	sw      0x0000(r29),r30
    3f08:	05 e8 c0 03 	orr     r30,r0,r29
    3f0c:	f0 ff bd 07 	addi    r29,r29,0xfff0
    3f10:	fc ff 9e 34 	sw      0xfffc(r30),r4
    3f14:	f8 ff be 34 	sw      0xfff8(r30),r5
    3f18:	f4 ff de 34 	sw      0xfff4(r30),r6
    3f1c:	fc ff 9e 30 	lw      r4,0xfffc(r30)
    3f20:	f0 ff 9e 34 	sw      0xfff0(r30),r4
    3f24:	f4 ff 9e 30 	lw      r4,0xfff4(r30)
    3f28:	ff ff 84 04 	addi    r4,r4,0xffff
    3f2c:	05 20 a0 00 	orr     r5,r0,r4
    3f30:	f4 ff be 34 	sw      0xfff4(r30),r5
    3f34:	ff ff 80 2c 	ldih    r4,0xffff
    3f38:	ff ff 84 18 	ori     r4,r4,0xffff
    3f3c:	02 20 05 00 	sub     r0,r5,r4
    3f40:	0a 00 00 40 	beq     0x00003f68
    3f44:	f0 ff fe 04 	addi    r7,r30,0xfff0
    3f48:	00 00 a7 30 	lw      r5,0x0000(r7)
    3f4c:	f8 ff 9e 30 	lw      r4,0xfff8(r30)
    3f50:	05 20 c0 00 	orr     r6,r0,r4
    3f54:	05 28 80 00 	orr     r4,r0,r5
    3f58:	00 00 c4 3c 	sb      0x0000(r4),r6
    3f5c:	01 00 a5 04 	addi    r5,r5,0x0001
    3f60:	00 00 a7 34 	sw      0x0000(r7),r5
    3f64:	c9 0f 00 80 	ajmp    0x00003f24
    3f68:	fc ff 9e 30 	lw      r4,0xfffc(r30)
    3f6c:	05 20 40 00 	orr     r2,r0,r4
    3f70:	10 00 bd 07 	addi    r29,r29,0x0010
    3f74:	05 f0 a0 03 	orr     r29,r0,r30
    3f78:	04 00 bd 07 	addi    r29,r29,0x0004
    3f7c:	fc ff dd 33 	lw      r30,0xfffc(r29)
    3f80:	00 00 e0 47 	jmpr    r31
    3f84:	00 00 00 00 	nop
    3f88:	00 00 00 00 	nop
    3f8c:	00 00 00 00 	nop

00003f90 <memcpy>:
    3f90:	f8 ff bd 07 	addi    r29,r29,0xfff8
    3f94:	00 00 dd 37 	sw      0x0000(r29),r30
    3f98:	04 00 1d 35 	sw      0x0004(r29),r8
    3f9c:	05 e8 c0 03 	orr     r30,r0,r29
    3fa0:	ec ff bd 07 	addi    r29,r29,0xffec
    3fa4:	fc ff 9e 34 	sw      0xfffc(r30),r4
    3fa8:	f8 ff be 34 	sw      0xfff8(r30),r5
    3fac:	f4 ff de 34 	sw      0xfff4(r30),r6
    3fb0:	fc ff 9e 30 	lw      r4,0xfffc(r30)
    3fb4:	f0 ff 9e 34 	sw      0xfff0(r30),r4
    3fb8:	f8 ff 9e 30 	lw      r4,0xfff8(r30)
    3fbc:	ec ff 9e 34 	sw      0xffec(r30),r4
    3fc0:	f4 ff 9e 30 	lw      r4,0xfff4(r30)
    3fc4:	ff ff 84 04 	addi    r4,r4,0xffff
    3fc8:	05 20 a0 00 	orr     r5,r0,r4
    3fcc:	f4 ff be 34 	sw      0xfff4(r30),r5
    3fd0:	ff ff 80 2c 	ldih    r4,0xffff
    3fd4:	ff ff 84 18 	ori     r4,r4,0xffff
    3fd8:	02 20 05 00 	sub     r0,r5,r4
    3fdc:	0d 00 00 40 	beq     0x00004010
    3fe0:	f0 ff 1e 05 	addi    r8,r30,0xfff0
    3fe4:	00 00 a8 30 	lw      r5,0x0000(r8)
    3fe8:	ec ff de 04 	addi    r6,r30,0xffec
    3fec:	00 00 86 30 	lw      r4,0x0000(r6)
    3ff0:	00 00 e4 38 	lb      r7,0x0000(r4)
    3ff4:	01 00 84 04 	addi    r4,r4,0x0001
    3ff8:	00 00 86 34 	sw      0x0000(r6),r4
    3ffc:	05 28 80 00 	orr     r4,r0,r5
    4000:	00 00 e4 3c 	sb      0x0000(r4),r7
    4004:	01 00 a5 04 	addi    r5,r5,0x0001
    4008:	00 00 a8 34 	sw      0x0000(r8),r5
    400c:	f0 0f 00 80 	ajmp    0x00003fc0
    4010:	fc ff 9e 30 	lw      r4,0xfffc(r30)
    4014:	05 20 40 00 	orr     r2,r0,r4
    4018:	14 00 bd 07 	addi    r29,r29,0x0014
    401c:	05 f0 a0 03 	orr     r29,r0,r30
    4020:	08 00 bd 07 	addi    r29,r29,0x0008
    4024:	fc ff 1d 31 	lw      r8,0xfffc(r29)
    4028:	f8 ff dd 33 	lw      r30,0xfff8(r29)
    402c:	00 00 e0 47 	jmpr    r31

00004030 <memmove>:
    4030:	f8 ff bd 07 	addi    r29,r29,0xfff8
    4034:	00 00 dd 37 	sw      0x0000(r29),r30
    4038:	04 00 1d 35 	sw      0x0004(r29),r8
    403c:	05 e8 c0 03 	orr     r30,r0,r29
    4040:	e8 ff bd 07 	addi    r29,r29,0xffe8
    4044:	fc ff 9e 34 	sw      0xfffc(r30),r4
    4048:	f8 ff be 34 	sw      0xfff8(r30),r5
    404c:	f4 ff de 34 	sw      0xfff4(r30),r6
    4050:	fc ff 9e 30 	lw      r4,0xfffc(r30)
    4054:	f0 ff 9e 34 	sw      0xfff0(r30),r4
    4058:	f8 ff 9e 30 	lw      r4,0xfff8(r30)
    405c:	ec ff 9e 34 	sw      0xffec(r30),r4
    4060:	f4 ff 9e 30 	lw      r4,0xfff4(r30)
    4064:	e8 ff 9e 34 	sw      0xffe8(r30),r4
    4068:	f0 ff be 30 	lw      r5,0xfff0(r30)
    406c:	ec ff 9e 30 	lw      r4,0xffec(r30)
    4070:	02 20 05 00 	sub     r0,r5,r4
    4074:	14 00 40 42 	bls     0x000040c4
    4078:	f4 ff be 30 	lw      r5,0xfff4(r30)
    407c:	00 00 80 18 	ori     r4,r0,0x0000
    4080:	02 20 05 00 	sub     r0,r5,r4
    4084:	28 00 00 40 	beq     0x00004124
    4088:	f4 ff 9e 30 	lw      r4,0xfff4(r30)
    408c:	ff ff 84 04 	addi    r4,r4,0xffff
    4090:	05 20 a0 00 	orr     r5,r0,r4
    4094:	f4 ff be 34 	sw      0xfff4(r30),r5
    4098:	f0 ff 9e 30 	lw      r4,0xfff0(r30)
    409c:	00 20 c5 00 	add     r6,r5,r4
    40a0:	e8 ff 9e 30 	lw      r4,0xffe8(r30)
    40a4:	ff ff 84 04 	addi    r4,r4,0xffff
    40a8:	05 20 a0 00 	orr     r5,r0,r4
    40ac:	e8 ff be 34 	sw      0xffe8(r30),r5
    40b0:	ec ff 9e 30 	lw      r4,0xffec(r30)
    40b4:	00 20 85 00 	add     r4,r5,r4
    40b8:	00 00 84 38 	lb      r4,0x0000(r4)
    40bc:	00 00 86 3c 	sb      0x0000(r6),r4
    40c0:	1e 10 00 80 	ajmp    0x00004078
    40c4:	f0 ff be 30 	lw      r5,0xfff0(r30)
    40c8:	ec ff 9e 30 	lw      r4,0xffec(r30)
    40cc:	02 20 05 00 	sub     r0,r5,r4
    40d0:	15 00 00 41 	bhs     0x00004124
    40d4:	f4 ff 9e 30 	lw      r4,0xfff4(r30)
    40d8:	ff ff 84 04 	addi    r4,r4,0xffff
    40dc:	05 20 a0 00 	orr     r5,r0,r4
    40e0:	f4 ff be 34 	sw      0xfff4(r30),r5
    40e4:	ff ff 80 2c 	ldih    r4,0xffff
    40e8:	ff ff 84 18 	ori     r4,r4,0xffff
    40ec:	02 20 05 00 	sub     r0,r5,r4
    40f0:	0d 00 00 40 	beq     0x00004124
    40f4:	f0 ff 1e 05 	addi    r8,r30,0xfff0
    40f8:	00 00 a8 30 	lw      r5,0x0000(r8)
    40fc:	ec ff de 04 	addi    r6,r30,0xffec
    4100:	00 00 86 30 	lw      r4,0x0000(r6)
    4104:	00 00 e4 38 	lb      r7,0x0000(r4)
    4108:	01 00 84 04 	addi    r4,r4,0x0001
    410c:	00 00 86 34 	sw      0x0000(r6),r4
    4110:	05 28 80 00 	orr     r4,r0,r5
    4114:	00 00 e4 3c 	sb      0x0000(r4),r7
    4118:	01 00 a5 04 	addi    r5,r5,0x0001
    411c:	00 00 a8 34 	sw      0x0000(r8),r5
    4120:	35 10 00 80 	ajmp    0x000040d4
    4124:	fc ff 9e 30 	lw      r4,0xfffc(r30)
    4128:	05 20 40 00 	orr     r2,r0,r4
    412c:	18 00 bd 07 	addi    r29,r29,0x0018
    4130:	05 f0 a0 03 	orr     r29,r0,r30
    4134:	08 00 bd 07 	addi    r29,r29,0x0008
    4138:	fc ff 1d 31 	lw      r8,0xfffc(r29)
    413c:	f8 ff dd 33 	lw      r30,0xfff8(r29)
    4140:	00 00 e0 47 	jmpr    r31
    4144:	00 00 00 00 	nop
    4148:	00 00 00 00 	nop
    414c:	00 00 00 00 	nop

00004150 <memcmp>:
    4150:	fc ff bd 07 	addi    r29,r29,0xfffc
    4154:	00 00 dd 37 	sw      0x0000(r29),r30
    4158:	05 e8 c0 03 	orr     r30,r0,r29
    415c:	e8 ff bd 07 	addi    r29,r29,0xffe8
    4160:	fc ff 9e 34 	sw      0xfffc(r30),r4
    4164:	f8 ff be 34 	sw      0xfff8(r30),r5
    4168:	f4 ff de 34 	sw      0xfff4(r30),r6
    416c:	fc ff 9e 30 	lw      r4,0xfffc(r30)
    4170:	f0 ff 9e 34 	sw      0xfff0(r30),r4
    4174:	f8 ff 9e 30 	lw      r4,0xfff8(r30)
    4178:	ec ff 9e 34 	sw      0xffec(r30),r4
    417c:	f0 ff 9e 30 	lw      r4,0xfff0(r30)
    4180:	ec ff de 30 	lw      r6,0xffec(r30)
    4184:	00 00 84 38 	lb      r4,0x0000(r4)
    4188:	18 00 a4 20 	lsli    r5,r4,0x0018
    418c:	18 00 a5 24 	lsri    r5,r5,0x0018
    4190:	00 00 86 38 	lb      r4,0x0000(r6)
    4194:	18 00 84 20 	lsli    r4,r4,0x0018
    4198:	18 00 84 24 	lsri    r4,r4,0x0018
    419c:	02 20 05 00 	sub     r0,r5,r4
    41a0:	10 00 40 40 	bne     0x000041e0
    41a4:	f4 ff 9e 30 	lw      r4,0xfff4(r30)
    41a8:	ff ff 84 04 	addi    r4,r4,0xffff
    41ac:	05 20 a0 00 	orr     r5,r0,r4
    41b0:	f4 ff be 34 	sw      0xfff4(r30),r5
    41b4:	ff ff 80 2c 	ldih    r4,0xffff
    41b8:	ff ff 84 18 	ori     r4,r4,0xffff
    41bc:	02 20 05 00 	sub     r0,r5,r4
    41c0:	08 00 00 40 	beq     0x000041e0
    41c4:	f0 ff 9e 30 	lw      r4,0xfff0(r30)
    41c8:	01 00 84 04 	addi    r4,r4,0x0001
    41cc:	f0 ff 9e 34 	sw      0xfff0(r30),r4
    41d0:	ec ff 9e 30 	lw      r4,0xffec(r30)
    41d4:	01 00 84 04 	addi    r4,r4,0x0001
    41d8:	ec ff 9e 34 	sw      0xffec(r30),r4
    41dc:	5f 10 00 80 	ajmp    0x0000417c
    41e0:	f4 ff be 30 	lw      r5,0xfff4(r30)
    41e4:	00 00 80 18 	ori     r4,r0,0x0000
    41e8:	02 20 05 00 	sub     r0,r5,r4
    41ec:	10 00 00 40 	beq     0x0000422c
    41f0:	f0 ff 9e 30 	lw      r4,0xfff0(r30)
    41f4:	00 00 84 38 	lb      r4,0x0000(r4)
    41f8:	18 00 84 20 	lsli    r4,r4,0x0018
    41fc:	e8 ff 9e 34 	sw      0xffe8(r30),r4
    4200:	e8 ff 9e 30 	lw      r4,0xffe8(r30)
    4204:	18 00 84 24 	lsri    r4,r4,0x0018
    4208:	e8 ff 9e 34 	sw      0xffe8(r30),r4
    420c:	ec ff 9e 30 	lw      r4,0xffec(r30)
    4210:	00 00 84 38 	lb      r4,0x0000(r4)
    4214:	18 00 84 20 	lsli    r4,r4,0x0018
    4218:	18 00 84 24 	lsri    r4,r4,0x0018
    421c:	e8 ff be 30 	lw      r5,0xffe8(r30)
    4220:	02 20 a5 00 	sub     r5,r5,r4
    4224:	e8 ff be 34 	sw      0xffe8(r30),r5
    4228:	8d 10 00 80 	ajmp    0x00004234
    422c:	00 00 80 18 	ori     r4,r0,0x0000
    4230:	e8 ff 9e 34 	sw      0xffe8(r30),r4
    4234:	e8 ff 9e 30 	lw      r4,0xffe8(r30)
    4238:	05 20 40 00 	orr     r2,r0,r4
    423c:	18 00 bd 07 	addi    r29,r29,0x0018
    4240:	05 f0 a0 03 	orr     r29,r0,r30
    4244:	04 00 bd 07 	addi    r29,r29,0x0004
    4248:	fc ff dd 33 	lw      r30,0xfffc(r29)
    424c:	00 00 e0 47 	jmpr    r31

00004250 <skip_atoi>:
    4250:	fc ff bd 07 	addi    r29,r29,0xfffc
    4254:	00 00 dd 37 	sw      0x0000(r29),r30
    4258:	05 e8 c0 03 	orr     r30,r0,r29
    425c:	f8 ff bd 07 	addi    r29,r29,0xfff8
    4260:	fc ff 9e 34 	sw      0xfffc(r30),r4
    4264:	00 00 80 18 	ori     r4,r0,0x0000
    4268:	f8 ff 9e 34 	sw      0xfff8(r30),r4
    426c:	fc ff 9e 30 	lw      r4,0xfffc(r30)
    4270:	00 00 84 30 	lw      r4,0x0000(r4)
    4274:	00 00 84 38 	lb      r4,0x0000(r4)
    4278:	18 00 84 20 	lsli    r4,r4,0x0018
    427c:	18 00 84 24 	lsri    r4,r4,0x0018
    4280:	2f 00 a0 18 	ori     r5,r0,0x002f
    4284:	02 28 04 00 	sub     r0,r4,r5
    4288:	1a 00 40 42 	bls     0x000042f0
    428c:	fc ff 9e 30 	lw      r4,0xfffc(r30)
    4290:	00 00 84 30 	lw      r4,0x0000(r4)
    4294:	00 00 84 38 	lb      r4,0x0000(r4)
    4298:	18 00 84 20 	lsli    r4,r4,0x0018
    429c:	18 00 84 24 	lsri    r4,r4,0x0018
    42a0:	39 00 a0 18 	ori     r5,r0,0x0039
    42a4:	02 28 04 00 	sub     r0,r4,r5
    42a8:	12 00 00 42 	bhi     0x000042f0
    42ac:	f8 ff be 30 	lw      r5,0xfff8(r30)
    42b0:	05 28 80 00 	orr     r4,r0,r5
    42b4:	03 00 84 20 	lsli    r4,r4,0x0003
    42b8:	00 28 84 00 	add     r4,r4,r5
    42bc:	00 28 c4 00 	add     r6,r4,r5
    42c0:	fc ff fe 30 	lw      r7,0xfffc(r30)
    42c4:	00 00 a7 30 	lw      r5,0x0000(r7)
    42c8:	05 28 80 00 	orr     r4,r0,r5
    42cc:	00 00 84 38 	lb      r4,0x0000(r4)
    42d0:	18 00 84 20 	lsli    r4,r4,0x0018
    42d4:	18 00 84 24 	lsri    r4,r4,0x0018
    42d8:	00 20 86 00 	add     r4,r6,r4
    42dc:	d0 ff 84 04 	addi    r4,r4,0xffd0
    42e0:	01 00 a5 04 	addi    r5,r5,0x0001
    42e4:	00 00 a7 34 	sw      0x0000(r7),r5
    42e8:	f8 ff 9e 34 	sw      0xfff8(r30),r4
    42ec:	9b 10 00 80 	ajmp    0x0000426c
    42f0:	f8 ff 9e 30 	lw      r4,0xfff8(r30)
    42f4:	05 20 40 00 	orr     r2,r0,r4
    42f8:	08 00 bd 07 	addi    r29,r29,0x0008
    42fc:	05 f0 a0 03 	orr     r29,r0,r30
    4300:	04 00 bd 07 	addi    r29,r29,0x0004
    4304:	fc ff dd 33 	lw      r30,0xfffc(r29)
    4308:	00 00 e0 47 	jmpr    r31
    430c:	00 00 00 00 	nop

00004310 <_do_div>:
    4310:	fc ff bd 07 	addi    r29,r29,0xfffc
    4314:	00 00 dd 37 	sw      0x0000(r29),r30
    4318:	05 e8 c0 03 	orr     r30,r0,r29
    431c:	f4 ff bd 07 	addi    r29,r29,0xfff4
    4320:	fc ff 9e 34 	sw      0xfffc(r30),r4
    4324:	f8 ff be 34 	sw      0xfff8(r30),r5
    4328:	fc ff 9e 30 	lw      r4,0xfffc(r30)
    432c:	00 00 84 30 	lw      r4,0x0000(r4)
    4330:	f4 ff 9e 34 	sw      0xfff4(r30),r4
    4334:	fc ff de 30 	lw      r6,0xfffc(r30)
    4338:	f4 ff be 30 	lw      r5,0xfff4(r30)
    433c:	f8 ff 9e 30 	lw      r4,0xfff8(r30)
    4340:	0e 20 85 00 	divu    r4,r5,r4
    4344:	00 00 86 34 	sw      0x0000(r6),r4
    4348:	f4 ff be 30 	lw      r5,0xfff4(r30)
    434c:	f8 ff 9e 30 	lw      r4,0xfff8(r30)
    4350:	0f 20 85 00 	modu    r4,r5,r4
    4354:	05 20 40 00 	orr     r2,r0,r4
    4358:	0c 00 bd 07 	addi    r29,r29,0x000c
    435c:	05 f0 a0 03 	orr     r29,r0,r30
    4360:	04 00 bd 07 	addi    r29,r29,0x0004
    4364:	fc ff dd 33 	lw      r30,0xfffc(r29)
    4368:	00 00 e0 47 	jmpr    r31
    436c:	00 00 00 00 	nop

00004370 <number>:
    4370:	f4 ff bd 07 	addi    r29,r29,0xfff4
    4374:	00 00 dd 37 	sw      0x0000(r29),r30
    4378:	04 00 fd 37 	sw      0x0004(r29),r31
    437c:	08 00 1d 35 	sw      0x0008(r29),r8
    4380:	05 e8 c0 03 	orr     r30,r0,r29
    4384:	b8 ff bd 07 	addi    r29,r29,0xffb8
    4388:	fc ff 9e 34 	sw      0xfffc(r30),r4
    438c:	f8 ff be 34 	sw      0xfff8(r30),r5
    4390:	f4 ff de 34 	sw      0xfff4(r30),r6
    4394:	f0 ff fe 34 	sw      0xfff0(r30),r7
    4398:	01 00 80 2c 	ldih    r4,0x0001
    439c:	e0 70 84 18 	ori     r4,r4,0x70e0
    43a0:	c4 ff 9e 34 	sw      0xffc4(r30),r4
    43a4:	10 00 9e 30 	lw      r4,0x0010(r30)
    43a8:	06 00 84 24 	lsri    r4,r4,0x0006
    43ac:	01 00 a4 14 	andi    r5,r4,0x0001
    43b0:	00 00 80 18 	ori     r4,r0,0x0000
    43b4:	02 20 05 00 	sub     r0,r5,r4
    43b8:	04 00 00 40 	beq     0x000043c8
    43bc:	01 00 80 2c 	ldih    r4,0x0001
    43c0:	05 71 84 18 	ori     r4,r4,0x7105
    43c4:	c4 ff 9e 34 	sw      0xffc4(r30),r4
    43c8:	10 00 9e 30 	lw      r4,0x0010(r30)
    43cc:	04 00 84 24 	lsri    r4,r4,0x0004
    43d0:	01 00 a4 14 	andi    r5,r4,0x0001
    43d4:	00 00 80 18 	ori     r4,r0,0x0000
    43d8:	02 20 05 00 	sub     r0,r5,r4
    43dc:	06 00 00 40 	beq     0x000043f4
    43e0:	10 00 9e 30 	lw      r4,0x0010(r30)
    43e4:	ff ff a0 2c 	ldih    r5,0xffff
    43e8:	fe ff a5 18 	ori     r5,r5,0xfffe
    43ec:	04 28 84 00 	and     r4,r4,r5
    43f0:	10 00 9e 34 	sw      0x0010(r30),r4
    43f4:	f4 ff be 30 	lw      r5,0xfff4(r30)
    43f8:	01 00 80 18 	ori     r4,r0,0x0001
    43fc:	02 20 05 00 	sub     r0,r5,r4
    4400:	06 00 40 43 	ble     0x00004418
    4404:	f4 ff be 30 	lw      r5,0xfff4(r30)
    4408:	24 00 80 18 	ori     r4,r0,0x0024
    440c:	02 20 05 00 	sub     r0,r5,r4
    4410:	02 00 00 43 	bgt     0x00004418
    4414:	09 11 00 80 	ajmp    0x00004424
    4418:	00 00 80 18 	ori     r4,r0,0x0000
    441c:	bc ff 9e 34 	sw      0xffbc(r30),r4
    4420:	19 12 00 80 	ajmp    0x00004864
    4424:	10 00 9e 30 	lw      r4,0x0010(r30)
    4428:	01 00 a4 14 	andi    r5,r4,0x0001
    442c:	00 00 80 18 	ori     r4,r0,0x0000
    4430:	02 20 05 00 	sub     r0,r5,r4
    4434:	04 00 00 40 	beq     0x00004444
    4438:	30 00 e0 18 	ori     r7,r0,0x0030
    443c:	bb ff fe 3c 	sb      0xffbb(r30),r7
    4440:	13 11 00 80 	ajmp    0x0000444c
    4444:	20 00 80 18 	ori     r4,r0,0x0020
    4448:	bb ff 9e 3c 	sb      0xffbb(r30),r4
    444c:	bb ff fe 38 	lb      r7,0xffbb(r30)
    4450:	ef ff fe 3c 	sb      0xffef(r30),r7
    4454:	10 00 9e 30 	lw      r4,0x0010(r30)
    4458:	01 00 84 24 	lsri    r4,r4,0x0001
    445c:	01 00 a4 14 	andi    r5,r4,0x0001
    4460:	00 00 80 18 	ori     r4,r0,0x0000
    4464:	02 20 05 00 	sub     r0,r5,r4
    4468:	0b 00 00 40 	beq     0x00004494
    446c:	f8 ff be 30 	lw      r5,0xfff8(r30)
    4470:	00 00 80 18 	ori     r4,r0,0x0000
    4474:	02 20 05 00 	sub     r0,r5,r4
    4478:	07 00 80 42 	bge     0x00004494
    447c:	2d 00 80 18 	ori     r4,r0,0x002d
    4480:	ee ff 9e 3c 	sb      0xffee(r30),r4
    4484:	f8 ff 9e 30 	lw      r4,0xfff8(r30)
    4488:	02 20 80 00 	sub     r4,r0,r4
    448c:	f8 ff 9e 34 	sw      0xfff8(r30),r4
    4490:	3b 11 00 80 	ajmp    0x000044ec
    4494:	10 00 9e 30 	lw      r4,0x0010(r30)
    4498:	02 00 84 24 	lsri    r4,r4,0x0002
    449c:	01 00 a4 14 	andi    r5,r4,0x0001
    44a0:	00 00 80 18 	ori     r4,r0,0x0000
    44a4:	02 20 05 00 	sub     r0,r5,r4
    44a8:	0d 00 40 40 	bne     0x000044dc
    44ac:	10 00 9e 30 	lw      r4,0x0010(r30)
    44b0:	03 00 84 24 	lsri    r4,r4,0x0003
    44b4:	01 00 a4 14 	andi    r5,r4,0x0001
    44b8:	00 00 80 18 	ori     r4,r0,0x0000
    44bc:	02 20 05 00 	sub     r0,r5,r4
    44c0:	04 00 00 40 	beq     0x000044d0
    44c4:	20 00 e0 18 	ori     r7,r0,0x0020
    44c8:	ba ff fe 3c 	sb      0xffba(r30),r7
    44cc:	39 11 00 80 	ajmp    0x000044e4
    44d0:	00 00 80 18 	ori     r4,r0,0x0000
    44d4:	ba ff 9e 3c 	sb      0xffba(r30),r4
    44d8:	39 11 00 80 	ajmp    0x000044e4
    44dc:	2b 00 e0 18 	ori     r7,r0,0x002b
    44e0:	ba ff fe 3c 	sb      0xffba(r30),r7
    44e4:	ba ff 9e 38 	lb      r4,0xffba(r30)
    44e8:	ee ff 9e 3c 	sb      0xffee(r30),r4
    44ec:	ee ff 9e 38 	lb      r4,0xffee(r30)
    44f0:	18 00 84 20 	lsli    r4,r4,0x0018
    44f4:	18 00 84 24 	lsri    r4,r4,0x0018
    44f8:	00 00 a0 18 	ori     r5,r0,0x0000
    44fc:	02 28 04 00 	sub     r0,r4,r5
    4500:	04 00 00 40 	beq     0x00004510
    4504:	f0 ff 9e 30 	lw      r4,0xfff0(r30)
    4508:	ff ff 84 04 	addi    r4,r4,0xffff
    450c:	f0 ff 9e 34 	sw      0xfff0(r30),r4
    4510:	10 00 9e 30 	lw      r4,0x0010(r30)
    4514:	05 00 84 24 	lsri    r4,r4,0x0005
    4518:	01 00 a4 14 	andi    r5,r4,0x0001
    451c:	00 00 80 18 	ori     r4,r0,0x0000
    4520:	02 20 05 00 	sub     r0,r5,r4
    4524:	10 00 00 40 	beq     0x00004564
    4528:	f4 ff be 30 	lw      r5,0xfff4(r30)
    452c:	10 00 80 18 	ori     r4,r0,0x0010
    4530:	02 20 05 00 	sub     r0,r5,r4
    4534:	05 00 40 40 	bne     0x00004548
    4538:	f0 ff 9e 30 	lw      r4,0xfff0(r30)
    453c:	fe ff 84 04 	addi    r4,r4,0xfffe
    4540:	f0 ff 9e 34 	sw      0xfff0(r30),r4
    4544:	59 11 00 80 	ajmp    0x00004564
    4548:	f4 ff be 30 	lw      r5,0xfff4(r30)
    454c:	08 00 80 18 	ori     r4,r0,0x0008
    4550:	02 20 05 00 	sub     r0,r5,r4
    4554:	04 00 40 40 	bne     0x00004564
    4558:	f0 ff 9e 30 	lw      r4,0xfff0(r30)
    455c:	ff ff 84 04 	addi    r4,r4,0xffff
    4560:	f0 ff 9e 34 	sw      0xfff0(r30),r4
    4564:	00 00 80 18 	ori     r4,r0,0x0000
    4568:	c0 ff 9e 34 	sw      0xffc0(r30),r4
    456c:	f8 ff be 30 	lw      r5,0xfff8(r30)
    4570:	00 00 80 18 	ori     r4,r0,0x0000
    4574:	02 20 05 00 	sub     r0,r5,r4
    4578:	0b 00 40 40 	bne     0x000045a4
    457c:	c0 ff de 04 	addi    r6,r30,0xffc0
    4580:	00 00 a6 30 	lw      r5,0x0000(r6)
    4584:	05 28 80 00 	orr     r4,r0,r5
    4588:	00 f0 84 00 	add     r4,r4,r30
    458c:	c8 ff 84 04 	addi    r4,r4,0xffc8
    4590:	30 00 e0 18 	ori     r7,r0,0x0030
    4594:	00 00 e4 3c 	sb      0x0000(r4),r7
    4598:	01 00 a5 04 	addi    r5,r5,0x0001
    459c:	00 00 a6 34 	sw      0x0000(r6),r5
    45a0:	7d 11 00 80 	ajmp    0x000045f4
    45a4:	f8 ff be 30 	lw      r5,0xfff8(r30)
    45a8:	00 00 80 18 	ori     r4,r0,0x0000
    45ac:	02 20 05 00 	sub     r0,r5,r4
    45b0:	11 00 00 40 	beq     0x000045f4
    45b4:	c0 ff de 04 	addi    r6,r30,0xffc0
    45b8:	00 00 a6 30 	lw      r5,0x0000(r6)
    45bc:	05 28 80 00 	orr     r4,r0,r5
    45c0:	00 f0 84 00 	add     r4,r4,r30
    45c4:	c8 ff 04 05 	addi    r8,r4,0xffc8
    45c8:	f8 ff 9e 04 	addi    r4,r30,0xfff8
    45cc:	01 00 a5 04 	addi    r5,r5,0x0001
    45d0:	00 00 a6 34 	sw      0x0000(r6),r5
    45d4:	f4 ff be 30 	lw      r5,0xfff4(r30)
    45d8:	c4 10 00 c0 	ajal    0x00004310
    45dc:	05 10 a0 00 	orr     r5,r0,r2
    45e0:	c4 ff 9e 30 	lw      r4,0xffc4(r30)
    45e4:	00 20 85 00 	add     r4,r5,r4
    45e8:	00 00 84 38 	lb      r4,0x0000(r4)
    45ec:	00 00 88 3c 	sb      0x0000(r8),r4
    45f0:	69 11 00 80 	ajmp    0x000045a4
    45f4:	c0 ff be 30 	lw      r5,0xffc0(r30)
    45f8:	0c 00 9e 30 	lw      r4,0x000c(r30)
    45fc:	02 20 05 00 	sub     r0,r5,r4
    4600:	03 00 40 43 	ble     0x0000460c
    4604:	c0 ff 9e 30 	lw      r4,0xffc0(r30)
    4608:	0c 00 9e 34 	sw      0x000c(r30),r4
    460c:	f0 ff be 30 	lw      r5,0xfff0(r30)
    4610:	0c 00 9e 30 	lw      r4,0x000c(r30)
    4614:	02 20 85 00 	sub     r4,r5,r4
    4618:	f0 ff 9e 34 	sw      0xfff0(r30),r4
    461c:	10 00 9e 30 	lw      r4,0x0010(r30)
    4620:	11 00 a4 14 	andi    r5,r4,0x0011
    4624:	00 00 80 18 	ori     r4,r0,0x0000
    4628:	02 20 05 00 	sub     r0,r5,r4
    462c:	11 00 40 40 	bne     0x00004670
    4630:	f0 ff be 04 	addi    r5,r30,0xfff0
    4634:	00 00 85 30 	lw      r4,0x0000(r5)
    4638:	05 20 c0 00 	orr     r6,r0,r4
    463c:	ff ff 84 04 	addi    r4,r4,0xffff
    4640:	00 00 85 34 	sw      0x0000(r5),r4
    4644:	00 00 80 18 	ori     r4,r0,0x0000
    4648:	02 20 06 00 	sub     r0,r6,r4
    464c:	09 00 40 43 	ble     0x00004670
    4650:	fc ff 9e 04 	addi    r4,r30,0xfffc
    4654:	00 00 a4 30 	lw      r5,0x0000(r4)
    4658:	05 28 c0 00 	orr     r6,r0,r5
    465c:	20 00 e0 18 	ori     r7,r0,0x0020
    4660:	00 00 e6 3c 	sb      0x0000(r6),r7
    4664:	01 00 a5 04 	addi    r5,r5,0x0001
    4668:	00 00 a4 34 	sw      0x0000(r4),r5
    466c:	8c 11 00 80 	ajmp    0x00004630
    4670:	ee ff 9e 38 	lb      r4,0xffee(r30)
    4674:	18 00 84 20 	lsli    r4,r4,0x0018
    4678:	18 00 84 24 	lsri    r4,r4,0x0018
    467c:	00 00 a0 18 	ori     r5,r0,0x0000
    4680:	02 28 04 00 	sub     r0,r4,r5
    4684:	08 00 00 40 	beq     0x000046a4
    4688:	fc ff 9e 04 	addi    r4,r30,0xfffc
    468c:	00 00 a4 30 	lw      r5,0x0000(r4)
    4690:	05 28 c0 00 	orr     r6,r0,r5
    4694:	ee ff fe 38 	lb      r7,0xffee(r30)
    4698:	00 00 e6 3c 	sb      0x0000(r6),r7
    469c:	01 00 a5 04 	addi    r5,r5,0x0001
    46a0:	00 00 a4 34 	sw      0x0000(r4),r5
    46a4:	10 00 9e 30 	lw      r4,0x0010(r30)
    46a8:	05 00 84 24 	lsri    r4,r4,0x0005
    46ac:	01 00 a4 14 	andi    r5,r4,0x0001
    46b0:	00 00 80 18 	ori     r4,r0,0x0000
    46b4:	02 20 05 00 	sub     r0,r5,r4
    46b8:	21 00 00 40 	beq     0x0000473c
    46bc:	f4 ff be 30 	lw      r5,0xfff4(r30)
    46c0:	08 00 80 18 	ori     r4,r0,0x0008
    46c4:	02 20 05 00 	sub     r0,r5,r4
    46c8:	09 00 40 40 	bne     0x000046ec
    46cc:	fc ff 9e 04 	addi    r4,r30,0xfffc
    46d0:	00 00 a4 30 	lw      r5,0x0000(r4)
    46d4:	05 28 c0 00 	orr     r6,r0,r5
    46d8:	30 00 e0 18 	ori     r7,r0,0x0030
    46dc:	00 00 e6 3c 	sb      0x0000(r6),r7
    46e0:	01 00 a5 04 	addi    r5,r5,0x0001
    46e4:	00 00 a4 34 	sw      0x0000(r4),r5
    46e8:	cf 11 00 80 	ajmp    0x0000473c
    46ec:	f4 ff be 30 	lw      r5,0xfff4(r30)
    46f0:	10 00 80 18 	ori     r4,r0,0x0010
    46f4:	02 20 05 00 	sub     r0,r5,r4
    46f8:	11 00 40 40 	bne     0x0000473c
    46fc:	fc ff de 04 	addi    r6,r30,0xfffc
    4700:	00 00 86 30 	lw      r4,0x0000(r6)
    4704:	05 20 a0 00 	orr     r5,r0,r4
    4708:	30 00 e0 18 	ori     r7,r0,0x0030
    470c:	00 00 e5 3c 	sb      0x0000(r5),r7
    4710:	01 00 84 04 	addi    r4,r4,0x0001
    4714:	00 00 86 34 	sw      0x0000(r6),r4
    4718:	fc ff fe 04 	addi    r7,r30,0xfffc
    471c:	00 00 a7 30 	lw      r5,0x0000(r7)
    4720:	c4 ff 9e 30 	lw      r4,0xffc4(r30)
    4724:	21 00 c4 04 	addi    r6,r4,0x0021
    4728:	05 28 80 00 	orr     r4,r0,r5
    472c:	00 00 c6 38 	lb      r6,0x0000(r6)
    4730:	00 00 c4 3c 	sb      0x0000(r4),r6
    4734:	01 00 a5 04 	addi    r5,r5,0x0001
    4738:	00 00 a7 34 	sw      0x0000(r7),r5
    473c:	10 00 9e 30 	lw      r4,0x0010(r30)
    4740:	04 00 84 24 	lsri    r4,r4,0x0004
    4744:	01 00 a4 14 	andi    r5,r4,0x0001
    4748:	00 00 80 18 	ori     r4,r0,0x0000
    474c:	02 20 05 00 	sub     r0,r5,r4
    4750:	11 00 40 40 	bne     0x00004794
    4754:	f0 ff be 04 	addi    r5,r30,0xfff0
    4758:	00 00 85 30 	lw      r4,0x0000(r5)
    475c:	05 20 c0 00 	orr     r6,r0,r4
    4760:	ff ff 84 04 	addi    r4,r4,0xffff
    4764:	00 00 85 34 	sw      0x0000(r5),r4
    4768:	00 00 80 18 	ori     r4,r0,0x0000
    476c:	02 20 06 00 	sub     r0,r6,r4
    4770:	09 00 40 43 	ble     0x00004794
    4774:	fc ff 9e 04 	addi    r4,r30,0xfffc
    4778:	00 00 a4 30 	lw      r5,0x0000(r4)
    477c:	05 28 c0 00 	orr     r6,r0,r5
    4780:	ef ff fe 38 	lb      r7,0xffef(r30)
    4784:	00 00 e6 3c 	sb      0x0000(r6),r7
    4788:	01 00 a5 04 	addi    r5,r5,0x0001
    478c:	00 00 a4 34 	sw      0x0000(r4),r5
    4790:	d5 11 00 80 	ajmp    0x00004754
    4794:	0c 00 9e 30 	lw      r4,0x000c(r30)
    4798:	05 20 a0 00 	orr     r5,r0,r4
    479c:	ff ff 84 04 	addi    r4,r4,0xffff
    47a0:	0c 00 9e 34 	sw      0x000c(r30),r4
    47a4:	c0 ff 9e 30 	lw      r4,0xffc0(r30)
    47a8:	02 20 05 00 	sub     r0,r5,r4
    47ac:	09 00 40 43 	ble     0x000047d0
    47b0:	fc ff 9e 04 	addi    r4,r30,0xfffc
    47b4:	00 00 a4 30 	lw      r5,0x0000(r4)
    47b8:	05 28 c0 00 	orr     r6,r0,r5
    47bc:	30 00 e0 18 	ori     r7,r0,0x0030
    47c0:	00 00 e6 3c 	sb      0x0000(r6),r7
    47c4:	01 00 a5 04 	addi    r5,r5,0x0001
    47c8:	00 00 a4 34 	sw      0x0000(r4),r5
    47cc:	e5 11 00 80 	ajmp    0x00004794
    47d0:	c0 ff be 04 	addi    r5,r30,0xffc0
    47d4:	00 00 85 30 	lw      r4,0x0000(r5)
    47d8:	05 20 c0 00 	orr     r6,r0,r4
    47dc:	ff ff 84 04 	addi    r4,r4,0xffff
    47e0:	00 00 85 34 	sw      0x0000(r5),r4
    47e4:	00 00 80 18 	ori     r4,r0,0x0000
    47e8:	02 20 06 00 	sub     r0,r6,r4
    47ec:	0c 00 40 43 	ble     0x0000481c
    47f0:	fc ff fe 04 	addi    r7,r30,0xfffc
    47f4:	00 00 a7 30 	lw      r5,0x0000(r7)
    47f8:	c8 ff de 04 	addi    r6,r30,0xffc8
    47fc:	c0 ff 9e 30 	lw      r4,0xffc0(r30)
    4800:	00 20 c6 00 	add     r6,r6,r4
    4804:	05 28 80 00 	orr     r4,r0,r5
    4808:	00 00 c6 38 	lb      r6,0x0000(r6)
    480c:	00 00 c4 3c 	sb      0x0000(r4),r6
    4810:	01 00 a5 04 	addi    r5,r5,0x0001
    4814:	00 00 a7 34 	sw      0x0000(r7),r5
    4818:	f4 11 00 80 	ajmp    0x000047d0
    481c:	f0 ff be 04 	addi    r5,r30,0xfff0
    4820:	00 00 85 30 	lw      r4,0x0000(r5)
    4824:	05 20 c0 00 	orr     r6,r0,r4
    4828:	ff ff 84 04 	addi    r4,r4,0xffff
    482c:	00 00 85 34 	sw      0x0000(r5),r4
    4830:	00 00 80 18 	ori     r4,r0,0x0000
    4834:	02 20 06 00 	sub     r0,r6,r4
    4838:	09 00 40 43 	ble     0x0000485c
    483c:	fc ff 9e 04 	addi    r4,r30,0xfffc
    4840:	00 00 a4 30 	lw      r5,0x0000(r4)
    4844:	05 28 c0 00 	orr     r6,r0,r5
    4848:	20 00 e0 18 	ori     r7,r0,0x0020
    484c:	00 00 e6 3c 	sb      0x0000(r6),r7
    4850:	01 00 a5 04 	addi    r5,r5,0x0001
    4854:	00 00 a4 34 	sw      0x0000(r4),r5
    4858:	07 12 00 80 	ajmp    0x0000481c
    485c:	fc ff 9e 30 	lw      r4,0xfffc(r30)
    4860:	bc ff 9e 34 	sw      0xffbc(r30),r4
    4864:	bc ff 5e 30 	lw      r2,0xffbc(r30)
    4868:	48 00 bd 07 	addi    r29,r29,0x0048
    486c:	05 f0 a0 03 	orr     r29,r0,r30
    4870:	0c 00 bd 07 	addi    r29,r29,0x000c
    4874:	fc ff 1d 31 	lw      r8,0xfffc(r29)
    4878:	f8 ff fd 33 	lw      r31,0xfff8(r29)
    487c:	f4 ff dd 33 	lw      r30,0xfff4(r29)
    4880:	00 00 e0 47 	jmpr    r31
    4884:	00 00 00 00 	nop
    4888:	00 00 00 00 	nop
    488c:	00 00 00 00 	nop

00004890 <vsprintf>:
    4890:	f4 ff bd 07 	addi    r29,r29,0xfff4
    4894:	00 00 dd 37 	sw      0x0000(r29),r30
    4898:	04 00 fd 37 	sw      0x0004(r29),r31
    489c:	08 00 1d 35 	sw      0x0008(r29),r8
    48a0:	05 e8 c0 03 	orr     r30,r0,r29
    48a4:	c0 ff bd 07 	addi    r29,r29,0xffc0
    48a8:	fc ff 9e 34 	sw      0xfffc(r30),r4
    48ac:	f8 ff be 34 	sw      0xfff8(r30),r5
    48b0:	f4 ff de 34 	sw      0xfff4(r30),r6
    48b4:	fc ff 9e 30 	lw      r4,0xfffc(r30)
    48b8:	e8 ff 9e 34 	sw      0xffe8(r30),r4
    48bc:	f8 ff 9e 30 	lw      r4,0xfff8(r30)
    48c0:	00 00 84 38 	lb      r4,0x0000(r4)
    48c4:	18 00 84 20 	lsli    r4,r4,0x0018
    48c8:	18 00 84 24 	lsri    r4,r4,0x0018
    48cc:	00 00 a0 18 	ori     r5,r0,0x0000
    48d0:	02 28 04 00 	sub     r0,r4,r5
    48d4:	d0 01 00 40 	beq     0x00005014
    48d8:	f8 ff 9e 30 	lw      r4,0xfff8(r30)
    48dc:	00 00 84 38 	lb      r4,0x0000(r4)
    48e0:	18 00 84 20 	lsli    r4,r4,0x0018
    48e4:	18 00 84 24 	lsri    r4,r4,0x0018
    48e8:	25 00 a0 18 	ori     r5,r0,0x0025
    48ec:	02 28 04 00 	sub     r0,r4,r5
    48f0:	0a 00 00 40 	beq     0x00004918
    48f4:	e8 ff fe 04 	addi    r7,r30,0xffe8
    48f8:	00 00 87 30 	lw      r4,0x0000(r7)
    48fc:	f8 ff de 30 	lw      r6,0xfff8(r30)
    4900:	05 20 a0 00 	orr     r5,r0,r4
    4904:	00 00 c6 38 	lb      r6,0x0000(r6)
    4908:	00 00 c5 3c 	sb      0x0000(r5),r6
    490c:	01 00 84 04 	addi    r4,r4,0x0001
    4910:	00 00 87 34 	sw      0x0000(r7),r4
    4914:	01 14 00 80 	ajmp    0x00005004
    4918:	00 00 80 18 	ori     r4,r0,0x0000
    491c:	dc ff 9e 34 	sw      0xffdc(r30),r4
    4920:	f8 ff 9e 30 	lw      r4,0xfff8(r30)
    4924:	01 00 84 04 	addi    r4,r4,0x0001
    4928:	f8 ff 9e 34 	sw      0xfff8(r30),r4
    492c:	f8 ff 9e 30 	lw      r4,0xfff8(r30)
    4930:	00 00 84 38 	lb      r4,0x0000(r4)
    4934:	18 00 84 20 	lsli    r4,r4,0x0018
    4938:	18 00 84 24 	lsri    r4,r4,0x0018
    493c:	e0 ff 84 04 	addi    r4,r4,0xffe0
    4940:	cc ff 9e 34 	sw      0xffcc(r30),r4
    4944:	10 00 80 18 	ori     r4,r0,0x0010
    4948:	cc ff be 30 	lw      r5,0xffcc(r30)
    494c:	02 20 05 00 	sub     r0,r5,r4
    4950:	1c 00 00 42 	bhi     0x000049c0
    4954:	cc ff 9e 30 	lw      r4,0xffcc(r30)
    4958:	02 00 a4 20 	lsli    r5,r4,0x0002
    495c:	01 00 80 2c 	ldih    r4,0x0001
    4960:	30 71 84 18 	ori     r4,r4,0x7130
    4964:	00 20 85 00 	add     r4,r5,r4
    4968:	00 00 84 30 	lw      r4,0x0000(r4)
    496c:	00 00 80 44 	jmpr    r4
    4970:	dc ff 9e 30 	lw      r4,0xffdc(r30)
    4974:	10 00 84 18 	ori     r4,r4,0x0010
    4978:	dc ff 9e 34 	sw      0xffdc(r30),r4
    497c:	48 12 00 80 	ajmp    0x00004920
    4980:	dc ff 9e 30 	lw      r4,0xffdc(r30)
    4984:	04 00 84 18 	ori     r4,r4,0x0004
    4988:	dc ff 9e 34 	sw      0xffdc(r30),r4
    498c:	48 12 00 80 	ajmp    0x00004920
    4990:	dc ff 9e 30 	lw      r4,0xffdc(r30)
    4994:	08 00 84 18 	ori     r4,r4,0x0008
    4998:	dc ff 9e 34 	sw      0xffdc(r30),r4
    499c:	48 12 00 80 	ajmp    0x00004920
    49a0:	dc ff 9e 30 	lw      r4,0xffdc(r30)
    49a4:	20 00 84 18 	ori     r4,r4,0x0020
    49a8:	dc ff 9e 34 	sw      0xffdc(r30),r4
    49ac:	48 12 00 80 	ajmp    0x00004920
    49b0:	dc ff 9e 30 	lw      r4,0xffdc(r30)
    49b4:	01 00 84 18 	ori     r4,r4,0x0001
    49b8:	dc ff 9e 34 	sw      0xffdc(r30),r4
    49bc:	48 12 00 80 	ajmp    0x00004920
    49c0:	ff ff 80 2c 	ldih    r4,0xffff
    49c4:	ff ff 84 18 	ori     r4,r4,0xffff
    49c8:	d8 ff 9e 34 	sw      0xffd8(r30),r4
    49cc:	f8 ff 9e 30 	lw      r4,0xfff8(r30)
    49d0:	00 00 84 38 	lb      r4,0x0000(r4)
    49d4:	18 00 84 20 	lsli    r4,r4,0x0018
    49d8:	18 00 84 24 	lsri    r4,r4,0x0018
    49dc:	2f 00 a0 18 	ori     r5,r0,0x002f
    49e0:	02 28 04 00 	sub     r0,r4,r5
    49e4:	0d 00 40 42 	bls     0x00004a18
    49e8:	f8 ff 9e 30 	lw      r4,0xfff8(r30)
    49ec:	00 00 84 38 	lb      r4,0x0000(r4)
    49f0:	18 00 84 20 	lsli    r4,r4,0x0018
    49f4:	18 00 84 24 	lsri    r4,r4,0x0018
    49f8:	39 00 a0 18 	ori     r5,r0,0x0039
    49fc:	02 28 04 00 	sub     r0,r4,r5
    4a00:	06 00 00 42 	bhi     0x00004a18
    4a04:	f8 ff 9e 04 	addi    r4,r30,0xfff8
    4a08:	94 10 00 c0 	ajal    0x00004250
    4a0c:	05 10 80 00 	orr     r4,r0,r2
    4a10:	d8 ff 9e 34 	sw      0xffd8(r30),r4
    4a14:	9d 12 00 80 	ajmp    0x00004a74
    4a18:	f8 ff 9e 30 	lw      r4,0xfff8(r30)
    4a1c:	00 00 84 38 	lb      r4,0x0000(r4)
    4a20:	18 00 84 20 	lsli    r4,r4,0x0018
    4a24:	18 00 84 24 	lsri    r4,r4,0x0018
    4a28:	2a 00 a0 18 	ori     r5,r0,0x002a
    4a2c:	02 28 04 00 	sub     r0,r4,r5
    4a30:	11 00 40 40 	bne     0x00004a74
    4a34:	f4 ff be 30 	lw      r5,0xfff4(r30)
    4a38:	f4 ff 9e 30 	lw      r4,0xfff4(r30)
    4a3c:	04 00 84 04 	addi    r4,r4,0x0004
    4a40:	f4 ff 9e 34 	sw      0xfff4(r30),r4
    4a44:	00 00 85 30 	lw      r4,0x0000(r5)
    4a48:	d8 ff 9e 34 	sw      0xffd8(r30),r4
    4a4c:	d8 ff be 30 	lw      r5,0xffd8(r30)
    4a50:	00 00 80 18 	ori     r4,r0,0x0000
    4a54:	02 20 05 00 	sub     r0,r5,r4
    4a58:	07 00 80 42 	bge     0x00004a74
    4a5c:	d8 ff 9e 30 	lw      r4,0xffd8(r30)
    4a60:	02 20 80 00 	sub     r4,r0,r4
    4a64:	d8 ff 9e 34 	sw      0xffd8(r30),r4
    4a68:	dc ff 9e 30 	lw      r4,0xffdc(r30)
    4a6c:	10 00 84 18 	ori     r4,r4,0x0010
    4a70:	dc ff 9e 34 	sw      0xffdc(r30),r4
    4a74:	ff ff 80 2c 	ldih    r4,0xffff
    4a78:	ff ff 84 18 	ori     r4,r4,0xffff
    4a7c:	d4 ff 9e 34 	sw      0xffd4(r30),r4
    4a80:	f8 ff 9e 30 	lw      r4,0xfff8(r30)
    4a84:	00 00 84 38 	lb      r4,0x0000(r4)
    4a88:	18 00 84 20 	lsli    r4,r4,0x0018
    4a8c:	18 00 84 24 	lsri    r4,r4,0x0018
    4a90:	2e 00 a0 18 	ori     r5,r0,0x002e
    4a94:	02 28 04 00 	sub     r0,r4,r5
    4a98:	2a 00 40 40 	bne     0x00004b40
    4a9c:	f8 ff 9e 30 	lw      r4,0xfff8(r30)
    4aa0:	01 00 84 04 	addi    r4,r4,0x0001
    4aa4:	f8 ff 9e 34 	sw      0xfff8(r30),r4
    4aa8:	f8 ff 9e 30 	lw      r4,0xfff8(r30)
    4aac:	00 00 84 38 	lb      r4,0x0000(r4)
    4ab0:	18 00 84 20 	lsli    r4,r4,0x0018
    4ab4:	18 00 84 24 	lsri    r4,r4,0x0018
    4ab8:	2f 00 a0 18 	ori     r5,r0,0x002f
    4abc:	02 28 04 00 	sub     r0,r4,r5
    4ac0:	0d 00 40 42 	bls     0x00004af4
    4ac4:	f8 ff 9e 30 	lw      r4,0xfff8(r30)
    4ac8:	00 00 84 38 	lb      r4,0x0000(r4)
    4acc:	18 00 84 20 	lsli    r4,r4,0x0018
    4ad0:	18 00 84 24 	lsri    r4,r4,0x0018
    4ad4:	39 00 a0 18 	ori     r5,r0,0x0039
    4ad8:	02 28 04 00 	sub     r0,r4,r5
    4adc:	06 00 00 42 	bhi     0x00004af4
    4ae0:	f8 ff 9e 04 	addi    r4,r30,0xfff8
    4ae4:	94 10 00 c0 	ajal    0x00004250
    4ae8:	05 10 80 00 	orr     r4,r0,r2
    4aec:	d4 ff 9e 34 	sw      0xffd4(r30),r4
    4af0:	ca 12 00 80 	ajmp    0x00004b28
    4af4:	f8 ff 9e 30 	lw      r4,0xfff8(r30)
    4af8:	00 00 84 38 	lb      r4,0x0000(r4)
    4afc:	18 00 84 20 	lsli    r4,r4,0x0018
    4b00:	18 00 84 24 	lsri    r4,r4,0x0018
    4b04:	2a 00 a0 18 	ori     r5,r0,0x002a
    4b08:	02 28 04 00 	sub     r0,r4,r5
    4b0c:	07 00 40 40 	bne     0x00004b28
    4b10:	f4 ff be 30 	lw      r5,0xfff4(r30)
    4b14:	f4 ff 9e 30 	lw      r4,0xfff4(r30)
    4b18:	04 00 84 04 	addi    r4,r4,0x0004
    4b1c:	f4 ff 9e 34 	sw      0xfff4(r30),r4
    4b20:	00 00 85 30 	lw      r4,0x0000(r5)
    4b24:	d4 ff 9e 34 	sw      0xffd4(r30),r4
    4b28:	d4 ff be 30 	lw      r5,0xffd4(r30)
    4b2c:	00 00 80 18 	ori     r4,r0,0x0000
    4b30:	02 20 05 00 	sub     r0,r5,r4
    4b34:	03 00 80 42 	bge     0x00004b40
    4b38:	00 00 80 18 	ori     r4,r0,0x0000
    4b3c:	d4 ff 9e 34 	sw      0xffd4(r30),r4
    4b40:	ff ff 80 2c 	ldih    r4,0xffff
    4b44:	ff ff 84 18 	ori     r4,r4,0xffff
    4b48:	d0 ff 9e 34 	sw      0xffd0(r30),r4
    4b4c:	f8 ff 9e 30 	lw      r4,0xfff8(r30)
    4b50:	00 00 84 38 	lb      r4,0x0000(r4)
    4b54:	18 00 84 20 	lsli    r4,r4,0x0018
    4b58:	18 00 84 24 	lsri    r4,r4,0x0018
    4b5c:	68 00 a0 18 	ori     r5,r0,0x0068
    4b60:	02 28 04 00 	sub     r0,r4,r5
    4b64:	10 00 00 40 	beq     0x00004ba4
    4b68:	f8 ff 9e 30 	lw      r4,0xfff8(r30)
    4b6c:	00 00 84 38 	lb      r4,0x0000(r4)
    4b70:	18 00 84 20 	lsli    r4,r4,0x0018
    4b74:	18 00 84 24 	lsri    r4,r4,0x0018
    4b78:	6c 00 a0 18 	ori     r5,r0,0x006c
    4b7c:	02 28 04 00 	sub     r0,r4,r5
    4b80:	09 00 00 40 	beq     0x00004ba4
    4b84:	f8 ff 9e 30 	lw      r4,0xfff8(r30)
    4b88:	00 00 84 38 	lb      r4,0x0000(r4)
    4b8c:	18 00 84 20 	lsli    r4,r4,0x0018
    4b90:	18 00 84 24 	lsri    r4,r4,0x0018
    4b94:	4c 00 a0 18 	ori     r5,r0,0x004c
    4b98:	02 28 04 00 	sub     r0,r4,r5
    4b9c:	02 00 00 40 	beq     0x00004ba4
    4ba0:	f1 12 00 80 	ajmp    0x00004bc4
    4ba4:	f8 ff 9e 30 	lw      r4,0xfff8(r30)
    4ba8:	00 00 84 38 	lb      r4,0x0000(r4)
    4bac:	18 00 84 20 	lsli    r4,r4,0x0018
    4bb0:	18 00 84 24 	lsri    r4,r4,0x0018
    4bb4:	d0 ff 9e 34 	sw      0xffd0(r30),r4
    4bb8:	f8 ff 9e 30 	lw      r4,0xfff8(r30)
    4bbc:	01 00 84 04 	addi    r4,r4,0x0001
    4bc0:	f8 ff 9e 34 	sw      0xfff8(r30),r4
    4bc4:	f8 ff 9e 30 	lw      r4,0xfff8(r30)
    4bc8:	00 00 84 38 	lb      r4,0x0000(r4)
    4bcc:	18 00 84 20 	lsli    r4,r4,0x0018
    4bd0:	18 00 84 24 	lsri    r4,r4,0x0018
    4bd4:	a8 ff 84 04 	addi    r4,r4,0xffa8
    4bd8:	c8 ff 9e 34 	sw      0xffc8(r30),r4
    4bdc:	20 00 80 18 	ori     r4,r0,0x0020
    4be0:	c8 ff fe 30 	lw      r7,0xffc8(r30)
    4be4:	02 20 07 00 	sub     r0,r7,r4
    4be8:	e6 00 00 42 	bhi     0x00004f80
    4bec:	c8 ff 9e 30 	lw      r4,0xffc8(r30)
    4bf0:	02 00 a4 20 	lsli    r5,r4,0x0002
    4bf4:	01 00 80 2c 	ldih    r4,0x0001
    4bf8:	80 71 84 18 	ori     r4,r4,0x7180
    4bfc:	00 20 85 00 	add     r4,r5,r4
    4c00:	00 00 84 30 	lw      r4,0x0000(r4)
    4c04:	00 00 80 44 	jmpr    r4
    4c08:	dc ff 9e 30 	lw      r4,0xffdc(r30)
    4c0c:	04 00 84 24 	lsri    r4,r4,0x0004
    4c10:	01 00 a4 14 	andi    r5,r4,0x0001
    4c14:	00 00 80 18 	ori     r4,r0,0x0000
    4c18:	02 20 05 00 	sub     r0,r5,r4
    4c1c:	10 00 40 40 	bne     0x00004c5c
    4c20:	d8 ff 9e 30 	lw      r4,0xffd8(r30)
    4c24:	ff ff 84 04 	addi    r4,r4,0xffff
    4c28:	05 20 a0 00 	orr     r5,r0,r4
    4c2c:	d8 ff be 34 	sw      0xffd8(r30),r5
    4c30:	00 00 80 18 	ori     r4,r0,0x0000
    4c34:	02 20 05 00 	sub     r0,r5,r4
    4c38:	09 00 40 43 	ble     0x00004c5c
    4c3c:	e8 ff 9e 04 	addi    r4,r30,0xffe8
    4c40:	00 00 a4 30 	lw      r5,0x0000(r4)
    4c44:	05 28 c0 00 	orr     r6,r0,r5
    4c48:	20 00 e0 18 	ori     r7,r0,0x0020
    4c4c:	00 00 e6 3c 	sb      0x0000(r6),r7
    4c50:	01 00 a5 04 	addi    r5,r5,0x0001
    4c54:	00 00 a4 34 	sw      0x0000(r4),r5
    4c58:	08 13 00 80 	ajmp    0x00004c20
    4c5c:	e8 ff fe 04 	addi    r7,r30,0xffe8
    4c60:	00 00 a7 30 	lw      r5,0x0000(r7)
    4c64:	f4 ff de 30 	lw      r6,0xfff4(r30)
    4c68:	f4 ff 9e 30 	lw      r4,0xfff4(r30)
    4c6c:	04 00 84 04 	addi    r4,r4,0x0004
    4c70:	f4 ff 9e 34 	sw      0xfff4(r30),r4
    4c74:	00 00 86 30 	lw      r4,0x0000(r6)
    4c78:	05 20 c0 00 	orr     r6,r0,r4
    4c7c:	05 28 80 00 	orr     r4,r0,r5
    4c80:	00 00 c4 3c 	sb      0x0000(r4),r6
    4c84:	01 00 a5 04 	addi    r5,r5,0x0001
    4c88:	00 00 a7 34 	sw      0x0000(r7),r5
    4c8c:	d8 ff 9e 30 	lw      r4,0xffd8(r30)
    4c90:	ff ff 84 04 	addi    r4,r4,0xffff
    4c94:	05 20 a0 00 	orr     r5,r0,r4
    4c98:	d8 ff be 34 	sw      0xffd8(r30),r5
    4c9c:	00 00 80 18 	ori     r4,r0,0x0000
    4ca0:	02 20 05 00 	sub     r0,r5,r4
    4ca4:	d8 00 40 43 	ble     0x00005004
    4ca8:	e8 ff 9e 04 	addi    r4,r30,0xffe8
    4cac:	00 00 a4 30 	lw      r5,0x0000(r4)
    4cb0:	05 28 c0 00 	orr     r6,r0,r5
    4cb4:	20 00 e0 18 	ori     r7,r0,0x0020
    4cb8:	00 00 e6 3c 	sb      0x0000(r6),r7
    4cbc:	01 00 a5 04 	addi    r5,r5,0x0001
    4cc0:	00 00 a4 34 	sw      0x0000(r4),r5
    4cc4:	23 13 00 80 	ajmp    0x00004c8c
    4cc8:	f4 ff be 30 	lw      r5,0xfff4(r30)
    4ccc:	f4 ff 9e 30 	lw      r4,0xfff4(r30)
    4cd0:	04 00 84 04 	addi    r4,r4,0x0004
    4cd4:	f4 ff 9e 34 	sw      0xfff4(r30),r4
    4cd8:	00 00 85 30 	lw      r4,0x0000(r5)
    4cdc:	e4 ff 9e 34 	sw      0xffe4(r30),r4
    4ce0:	e4 ff 9e 30 	lw      r4,0xffe4(r30)
    4ce4:	24 0e 00 c0 	ajal    0x00003890
    4ce8:	05 10 80 00 	orr     r4,r0,r2
    4cec:	f0 ff 9e 34 	sw      0xfff0(r30),r4
    4cf0:	d4 ff be 30 	lw      r5,0xffd4(r30)
    4cf4:	00 00 80 18 	ori     r4,r0,0x0000
    4cf8:	02 20 05 00 	sub     r0,r5,r4
    4cfc:	04 00 80 42 	bge     0x00004d0c
    4d00:	f0 ff 9e 30 	lw      r4,0xfff0(r30)
    4d04:	d4 ff 9e 34 	sw      0xffd4(r30),r4
    4d08:	49 13 00 80 	ajmp    0x00004d24
    4d0c:	f0 ff be 30 	lw      r5,0xfff0(r30)
    4d10:	d4 ff 9e 30 	lw      r4,0xffd4(r30)
    4d14:	02 20 05 00 	sub     r0,r5,r4
    4d18:	03 00 40 43 	ble     0x00004d24
    4d1c:	d4 ff 9e 30 	lw      r4,0xffd4(r30)
    4d20:	f0 ff 9e 34 	sw      0xfff0(r30),r4
    4d24:	dc ff 9e 30 	lw      r4,0xffdc(r30)
    4d28:	04 00 84 24 	lsri    r4,r4,0x0004
    4d2c:	01 00 a4 14 	andi    r5,r4,0x0001
    4d30:	00 00 80 18 	ori     r4,r0,0x0000
    4d34:	02 20 05 00 	sub     r0,r5,r4
    4d38:	11 00 40 40 	bne     0x00004d7c
    4d3c:	d8 ff be 04 	addi    r5,r30,0xffd8
    4d40:	00 00 85 30 	lw      r4,0x0000(r5)
    4d44:	05 20 c0 00 	orr     r6,r0,r4
    4d48:	ff ff 84 04 	addi    r4,r4,0xffff
    4d4c:	00 00 85 34 	sw      0x0000(r5),r4
    4d50:	f0 ff 9e 30 	lw      r4,0xfff0(r30)
    4d54:	02 20 06 00 	sub     r0,r6,r4
    4d58:	09 00 40 43 	ble     0x00004d7c
    4d5c:	e8 ff 9e 04 	addi    r4,r30,0xffe8
    4d60:	00 00 a4 30 	lw      r5,0x0000(r4)
    4d64:	05 28 c0 00 	orr     r6,r0,r5
    4d68:	20 00 e0 18 	ori     r7,r0,0x0020
    4d6c:	00 00 e6 3c 	sb      0x0000(r6),r7
    4d70:	01 00 a5 04 	addi    r5,r5,0x0001
    4d74:	00 00 a4 34 	sw      0x0000(r4),r5
    4d78:	4f 13 00 80 	ajmp    0x00004d3c
    4d7c:	00 00 80 18 	ori     r4,r0,0x0000
    4d80:	ec ff 9e 34 	sw      0xffec(r30),r4
    4d84:	ec ff be 30 	lw      r5,0xffec(r30)
    4d88:	f0 ff 9e 30 	lw      r4,0xfff0(r30)
    4d8c:	02 20 05 00 	sub     r0,r5,r4
    4d90:	10 00 80 42 	bge     0x00004dd0
    4d94:	e8 ff 1e 05 	addi    r8,r30,0xffe8
    4d98:	00 00 a8 30 	lw      r5,0x0000(r8)
    4d9c:	e4 ff de 04 	addi    r6,r30,0xffe4
    4da0:	00 00 86 30 	lw      r4,0x0000(r6)
    4da4:	00 00 e4 38 	lb      r7,0x0000(r4)
    4da8:	01 00 84 04 	addi    r4,r4,0x0001
    4dac:	00 00 86 34 	sw      0x0000(r6),r4
    4db0:	05 28 80 00 	orr     r4,r0,r5
    4db4:	00 00 e4 3c 	sb      0x0000(r4),r7
    4db8:	01 00 a5 04 	addi    r5,r5,0x0001
    4dbc:	00 00 a8 34 	sw      0x0000(r8),r5
    4dc0:	ec ff 9e 30 	lw      r4,0xffec(r30)
    4dc4:	01 00 84 04 	addi    r4,r4,0x0001
    4dc8:	ec ff 9e 34 	sw      0xffec(r30),r4
    4dcc:	61 13 00 80 	ajmp    0x00004d84
    4dd0:	d8 ff be 04 	addi    r5,r30,0xffd8
    4dd4:	00 00 85 30 	lw      r4,0x0000(r5)
    4dd8:	05 20 c0 00 	orr     r6,r0,r4
    4ddc:	ff ff 84 04 	addi    r4,r4,0xffff
    4de0:	00 00 85 34 	sw      0x0000(r5),r4
    4de4:	f0 ff 9e 30 	lw      r4,0xfff0(r30)
    4de8:	02 20 06 00 	sub     r0,r6,r4
    4dec:	86 00 40 43 	ble     0x00005004
    4df0:	e8 ff 9e 04 	addi    r4,r30,0xffe8
    4df4:	00 00 a4 30 	lw      r5,0x0000(r4)
    4df8:	05 28 c0 00 	orr     r6,r0,r5
    4dfc:	20 00 e0 18 	ori     r7,r0,0x0020
    4e00:	00 00 e6 3c 	sb      0x0000(r6),r7
    4e04:	01 00 a5 04 	addi    r5,r5,0x0001
    4e08:	00 00 a4 34 	sw      0x0000(r4),r5
    4e0c:	74 13 00 80 	ajmp    0x00004dd0
    4e10:	f4 ff be 30 	lw      r5,0xfff4(r30)
    4e14:	f4 ff 9e 30 	lw      r4,0xfff4(r30)
    4e18:	04 00 84 04 	addi    r4,r4,0x0004
    4e1c:	f4 ff 9e 34 	sw      0xfff4(r30),r4
    4e20:	d4 ff 9e 30 	lw      r4,0xffd4(r30)
    4e24:	00 00 9d 34 	sw      0x0000(r29),r4
    4e28:	dc ff 9e 30 	lw      r4,0xffdc(r30)
    4e2c:	04 00 9d 34 	sw      0x0004(r29),r4
    4e30:	e8 ff 9e 30 	lw      r4,0xffe8(r30)
    4e34:	00 00 a5 30 	lw      r5,0x0000(r5)
    4e38:	08 00 c0 18 	ori     r6,r0,0x0008
    4e3c:	d8 ff fe 30 	lw      r7,0xffd8(r30)
    4e40:	dc 10 00 c0 	ajal    0x00004370
    4e44:	05 10 80 00 	orr     r4,r0,r2
    4e48:	e8 ff 9e 34 	sw      0xffe8(r30),r4
    4e4c:	01 14 00 80 	ajmp    0x00005004
    4e50:	d8 ff be 30 	lw      r5,0xffd8(r30)
    4e54:	ff ff 80 2c 	ldih    r4,0xffff
    4e58:	ff ff 84 18 	ori     r4,r4,0xffff
    4e5c:	02 20 05 00 	sub     r0,r5,r4
    4e60:	06 00 40 40 	bne     0x00004e78
    4e64:	08 00 80 18 	ori     r4,r0,0x0008
    4e68:	d8 ff 9e 34 	sw      0xffd8(r30),r4
    4e6c:	dc ff 9e 30 	lw      r4,0xffdc(r30)
    4e70:	01 00 84 18 	ori     r4,r4,0x0001
    4e74:	dc ff 9e 34 	sw      0xffdc(r30),r4
    4e78:	f4 ff be 30 	lw      r5,0xfff4(r30)
    4e7c:	f4 ff 9e 30 	lw      r4,0xfff4(r30)
    4e80:	04 00 84 04 	addi    r4,r4,0x0004
    4e84:	f4 ff 9e 34 	sw      0xfff4(r30),r4
    4e88:	d4 ff 9e 30 	lw      r4,0xffd4(r30)
    4e8c:	00 00 9d 34 	sw      0x0000(r29),r4
    4e90:	dc ff 9e 30 	lw      r4,0xffdc(r30)
    4e94:	04 00 9d 34 	sw      0x0004(r29),r4
    4e98:	e8 ff 9e 30 	lw      r4,0xffe8(r30)
    4e9c:	00 00 a5 30 	lw      r5,0x0000(r5)
    4ea0:	10 00 c0 18 	ori     r6,r0,0x0010
    4ea4:	d8 ff fe 30 	lw      r7,0xffd8(r30)
    4ea8:	dc 10 00 c0 	ajal    0x00004370
    4eac:	05 10 80 00 	orr     r4,r0,r2
    4eb0:	e8 ff 9e 34 	sw      0xffe8(r30),r4
    4eb4:	01 14 00 80 	ajmp    0x00005004
    4eb8:	dc ff 9e 30 	lw      r4,0xffdc(r30)
    4ebc:	40 00 84 18 	ori     r4,r4,0x0040
    4ec0:	dc ff 9e 34 	sw      0xffdc(r30),r4
    4ec4:	f4 ff be 30 	lw      r5,0xfff4(r30)
    4ec8:	f4 ff 9e 30 	lw      r4,0xfff4(r30)
    4ecc:	04 00 84 04 	addi    r4,r4,0x0004
    4ed0:	f4 ff 9e 34 	sw      0xfff4(r30),r4
    4ed4:	d4 ff 9e 30 	lw      r4,0xffd4(r30)
    4ed8:	00 00 9d 34 	sw      0x0000(r29),r4
    4edc:	dc ff 9e 30 	lw      r4,0xffdc(r30)
    4ee0:	04 00 9d 34 	sw      0x0004(r29),r4
    4ee4:	e8 ff 9e 30 	lw      r4,0xffe8(r30)
    4ee8:	00 00 a5 30 	lw      r5,0x0000(r5)
    4eec:	10 00 c0 18 	ori     r6,r0,0x0010
    4ef0:	d8 ff fe 30 	lw      r7,0xffd8(r30)
    4ef4:	dc 10 00 c0 	ajal    0x00004370
    4ef8:	05 10 80 00 	orr     r4,r0,r2
    4efc:	e8 ff 9e 34 	sw      0xffe8(r30),r4
    4f00:	01 14 00 80 	ajmp    0x00005004
    4f04:	dc ff 9e 30 	lw      r4,0xffdc(r30)
    4f08:	02 00 84 18 	ori     r4,r4,0x0002
    4f0c:	dc ff 9e 34 	sw      0xffdc(r30),r4
    4f10:	f4 ff be 30 	lw      r5,0xfff4(r30)
    4f14:	f4 ff 9e 30 	lw      r4,0xfff4(r30)
    4f18:	04 00 84 04 	addi    r4,r4,0x0004
    4f1c:	f4 ff 9e 34 	sw      0xfff4(r30),r4
    4f20:	d4 ff 9e 30 	lw      r4,0xffd4(r30)
    4f24:	00 00 9d 34 	sw      0x0000(r29),r4
    4f28:	dc ff 9e 30 	lw      r4,0xffdc(r30)
    4f2c:	04 00 9d 34 	sw      0x0004(r29),r4
    4f30:	e8 ff 9e 30 	lw      r4,0xffe8(r30)
    4f34:	00 00 a5 30 	lw      r5,0x0000(r5)
    4f38:	0a 00 c0 18 	ori     r6,r0,0x000a
    4f3c:	d8 ff fe 30 	lw      r7,0xffd8(r30)
    4f40:	dc 10 00 c0 	ajal    0x00004370
    4f44:	05 10 80 00 	orr     r4,r0,r2
    4f48:	e8 ff 9e 34 	sw      0xffe8(r30),r4
    4f4c:	01 14 00 80 	ajmp    0x00005004
    4f50:	f4 ff be 30 	lw      r5,0xfff4(r30)
    4f54:	f4 ff 9e 30 	lw      r4,0xfff4(r30)
    4f58:	04 00 84 04 	addi    r4,r4,0x0004
    4f5c:	f4 ff 9e 34 	sw      0xfff4(r30),r4
    4f60:	00 00 85 30 	lw      r4,0x0000(r5)
    4f64:	e0 ff 9e 34 	sw      0xffe0(r30),r4
    4f68:	e0 ff de 30 	lw      r6,0xffe0(r30)
    4f6c:	e8 ff be 30 	lw      r5,0xffe8(r30)
    4f70:	fc ff 9e 30 	lw      r4,0xfffc(r30)
    4f74:	02 20 85 00 	sub     r4,r5,r4
    4f78:	00 00 86 34 	sw      0x0000(r6),r4
    4f7c:	01 14 00 80 	ajmp    0x00005004
    4f80:	f8 ff 9e 30 	lw      r4,0xfff8(r30)
    4f84:	00 00 84 38 	lb      r4,0x0000(r4)
    4f88:	18 00 84 20 	lsli    r4,r4,0x0018
    4f8c:	18 00 84 24 	lsri    r4,r4,0x0018
    4f90:	25 00 a0 18 	ori     r5,r0,0x0025
    4f94:	02 28 04 00 	sub     r0,r4,r5
    4f98:	08 00 00 40 	beq     0x00004fb8
    4f9c:	e8 ff 9e 04 	addi    r4,r30,0xffe8
    4fa0:	00 00 a4 30 	lw      r5,0x0000(r4)
    4fa4:	05 28 c0 00 	orr     r6,r0,r5
    4fa8:	25 00 e0 18 	ori     r7,r0,0x0025
    4fac:	00 00 e6 3c 	sb      0x0000(r6),r7
    4fb0:	01 00 a5 04 	addi    r5,r5,0x0001
    4fb4:	00 00 a4 34 	sw      0x0000(r4),r5
    4fb8:	f8 ff 9e 30 	lw      r4,0xfff8(r30)
    4fbc:	00 00 84 38 	lb      r4,0x0000(r4)
    4fc0:	18 00 84 20 	lsli    r4,r4,0x0018
    4fc4:	18 00 84 24 	lsri    r4,r4,0x0018
    4fc8:	00 00 a0 18 	ori     r5,r0,0x0000
    4fcc:	02 28 04 00 	sub     r0,r4,r5
    4fd0:	0a 00 00 40 	beq     0x00004ff8
    4fd4:	e8 ff fe 04 	addi    r7,r30,0xffe8
    4fd8:	00 00 87 30 	lw      r4,0x0000(r7)
    4fdc:	f8 ff de 30 	lw      r6,0xfff8(r30)
    4fe0:	05 20 a0 00 	orr     r5,r0,r4
    4fe4:	00 00 c6 38 	lb      r6,0x0000(r6)
    4fe8:	00 00 c5 3c 	sb      0x0000(r5),r6
    4fec:	01 00 84 04 	addi    r4,r4,0x0001
    4ff0:	00 00 87 34 	sw      0x0000(r7),r4
    4ff4:	01 14 00 80 	ajmp    0x00005004
    4ff8:	f8 ff 9e 30 	lw      r4,0xfff8(r30)
    4ffc:	ff ff 84 04 	addi    r4,r4,0xffff
    5000:	f8 ff 9e 34 	sw      0xfff8(r30),r4
    5004:	f8 ff 9e 30 	lw      r4,0xfff8(r30)
    5008:	01 00 84 04 	addi    r4,r4,0x0001
    500c:	f8 ff 9e 34 	sw      0xfff8(r30),r4
    5010:	2f 12 00 80 	ajmp    0x000048bc
    5014:	e8 ff 9e 30 	lw      r4,0xffe8(r30)
    5018:	00 00 a0 18 	ori     r5,r0,0x0000
    501c:	00 00 a4 3c 	sb      0x0000(r4),r5
    5020:	e8 ff be 30 	lw      r5,0xffe8(r30)
    5024:	fc ff 9e 30 	lw      r4,0xfffc(r30)
    5028:	02 20 85 00 	sub     r4,r5,r4
    502c:	05 20 40 00 	orr     r2,r0,r4
    5030:	40 00 bd 07 	addi    r29,r29,0x0040
    5034:	05 f0 a0 03 	orr     r29,r0,r30
    5038:	0c 00 bd 07 	addi    r29,r29,0x000c
    503c:	fc ff 1d 31 	lw      r8,0xfffc(r29)
    5040:	f8 ff fd 33 	lw      r31,0xfff8(r29)
    5044:	f4 ff dd 33 	lw      r30,0xfff4(r29)
    5048:	00 00 e0 47 	jmpr    r31
    504c:	00 00 00 00 	nop

00005050 <OSInit>:
    5050:	f8 ff bd 07 	addi    r29,r29,0xfff8
    5054:	00 00 dd 37 	sw      0x0000(r29),r30
    5058:	04 00 fd 37 	sw      0x0004(r29),r31
    505c:	05 e8 c0 03 	orr     r30,r0,r29
    5060:	b4 27 00 c0 	ajal    0x00009ed0
    5064:	c4 17 00 c0 	ajal    0x00005f10
    5068:	f8 17 00 c0 	ajal    0x00005fe0
    506c:	74 18 00 c0 	ajal    0x000061d0
    5070:	74 17 00 c0 	ajal    0x00005dd0
    5074:	2c 18 00 c0 	ajal    0x000060b0
    5078:	50 18 00 c0 	ajal    0x00006140
    507c:	bc 27 00 c0 	ajal    0x00009ef0
    5080:	05 f0 a0 03 	orr     r29,r0,r30
    5084:	08 00 bd 07 	addi    r29,r29,0x0008
    5088:	fc ff fd 33 	lw      r31,0xfffc(r29)
    508c:	f8 ff dd 33 	lw      r30,0xfff8(r29)
    5090:	00 00 e0 47 	jmpr    r31
    5094:	00 00 00 00 	nop
    5098:	00 00 00 00 	nop
    509c:	00 00 00 00 	nop

000050a0 <OSIntEnter>:
    50a0:	fc ff bd 07 	addi    r29,r29,0xfffc
    50a4:	00 00 dd 37 	sw      0x0000(r29),r30
    50a8:	05 e8 c0 03 	orr     r30,r0,r29
    50ac:	01 00 80 2c 	ldih    r4,0x0001
    50b0:	42 33 84 18 	ori     r4,r4,0x3342
    50b4:	00 00 84 38 	lb      r4,0x0000(r4)
    50b8:	18 00 84 20 	lsli    r4,r4,0x0018
    50bc:	18 00 84 24 	lsri    r4,r4,0x0018
    50c0:	01 00 a0 18 	ori     r5,r0,0x0001
    50c4:	02 28 04 00 	sub     r0,r4,r5
    50c8:	10 00 40 40 	bne     0x00005108
    50cc:	01 00 80 2c 	ldih    r4,0x0001
    50d0:	84 4c 84 18 	ori     r4,r4,0x4c84
    50d4:	00 00 84 38 	lb      r4,0x0000(r4)
    50d8:	18 00 84 20 	lsli    r4,r4,0x0018
    50dc:	18 00 84 24 	lsri    r4,r4,0x0018
    50e0:	ff 00 a0 18 	ori     r5,r0,0x00ff
    50e4:	02 28 04 00 	sub     r0,r4,r5
    50e8:	08 00 00 40 	beq     0x00005108
    50ec:	01 00 a0 2c 	ldih    r5,0x0001
    50f0:	84 4c a5 18 	ori     r5,r5,0x4c84
    50f4:	01 00 80 2c 	ldih    r4,0x0001
    50f8:	84 4c 84 18 	ori     r4,r4,0x4c84
    50fc:	00 00 84 38 	lb      r4,0x0000(r4)
    5100:	01 00 84 04 	addi    r4,r4,0x0001
    5104:	00 00 85 3c 	sb      0x0000(r5),r4
    5108:	05 f0 a0 03 	orr     r29,r0,r30
    510c:	04 00 bd 07 	addi    r29,r29,0x0004
    5110:	fc ff dd 33 	lw      r30,0xfffc(r29)
    5114:	00 00 e0 47 	jmpr    r31
    5118:	00 00 00 00 	nop
    511c:	00 00 00 00 	nop

00005120 <OSIntExit>:
    5120:	f8 ff bd 07 	addi    r29,r29,0xfff8
    5124:	00 00 dd 37 	sw      0x0000(r29),r30
    5128:	04 00 fd 37 	sw      0x0004(r29),r31
    512c:	05 e8 c0 03 	orr     r30,r0,r29
    5130:	fc ff bd 07 	addi    r29,r29,0xfffc
    5134:	00 00 80 18 	ori     r4,r0,0x0000
    5138:	fc ff 9e 34 	sw      0xfffc(r30),r4
    513c:	01 00 80 2c 	ldih    r4,0x0001
    5140:	42 33 84 18 	ori     r4,r4,0x3342
    5144:	00 00 84 38 	lb      r4,0x0000(r4)
    5148:	18 00 84 20 	lsli    r4,r4,0x0018
    514c:	18 00 84 24 	lsri    r4,r4,0x0018
    5150:	01 00 a0 18 	ori     r5,r0,0x0001
    5154:	02 28 04 00 	sub     r0,r4,r5
    5158:	50 00 40 40 	bne     0x00005298
    515c:	2a 00 00 c0 	ajal    0x000000a8
    5160:	05 10 80 00 	orr     r4,r0,r2
    5164:	fc ff 9e 34 	sw      0xfffc(r30),r4
    5168:	01 00 80 2c 	ldih    r4,0x0001
    516c:	84 4c 84 18 	ori     r4,r4,0x4c84
    5170:	00 00 84 38 	lb      r4,0x0000(r4)
    5174:	18 00 84 20 	lsli    r4,r4,0x0018
    5178:	18 00 84 24 	lsri    r4,r4,0x0018
    517c:	00 00 a0 18 	ori     r5,r0,0x0000
    5180:	02 28 04 00 	sub     r0,r4,r5
    5184:	08 00 00 40 	beq     0x000051a4
    5188:	01 00 a0 2c 	ldih    r5,0x0001
    518c:	84 4c a5 18 	ori     r5,r5,0x4c84
    5190:	01 00 80 2c 	ldih    r4,0x0001
    5194:	84 4c 84 18 	ori     r4,r4,0x4c84
    5198:	00 00 84 38 	lb      r4,0x0000(r4)
    519c:	ff ff 84 04 	addi    r4,r4,0xffff
    51a0:	00 00 85 3c 	sb      0x0000(r5),r4
    51a4:	01 00 80 2c 	ldih    r4,0x0001
    51a8:	84 4c 84 18 	ori     r4,r4,0x4c84
    51ac:	00 00 84 38 	lb      r4,0x0000(r4)
    51b0:	18 00 84 20 	lsli    r4,r4,0x0018
    51b4:	18 00 84 24 	lsri    r4,r4,0x0018
    51b8:	00 00 a0 18 	ori     r5,r0,0x0000
    51bc:	02 28 04 00 	sub     r0,r4,r5
    51c0:	34 00 40 40 	bne     0x00005290
    51c4:	01 00 80 2c 	ldih    r4,0x0001
    51c8:	40 33 84 18 	ori     r4,r4,0x3340
    51cc:	00 00 84 38 	lb      r4,0x0000(r4)
    51d0:	18 00 84 20 	lsli    r4,r4,0x0018
    51d4:	18 00 84 24 	lsri    r4,r4,0x0018
    51d8:	00 00 a0 18 	ori     r5,r0,0x0000
    51dc:	02 28 04 00 	sub     r0,r4,r5
    51e0:	2c 00 40 40 	bne     0x00005290
    51e4:	60 19 00 c0 	ajal    0x00006580
    51e8:	01 00 a0 2c 	ldih    r5,0x0001
    51ec:	70 4c a5 18 	ori     r5,r5,0x4c70
    51f0:	01 00 c0 2c 	ldih    r6,0x0001
    51f4:	a0 6c c6 18 	ori     r6,r6,0x6ca0
    51f8:	01 00 80 2c 	ldih    r4,0x0001
    51fc:	48 33 84 18 	ori     r4,r4,0x3348
    5200:	00 00 84 38 	lb      r4,0x0000(r4)
    5204:	18 00 84 20 	lsli    r4,r4,0x0018
    5208:	18 00 84 24 	lsri    r4,r4,0x0018
    520c:	02 00 84 20 	lsli    r4,r4,0x0002
    5210:	00 30 84 00 	add     r4,r4,r6
    5214:	00 00 84 30 	lw      r4,0x0000(r4)
    5218:	00 00 85 34 	sw      0x0000(r5),r4
    521c:	01 00 80 2c 	ldih    r4,0x0001
    5220:	48 33 84 18 	ori     r4,r4,0x3348
    5224:	01 00 c0 2c 	ldih    r6,0x0001
    5228:	49 33 c6 18 	ori     r6,r6,0x3349
    522c:	00 00 84 38 	lb      r4,0x0000(r4)
    5230:	18 00 a4 20 	lsli    r5,r4,0x0018
    5234:	18 00 a5 24 	lsri    r5,r5,0x0018
    5238:	00 00 86 38 	lb      r4,0x0000(r6)
    523c:	18 00 84 20 	lsli    r4,r4,0x0018
    5240:	18 00 84 24 	lsri    r4,r4,0x0018
    5244:	02 20 05 00 	sub     r0,r5,r4
    5248:	12 00 00 40 	beq     0x00005290
    524c:	01 00 80 2c 	ldih    r4,0x0001
    5250:	70 4c 84 18 	ori     r4,r4,0x4c70
    5254:	00 00 a4 30 	lw      r5,0x0000(r4)
    5258:	01 00 80 2c 	ldih    r4,0x0001
    525c:	70 4c 84 18 	ori     r4,r4,0x4c70
    5260:	00 00 84 30 	lw      r4,0x0000(r4)
    5264:	2c 00 84 30 	lw      r4,0x002c(r4)
    5268:	01 00 84 04 	addi    r4,r4,0x0001
    526c:	2c 00 85 34 	sw      0x002c(r5),r4
    5270:	01 00 a0 2c 	ldih    r5,0x0001
    5274:	60 4c a5 18 	ori     r5,r5,0x4c60
    5278:	01 00 80 2c 	ldih    r4,0x0001
    527c:	60 4c 84 18 	ori     r4,r4,0x4c60
    5280:	00 00 84 30 	lw      r4,0x0000(r4)
    5284:	01 00 84 04 	addi    r4,r4,0x0001
    5288:	00 00 85 34 	sw      0x0000(r5),r4
    528c:	8c 00 00 c0 	ajal    0x00000230
    5290:	fc ff 9e 30 	lw      r4,0xfffc(r30)
    5294:	2d 00 00 c0 	ajal    0x000000b4
    5298:	04 00 bd 07 	addi    r29,r29,0x0004
    529c:	05 f0 a0 03 	orr     r29,r0,r30
    52a0:	08 00 bd 07 	addi    r29,r29,0x0008
    52a4:	fc ff fd 33 	lw      r31,0xfffc(r29)
    52a8:	f8 ff dd 33 	lw      r30,0xfff8(r29)
    52ac:	00 00 e0 47 	jmpr    r31

000052b0 <OSSchedLock>:
    52b0:	f8 ff bd 07 	addi    r29,r29,0xfff8
    52b4:	00 00 dd 37 	sw      0x0000(r29),r30
    52b8:	04 00 fd 37 	sw      0x0004(r29),r31
    52bc:	05 e8 c0 03 	orr     r30,r0,r29
    52c0:	fc ff bd 07 	addi    r29,r29,0xfffc
    52c4:	00 00 80 18 	ori     r4,r0,0x0000
    52c8:	fc ff 9e 34 	sw      0xfffc(r30),r4
    52cc:	01 00 80 2c 	ldih    r4,0x0001
    52d0:	42 33 84 18 	ori     r4,r4,0x3342
    52d4:	00 00 84 38 	lb      r4,0x0000(r4)
    52d8:	18 00 84 20 	lsli    r4,r4,0x0018
    52dc:	18 00 84 24 	lsri    r4,r4,0x0018
    52e0:	01 00 a0 18 	ori     r5,r0,0x0001
    52e4:	02 28 04 00 	sub     r0,r4,r5
    52e8:	1d 00 40 40 	bne     0x0000535c
    52ec:	2a 00 00 c0 	ajal    0x000000a8
    52f0:	05 10 80 00 	orr     r4,r0,r2
    52f4:	fc ff 9e 34 	sw      0xfffc(r30),r4
    52f8:	01 00 80 2c 	ldih    r4,0x0001
    52fc:	84 4c 84 18 	ori     r4,r4,0x4c84
    5300:	00 00 84 38 	lb      r4,0x0000(r4)
    5304:	18 00 84 20 	lsli    r4,r4,0x0018
    5308:	18 00 84 24 	lsri    r4,r4,0x0018
    530c:	00 00 a0 18 	ori     r5,r0,0x0000
    5310:	02 28 04 00 	sub     r0,r4,r5
    5314:	10 00 40 40 	bne     0x00005354
    5318:	01 00 80 2c 	ldih    r4,0x0001
    531c:	40 33 84 18 	ori     r4,r4,0x3340
    5320:	00 00 84 38 	lb      r4,0x0000(r4)
    5324:	18 00 84 20 	lsli    r4,r4,0x0018
    5328:	18 00 84 24 	lsri    r4,r4,0x0018
    532c:	ff 00 a0 18 	ori     r5,r0,0x00ff
    5330:	02 28 04 00 	sub     r0,r4,r5
    5334:	08 00 00 40 	beq     0x00005354
    5338:	01 00 a0 2c 	ldih    r5,0x0001
    533c:	40 33 a5 18 	ori     r5,r5,0x3340
    5340:	01 00 80 2c 	ldih    r4,0x0001
    5344:	40 33 84 18 	ori     r4,r4,0x3340
    5348:	00 00 84 38 	lb      r4,0x0000(r4)
    534c:	01 00 84 04 	addi    r4,r4,0x0001
    5350:	00 00 85 3c 	sb      0x0000(r5),r4
    5354:	fc ff 9e 30 	lw      r4,0xfffc(r30)
    5358:	2d 00 00 c0 	ajal    0x000000b4
    535c:	04 00 bd 07 	addi    r29,r29,0x0004
    5360:	05 f0 a0 03 	orr     r29,r0,r30
    5364:	08 00 bd 07 	addi    r29,r29,0x0008
    5368:	fc ff fd 33 	lw      r31,0xfffc(r29)
    536c:	f8 ff dd 33 	lw      r30,0xfff8(r29)
    5370:	00 00 e0 47 	jmpr    r31
    5374:	00 00 00 00 	nop
    5378:	00 00 00 00 	nop
    537c:	00 00 00 00 	nop

00005380 <OSSchedUnlock>:
    5380:	f8 ff bd 07 	addi    r29,r29,0xfff8
    5384:	00 00 dd 37 	sw      0x0000(r29),r30
    5388:	04 00 fd 37 	sw      0x0004(r29),r31
    538c:	05 e8 c0 03 	orr     r30,r0,r29
    5390:	fc ff bd 07 	addi    r29,r29,0xfffc
    5394:	00 00 80 18 	ori     r4,r0,0x0000
    5398:	fc ff 9e 34 	sw      0xfffc(r30),r4
    539c:	01 00 80 2c 	ldih    r4,0x0001
    53a0:	42 33 84 18 	ori     r4,r4,0x3342
    53a4:	00 00 84 38 	lb      r4,0x0000(r4)
    53a8:	18 00 84 20 	lsli    r4,r4,0x0018
    53ac:	18 00 84 24 	lsri    r4,r4,0x0018
    53b0:	01 00 a0 18 	ori     r5,r0,0x0001
    53b4:	02 28 04 00 	sub     r0,r4,r5
    53b8:	2f 00 40 40 	bne     0x00005474
    53bc:	2a 00 00 c0 	ajal    0x000000a8
    53c0:	05 10 80 00 	orr     r4,r0,r2
    53c4:	fc ff 9e 34 	sw      0xfffc(r30),r4
    53c8:	01 00 80 2c 	ldih    r4,0x0001
    53cc:	84 4c 84 18 	ori     r4,r4,0x4c84
    53d0:	00 00 84 38 	lb      r4,0x0000(r4)
    53d4:	18 00 84 20 	lsli    r4,r4,0x0018
    53d8:	18 00 84 24 	lsri    r4,r4,0x0018
    53dc:	00 00 a0 18 	ori     r5,r0,0x0000
    53e0:	02 28 04 00 	sub     r0,r4,r5
    53e4:	22 00 40 40 	bne     0x0000546c
    53e8:	01 00 80 2c 	ldih    r4,0x0001
    53ec:	40 33 84 18 	ori     r4,r4,0x3340
    53f0:	00 00 84 38 	lb      r4,0x0000(r4)
    53f4:	18 00 84 20 	lsli    r4,r4,0x0018
    53f8:	18 00 84 24 	lsri    r4,r4,0x0018
    53fc:	00 00 a0 18 	ori     r5,r0,0x0000
    5400:	02 28 04 00 	sub     r0,r4,r5
    5404:	17 00 00 40 	beq     0x00005460
    5408:	01 00 a0 2c 	ldih    r5,0x0001
    540c:	40 33 a5 18 	ori     r5,r5,0x3340
    5410:	01 00 80 2c 	ldih    r4,0x0001
    5414:	40 33 84 18 	ori     r4,r4,0x3340
    5418:	00 00 84 38 	lb      r4,0x0000(r4)
    541c:	ff ff 84 04 	addi    r4,r4,0xffff
    5420:	00 00 85 3c 	sb      0x0000(r5),r4
    5424:	01 00 80 2c 	ldih    r4,0x0001
    5428:	40 33 84 18 	ori     r4,r4,0x3340
    542c:	00 00 84 38 	lb      r4,0x0000(r4)
    5430:	18 00 84 20 	lsli    r4,r4,0x0018
    5434:	18 00 84 24 	lsri    r4,r4,0x0018
    5438:	00 00 a0 18 	ori     r5,r0,0x0000
    543c:	02 28 04 00 	sub     r0,r4,r5
    5440:	05 00 40 40 	bne     0x00005454
    5444:	fc ff 9e 30 	lw      r4,0xfffc(r30)
    5448:	2d 00 00 c0 	ajal    0x000000b4
    544c:	10 19 00 c0 	ajal    0x00006440
    5450:	1d 15 00 80 	ajmp    0x00005474
    5454:	fc ff 9e 30 	lw      r4,0xfffc(r30)
    5458:	2d 00 00 c0 	ajal    0x000000b4
    545c:	1d 15 00 80 	ajmp    0x00005474
    5460:	fc ff 9e 30 	lw      r4,0xfffc(r30)
    5464:	2d 00 00 c0 	ajal    0x000000b4
    5468:	1d 15 00 80 	ajmp    0x00005474
    546c:	fc ff 9e 30 	lw      r4,0xfffc(r30)
    5470:	2d 00 00 c0 	ajal    0x000000b4
    5474:	04 00 bd 07 	addi    r29,r29,0x0004
    5478:	05 f0 a0 03 	orr     r29,r0,r30
    547c:	08 00 bd 07 	addi    r29,r29,0x0008
    5480:	fc ff fd 33 	lw      r31,0xfffc(r29)
    5484:	f8 ff dd 33 	lw      r30,0xfff8(r29)
    5488:	00 00 e0 47 	jmpr    r31
    548c:	00 00 00 00 	nop

00005490 <OSStart>:
    5490:	f8 ff bd 07 	addi    r29,r29,0xfff8
    5494:	00 00 dd 37 	sw      0x0000(r29),r30
    5498:	04 00 fd 37 	sw      0x0004(r29),r31
    549c:	05 e8 c0 03 	orr     r30,r0,r29
    54a0:	01 00 80 2c 	ldih    r4,0x0001
    54a4:	42 33 84 18 	ori     r4,r4,0x3342
    54a8:	00 00 84 38 	lb      r4,0x0000(r4)
    54ac:	18 00 84 20 	lsli    r4,r4,0x0018
    54b0:	18 00 84 24 	lsri    r4,r4,0x0018
    54b4:	00 00 a0 18 	ori     r5,r0,0x0000
    54b8:	02 28 04 00 	sub     r0,r4,r5
    54bc:	1c 00 40 40 	bne     0x0000552c
    54c0:	60 19 00 c0 	ajal    0x00006580
    54c4:	01 00 a0 2c 	ldih    r5,0x0001
    54c8:	49 33 a5 18 	ori     r5,r5,0x3349
    54cc:	01 00 80 2c 	ldih    r4,0x0001
    54d0:	48 33 84 18 	ori     r4,r4,0x3348
    54d4:	00 00 84 38 	lb      r4,0x0000(r4)
    54d8:	00 00 85 3c 	sb      0x0000(r5),r4
    54dc:	01 00 a0 2c 	ldih    r5,0x0001
    54e0:	70 4c a5 18 	ori     r5,r5,0x4c70
    54e4:	01 00 c0 2c 	ldih    r6,0x0001
    54e8:	a0 6c c6 18 	ori     r6,r6,0x6ca0
    54ec:	01 00 80 2c 	ldih    r4,0x0001
    54f0:	48 33 84 18 	ori     r4,r4,0x3348
    54f4:	00 00 84 38 	lb      r4,0x0000(r4)
    54f8:	18 00 84 20 	lsli    r4,r4,0x0018
    54fc:	18 00 84 24 	lsri    r4,r4,0x0018
    5500:	02 00 84 20 	lsli    r4,r4,0x0002
    5504:	00 30 84 00 	add     r4,r4,r6
    5508:	00 00 84 30 	lw      r4,0x0000(r4)
    550c:	00 00 85 34 	sw      0x0000(r5),r4
    5510:	01 00 a0 2c 	ldih    r5,0x0001
    5514:	88 4c a5 18 	ori     r5,r5,0x4c88
    5518:	01 00 80 2c 	ldih    r4,0x0001
    551c:	70 4c 84 18 	ori     r4,r4,0x4c70
    5520:	00 00 84 30 	lw      r4,0x0000(r4)
    5524:	00 00 85 34 	sw      0x0000(r5),r4
    5528:	2f 00 00 c0 	ajal    0x000000bc
    552c:	05 f0 a0 03 	orr     r29,r0,r30
    5530:	08 00 bd 07 	addi    r29,r29,0x0008
    5534:	fc ff fd 33 	lw      r31,0xfffc(r29)
    5538:	f8 ff dd 33 	lw      r30,0xfff8(r29)
    553c:	00 00 e0 47 	jmpr    r31

00005540 <OSStatInit>:
    5540:	f8 ff bd 07 	addi    r29,r29,0xfff8
    5544:	00 00 dd 37 	sw      0x0000(r29),r30
    5548:	04 00 fd 37 	sw      0x0004(r29),r31
    554c:	05 e8 c0 03 	orr     r30,r0,r29
    5550:	fc ff bd 07 	addi    r29,r29,0xfffc
    5554:	00 00 80 18 	ori     r4,r0,0x0000
    5558:	fc ff 9e 34 	sw      0xfffc(r30),r4
    555c:	02 00 80 18 	ori     r4,r0,0x0002
    5560:	08 21 00 c0 	ajal    0x00008420
    5564:	2a 00 00 c0 	ajal    0x000000a8
    5568:	05 10 80 00 	orr     r4,r0,r2
    556c:	fc ff 9e 34 	sw      0xfffc(r30),r4
    5570:	01 00 a0 2c 	ldih    r5,0x0001
    5574:	44 33 a5 18 	ori     r5,r5,0x3344
    5578:	00 00 80 18 	ori     r4,r0,0x0000
    557c:	00 00 85 34 	sw      0x0000(r5),r4
    5580:	fc ff 9e 30 	lw      r4,0xfffc(r30)
    5584:	2d 00 00 c0 	ajal    0x000000b4
    5588:	0a 00 80 18 	ori     r4,r0,0x000a
    558c:	08 21 00 c0 	ajal    0x00008420
    5590:	2a 00 00 c0 	ajal    0x000000a8
    5594:	05 10 80 00 	orr     r4,r0,r2
    5598:	fc ff 9e 34 	sw      0xfffc(r30),r4
    559c:	01 00 a0 2c 	ldih    r5,0x0001
    55a0:	64 4c a5 18 	ori     r5,r5,0x4c64
    55a4:	01 00 80 2c 	ldih    r4,0x0001
    55a8:	44 33 84 18 	ori     r4,r4,0x3344
    55ac:	00 00 84 30 	lw      r4,0x0000(r4)
    55b0:	00 00 85 34 	sw      0x0000(r5),r4
    55b4:	01 00 80 2c 	ldih    r4,0x0001
    55b8:	90 6c 84 18 	ori     r4,r4,0x6c90
    55bc:	01 00 a0 18 	ori     r5,r0,0x0001
    55c0:	00 00 a4 3c 	sb      0x0000(r4),r5
    55c4:	fc ff 9e 30 	lw      r4,0xfffc(r30)
    55c8:	2d 00 00 c0 	ajal    0x000000b4
    55cc:	04 00 bd 07 	addi    r29,r29,0x0004
    55d0:	05 f0 a0 03 	orr     r29,r0,r30
    55d4:	08 00 bd 07 	addi    r29,r29,0x0008
    55d8:	fc ff fd 33 	lw      r31,0xfffc(r29)
    55dc:	f8 ff dd 33 	lw      r30,0xfff8(r29)
    55e0:	00 00 e0 47 	jmpr    r31
    55e4:	00 00 00 00 	nop
    55e8:	00 00 00 00 	nop
    55ec:	00 00 00 00 	nop

000055f0 <OSTimeTick>:
    55f0:	f8 ff bd 07 	addi    r29,r29,0xfff8
    55f4:	00 00 dd 37 	sw      0x0000(r29),r30
    55f8:	04 00 fd 37 	sw      0x0004(r29),r31
    55fc:	05 e8 c0 03 	orr     r30,r0,r29
    5600:	f0 ff bd 07 	addi    r29,r29,0xfff0
    5604:	00 00 80 18 	ori     r4,r0,0x0000
    5608:	f4 ff 9e 34 	sw      0xfff4(r30),r4
    560c:	7c 28 00 c0 	ajal    0x0000a1f0
    5610:	2a 00 00 c0 	ajal    0x000000a8
    5614:	05 10 80 00 	orr     r4,r0,r2
    5618:	f4 ff 9e 34 	sw      0xfff4(r30),r4
    561c:	01 00 a0 2c 	ldih    r5,0x0001
    5620:	8c 4c a5 18 	ori     r5,r5,0x4c8c
    5624:	01 00 80 2c 	ldih    r4,0x0001
    5628:	8c 4c 84 18 	ori     r4,r4,0x4c8c
    562c:	00 00 84 30 	lw      r4,0x0000(r4)
    5630:	01 00 84 04 	addi    r4,r4,0x0001
    5634:	00 00 85 34 	sw      0x0000(r5),r4
    5638:	f4 ff 9e 30 	lw      r4,0xfff4(r30)
    563c:	2d 00 00 c0 	ajal    0x000000b4
    5640:	01 00 80 2c 	ldih    r4,0x0001
    5644:	42 33 84 18 	ori     r4,r4,0x3342
    5648:	00 00 84 38 	lb      r4,0x0000(r4)
    564c:	18 00 84 20 	lsli    r4,r4,0x0018
    5650:	18 00 84 24 	lsri    r4,r4,0x0018
    5654:	01 00 a0 18 	ori     r5,r0,0x0001
    5658:	02 28 04 00 	sub     r0,r4,r5
    565c:	94 00 40 40 	bne     0x000058ac
    5660:	01 00 80 2c 	ldih    r4,0x0001
    5664:	50 33 84 18 	ori     r4,r4,0x3350
    5668:	00 00 84 38 	lb      r4,0x0000(r4)
    566c:	18 00 84 20 	lsli    r4,r4,0x0018
    5670:	f0 ff 9e 34 	sw      0xfff0(r30),r4
    5674:	f0 ff 9e 30 	lw      r4,0xfff0(r30)
    5678:	18 00 84 24 	lsri    r4,r4,0x0018
    567c:	f0 ff 9e 34 	sw      0xfff0(r30),r4
    5680:	01 00 80 18 	ori     r4,r0,0x0001
    5684:	f0 ff be 30 	lw      r5,0xfff0(r30)
    5688:	02 20 05 00 	sub     r0,r5,r4
    568c:	12 00 00 40 	beq     0x000056d4
    5690:	01 00 80 18 	ori     r4,r0,0x0001
    5694:	f0 ff be 30 	lw      r5,0xfff0(r30)
    5698:	02 20 05 00 	sub     r0,r5,r4
    569c:	06 00 00 43 	bgt     0x000056b4
    56a0:	00 00 80 18 	ori     r4,r0,0x0000
    56a4:	f0 ff be 30 	lw      r5,0xfff0(r30)
    56a8:	02 20 05 00 	sub     r0,r5,r4
    56ac:	07 00 00 40 	beq     0x000056c8
    56b0:	bf 15 00 80 	ajmp    0x000056fc
    56b4:	02 00 80 18 	ori     r4,r0,0x0002
    56b8:	f0 ff be 30 	lw      r5,0xfff0(r30)
    56bc:	02 20 05 00 	sub     r0,r5,r4
    56c0:	08 00 00 40 	beq     0x000056e0
    56c4:	bf 15 00 80 	ajmp    0x000056fc
    56c8:	01 00 80 18 	ori     r4,r0,0x0001
    56cc:	fb ff 9e 3c 	sb      0xfffb(r30),r4
    56d0:	c5 15 00 80 	ajmp    0x00005714
    56d4:	00 00 a0 18 	ori     r5,r0,0x0000
    56d8:	fb ff be 3c 	sb      0xfffb(r30),r5
    56dc:	c5 15 00 80 	ajmp    0x00005714
    56e0:	01 00 80 18 	ori     r4,r0,0x0001
    56e4:	fb ff 9e 3c 	sb      0xfffb(r30),r4
    56e8:	01 00 80 2c 	ldih    r4,0x0001
    56ec:	50 33 84 18 	ori     r4,r4,0x3350
    56f0:	01 00 a0 18 	ori     r5,r0,0x0001
    56f4:	00 00 a4 3c 	sb      0x0000(r4),r5
    56f8:	c5 15 00 80 	ajmp    0x00005714
    56fc:	01 00 80 18 	ori     r4,r0,0x0001
    5700:	fb ff 9e 3c 	sb      0xfffb(r30),r4
    5704:	01 00 80 2c 	ldih    r4,0x0001
    5708:	50 33 84 18 	ori     r4,r4,0x3350
    570c:	00 00 a0 18 	ori     r5,r0,0x0000
    5710:	00 00 a4 3c 	sb      0x0000(r4),r5
    5714:	fb ff 9e 38 	lb      r4,0xfffb(r30)
    5718:	18 00 84 20 	lsli    r4,r4,0x0018
    571c:	18 00 84 24 	lsri    r4,r4,0x0018
    5720:	00 00 a0 18 	ori     r5,r0,0x0000
    5724:	02 28 04 00 	sub     r0,r4,r5
    5728:	02 00 40 40 	bne     0x00005730
    572c:	2e 16 00 80 	ajmp    0x000058b8
    5730:	01 00 80 2c 	ldih    r4,0x0001
    5734:	4c 33 84 18 	ori     r4,r4,0x334c
    5738:	00 00 84 30 	lw      r4,0x0000(r4)
    573c:	fc ff 9e 34 	sw      0xfffc(r30),r4
    5740:	fc ff 9e 30 	lw      r4,0xfffc(r30)
    5744:	26 00 84 38 	lb      r4,0x0026(r4)
    5748:	18 00 84 20 	lsli    r4,r4,0x0018
    574c:	18 00 84 24 	lsri    r4,r4,0x0018
    5750:	3f 00 a0 18 	ori     r5,r0,0x003f
    5754:	02 28 04 00 	sub     r0,r4,r5
    5758:	58 00 00 40 	beq     0x000058b8
    575c:	2a 00 00 c0 	ajal    0x000000a8
    5760:	05 10 80 00 	orr     r4,r0,r2
    5764:	f4 ff 9e 34 	sw      0xfff4(r30),r4
    5768:	fc ff 9e 30 	lw      r4,0xfffc(r30)
    576c:	20 00 a4 30 	lw      r5,0x0020(r4)
    5770:	00 00 80 18 	ori     r4,r0,0x0000
    5774:	02 20 05 00 	sub     r0,r5,r4
    5778:	47 00 00 40 	beq     0x00005894
    577c:	fc ff be 30 	lw      r5,0xfffc(r30)
    5780:	fc ff 9e 30 	lw      r4,0xfffc(r30)
    5784:	20 00 84 30 	lw      r4,0x0020(r4)
    5788:	ff ff 84 04 	addi    r4,r4,0xffff
    578c:	20 00 85 34 	sw      0x0020(r5),r4
    5790:	fc ff 9e 30 	lw      r4,0xfffc(r30)
    5794:	20 00 a4 30 	lw      r5,0x0020(r4)
    5798:	00 00 80 18 	ori     r4,r0,0x0000
    579c:	02 20 05 00 	sub     r0,r5,r4
    57a0:	3d 00 40 40 	bne     0x00005894
    57a4:	fc ff 9e 30 	lw      r4,0xfffc(r30)
    57a8:	24 00 84 38 	lb      r4,0x0024(r4)
    57ac:	18 00 84 20 	lsli    r4,r4,0x0018
    57b0:	18 00 84 24 	lsri    r4,r4,0x0018
    57b4:	37 00 a4 14 	andi    r5,r4,0x0037
    57b8:	00 00 80 18 	ori     r4,r0,0x0000
    57bc:	02 20 05 00 	sub     r0,r5,r4
    57c0:	0c 00 00 40 	beq     0x000057f0
    57c4:	fc ff de 30 	lw      r6,0xfffc(r30)
    57c8:	fc ff 9e 30 	lw      r4,0xfffc(r30)
    57cc:	ff ff a0 2c 	ldih    r5,0xffff
    57d0:	c8 ff a5 18 	ori     r5,r5,0xffc8
    57d4:	24 00 84 38 	lb      r4,0x0024(r4)
    57d8:	04 28 84 00 	and     r4,r4,r5
    57dc:	24 00 86 3c 	sb      0x0024(r6),r4
    57e0:	fc ff 9e 30 	lw      r4,0xfffc(r30)
    57e4:	01 00 a0 18 	ori     r5,r0,0x0001
    57e8:	25 00 a4 3c 	sb      0x0025(r4),r5
    57ec:	ff 15 00 80 	ajmp    0x000057fc
    57f0:	fc ff 9e 30 	lw      r4,0xfffc(r30)
    57f4:	00 00 a0 18 	ori     r5,r0,0x0000
    57f8:	25 00 a4 3c 	sb      0x0025(r4),r5
    57fc:	fc ff 9e 30 	lw      r4,0xfffc(r30)
    5800:	24 00 84 38 	lb      r4,0x0024(r4)
    5804:	18 00 84 20 	lsli    r4,r4,0x0018
    5808:	18 00 84 24 	lsri    r4,r4,0x0018
    580c:	03 00 84 24 	lsri    r4,r4,0x0003
    5810:	01 00 84 1c 	xori    r4,r4,0x0001
    5814:	01 00 a4 14 	andi    r5,r4,0x0001
    5818:	00 00 80 18 	ori     r4,r0,0x0000
    581c:	02 20 05 00 	sub     r0,r5,r4
    5820:	1d 00 00 40 	beq     0x00005894
    5824:	01 00 e0 2c 	ldih    r7,0x0001
    5828:	74 4c e7 18 	ori     r7,r7,0x4c74
    582c:	fc ff 9e 30 	lw      r4,0xfffc(r30)
    5830:	01 00 a0 2c 	ldih    r5,0x0001
    5834:	74 4c a5 18 	ori     r5,r5,0x4c74
    5838:	2a 00 c4 38 	lb      r6,0x002a(r4)
    583c:	00 00 85 38 	lb      r4,0x0000(r5)
    5840:	05 20 86 00 	orr     r4,r6,r4
    5844:	00 00 87 3c 	sb      0x0000(r7),r4
    5848:	01 00 a0 2c 	ldih    r5,0x0001
    584c:	78 4c a5 18 	ori     r5,r5,0x4c78
    5850:	fc ff 9e 30 	lw      r4,0xfffc(r30)
    5854:	28 00 84 38 	lb      r4,0x0028(r4)
    5858:	18 00 84 20 	lsli    r4,r4,0x0018
    585c:	18 00 84 24 	lsri    r4,r4,0x0018
    5860:	00 20 e5 00 	add     r7,r5,r4
    5864:	01 00 a0 2c 	ldih    r5,0x0001
    5868:	78 4c a5 18 	ori     r5,r5,0x4c78
    586c:	fc ff 9e 30 	lw      r4,0xfffc(r30)
    5870:	28 00 84 38 	lb      r4,0x0028(r4)
    5874:	18 00 84 20 	lsli    r4,r4,0x0018
    5878:	18 00 84 24 	lsri    r4,r4,0x0018
    587c:	00 20 85 00 	add     r4,r5,r4
    5880:	fc ff be 30 	lw      r5,0xfffc(r30)
    5884:	00 00 c4 38 	lb      r6,0x0000(r4)
    5888:	29 00 85 38 	lb      r4,0x0029(r5)
    588c:	05 20 86 00 	orr     r4,r6,r4
    5890:	00 00 87 3c 	sb      0x0000(r7),r4
    5894:	fc ff 9e 30 	lw      r4,0xfffc(r30)
    5898:	14 00 84 30 	lw      r4,0x0014(r4)
    589c:	fc ff 9e 34 	sw      0xfffc(r30),r4
    58a0:	f4 ff 9e 30 	lw      r4,0xfff4(r30)
    58a4:	2d 00 00 c0 	ajal    0x000000b4
    58a8:	d0 15 00 80 	ajmp    0x00005740
    58ac:	01 00 80 2c 	ldih    r4,0x0001
    58b0:	04 73 84 18 	ori     r4,r4,0x7304
    58b4:	d4 0c 00 c0 	ajal    0x00003350
    58b8:	10 00 bd 07 	addi    r29,r29,0x0010
    58bc:	05 f0 a0 03 	orr     r29,r0,r30
    58c0:	08 00 bd 07 	addi    r29,r29,0x0008
    58c4:	fc ff fd 33 	lw      r31,0xfffc(r29)
    58c8:	f8 ff dd 33 	lw      r30,0xfff8(r29)
    58cc:	00 00 e0 47 	jmpr    r31

000058d0 <OSVersion>:
    58d0:	fc ff bd 07 	addi    r29,r29,0xfffc
    58d4:	00 00 dd 37 	sw      0x0000(r29),r30
    58d8:	05 e8 c0 03 	orr     r30,r0,r29
    58dc:	17 72 80 18 	ori     r4,r0,0x7217
    58e0:	05 20 40 00 	orr     r2,r0,r4
    58e4:	05 f0 a0 03 	orr     r29,r0,r30
    58e8:	04 00 bd 07 	addi    r29,r29,0x0004
    58ec:	fc ff dd 33 	lw      r30,0xfffc(r29)
    58f0:	00 00 e0 47 	jmpr    r31
    58f4:	00 00 00 00 	nop
    58f8:	00 00 00 00 	nop
    58fc:	00 00 00 00 	nop

00005900 <OS_Dummy>:
    5900:	fc ff bd 07 	addi    r29,r29,0xfffc
    5904:	00 00 dd 37 	sw      0x0000(r29),r30
    5908:	05 e8 c0 03 	orr     r30,r0,r29
    590c:	05 f0 a0 03 	orr     r29,r0,r30
    5910:	04 00 bd 07 	addi    r29,r29,0x0004
    5914:	fc ff dd 33 	lw      r30,0xfffc(r29)
    5918:	00 00 e0 47 	jmpr    r31
    591c:	00 00 00 00 	nop

00005920 <OS_EventTaskRdy>:
    5920:	f8 ff bd 07 	addi    r29,r29,0xfff8
    5924:	00 00 dd 37 	sw      0x0000(r29),r30
    5928:	04 00 fd 37 	sw      0x0004(r29),r31
    592c:	05 e8 c0 03 	orr     r30,r0,r29
    5930:	ec ff bd 07 	addi    r29,r29,0xffec
    5934:	fc ff 9e 34 	sw      0xfffc(r30),r4
    5938:	f8 ff be 34 	sw      0xfff8(r30),r5
    593c:	f7 ff de 3c 	sb      0xfff7(r30),r6
    5940:	f6 ff fe 3c 	sb      0xfff6(r30),r7
    5944:	01 00 a0 2c 	ldih    r5,0x0001
    5948:	04 72 a5 18 	ori     r5,r5,0x7204
    594c:	fc ff 9e 30 	lw      r4,0xfffc(r30)
    5950:	0a 00 84 38 	lb      r4,0x000a(r4)
    5954:	18 00 84 20 	lsli    r4,r4,0x0018
    5958:	18 00 84 24 	lsri    r4,r4,0x0018
    595c:	00 20 85 00 	add     r4,r5,r4
    5960:	00 00 84 38 	lb      r4,0x0000(r4)
    5964:	ef ff 9e 3c 	sb      0xffef(r30),r4
    5968:	01 00 c0 2c 	ldih    r6,0x0001
    596c:	04 72 c6 18 	ori     r6,r6,0x7204
    5970:	fc ff be 30 	lw      r5,0xfffc(r30)
    5974:	ef ff 9e 38 	lb      r4,0xffef(r30)
    5978:	18 00 84 20 	lsli    r4,r4,0x0018
    597c:	18 00 84 24 	lsri    r4,r4,0x0018
    5980:	00 28 84 00 	add     r4,r4,r5
    5984:	08 00 84 04 	addi    r4,r4,0x0008
    5988:	03 00 84 38 	lb      r4,0x0003(r4)
    598c:	18 00 84 20 	lsli    r4,r4,0x0018
    5990:	18 00 84 24 	lsri    r4,r4,0x0018
    5994:	00 20 86 00 	add     r4,r6,r4
    5998:	00 00 84 38 	lb      r4,0x0000(r4)
    599c:	ee ff 9e 3c 	sb      0xffee(r30),r4
    59a0:	ef ff 9e 38 	lb      r4,0xffef(r30)
    59a4:	18 00 84 20 	lsli    r4,r4,0x0018
    59a8:	18 00 84 24 	lsri    r4,r4,0x0018
    59ac:	03 00 84 20 	lsli    r4,r4,0x0003
    59b0:	05 20 a0 00 	orr     r5,r0,r4
    59b4:	ee ff 9e 38 	lb      r4,0xffee(r30)
    59b8:	00 20 85 00 	add     r4,r5,r4
    59bc:	ed ff 9e 3c 	sb      0xffed(r30),r4
    59c0:	01 00 a0 2c 	ldih    r5,0x0001
    59c4:	a0 6c a5 18 	ori     r5,r5,0x6ca0
    59c8:	ed ff 9e 38 	lb      r4,0xffed(r30)
    59cc:	18 00 84 20 	lsli    r4,r4,0x0018
    59d0:	18 00 84 24 	lsri    r4,r4,0x0018
    59d4:	02 00 84 20 	lsli    r4,r4,0x0002
    59d8:	00 28 84 00 	add     r4,r4,r5
    59dc:	00 00 84 30 	lw      r4,0x0000(r4)
    59e0:	f0 ff 9e 34 	sw      0xfff0(r30),r4
    59e4:	f0 ff be 30 	lw      r5,0xfff0(r30)
    59e8:	00 00 80 18 	ori     r4,r0,0x0000
    59ec:	20 00 85 34 	sw      0x0020(r5),r4
    59f0:	f0 ff de 30 	lw      r6,0xfff0(r30)
    59f4:	f0 ff be 30 	lw      r5,0xfff0(r30)
    59f8:	f7 ff 9e 38 	lb      r4,0xfff7(r30)
    59fc:	0c 00 84 6c 	not     r4,r4
    5a00:	24 00 a5 38 	lb      r5,0x0024(r5)
    5a04:	04 20 85 00 	and     r4,r5,r4
    5a08:	24 00 86 3c 	sb      0x0024(r6),r4
    5a0c:	f0 ff 9e 30 	lw      r4,0xfff0(r30)
    5a10:	f6 ff be 38 	lb      r5,0xfff6(r30)
    5a14:	25 00 a4 3c 	sb      0x0025(r4),r5
    5a18:	f0 ff 9e 30 	lw      r4,0xfff0(r30)
    5a1c:	24 00 84 38 	lb      r4,0x0024(r4)
    5a20:	18 00 84 20 	lsli    r4,r4,0x0018
    5a24:	18 00 84 24 	lsri    r4,r4,0x0018
    5a28:	03 00 84 24 	lsri    r4,r4,0x0003
    5a2c:	01 00 84 1c 	xori    r4,r4,0x0001
    5a30:	01 00 a4 14 	andi    r5,r4,0x0001
    5a34:	00 00 80 18 	ori     r4,r0,0x0000
    5a38:	02 20 05 00 	sub     r0,r5,r4
    5a3c:	1b 00 00 40 	beq     0x00005aa8
    5a40:	01 00 e0 2c 	ldih    r7,0x0001
    5a44:	74 4c e7 18 	ori     r7,r7,0x4c74
    5a48:	f0 ff 9e 30 	lw      r4,0xfff0(r30)
    5a4c:	01 00 a0 2c 	ldih    r5,0x0001
    5a50:	74 4c a5 18 	ori     r5,r5,0x4c74
    5a54:	2a 00 c4 38 	lb      r6,0x002a(r4)
    5a58:	00 00 85 38 	lb      r4,0x0000(r5)
    5a5c:	05 20 86 00 	orr     r4,r6,r4
    5a60:	00 00 87 3c 	sb      0x0000(r7),r4
    5a64:	01 00 a0 2c 	ldih    r5,0x0001
    5a68:	78 4c a5 18 	ori     r5,r5,0x4c78
    5a6c:	ef ff 9e 38 	lb      r4,0xffef(r30)
    5a70:	18 00 84 20 	lsli    r4,r4,0x0018
    5a74:	18 00 84 24 	lsri    r4,r4,0x0018
    5a78:	00 20 e5 00 	add     r7,r5,r4
    5a7c:	01 00 a0 2c 	ldih    r5,0x0001
    5a80:	78 4c a5 18 	ori     r5,r5,0x4c78
    5a84:	ef ff 9e 38 	lb      r4,0xffef(r30)
    5a88:	18 00 84 20 	lsli    r4,r4,0x0018
    5a8c:	18 00 84 24 	lsri    r4,r4,0x0018
    5a90:	00 20 85 00 	add     r4,r5,r4
    5a94:	f0 ff be 30 	lw      r5,0xfff0(r30)
    5a98:	00 00 c4 38 	lb      r6,0x0000(r4)
    5a9c:	29 00 85 38 	lb      r4,0x0029(r5)
    5aa0:	05 20 86 00 	orr     r4,r6,r4
    5aa4:	00 00 87 3c 	sb      0x0000(r7),r4
    5aa8:	f0 ff 9e 30 	lw      r4,0xfff0(r30)
    5aac:	fc ff be 30 	lw      r5,0xfffc(r30)
    5ab0:	1c 17 00 c0 	ajal    0x00005c70
    5ab4:	ed ff 9e 38 	lb      r4,0xffed(r30)
    5ab8:	18 00 84 20 	lsli    r4,r4,0x0018
    5abc:	18 00 84 24 	lsri    r4,r4,0x0018
    5ac0:	05 20 40 00 	orr     r2,r0,r4
    5ac4:	14 00 bd 07 	addi    r29,r29,0x0014
    5ac8:	05 f0 a0 03 	orr     r29,r0,r30
    5acc:	08 00 bd 07 	addi    r29,r29,0x0008
    5ad0:	fc ff fd 33 	lw      r31,0xfffc(r29)
    5ad4:	f8 ff dd 33 	lw      r30,0xfff8(r29)
    5ad8:	00 00 e0 47 	jmpr    r31
    5adc:	00 00 00 00 	nop

00005ae0 <OS_EventTaskWait>:
    5ae0:	fc ff bd 07 	addi    r29,r29,0xfffc
    5ae4:	00 00 dd 37 	sw      0x0000(r29),r30
    5ae8:	05 e8 c0 03 	orr     r30,r0,r29
    5aec:	f8 ff bd 07 	addi    r29,r29,0xfff8
    5af0:	fc ff 9e 34 	sw      0xfffc(r30),r4
    5af4:	01 00 80 2c 	ldih    r4,0x0001
    5af8:	88 4c 84 18 	ori     r4,r4,0x4c88
    5afc:	00 00 a4 30 	lw      r5,0x0000(r4)
    5b00:	fc ff 9e 30 	lw      r4,0xfffc(r30)
    5b04:	1c 00 85 34 	sw      0x001c(r5),r4
    5b08:	fc ff be 30 	lw      r5,0xfffc(r30)
    5b0c:	01 00 80 2c 	ldih    r4,0x0001
    5b10:	88 4c 84 18 	ori     r4,r4,0x4c88
    5b14:	00 00 84 30 	lw      r4,0x0000(r4)
    5b18:	28 00 84 38 	lb      r4,0x0028(r4)
    5b1c:	18 00 84 20 	lsli    r4,r4,0x0018
    5b20:	18 00 84 24 	lsri    r4,r4,0x0018
    5b24:	00 28 84 00 	add     r4,r4,r5
    5b28:	08 00 c4 04 	addi    r6,r4,0x0008
    5b2c:	fc ff be 30 	lw      r5,0xfffc(r30)
    5b30:	01 00 80 2c 	ldih    r4,0x0001
    5b34:	88 4c 84 18 	ori     r4,r4,0x4c88
    5b38:	00 00 84 30 	lw      r4,0x0000(r4)
    5b3c:	28 00 84 38 	lb      r4,0x0028(r4)
    5b40:	18 00 84 20 	lsli    r4,r4,0x0018
    5b44:	18 00 84 24 	lsri    r4,r4,0x0018
    5b48:	00 28 84 00 	add     r4,r4,r5
    5b4c:	08 00 a4 04 	addi    r5,r4,0x0008
    5b50:	01 00 80 2c 	ldih    r4,0x0001
    5b54:	88 4c 84 18 	ori     r4,r4,0x4c88
    5b58:	00 00 84 30 	lw      r4,0x0000(r4)
    5b5c:	03 00 a5 38 	lb      r5,0x0003(r5)
    5b60:	29 00 84 38 	lb      r4,0x0029(r4)
    5b64:	05 20 85 00 	orr     r4,r5,r4
    5b68:	03 00 86 3c 	sb      0x0003(r6),r4
    5b6c:	fc ff de 30 	lw      r6,0xfffc(r30)
    5b70:	fc ff be 30 	lw      r5,0xfffc(r30)
    5b74:	01 00 80 2c 	ldih    r4,0x0001
    5b78:	88 4c 84 18 	ori     r4,r4,0x4c88
    5b7c:	00 00 84 30 	lw      r4,0x0000(r4)
    5b80:	0a 00 a5 38 	lb      r5,0x000a(r5)
    5b84:	2a 00 84 38 	lb      r4,0x002a(r4)
    5b88:	05 20 85 00 	orr     r4,r5,r4
    5b8c:	0a 00 86 3c 	sb      0x000a(r6),r4
    5b90:	01 00 80 2c 	ldih    r4,0x0001
    5b94:	88 4c 84 18 	ori     r4,r4,0x4c88
    5b98:	00 00 84 30 	lw      r4,0x0000(r4)
    5b9c:	28 00 84 38 	lb      r4,0x0028(r4)
    5ba0:	fb ff 9e 3c 	sb      0xfffb(r30),r4
    5ba4:	01 00 a0 2c 	ldih    r5,0x0001
    5ba8:	78 4c a5 18 	ori     r5,r5,0x4c78
    5bac:	fb ff 9e 38 	lb      r4,0xfffb(r30)
    5bb0:	18 00 84 20 	lsli    r4,r4,0x0018
    5bb4:	18 00 84 24 	lsri    r4,r4,0x0018
    5bb8:	00 20 c5 00 	add     r6,r5,r4
    5bbc:	01 00 a0 2c 	ldih    r5,0x0001
    5bc0:	78 4c a5 18 	ori     r5,r5,0x4c78
    5bc4:	fb ff 9e 38 	lb      r4,0xfffb(r30)
    5bc8:	18 00 84 20 	lsli    r4,r4,0x0018
    5bcc:	18 00 84 24 	lsri    r4,r4,0x0018
    5bd0:	00 20 a5 00 	add     r5,r5,r4
    5bd4:	01 00 80 2c 	ldih    r4,0x0001
    5bd8:	88 4c 84 18 	ori     r4,r4,0x4c88
    5bdc:	00 00 84 30 	lw      r4,0x0000(r4)
    5be0:	29 00 84 38 	lb      r4,0x0029(r4)
    5be4:	0c 00 84 6c 	not     r4,r4
    5be8:	00 00 a5 38 	lb      r5,0x0000(r5)
    5bec:	04 20 85 00 	and     r4,r5,r4
    5bf0:	00 00 86 3c 	sb      0x0000(r6),r4
    5bf4:	01 00 a0 2c 	ldih    r5,0x0001
    5bf8:	78 4c a5 18 	ori     r5,r5,0x4c78
    5bfc:	fb ff 9e 38 	lb      r4,0xfffb(r30)
    5c00:	18 00 84 20 	lsli    r4,r4,0x0018
    5c04:	18 00 84 24 	lsri    r4,r4,0x0018
    5c08:	00 20 85 00 	add     r4,r5,r4
    5c0c:	00 00 84 38 	lb      r4,0x0000(r4)
    5c10:	18 00 84 20 	lsli    r4,r4,0x0018
    5c14:	18 00 84 24 	lsri    r4,r4,0x0018
    5c18:	00 00 a0 18 	ori     r5,r0,0x0000
    5c1c:	02 28 04 00 	sub     r0,r4,r5
    5c20:	0e 00 40 40 	bne     0x00005c58
    5c24:	01 00 e0 2c 	ldih    r7,0x0001
    5c28:	74 4c e7 18 	ori     r7,r7,0x4c74
    5c2c:	01 00 80 2c 	ldih    r4,0x0001
    5c30:	88 4c 84 18 	ori     r4,r4,0x4c88
    5c34:	00 00 84 30 	lw      r4,0x0000(r4)
    5c38:	2a 00 84 38 	lb      r4,0x002a(r4)
    5c3c:	0c 00 84 6c 	not     r4,r4
    5c40:	01 00 a0 2c 	ldih    r5,0x0001
    5c44:	74 4c a5 18 	ori     r5,r5,0x4c74
    5c48:	05 20 c0 00 	orr     r6,r0,r4
    5c4c:	00 00 85 38 	lb      r4,0x0000(r5)
    5c50:	04 20 86 00 	and     r4,r6,r4
    5c54:	00 00 87 3c 	sb      0x0000(r7),r4
    5c58:	08 00 bd 07 	addi    r29,r29,0x0008
    5c5c:	05 f0 a0 03 	orr     r29,r0,r30
    5c60:	04 00 bd 07 	addi    r29,r29,0x0004
    5c64:	fc ff dd 33 	lw      r30,0xfffc(r29)
    5c68:	00 00 e0 47 	jmpr    r31
    5c6c:	00 00 00 00 	nop

00005c70 <OS_EventTaskRemove>:
    5c70:	fc ff bd 07 	addi    r29,r29,0xfffc
    5c74:	00 00 dd 37 	sw      0x0000(r29),r30
    5c78:	05 e8 c0 03 	orr     r30,r0,r29
    5c7c:	f4 ff bd 07 	addi    r29,r29,0xfff4
    5c80:	fc ff 9e 34 	sw      0xfffc(r30),r4
    5c84:	f8 ff be 34 	sw      0xfff8(r30),r5
    5c88:	fc ff 9e 30 	lw      r4,0xfffc(r30)
    5c8c:	28 00 84 38 	lb      r4,0x0028(r4)
    5c90:	f7 ff 9e 3c 	sb      0xfff7(r30),r4
    5c94:	f8 ff be 30 	lw      r5,0xfff8(r30)
    5c98:	f7 ff 9e 38 	lb      r4,0xfff7(r30)
    5c9c:	18 00 84 20 	lsli    r4,r4,0x0018
    5ca0:	18 00 84 24 	lsri    r4,r4,0x0018
    5ca4:	00 28 84 00 	add     r4,r4,r5
    5ca8:	08 00 c4 04 	addi    r6,r4,0x0008
    5cac:	f8 ff be 30 	lw      r5,0xfff8(r30)
    5cb0:	f7 ff 9e 38 	lb      r4,0xfff7(r30)
    5cb4:	18 00 84 20 	lsli    r4,r4,0x0018
    5cb8:	18 00 84 24 	lsri    r4,r4,0x0018
    5cbc:	00 28 84 00 	add     r4,r4,r5
    5cc0:	08 00 a4 04 	addi    r5,r4,0x0008
    5cc4:	fc ff 9e 30 	lw      r4,0xfffc(r30)
    5cc8:	29 00 84 38 	lb      r4,0x0029(r4)
    5ccc:	0c 00 84 6c 	not     r4,r4
    5cd0:	03 00 a5 38 	lb      r5,0x0003(r5)
    5cd4:	04 20 85 00 	and     r4,r5,r4
    5cd8:	03 00 86 3c 	sb      0x0003(r6),r4
    5cdc:	f8 ff be 30 	lw      r5,0xfff8(r30)
    5ce0:	f7 ff 9e 38 	lb      r4,0xfff7(r30)
    5ce4:	18 00 84 20 	lsli    r4,r4,0x0018
    5ce8:	18 00 84 24 	lsri    r4,r4,0x0018
    5cec:	00 28 84 00 	add     r4,r4,r5
    5cf0:	08 00 84 04 	addi    r4,r4,0x0008
    5cf4:	03 00 84 38 	lb      r4,0x0003(r4)
    5cf8:	18 00 84 20 	lsli    r4,r4,0x0018
    5cfc:	18 00 84 24 	lsri    r4,r4,0x0018
    5d00:	00 00 a0 18 	ori     r5,r0,0x0000
    5d04:	02 28 04 00 	sub     r0,r4,r5
    5d08:	09 00 40 40 	bne     0x00005d2c
    5d0c:	f8 ff de 30 	lw      r6,0xfff8(r30)
    5d10:	f8 ff be 30 	lw      r5,0xfff8(r30)
    5d14:	fc ff 9e 30 	lw      r4,0xfffc(r30)
    5d18:	2a 00 84 38 	lb      r4,0x002a(r4)
    5d1c:	0c 00 84 6c 	not     r4,r4
    5d20:	0a 00 a5 38 	lb      r5,0x000a(r5)
    5d24:	04 20 85 00 	and     r4,r5,r4
    5d28:	0a 00 86 3c 	sb      0x000a(r6),r4
    5d2c:	0c 00 bd 07 	addi    r29,r29,0x000c
    5d30:	05 f0 a0 03 	orr     r29,r0,r30
    5d34:	04 00 bd 07 	addi    r29,r29,0x0004
    5d38:	fc ff dd 33 	lw      r30,0xfffc(r29)
    5d3c:	00 00 e0 47 	jmpr    r31

00005d40 <OS_EventWaitListInit>:
    5d40:	fc ff bd 07 	addi    r29,r29,0xfffc
    5d44:	00 00 dd 37 	sw      0x0000(r29),r30
    5d48:	05 e8 c0 03 	orr     r30,r0,r29
    5d4c:	f8 ff bd 07 	addi    r29,r29,0xfff8
    5d50:	fc ff 9e 34 	sw      0xfffc(r30),r4
    5d54:	fc ff 9e 30 	lw      r4,0xfffc(r30)
    5d58:	00 00 a0 18 	ori     r5,r0,0x0000
    5d5c:	0a 00 a4 3c 	sb      0x000a(r4),r5
    5d60:	00 00 80 18 	ori     r4,r0,0x0000
    5d64:	fb ff 9e 3c 	sb      0xfffb(r30),r4
    5d68:	fb ff 9e 38 	lb      r4,0xfffb(r30)
    5d6c:	18 00 84 20 	lsli    r4,r4,0x0018
    5d70:	18 00 84 24 	lsri    r4,r4,0x0018
    5d74:	07 00 a0 18 	ori     r5,r0,0x0007
    5d78:	02 28 04 00 	sub     r0,r4,r5
    5d7c:	0d 00 00 42 	bhi     0x00005db0
    5d80:	fc ff be 30 	lw      r5,0xfffc(r30)
    5d84:	fb ff 9e 38 	lb      r4,0xfffb(r30)
    5d88:	18 00 84 20 	lsli    r4,r4,0x0018
    5d8c:	18 00 84 24 	lsri    r4,r4,0x0018
    5d90:	00 28 84 00 	add     r4,r4,r5
    5d94:	08 00 84 04 	addi    r4,r4,0x0008
    5d98:	00 00 a0 18 	ori     r5,r0,0x0000
    5d9c:	03 00 a4 3c 	sb      0x0003(r4),r5
    5da0:	fb ff 9e 38 	lb      r4,0xfffb(r30)
    5da4:	01 00 84 04 	addi    r4,r4,0x0001
    5da8:	fb ff 9e 3c 	sb      0xfffb(r30),r4
    5dac:	5a 17 00 80 	ajmp    0x00005d68
    5db0:	08 00 bd 07 	addi    r29,r29,0x0008
    5db4:	05 f0 a0 03 	orr     r29,r0,r30
    5db8:	04 00 bd 07 	addi    r29,r29,0x0004
    5dbc:	fc ff dd 33 	lw      r30,0xfffc(r29)
    5dc0:	00 00 e0 47 	jmpr    r31
    5dc4:	00 00 00 00 	nop
    5dc8:	00 00 00 00 	nop
    5dcc:	00 00 00 00 	nop

00005dd0 <OS_InitEventList>:
    5dd0:	f8 ff bd 07 	addi    r29,r29,0xfff8
    5dd4:	00 00 dd 37 	sw      0x0000(r29),r30
    5dd8:	04 00 fd 37 	sw      0x0004(r29),r31
    5ddc:	05 e8 c0 03 	orr     r30,r0,r29
    5de0:	f4 ff bd 07 	addi    r29,r29,0xfff4
    5de4:	01 00 80 2c 	ldih    r4,0x0001
    5de8:	90 65 84 18 	ori     r4,r4,0x6590
    5dec:	c8 00 a0 18 	ori     r5,r0,0x00c8
    5df0:	d0 18 00 c0 	ajal    0x00006340
    5df4:	00 00 80 18 	ori     r4,r0,0x0000
    5df8:	fe ff 9e 68 	sh      0xfffe(r30),r4
    5dfc:	fe ff 9e 64 	lh      r4,0xfffe(r30)
    5e00:	10 00 84 20 	lsli    r4,r4,0x0010
    5e04:	10 00 84 24 	lsri    r4,r4,0x0010
    5e08:	08 00 a0 18 	ori     r5,r0,0x0008
    5e0c:	02 28 04 00 	sub     r0,r4,r5
    5e10:	24 00 00 42 	bhi     0x00005ea0
    5e14:	fe ff 9e 64 	lh      r4,0xfffe(r30)
    5e18:	01 00 84 04 	addi    r4,r4,0x0001
    5e1c:	fc ff 9e 68 	sh      0xfffc(r30),r4
    5e20:	fe ff 9e 64 	lh      r4,0xfffe(r30)
    5e24:	10 00 a4 20 	lsli    r5,r4,0x0010
    5e28:	10 00 a5 24 	lsri    r5,r5,0x0010
    5e2c:	05 28 80 00 	orr     r4,r0,r5
    5e30:	02 00 84 20 	lsli    r4,r4,0x0002
    5e34:	00 28 84 00 	add     r4,r4,r5
    5e38:	02 00 a4 20 	lsli    r5,r4,0x0002
    5e3c:	01 00 80 2c 	ldih    r4,0x0001
    5e40:	90 65 84 18 	ori     r4,r4,0x6590
    5e44:	00 20 85 00 	add     r4,r5,r4
    5e48:	f8 ff 9e 34 	sw      0xfff8(r30),r4
    5e4c:	fc ff 9e 64 	lh      r4,0xfffc(r30)
    5e50:	10 00 a4 20 	lsli    r5,r4,0x0010
    5e54:	10 00 a5 24 	lsri    r5,r5,0x0010
    5e58:	05 28 80 00 	orr     r4,r0,r5
    5e5c:	02 00 84 20 	lsli    r4,r4,0x0002
    5e60:	00 28 84 00 	add     r4,r4,r5
    5e64:	02 00 a4 20 	lsli    r5,r4,0x0002
    5e68:	01 00 80 2c 	ldih    r4,0x0001
    5e6c:	90 65 84 18 	ori     r4,r4,0x6590
    5e70:	00 20 85 00 	add     r4,r5,r4
    5e74:	f4 ff 9e 34 	sw      0xfff4(r30),r4
    5e78:	f8 ff 9e 30 	lw      r4,0xfff8(r30)
    5e7c:	00 00 a0 18 	ori     r5,r0,0x0000
    5e80:	00 00 a4 3c 	sb      0x0000(r4),r5
    5e84:	f8 ff be 30 	lw      r5,0xfff8(r30)
    5e88:	f4 ff 9e 30 	lw      r4,0xfff4(r30)
    5e8c:	04 00 85 34 	sw      0x0004(r5),r4
    5e90:	fe ff 9e 64 	lh      r4,0xfffe(r30)
    5e94:	01 00 84 04 	addi    r4,r4,0x0001
    5e98:	fe ff 9e 68 	sh      0xfffe(r30),r4
    5e9c:	7f 17 00 80 	ajmp    0x00005dfc
    5ea0:	fe ff 9e 64 	lh      r4,0xfffe(r30)
    5ea4:	10 00 a4 20 	lsli    r5,r4,0x0010
    5ea8:	10 00 a5 24 	lsri    r5,r5,0x0010
    5eac:	05 28 80 00 	orr     r4,r0,r5
    5eb0:	02 00 84 20 	lsli    r4,r4,0x0002
    5eb4:	00 28 84 00 	add     r4,r4,r5
    5eb8:	02 00 a4 20 	lsli    r5,r4,0x0002
    5ebc:	01 00 80 2c 	ldih    r4,0x0001
    5ec0:	90 65 84 18 	ori     r4,r4,0x6590
    5ec4:	00 20 85 00 	add     r4,r5,r4
    5ec8:	f8 ff 9e 34 	sw      0xfff8(r30),r4
    5ecc:	f8 ff 9e 30 	lw      r4,0xfff8(r30)
    5ed0:	00 00 a0 18 	ori     r5,r0,0x0000
    5ed4:	00 00 a4 3c 	sb      0x0000(r4),r5
    5ed8:	f8 ff be 30 	lw      r5,0xfff8(r30)
    5edc:	00 00 80 18 	ori     r4,r0,0x0000
    5ee0:	04 00 85 34 	sw      0x0004(r5),r4
    5ee4:	01 00 a0 2c 	ldih    r5,0x0001
    5ee8:	80 4c a5 18 	ori     r5,r5,0x4c80
    5eec:	01 00 80 2c 	ldih    r4,0x0001
    5ef0:	90 65 84 18 	ori     r4,r4,0x6590
    5ef4:	00 00 85 34 	sw      0x0000(r5),r4
    5ef8:	0c 00 bd 07 	addi    r29,r29,0x000c
    5efc:	05 f0 a0 03 	orr     r29,r0,r30
    5f00:	08 00 bd 07 	addi    r29,r29,0x0008
    5f04:	fc ff fd 33 	lw      r31,0xfffc(r29)
    5f08:	f8 ff dd 33 	lw      r30,0xfff8(r29)
    5f0c:	00 00 e0 47 	jmpr    r31

00005f10 <OS_InitMisc>:
    5f10:	fc ff bd 07 	addi    r29,r29,0xfffc
    5f14:	00 00 dd 37 	sw      0x0000(r29),r30
    5f18:	05 e8 c0 03 	orr     r30,r0,r29
    5f1c:	01 00 a0 2c 	ldih    r5,0x0001
    5f20:	8c 4c a5 18 	ori     r5,r5,0x4c8c
    5f24:	00 00 80 18 	ori     r4,r0,0x0000
    5f28:	00 00 85 34 	sw      0x0000(r5),r4
    5f2c:	01 00 80 2c 	ldih    r4,0x0001
    5f30:	84 4c 84 18 	ori     r4,r4,0x4c84
    5f34:	00 00 a0 18 	ori     r5,r0,0x0000
    5f38:	00 00 a4 3c 	sb      0x0000(r4),r5
    5f3c:	01 00 80 2c 	ldih    r4,0x0001
    5f40:	40 33 84 18 	ori     r4,r4,0x3340
    5f44:	00 00 a0 18 	ori     r5,r0,0x0000
    5f48:	00 00 a4 3c 	sb      0x0000(r4),r5
    5f4c:	01 00 80 2c 	ldih    r4,0x0001
    5f50:	6d 4c 84 18 	ori     r4,r4,0x4c6d
    5f54:	00 00 a0 18 	ori     r5,r0,0x0000
    5f58:	00 00 a4 3c 	sb      0x0000(r4),r5
    5f5c:	01 00 80 2c 	ldih    r4,0x0001
    5f60:	42 33 84 18 	ori     r4,r4,0x3342
    5f64:	00 00 a0 18 	ori     r5,r0,0x0000
    5f68:	00 00 a4 3c 	sb      0x0000(r4),r5
    5f6c:	01 00 a0 2c 	ldih    r5,0x0001
    5f70:	60 4c a5 18 	ori     r5,r5,0x4c60
    5f74:	00 00 80 18 	ori     r4,r0,0x0000
    5f78:	00 00 85 34 	sw      0x0000(r5),r4
    5f7c:	01 00 a0 2c 	ldih    r5,0x0001
    5f80:	44 33 a5 18 	ori     r5,r5,0x3344
    5f84:	00 00 80 18 	ori     r4,r0,0x0000
    5f88:	00 00 85 34 	sw      0x0000(r5),r4
    5f8c:	01 00 a0 2c 	ldih    r5,0x0001
    5f90:	a0 6d a5 18 	ori     r5,r5,0x6da0
    5f94:	00 00 80 18 	ori     r4,r0,0x0000
    5f98:	00 00 85 34 	sw      0x0000(r5),r4
    5f9c:	01 00 a0 2c 	ldih    r5,0x0001
    5fa0:	64 4c a5 18 	ori     r5,r5,0x4c64
    5fa4:	00 00 80 18 	ori     r4,r0,0x0000
    5fa8:	00 00 85 34 	sw      0x0000(r5),r4
    5fac:	01 00 80 2c 	ldih    r4,0x0001
    5fb0:	90 6c 84 18 	ori     r4,r4,0x6c90
    5fb4:	00 00 a0 18 	ori     r5,r0,0x0000
    5fb8:	00 00 a4 3c 	sb      0x0000(r4),r5
    5fbc:	01 00 80 2c 	ldih    r4,0x0001
    5fc0:	41 33 84 18 	ori     r4,r4,0x3341
    5fc4:	00 00 a0 18 	ori     r5,r0,0x0000
    5fc8:	00 00 a4 3c 	sb      0x0000(r4),r5
    5fcc:	05 f0 a0 03 	orr     r29,r0,r30
    5fd0:	04 00 bd 07 	addi    r29,r29,0x0004
    5fd4:	fc ff dd 33 	lw      r30,0xfffc(r29)
    5fd8:	00 00 e0 47 	jmpr    r31
    5fdc:	00 00 00 00 	nop

00005fe0 <OS_InitRdyList>:
    5fe0:	fc ff bd 07 	addi    r29,r29,0xfffc
    5fe4:	00 00 dd 37 	sw      0x0000(r29),r30
    5fe8:	05 e8 c0 03 	orr     r30,r0,r29
    5fec:	fc ff bd 07 	addi    r29,r29,0xfffc
    5ff0:	01 00 80 2c 	ldih    r4,0x0001
    5ff4:	74 4c 84 18 	ori     r4,r4,0x4c74
    5ff8:	00 00 a0 18 	ori     r5,r0,0x0000
    5ffc:	00 00 a4 3c 	sb      0x0000(r4),r5
    6000:	00 00 80 18 	ori     r4,r0,0x0000
    6004:	ff ff 9e 3c 	sb      0xffff(r30),r4
    6008:	ff ff 9e 38 	lb      r4,0xffff(r30)
    600c:	18 00 84 20 	lsli    r4,r4,0x0018
    6010:	18 00 84 24 	lsri    r4,r4,0x0018
    6014:	07 00 a0 18 	ori     r5,r0,0x0007
    6018:	02 28 04 00 	sub     r0,r4,r5
    601c:	0d 00 00 42 	bhi     0x00006050
    6020:	01 00 a0 2c 	ldih    r5,0x0001
    6024:	78 4c a5 18 	ori     r5,r5,0x4c78
    6028:	ff ff 9e 38 	lb      r4,0xffff(r30)
    602c:	18 00 84 20 	lsli    r4,r4,0x0018
    6030:	18 00 84 24 	lsri    r4,r4,0x0018
    6034:	00 20 85 00 	add     r4,r5,r4
    6038:	00 00 a0 18 	ori     r5,r0,0x0000
    603c:	00 00 a4 3c 	sb      0x0000(r4),r5
    6040:	ff ff 9e 38 	lb      r4,0xffff(r30)
    6044:	01 00 84 04 	addi    r4,r4,0x0001
    6048:	ff ff 9e 3c 	sb      0xffff(r30),r4
    604c:	02 18 00 80 	ajmp    0x00006008
    6050:	01 00 80 2c 	ldih    r4,0x0001
    6054:	49 33 84 18 	ori     r4,r4,0x3349
    6058:	00 00 a0 18 	ori     r5,r0,0x0000
    605c:	00 00 a4 3c 	sb      0x0000(r4),r5
    6060:	01 00 80 2c 	ldih    r4,0x0001
    6064:	48 33 84 18 	ori     r4,r4,0x3348
    6068:	00 00 a0 18 	ori     r5,r0,0x0000
    606c:	00 00 a4 3c 	sb      0x0000(r4),r5
    6070:	01 00 a0 2c 	ldih    r5,0x0001
    6074:	70 4c a5 18 	ori     r5,r5,0x4c70
    6078:	00 00 80 18 	ori     r4,r0,0x0000
    607c:	00 00 85 34 	sw      0x0000(r5),r4
    6080:	01 00 a0 2c 	ldih    r5,0x0001
    6084:	88 4c a5 18 	ori     r5,r5,0x4c88
    6088:	00 00 80 18 	ori     r4,r0,0x0000
    608c:	00 00 85 34 	sw      0x0000(r5),r4
    6090:	04 00 bd 07 	addi    r29,r29,0x0004
    6094:	05 f0 a0 03 	orr     r29,r0,r30
    6098:	04 00 bd 07 	addi    r29,r29,0x0004
    609c:	fc ff dd 33 	lw      r30,0xfffc(r29)
    60a0:	00 00 e0 47 	jmpr    r31
    60a4:	00 00 00 00 	nop
    60a8:	00 00 00 00 	nop
    60ac:	00 00 00 00 	nop

000060b0 <OS_InitTaskIdle>:
    60b0:	f8 ff bd 07 	addi    r29,r29,0xfff8
    60b4:	00 00 dd 37 	sw      0x0000(r29),r30
    60b8:	04 00 fd 37 	sw      0x0004(r29),r31
    60bc:	05 e8 c0 03 	orr     r30,r0,r29
    60c0:	e8 ff bd 07 	addi    r29,r29,0xffe8
    60c4:	ff ff 80 2c 	ldih    r4,0xffff
    60c8:	ff ff 84 18 	ori     r4,r4,0xffff
    60cc:	00 00 9d 68 	sh      0x0000(r29),r4
    60d0:	01 00 80 2c 	ldih    r4,0x0001
    60d4:	90 4c 84 18 	ori     r4,r4,0x4c90
    60d8:	04 00 9d 34 	sw      0x0004(r29),r4
    60dc:	40 06 80 18 	ori     r4,r0,0x0640
    60e0:	08 00 9d 34 	sw      0x0008(r29),r4
    60e4:	00 00 80 18 	ori     r4,r0,0x0000
    60e8:	0c 00 9d 34 	sw      0x000c(r29),r4
    60ec:	03 00 80 18 	ori     r4,r0,0x0003
    60f0:	10 00 9d 68 	sh      0x0010(r29),r4
    60f4:	00 00 80 2c 	ldih    r4,0x0000
    60f8:	b0 66 84 18 	ori     r4,r4,0x66b0
    60fc:	00 00 a0 18 	ori     r5,r0,0x0000
    6100:	01 00 c0 2c 	ldih    r6,0x0001
    6104:	8c 65 c6 18 	ori     r6,r6,0x658c
    6108:	3f 00 e0 18 	ori     r7,r0,0x003f
    610c:	98 1c 00 c0 	ajal    0x00007260
    6110:	ff ff de 04 	addi    r6,r30,0xffff
    6114:	3f 00 80 18 	ori     r4,r0,0x003f
    6118:	01 00 a0 2c 	ldih    r5,0x0001
    611c:	14 73 a5 18 	ori     r5,r5,0x7314
    6120:	b4 1e 00 c0 	ajal    0x00007ad0
    6124:	18 00 bd 07 	addi    r29,r29,0x0018
    6128:	05 f0 a0 03 	orr     r29,r0,r30
    612c:	08 00 bd 07 	addi    r29,r29,0x0008
    6130:	fc ff fd 33 	lw      r31,0xfffc(r29)
    6134:	f8 ff dd 33 	lw      r30,0xfff8(r29)
    6138:	00 00 e0 47 	jmpr    r31
    613c:	00 00 00 00 	nop

00006140 <OS_InitTaskStat>:
    6140:	f8 ff bd 07 	addi    r29,r29,0xfff8
    6144:	00 00 dd 37 	sw      0x0000(r29),r30
    6148:	04 00 fd 37 	sw      0x0004(r29),r31
    614c:	05 e8 c0 03 	orr     r30,r0,r29
    6150:	e8 ff bd 07 	addi    r29,r29,0xffe8
    6154:	ff ff 80 2c 	ldih    r4,0xffff
    6158:	fe ff 84 18 	ori     r4,r4,0xfffe
    615c:	00 00 9d 68 	sh      0x0000(r29),r4
    6160:	01 00 80 2c 	ldih    r4,0x0001
    6164:	60 33 84 18 	ori     r4,r4,0x3360
    6168:	04 00 9d 34 	sw      0x0004(r29),r4
    616c:	40 06 80 18 	ori     r4,r0,0x0640
    6170:	08 00 9d 34 	sw      0x0008(r29),r4
    6174:	00 00 80 18 	ori     r4,r0,0x0000
    6178:	0c 00 9d 34 	sw      0x000c(r29),r4
    617c:	03 00 80 18 	ori     r4,r0,0x0003
    6180:	10 00 9d 68 	sh      0x0010(r29),r4
    6184:	00 00 80 2c 	ldih    r4,0x0000
    6188:	10 67 84 18 	ori     r4,r4,0x6710
    618c:	00 00 a0 18 	ori     r5,r0,0x0000
    6190:	01 00 c0 2c 	ldih    r6,0x0001
    6194:	5c 4c c6 18 	ori     r6,r6,0x4c5c
    6198:	3e 00 e0 18 	ori     r7,r0,0x003e
    619c:	98 1c 00 c0 	ajal    0x00007260
    61a0:	ff ff de 04 	addi    r6,r30,0xffff
    61a4:	3e 00 80 18 	ori     r4,r0,0x003e
    61a8:	01 00 a0 2c 	ldih    r5,0x0001
    61ac:	22 73 a5 18 	ori     r5,r5,0x7322
    61b0:	b4 1e 00 c0 	ajal    0x00007ad0
    61b4:	18 00 bd 07 	addi    r29,r29,0x0018
    61b8:	05 f0 a0 03 	orr     r29,r0,r30
    61bc:	08 00 bd 07 	addi    r29,r29,0x0008
    61c0:	fc ff fd 33 	lw      r31,0xfffc(r29)
    61c4:	f8 ff dd 33 	lw      r30,0xfff8(r29)
    61c8:	00 00 e0 47 	jmpr    r31
    61cc:	00 00 00 00 	nop

000061d0 <OS_InitTCBList>:
    61d0:	f8 ff bd 07 	addi    r29,r29,0xfff8
    61d4:	00 00 dd 37 	sw      0x0000(r29),r30
    61d8:	04 00 fd 37 	sw      0x0004(r29),r31
    61dc:	05 e8 c0 03 	orr     r30,r0,r29
    61e0:	f4 ff bd 07 	addi    r29,r29,0xfff4
    61e4:	01 00 80 2c 	ldih    r4,0x0001
    61e8:	60 66 84 18 	ori     r4,r4,0x6660
    61ec:	30 06 a0 18 	ori     r5,r0,0x0630
    61f0:	d0 18 00 c0 	ajal    0x00006340
    61f4:	01 00 80 2c 	ldih    r4,0x0001
    61f8:	a0 6c 84 18 	ori     r4,r4,0x6ca0
    61fc:	00 01 a0 18 	ori     r5,r0,0x0100
    6200:	d0 18 00 c0 	ajal    0x00006340
    6204:	00 00 80 18 	ori     r4,r0,0x0000
    6208:	ff ff 9e 3c 	sb      0xffff(r30),r4
    620c:	ff ff 9e 38 	lb      r4,0xffff(r30)
    6210:	18 00 84 20 	lsli    r4,r4,0x0018
    6214:	18 00 84 24 	lsri    r4,r4,0x0018
    6218:	14 00 a0 18 	ori     r5,r0,0x0014
    621c:	02 28 04 00 	sub     r0,r4,r5
    6220:	25 00 00 42 	bhi     0x000062b4
    6224:	ff ff 9e 38 	lb      r4,0xffff(r30)
    6228:	01 00 84 04 	addi    r4,r4,0x0001
    622c:	fe ff 9e 3c 	sb      0xfffe(r30),r4
    6230:	ff ff 9e 38 	lb      r4,0xffff(r30)
    6234:	18 00 a4 20 	lsli    r5,r4,0x0018
    6238:	18 00 a5 24 	lsri    r5,r5,0x0018
    623c:	05 28 80 00 	orr     r4,r0,r5
    6240:	03 00 84 20 	lsli    r4,r4,0x0003
    6244:	00 28 84 00 	add     r4,r4,r5
    6248:	03 00 a4 20 	lsli    r5,r4,0x0003
    624c:	01 00 80 2c 	ldih    r4,0x0001
    6250:	60 66 84 18 	ori     r4,r4,0x6660
    6254:	00 20 85 00 	add     r4,r5,r4
    6258:	f8 ff 9e 34 	sw      0xfff8(r30),r4
    625c:	fe ff 9e 38 	lb      r4,0xfffe(r30)
    6260:	18 00 a4 20 	lsli    r5,r4,0x0018
    6264:	18 00 a5 24 	lsri    r5,r5,0x0018
    6268:	05 28 80 00 	orr     r4,r0,r5
    626c:	03 00 84 20 	lsli    r4,r4,0x0003
    6270:	00 28 84 00 	add     r4,r4,r5
    6274:	03 00 a4 20 	lsli    r5,r4,0x0003
    6278:	01 00 80 2c 	ldih    r4,0x0001
    627c:	60 66 84 18 	ori     r4,r4,0x6660
    6280:	00 20 85 00 	add     r4,r5,r4
    6284:	f4 ff 9e 34 	sw      0xfff4(r30),r4
    6288:	f8 ff be 30 	lw      r5,0xfff8(r30)
    628c:	f4 ff 9e 30 	lw      r4,0xfff4(r30)
    6290:	14 00 85 34 	sw      0x0014(r5),r4
    6294:	f8 ff be 30 	lw      r5,0xfff8(r30)
    6298:	01 00 80 2c 	ldih    r4,0x0001
    629c:	30 73 84 18 	ori     r4,r4,0x7330
    62a0:	40 00 85 34 	sw      0x0040(r5),r4
    62a4:	ff ff 9e 38 	lb      r4,0xffff(r30)
    62a8:	01 00 84 04 	addi    r4,r4,0x0001
    62ac:	ff ff 9e 3c 	sb      0xffff(r30),r4
    62b0:	83 18 00 80 	ajmp    0x0000620c
    62b4:	ff ff 9e 38 	lb      r4,0xffff(r30)
    62b8:	18 00 a4 20 	lsli    r5,r4,0x0018
    62bc:	18 00 a5 24 	lsri    r5,r5,0x0018
    62c0:	05 28 80 00 	orr     r4,r0,r5
    62c4:	03 00 84 20 	lsli    r4,r4,0x0003
    62c8:	00 28 84 00 	add     r4,r4,r5
    62cc:	03 00 a4 20 	lsli    r5,r4,0x0003
    62d0:	01 00 80 2c 	ldih    r4,0x0001
    62d4:	60 66 84 18 	ori     r4,r4,0x6660
    62d8:	00 20 85 00 	add     r4,r5,r4
    62dc:	f8 ff 9e 34 	sw      0xfff8(r30),r4
    62e0:	f8 ff be 30 	lw      r5,0xfff8(r30)
    62e4:	00 00 80 18 	ori     r4,r0,0x0000
    62e8:	14 00 85 34 	sw      0x0014(r5),r4
    62ec:	f8 ff be 30 	lw      r5,0xfff8(r30)
    62f0:	01 00 80 2c 	ldih    r4,0x0001
    62f4:	30 73 84 18 	ori     r4,r4,0x7330
    62f8:	40 00 85 34 	sw      0x0040(r5),r4
    62fc:	01 00 a0 2c 	ldih    r5,0x0001
    6300:	4c 33 a5 18 	ori     r5,r5,0x334c
    6304:	00 00 80 18 	ori     r4,r0,0x0000
    6308:	00 00 85 34 	sw      0x0000(r5),r4
    630c:	01 00 a0 2c 	ldih    r5,0x0001
    6310:	68 4c a5 18 	ori     r5,r5,0x4c68
    6314:	01 00 80 2c 	ldih    r4,0x0001
    6318:	60 66 84 18 	ori     r4,r4,0x6660
    631c:	00 00 85 34 	sw      0x0000(r5),r4
    6320:	0c 00 bd 07 	addi    r29,r29,0x000c
    6324:	05 f0 a0 03 	orr     r29,r0,r30
    6328:	08 00 bd 07 	addi    r29,r29,0x0008
    632c:	fc ff fd 33 	lw      r31,0xfffc(r29)
    6330:	f8 ff dd 33 	lw      r30,0xfff8(r29)
    6334:	00 00 e0 47 	jmpr    r31
    6338:	00 00 00 00 	nop
    633c:	00 00 00 00 	nop

00006340 <OS_MemClr>:
    6340:	fc ff bd 07 	addi    r29,r29,0xfffc
    6344:	00 00 dd 37 	sw      0x0000(r29),r30
    6348:	05 e8 c0 03 	orr     r30,r0,r29
    634c:	f8 ff bd 07 	addi    r29,r29,0xfff8
    6350:	fc ff 9e 34 	sw      0xfffc(r30),r4
    6354:	fa ff be 68 	sh      0xfffa(r30),r5
    6358:	fa ff 9e 64 	lh      r4,0xfffa(r30)
    635c:	10 00 84 20 	lsli    r4,r4,0x0010
    6360:	10 00 84 24 	lsri    r4,r4,0x0010
    6364:	00 00 a0 18 	ori     r5,r0,0x0000
    6368:	02 28 04 00 	sub     r0,r4,r5
    636c:	0c 00 00 40 	beq     0x0000639c
    6370:	fc ff de 04 	addi    r6,r30,0xfffc
    6374:	00 00 86 30 	lw      r4,0x0000(r6)
    6378:	05 20 a0 00 	orr     r5,r0,r4
    637c:	00 00 e0 18 	ori     r7,r0,0x0000
    6380:	00 00 e5 3c 	sb      0x0000(r5),r7
    6384:	01 00 84 04 	addi    r4,r4,0x0001
    6388:	00 00 86 34 	sw      0x0000(r6),r4
    638c:	fa ff 9e 64 	lh      r4,0xfffa(r30)
    6390:	ff ff 84 04 	addi    r4,r4,0xffff
    6394:	fa ff 9e 68 	sh      0xfffa(r30),r4
    6398:	d6 18 00 80 	ajmp    0x00006358
    639c:	08 00 bd 07 	addi    r29,r29,0x0008
    63a0:	05 f0 a0 03 	orr     r29,r0,r30
    63a4:	04 00 bd 07 	addi    r29,r29,0x0004
    63a8:	fc ff dd 33 	lw      r30,0xfffc(r29)
    63ac:	00 00 e0 47 	jmpr    r31

000063b0 <OS_MemCopy>:
    63b0:	f8 ff bd 07 	addi    r29,r29,0xfff8
    63b4:	00 00 dd 37 	sw      0x0000(r29),r30
    63b8:	04 00 1d 35 	sw      0x0004(r29),r8
    63bc:	05 e8 c0 03 	orr     r30,r0,r29
    63c0:	f4 ff bd 07 	addi    r29,r29,0xfff4
    63c4:	fc ff 9e 34 	sw      0xfffc(r30),r4
    63c8:	f8 ff be 34 	sw      0xfff8(r30),r5
    63cc:	f6 ff de 68 	sh      0xfff6(r30),r6
    63d0:	f6 ff 9e 64 	lh      r4,0xfff6(r30)
    63d4:	10 00 84 20 	lsli    r4,r4,0x0010
    63d8:	10 00 84 24 	lsri    r4,r4,0x0010
    63dc:	00 00 a0 18 	ori     r5,r0,0x0000
    63e0:	02 28 04 00 	sub     r0,r4,r5
    63e4:	10 00 00 40 	beq     0x00006424
    63e8:	fc ff 1e 05 	addi    r8,r30,0xfffc
    63ec:	00 00 a8 30 	lw      r5,0x0000(r8)
    63f0:	f8 ff de 04 	addi    r6,r30,0xfff8
    63f4:	00 00 86 30 	lw      r4,0x0000(r6)
    63f8:	00 00 e4 38 	lb      r7,0x0000(r4)
    63fc:	01 00 84 04 	addi    r4,r4,0x0001
    6400:	00 00 86 34 	sw      0x0000(r6),r4
    6404:	05 28 80 00 	orr     r4,r0,r5
    6408:	00 00 e4 3c 	sb      0x0000(r4),r7
    640c:	01 00 a5 04 	addi    r5,r5,0x0001
    6410:	00 00 a8 34 	sw      0x0000(r8),r5
    6414:	f6 ff 9e 64 	lh      r4,0xfff6(r30)
    6418:	ff ff 84 04 	addi    r4,r4,0xffff
    641c:	f6 ff 9e 68 	sh      0xfff6(r30),r4
    6420:	f4 18 00 80 	ajmp    0x000063d0
    6424:	0c 00 bd 07 	addi    r29,r29,0x000c
    6428:	05 f0 a0 03 	orr     r29,r0,r30
    642c:	08 00 bd 07 	addi    r29,r29,0x0008
    6430:	fc ff 1d 31 	lw      r8,0xfffc(r29)
    6434:	f8 ff dd 33 	lw      r30,0xfff8(r29)
    6438:	00 00 e0 47 	jmpr    r31
    643c:	00 00 00 00 	nop

00006440 <OS_Sched>:
    6440:	f8 ff bd 07 	addi    r29,r29,0xfff8
    6444:	00 00 dd 37 	sw      0x0000(r29),r30
    6448:	04 00 fd 37 	sw      0x0004(r29),r31
    644c:	05 e8 c0 03 	orr     r30,r0,r29
    6450:	fc ff bd 07 	addi    r29,r29,0xfffc
    6454:	00 00 80 18 	ori     r4,r0,0x0000
    6458:	fc ff 9e 34 	sw      0xfffc(r30),r4
    645c:	2a 00 00 c0 	ajal    0x000000a8
    6460:	05 10 80 00 	orr     r4,r0,r2
    6464:	fc ff 9e 34 	sw      0xfffc(r30),r4
    6468:	01 00 80 2c 	ldih    r4,0x0001
    646c:	84 4c 84 18 	ori     r4,r4,0x4c84
    6470:	00 00 84 38 	lb      r4,0x0000(r4)
    6474:	18 00 84 20 	lsli    r4,r4,0x0018
    6478:	18 00 84 24 	lsri    r4,r4,0x0018
    647c:	00 00 a0 18 	ori     r5,r0,0x0000
    6480:	02 28 04 00 	sub     r0,r4,r5
    6484:	34 00 40 40 	bne     0x00006554
    6488:	01 00 80 2c 	ldih    r4,0x0001
    648c:	40 33 84 18 	ori     r4,r4,0x3340
    6490:	00 00 84 38 	lb      r4,0x0000(r4)
    6494:	18 00 84 20 	lsli    r4,r4,0x0018
    6498:	18 00 84 24 	lsri    r4,r4,0x0018
    649c:	00 00 a0 18 	ori     r5,r0,0x0000
    64a0:	02 28 04 00 	sub     r0,r4,r5
    64a4:	2c 00 40 40 	bne     0x00006554
    64a8:	60 19 00 c0 	ajal    0x00006580
    64ac:	01 00 a0 2c 	ldih    r5,0x0001
    64b0:	70 4c a5 18 	ori     r5,r5,0x4c70
    64b4:	01 00 c0 2c 	ldih    r6,0x0001
    64b8:	a0 6c c6 18 	ori     r6,r6,0x6ca0
    64bc:	01 00 80 2c 	ldih    r4,0x0001
    64c0:	48 33 84 18 	ori     r4,r4,0x3348
    64c4:	00 00 84 38 	lb      r4,0x0000(r4)
    64c8:	18 00 84 20 	lsli    r4,r4,0x0018
    64cc:	18 00 84 24 	lsri    r4,r4,0x0018
    64d0:	02 00 84 20 	lsli    r4,r4,0x0002
    64d4:	00 30 84 00 	add     r4,r4,r6
    64d8:	00 00 84 30 	lw      r4,0x0000(r4)
    64dc:	00 00 85 34 	sw      0x0000(r5),r4
    64e0:	01 00 80 2c 	ldih    r4,0x0001
    64e4:	48 33 84 18 	ori     r4,r4,0x3348
    64e8:	01 00 c0 2c 	ldih    r6,0x0001
    64ec:	49 33 c6 18 	ori     r6,r6,0x3349
    64f0:	00 00 84 38 	lb      r4,0x0000(r4)
    64f4:	18 00 a4 20 	lsli    r5,r4,0x0018
    64f8:	18 00 a5 24 	lsri    r5,r5,0x0018
    64fc:	00 00 86 38 	lb      r4,0x0000(r6)
    6500:	18 00 84 20 	lsli    r4,r4,0x0018
    6504:	18 00 84 24 	lsri    r4,r4,0x0018
    6508:	02 20 05 00 	sub     r0,r5,r4
    650c:	12 00 00 40 	beq     0x00006554
    6510:	01 00 80 2c 	ldih    r4,0x0001
    6514:	70 4c 84 18 	ori     r4,r4,0x4c70
    6518:	00 00 a4 30 	lw      r5,0x0000(r4)
    651c:	01 00 80 2c 	ldih    r4,0x0001
    6520:	70 4c 84 18 	ori     r4,r4,0x4c70
    6524:	00 00 84 30 	lw      r4,0x0000(r4)
    6528:	2c 00 84 30 	lw      r4,0x002c(r4)
    652c:	01 00 84 04 	addi    r4,r4,0x0001
    6530:	2c 00 85 34 	sw      0x002c(r5),r4
    6534:	01 00 a0 2c 	ldih    r5,0x0001
    6538:	60 4c a5 18 	ori     r5,r5,0x4c60
    653c:	01 00 80 2c 	ldih    r4,0x0001
    6540:	60 4c 84 18 	ori     r4,r4,0x4c60
    6544:	00 00 84 30 	lw      r4,0x0000(r4)
    6548:	01 00 84 04 	addi    r4,r4,0x0001
    654c:	00 00 85 34 	sw      0x0000(r5),r4
    6550:	63 00 00 c0 	ajal    0x0000018c
    6554:	fc ff 9e 30 	lw      r4,0xfffc(r30)
    6558:	2d 00 00 c0 	ajal    0x000000b4
    655c:	04 00 bd 07 	addi    r29,r29,0x0004
    6560:	05 f0 a0 03 	orr     r29,r0,r30
    6564:	08 00 bd 07 	addi    r29,r29,0x0008
    6568:	fc ff fd 33 	lw      r31,0xfffc(r29)
    656c:	f8 ff dd 33 	lw      r30,0xfff8(r29)
    6570:	00 00 e0 47 	jmpr    r31
    6574:	00 00 00 00 	nop
    6578:	00 00 00 00 	nop
    657c:	00 00 00 00 	nop

00006580 <OS_SchedNew>:
    6580:	f8 ff bd 07 	addi    r29,r29,0xfff8
    6584:	00 00 dd 37 	sw      0x0000(r29),r30
    6588:	04 00 1d 35 	sw      0x0004(r29),r8
    658c:	05 e8 c0 03 	orr     r30,r0,r29
    6590:	fc ff bd 07 	addi    r29,r29,0xfffc
    6594:	01 00 a0 2c 	ldih    r5,0x0001
    6598:	04 72 a5 18 	ori     r5,r5,0x7204
    659c:	01 00 80 2c 	ldih    r4,0x0001
    65a0:	74 4c 84 18 	ori     r4,r4,0x4c74
    65a4:	00 00 84 38 	lb      r4,0x0000(r4)
    65a8:	18 00 84 20 	lsli    r4,r4,0x0018
    65ac:	18 00 84 24 	lsri    r4,r4,0x0018
    65b0:	00 20 85 00 	add     r4,r5,r4
    65b4:	00 00 84 38 	lb      r4,0x0000(r4)
    65b8:	ff ff 9e 3c 	sb      0xffff(r30),r4
    65bc:	01 00 e0 2c 	ldih    r7,0x0001
    65c0:	48 33 e7 18 	ori     r7,r7,0x3348
    65c4:	ff ff 9e 38 	lb      r4,0xffff(r30)
    65c8:	18 00 84 20 	lsli    r4,r4,0x0018
    65cc:	18 00 84 24 	lsri    r4,r4,0x0018
    65d0:	03 00 04 21 	lsli    r8,r4,0x0003
    65d4:	01 00 c0 2c 	ldih    r6,0x0001
    65d8:	04 72 c6 18 	ori     r6,r6,0x7204
    65dc:	01 00 a0 2c 	ldih    r5,0x0001
    65e0:	78 4c a5 18 	ori     r5,r5,0x4c78
    65e4:	ff ff 9e 38 	lb      r4,0xffff(r30)
    65e8:	18 00 84 20 	lsli    r4,r4,0x0018
    65ec:	18 00 84 24 	lsri    r4,r4,0x0018
    65f0:	00 20 85 00 	add     r4,r5,r4
    65f4:	00 00 84 38 	lb      r4,0x0000(r4)
    65f8:	18 00 84 20 	lsli    r4,r4,0x0018
    65fc:	18 00 84 24 	lsri    r4,r4,0x0018
    6600:	00 20 86 00 	add     r4,r6,r4
    6604:	05 40 a0 00 	orr     r5,r0,r8
    6608:	00 00 84 38 	lb      r4,0x0000(r4)
    660c:	00 20 85 00 	add     r4,r5,r4
    6610:	00 00 87 3c 	sb      0x0000(r7),r4
    6614:	04 00 bd 07 	addi    r29,r29,0x0004
    6618:	05 f0 a0 03 	orr     r29,r0,r30
    661c:	08 00 bd 07 	addi    r29,r29,0x0008
    6620:	fc ff 1d 31 	lw      r8,0xfffc(r29)
    6624:	f8 ff dd 33 	lw      r30,0xfff8(r29)
    6628:	00 00 e0 47 	jmpr    r31
    662c:	00 00 00 00 	nop

00006630 <OS_StrLen>:
    6630:	fc ff bd 07 	addi    r29,r29,0xfffc
    6634:	00 00 dd 37 	sw      0x0000(r29),r30
    6638:	05 e8 c0 03 	orr     r30,r0,r29
    663c:	f8 ff bd 07 	addi    r29,r29,0xfff8
    6640:	fc ff 9e 34 	sw      0xfffc(r30),r4
    6644:	00 00 80 18 	ori     r4,r0,0x0000
    6648:	fb ff 9e 3c 	sb      0xfffb(r30),r4
    664c:	fc ff 9e 30 	lw      r4,0xfffc(r30)
    6650:	00 00 84 38 	lb      r4,0x0000(r4)
    6654:	18 00 84 20 	lsli    r4,r4,0x0018
    6658:	18 00 84 24 	lsri    r4,r4,0x0018
    665c:	00 00 a0 18 	ori     r5,r0,0x0000
    6660:	02 28 04 00 	sub     r0,r4,r5
    6664:	08 00 00 40 	beq     0x00006684
    6668:	fc ff 9e 30 	lw      r4,0xfffc(r30)
    666c:	01 00 84 04 	addi    r4,r4,0x0001
    6670:	fc ff 9e 34 	sw      0xfffc(r30),r4
    6674:	fb ff 9e 38 	lb      r4,0xfffb(r30)
    6678:	01 00 84 04 	addi    r4,r4,0x0001
    667c:	fb ff 9e 3c 	sb      0xfffb(r30),r4
    6680:	93 19 00 80 	ajmp    0x0000664c
    6684:	fb ff 9e 38 	lb      r4,0xfffb(r30)
    6688:	18 00 84 20 	lsli    r4,r4,0x0018
    668c:	18 00 84 24 	lsri    r4,r4,0x0018
    6690:	05 20 40 00 	orr     r2,r0,r4
    6694:	08 00 bd 07 	addi    r29,r29,0x0008
    6698:	05 f0 a0 03 	orr     r29,r0,r30
    669c:	04 00 bd 07 	addi    r29,r29,0x0004
    66a0:	fc ff dd 33 	lw      r30,0xfffc(r29)
    66a4:	00 00 e0 47 	jmpr    r31
    66a8:	00 00 00 00 	nop
    66ac:	00 00 00 00 	nop

000066b0 <OS_TaskIdle>:
    66b0:	f8 ff bd 07 	addi    r29,r29,0xfff8
    66b4:	00 00 dd 37 	sw      0x0000(r29),r30
    66b8:	04 00 fd 37 	sw      0x0004(r29),r31
    66bc:	05 e8 c0 03 	orr     r30,r0,r29
    66c0:	f8 ff bd 07 	addi    r29,r29,0xfff8
    66c4:	fc ff 9e 34 	sw      0xfffc(r30),r4
    66c8:	00 00 80 18 	ori     r4,r0,0x0000
    66cc:	f8 ff 9e 34 	sw      0xfff8(r30),r4
    66d0:	2a 00 00 c0 	ajal    0x000000a8
    66d4:	05 10 80 00 	orr     r4,r0,r2
    66d8:	f8 ff 9e 34 	sw      0xfff8(r30),r4
    66dc:	01 00 a0 2c 	ldih    r5,0x0001
    66e0:	44 33 a5 18 	ori     r5,r5,0x3344
    66e4:	01 00 80 2c 	ldih    r4,0x0001
    66e8:	44 33 84 18 	ori     r4,r4,0x3344
    66ec:	00 00 84 30 	lw      r4,0x0000(r4)
    66f0:	01 00 84 04 	addi    r4,r4,0x0001
    66f4:	00 00 85 34 	sw      0x0000(r5),r4
    66f8:	f8 ff 9e 30 	lw      r4,0xfff8(r30)
    66fc:	2d 00 00 c0 	ajal    0x000000b4
    6700:	e4 27 00 c0 	ajal    0x00009f90
    6704:	b4 19 00 80 	ajmp    0x000066d0
    6708:	00 00 00 00 	nop
    670c:	00 00 00 00 	nop

00006710 <OS_TaskStat>:
    6710:	f8 ff bd 07 	addi    r29,r29,0xfff8
    6714:	00 00 dd 37 	sw      0x0000(r29),r30
    6718:	04 00 fd 37 	sw      0x0004(r29),r31
    671c:	05 e8 c0 03 	orr     r30,r0,r29
    6720:	f8 ff bd 07 	addi    r29,r29,0xfff8
    6724:	fc ff 9e 34 	sw      0xfffc(r30),r4
    6728:	00 00 80 18 	ori     r4,r0,0x0000
    672c:	f8 ff 9e 34 	sw      0xfff8(r30),r4
    6730:	01 00 80 2c 	ldih    r4,0x0001
    6734:	90 6c 84 18 	ori     r4,r4,0x6c90
    6738:	00 00 84 38 	lb      r4,0x0000(r4)
    673c:	18 00 84 20 	lsli    r4,r4,0x0018
    6740:	18 00 84 24 	lsri    r4,r4,0x0018
    6744:	00 00 a0 18 	ori     r5,r0,0x0000
    6748:	02 28 04 00 	sub     r0,r4,r5
    674c:	04 00 40 40 	bne     0x0000675c
    6750:	14 00 80 18 	ori     r4,r0,0x0014
    6754:	08 21 00 c0 	ajal    0x00008420
    6758:	cc 19 00 80 	ajmp    0x00006730
    675c:	01 00 c0 2c 	ldih    r6,0x0001
    6760:	64 4c c6 18 	ori     r6,r6,0x4c64
    6764:	01 00 80 2c 	ldih    r4,0x0001
    6768:	64 4c 84 18 	ori     r4,r4,0x4c64
    676c:	00 00 a4 30 	lw      r5,0x0000(r4)
    6770:	64 00 80 18 	ori     r4,r0,0x0064
    6774:	0e 20 85 00 	divu    r4,r5,r4
    6778:	00 00 86 34 	sw      0x0000(r6),r4
    677c:	01 00 80 2c 	ldih    r4,0x0001
    6780:	64 4c 84 18 	ori     r4,r4,0x4c64
    6784:	00 00 a4 30 	lw      r5,0x0000(r4)
    6788:	00 00 80 18 	ori     r4,r0,0x0000
    678c:	02 20 05 00 	sub     r0,r5,r4
    6790:	08 00 40 40 	bne     0x000067b0
    6794:	01 00 80 2c 	ldih    r4,0x0001
    6798:	6c 4c 84 18 	ori     r4,r4,0x4c6c
    679c:	00 00 a0 18 	ori     r5,r0,0x0000
    67a0:	00 00 a4 3c 	sb      0x0000(r4),r5
    67a4:	ff ff 80 2c 	ldih    r4,0xffff
    67a8:	ff ff 84 18 	ori     r4,r4,0xffff
    67ac:	84 1f 00 c0 	ajal    0x00007e10
    67b0:	2a 00 00 c0 	ajal    0x000000a8
    67b4:	05 10 80 00 	orr     r4,r0,r2
    67b8:	f8 ff 9e 34 	sw      0xfff8(r30),r4
    67bc:	01 00 c0 2c 	ldih    r6,0x0001
    67c0:	44 33 c6 18 	ori     r6,r6,0x3344
    67c4:	01 00 80 2c 	ldih    r4,0x0001
    67c8:	64 4c 84 18 	ori     r4,r4,0x4c64
    67cc:	00 00 a4 30 	lw      r5,0x0000(r4)
    67d0:	64 00 80 18 	ori     r4,r0,0x0064
    67d4:	0a 20 85 00 	mul     r4,r5,r4
    67d8:	00 00 86 34 	sw      0x0000(r6),r4
    67dc:	f8 ff 9e 30 	lw      r4,0xfff8(r30)
    67e0:	2d 00 00 c0 	ajal    0x000000b4
    67e4:	2a 00 00 c0 	ajal    0x000000a8
    67e8:	05 10 80 00 	orr     r4,r0,r2
    67ec:	f8 ff 9e 34 	sw      0xfff8(r30),r4
    67f0:	01 00 a0 2c 	ldih    r5,0x0001
    67f4:	a0 6d a5 18 	ori     r5,r5,0x6da0
    67f8:	01 00 80 2c 	ldih    r4,0x0001
    67fc:	44 33 84 18 	ori     r4,r4,0x3344
    6800:	00 00 84 30 	lw      r4,0x0000(r4)
    6804:	00 00 85 34 	sw      0x0000(r5),r4
    6808:	01 00 a0 2c 	ldih    r5,0x0001
    680c:	44 33 a5 18 	ori     r5,r5,0x3344
    6810:	00 00 80 18 	ori     r4,r0,0x0000
    6814:	00 00 85 34 	sw      0x0000(r5),r4
    6818:	f8 ff 9e 30 	lw      r4,0xfff8(r30)
    681c:	2d 00 00 c0 	ajal    0x000000b4
    6820:	01 00 e0 2c 	ldih    r7,0x0001
    6824:	6c 4c e7 18 	ori     r7,r7,0x4c6c
    6828:	01 00 80 2c 	ldih    r4,0x0001
    682c:	a0 6d 84 18 	ori     r4,r4,0x6da0
    6830:	01 00 a0 2c 	ldih    r5,0x0001
    6834:	64 4c a5 18 	ori     r5,r5,0x4c64
    6838:	00 00 c4 30 	lw      r6,0x0000(r4)
    683c:	00 00 85 30 	lw      r4,0x0000(r5)
    6840:	0e 20 86 00 	divu    r4,r6,r4
    6844:	05 20 a0 00 	orr     r5,r0,r4
    6848:	64 00 80 18 	ori     r4,r0,0x0064
    684c:	02 28 84 00 	sub     r4,r4,r5
    6850:	00 00 87 3c 	sb      0x0000(r7),r4
    6854:	08 28 00 c0 	ajal    0x0000a020
    6858:	0a 00 80 18 	ori     r4,r0,0x000a
    685c:	08 21 00 c0 	ajal    0x00008420
    6860:	f9 19 00 80 	ajmp    0x000067e4
    6864:	00 00 00 00 	nop
    6868:	00 00 00 00 	nop
    686c:	00 00 00 00 	nop

00006870 <OS_TCBInit>:
    6870:	f8 ff bd 07 	addi    r29,r29,0xfff8
    6874:	00 00 dd 37 	sw      0x0000(r29),r30
    6878:	04 00 fd 37 	sw      0x0004(r29),r31
    687c:	05 e8 c0 03 	orr     r30,r0,r29
    6880:	e0 ff bd 07 	addi    r29,r29,0xffe0
    6884:	ff ff 9e 3c 	sb      0xffff(r30),r4
    6888:	f8 ff be 34 	sw      0xfff8(r30),r5
    688c:	f4 ff de 34 	sw      0xfff4(r30),r6
    6890:	f2 ff fe 68 	sh      0xfff2(r30),r7
    6894:	00 00 80 18 	ori     r4,r0,0x0000
    6898:	e8 ff 9e 34 	sw      0xffe8(r30),r4
    689c:	2a 00 00 c0 	ajal    0x000000a8
    68a0:	05 10 80 00 	orr     r4,r0,r2
    68a4:	e8 ff 9e 34 	sw      0xffe8(r30),r4
    68a8:	01 00 80 2c 	ldih    r4,0x0001
    68ac:	68 4c 84 18 	ori     r4,r4,0x4c68
    68b0:	00 00 84 30 	lw      r4,0x0000(r4)
    68b4:	ec ff 9e 34 	sw      0xffec(r30),r4
    68b8:	ec ff be 30 	lw      r5,0xffec(r30)
    68bc:	00 00 80 18 	ori     r4,r0,0x0000
    68c0:	02 20 05 00 	sub     r0,r5,r4
    68c4:	c2 00 00 40 	beq     0x00006bcc
    68c8:	01 00 a0 2c 	ldih    r5,0x0001
    68cc:	68 4c a5 18 	ori     r5,r5,0x4c68
    68d0:	ec ff 9e 30 	lw      r4,0xffec(r30)
    68d4:	14 00 84 30 	lw      r4,0x0014(r4)
    68d8:	00 00 85 34 	sw      0x0000(r5),r4
    68dc:	e8 ff 9e 30 	lw      r4,0xffe8(r30)
    68e0:	2d 00 00 c0 	ajal    0x000000b4
    68e4:	ec ff be 30 	lw      r5,0xffec(r30)
    68e8:	f8 ff 9e 30 	lw      r4,0xfff8(r30)
    68ec:	00 00 85 34 	sw      0x0000(r5),r4
    68f0:	ec ff 9e 30 	lw      r4,0xffec(r30)
    68f4:	ff ff be 38 	lb      r5,0xffff(r30)
    68f8:	26 00 a4 3c 	sb      0x0026(r4),r5
    68fc:	ec ff 9e 30 	lw      r4,0xffec(r30)
    6900:	00 00 a0 18 	ori     r5,r0,0x0000
    6904:	24 00 a4 3c 	sb      0x0024(r4),r5
    6908:	ec ff 9e 30 	lw      r4,0xffec(r30)
    690c:	00 00 a0 18 	ori     r5,r0,0x0000
    6910:	25 00 a4 3c 	sb      0x0025(r4),r5
    6914:	ec ff be 30 	lw      r5,0xffec(r30)
    6918:	00 00 80 18 	ori     r4,r0,0x0000
    691c:	20 00 85 34 	sw      0x0020(r5),r4
    6920:	ec ff be 30 	lw      r5,0xffec(r30)
    6924:	0c 00 9e 30 	lw      r4,0x000c(r30)
    6928:	04 00 85 34 	sw      0x0004(r5),r4
    692c:	ec ff be 30 	lw      r5,0xffec(r30)
    6930:	08 00 9e 30 	lw      r4,0x0008(r30)
    6934:	0c 00 85 34 	sw      0x000c(r5),r4
    6938:	ec ff be 30 	lw      r5,0xffec(r30)
    693c:	f4 ff 9e 30 	lw      r4,0xfff4(r30)
    6940:	08 00 85 34 	sw      0x0008(r5),r4
    6944:	ec ff 9e 30 	lw      r4,0xffec(r30)
    6948:	10 00 be 64 	lh      r5,0x0010(r30)
    694c:	10 00 a4 68 	sh      0x0010(r4),r5
    6950:	ec ff 9e 30 	lw      r4,0xffec(r30)
    6954:	f2 ff be 64 	lh      r5,0xfff2(r30)
    6958:	12 00 a4 68 	sh      0x0012(r4),r5
    695c:	ec ff 9e 30 	lw      r4,0xffec(r30)
    6960:	00 00 a0 18 	ori     r5,r0,0x0000
    6964:	2b 00 a4 3c 	sb      0x002b(r4),r5
    6968:	ec ff be 30 	lw      r5,0xffec(r30)
    696c:	ff ff 9e 38 	lb      r4,0xffff(r30)
    6970:	18 00 84 20 	lsli    r4,r4,0x0018
    6974:	18 00 84 24 	lsri    r4,r4,0x0018
    6978:	03 00 84 24 	lsri    r4,r4,0x0003
    697c:	28 00 85 3c 	sb      0x0028(r5),r4
    6980:	ec ff be 30 	lw      r5,0xffec(r30)
    6984:	ff ff 9e 38 	lb      r4,0xffff(r30)
    6988:	07 00 84 14 	andi    r4,r4,0x0007
    698c:	27 00 85 3c 	sb      0x0027(r5),r4
    6990:	ec ff de 30 	lw      r6,0xffec(r30)
    6994:	ec ff 9e 30 	lw      r4,0xffec(r30)
    6998:	28 00 84 38 	lb      r4,0x0028(r4)
    699c:	18 00 84 20 	lsli    r4,r4,0x0018
    69a0:	18 00 84 24 	lsri    r4,r4,0x0018
    69a4:	01 00 a0 18 	ori     r5,r0,0x0001
    69a8:	07 20 85 00 	lsl     r4,r5,r4
    69ac:	2a 00 86 3c 	sb      0x002a(r6),r4
    69b0:	ec ff de 30 	lw      r6,0xffec(r30)
    69b4:	ec ff 9e 30 	lw      r4,0xffec(r30)
    69b8:	27 00 84 38 	lb      r4,0x0027(r4)
    69bc:	18 00 84 20 	lsli    r4,r4,0x0018
    69c0:	18 00 84 24 	lsri    r4,r4,0x0018
    69c4:	01 00 a0 18 	ori     r5,r0,0x0001
    69c8:	07 20 85 00 	lsl     r4,r5,r4
    69cc:	29 00 86 3c 	sb      0x0029(r6),r4
    69d0:	ec ff be 30 	lw      r5,0xffec(r30)
    69d4:	00 00 80 18 	ori     r4,r0,0x0000
    69d8:	1c 00 85 34 	sw      0x001c(r5),r4
    69dc:	ec ff be 30 	lw      r5,0xffec(r30)
    69e0:	00 00 80 18 	ori     r4,r0,0x0000
    69e4:	2c 00 85 34 	sw      0x002c(r5),r4
    69e8:	ec ff be 30 	lw      r5,0xffec(r30)
    69ec:	00 00 80 18 	ori     r4,r0,0x0000
    69f0:	34 00 85 34 	sw      0x0034(r5),r4
    69f4:	ec ff be 30 	lw      r5,0xffec(r30)
    69f8:	00 00 80 18 	ori     r4,r0,0x0000
    69fc:	30 00 85 34 	sw      0x0030(r5),r4
    6a00:	ec ff be 30 	lw      r5,0xffec(r30)
    6a04:	00 00 80 18 	ori     r4,r0,0x0000
    6a08:	38 00 85 34 	sw      0x0038(r5),r4
    6a0c:	ec ff be 30 	lw      r5,0xffec(r30)
    6a10:	00 00 80 18 	ori     r4,r0,0x0000
    6a14:	3c 00 85 34 	sw      0x003c(r5),r4
    6a18:	ec ff be 30 	lw      r5,0xffec(r30)
    6a1c:	01 00 80 2c 	ldih    r4,0x0001
    6a20:	30 73 84 18 	ori     r4,r4,0x7330
    6a24:	40 00 85 34 	sw      0x0040(r5),r4
    6a28:	00 00 80 18 	ori     r4,r0,0x0000
    6a2c:	e7 ff 9e 3c 	sb      0xffe7(r30),r4
    6a30:	e7 ff 9e 38 	lb      r4,0xffe7(r30)
    6a34:	18 00 84 20 	lsli    r4,r4,0x0018
    6a38:	18 00 84 24 	lsri    r4,r4,0x0018
    6a3c:	00 00 a0 18 	ori     r5,r0,0x0000
    6a40:	02 28 04 00 	sub     r0,r4,r5
    6a44:	0e 00 40 40 	bne     0x00006a7c
    6a48:	ec ff be 30 	lw      r5,0xffec(r30)
    6a4c:	e7 ff 9e 38 	lb      r4,0xffe7(r30)
    6a50:	18 00 84 20 	lsli    r4,r4,0x0018
    6a54:	18 00 84 24 	lsri    r4,r4,0x0018
    6a58:	02 00 84 20 	lsli    r4,r4,0x0002
    6a5c:	00 28 84 00 	add     r4,r4,r5
    6a60:	44 00 a4 04 	addi    r5,r4,0x0044
    6a64:	00 00 80 18 	ori     r4,r0,0x0000
    6a68:	00 00 85 34 	sw      0x0000(r5),r4
    6a6c:	e7 ff 9e 38 	lb      r4,0xffe7(r30)
    6a70:	01 00 84 04 	addi    r4,r4,0x0001
    6a74:	e7 ff 9e 3c 	sb      0xffe7(r30),r4
    6a78:	8c 1a 00 80 	ajmp    0x00006a30
    6a7c:	ec ff 9e 30 	lw      r4,0xffec(r30)
    6a80:	6c 28 00 c0 	ajal    0x0000a1b0
    6a84:	2a 00 00 c0 	ajal    0x000000a8
    6a88:	05 10 80 00 	orr     r4,r0,r2
    6a8c:	e8 ff 9e 34 	sw      0xffe8(r30),r4
    6a90:	01 00 a0 2c 	ldih    r5,0x0001
    6a94:	a0 6c a5 18 	ori     r5,r5,0x6ca0
    6a98:	ff ff 9e 38 	lb      r4,0xffff(r30)
    6a9c:	18 00 84 20 	lsli    r4,r4,0x0018
    6aa0:	18 00 84 24 	lsri    r4,r4,0x0018
    6aa4:	02 00 84 20 	lsli    r4,r4,0x0002
    6aa8:	00 28 a4 00 	add     r5,r4,r5
    6aac:	ec ff 9e 30 	lw      r4,0xffec(r30)
    6ab0:	00 00 85 34 	sw      0x0000(r5),r4
    6ab4:	e8 ff 9e 30 	lw      r4,0xffe8(r30)
    6ab8:	2d 00 00 c0 	ajal    0x000000b4
    6abc:	ec ff 9e 30 	lw      r4,0xffec(r30)
    6ac0:	c4 27 00 c0 	ajal    0x00009f10
    6ac4:	2a 00 00 c0 	ajal    0x000000a8
    6ac8:	05 10 80 00 	orr     r4,r0,r2
    6acc:	e8 ff 9e 34 	sw      0xffe8(r30),r4
    6ad0:	ec ff be 30 	lw      r5,0xffec(r30)
    6ad4:	01 00 80 2c 	ldih    r4,0x0001
    6ad8:	4c 33 84 18 	ori     r4,r4,0x334c
    6adc:	00 00 84 30 	lw      r4,0x0000(r4)
    6ae0:	14 00 85 34 	sw      0x0014(r5),r4
    6ae4:	ec ff be 30 	lw      r5,0xffec(r30)
    6ae8:	00 00 80 18 	ori     r4,r0,0x0000
    6aec:	18 00 85 34 	sw      0x0018(r5),r4
    6af0:	01 00 80 2c 	ldih    r4,0x0001
    6af4:	4c 33 84 18 	ori     r4,r4,0x334c
    6af8:	00 00 a4 30 	lw      r5,0x0000(r4)
    6afc:	00 00 80 18 	ori     r4,r0,0x0000
    6b00:	02 20 05 00 	sub     r0,r5,r4
    6b04:	06 00 00 40 	beq     0x00006b1c
    6b08:	01 00 80 2c 	ldih    r4,0x0001
    6b0c:	4c 33 84 18 	ori     r4,r4,0x334c
    6b10:	00 00 a4 30 	lw      r5,0x0000(r4)
    6b14:	ec ff 9e 30 	lw      r4,0xffec(r30)
    6b18:	18 00 85 34 	sw      0x0018(r5),r4
    6b1c:	01 00 a0 2c 	ldih    r5,0x0001
    6b20:	4c 33 a5 18 	ori     r5,r5,0x334c
    6b24:	ec ff 9e 30 	lw      r4,0xffec(r30)
    6b28:	00 00 85 34 	sw      0x0000(r5),r4
    6b2c:	01 00 e0 2c 	ldih    r7,0x0001
    6b30:	74 4c e7 18 	ori     r7,r7,0x4c74
    6b34:	ec ff 9e 30 	lw      r4,0xffec(r30)
    6b38:	01 00 a0 2c 	ldih    r5,0x0001
    6b3c:	74 4c a5 18 	ori     r5,r5,0x4c74
    6b40:	2a 00 c4 38 	lb      r6,0x002a(r4)
    6b44:	00 00 85 38 	lb      r4,0x0000(r5)
    6b48:	05 20 86 00 	orr     r4,r6,r4
    6b4c:	00 00 87 3c 	sb      0x0000(r7),r4
    6b50:	01 00 a0 2c 	ldih    r5,0x0001
    6b54:	78 4c a5 18 	ori     r5,r5,0x4c78
    6b58:	ec ff 9e 30 	lw      r4,0xffec(r30)
    6b5c:	28 00 84 38 	lb      r4,0x0028(r4)
    6b60:	18 00 84 20 	lsli    r4,r4,0x0018
    6b64:	18 00 84 24 	lsri    r4,r4,0x0018
    6b68:	00 20 e5 00 	add     r7,r5,r4
    6b6c:	01 00 a0 2c 	ldih    r5,0x0001
    6b70:	78 4c a5 18 	ori     r5,r5,0x4c78
    6b74:	ec ff 9e 30 	lw      r4,0xffec(r30)
    6b78:	28 00 84 38 	lb      r4,0x0028(r4)
    6b7c:	18 00 84 20 	lsli    r4,r4,0x0018
    6b80:	18 00 84 24 	lsri    r4,r4,0x0018
    6b84:	00 20 85 00 	add     r4,r5,r4
    6b88:	ec ff be 30 	lw      r5,0xffec(r30)
    6b8c:	00 00 c4 38 	lb      r6,0x0000(r4)
    6b90:	29 00 85 38 	lb      r4,0x0029(r5)
    6b94:	05 20 86 00 	orr     r4,r6,r4
    6b98:	00 00 87 3c 	sb      0x0000(r7),r4
    6b9c:	01 00 a0 2c 	ldih    r5,0x0001
    6ba0:	6d 4c a5 18 	ori     r5,r5,0x4c6d
    6ba4:	01 00 80 2c 	ldih    r4,0x0001
    6ba8:	6d 4c 84 18 	ori     r4,r4,0x4c6d
    6bac:	00 00 84 38 	lb      r4,0x0000(r4)
    6bb0:	01 00 84 04 	addi    r4,r4,0x0001
    6bb4:	00 00 85 3c 	sb      0x0000(r5),r4
    6bb8:	e8 ff 9e 30 	lw      r4,0xffe8(r30)
    6bbc:	2d 00 00 c0 	ajal    0x000000b4
    6bc0:	00 00 a0 18 	ori     r5,r0,0x0000
    6bc4:	e0 ff be 34 	sw      0xffe0(r30),r5
    6bc8:	f7 1a 00 80 	ajmp    0x00006bdc
    6bcc:	e8 ff 9e 30 	lw      r4,0xffe8(r30)
    6bd0:	2d 00 00 c0 	ajal    0x000000b4
    6bd4:	42 00 80 18 	ori     r4,r0,0x0042
    6bd8:	e0 ff 9e 34 	sw      0xffe0(r30),r4
    6bdc:	e0 ff 5e 30 	lw      r2,0xffe0(r30)
    6be0:	20 00 bd 07 	addi    r29,r29,0x0020
    6be4:	05 f0 a0 03 	orr     r29,r0,r30
    6be8:	08 00 bd 07 	addi    r29,r29,0x0008
    6bec:	fc ff fd 33 	lw      r31,0xfffc(r29)
    6bf0:	f8 ff dd 33 	lw      r30,0xfff8(r29)
    6bf4:	00 00 e0 47 	jmpr    r31
    6bf8:	00 00 00 00 	nop
    6bfc:	00 00 00 00 	nop

00006c00 <OSTaskChangePrio>:
    6c00:	f8 ff bd 07 	addi    r29,r29,0xfff8
    6c04:	00 00 dd 37 	sw      0x0000(r29),r30
    6c08:	04 00 fd 37 	sw      0x0004(r29),r31
    6c0c:	05 e8 c0 03 	orr     r30,r0,r29
    6c10:	e4 ff bd 07 	addi    r29,r29,0xffe4
    6c14:	ff ff 9e 3c 	sb      0xffff(r30),r4
    6c18:	fe ff be 3c 	sb      0xfffe(r30),r5
    6c1c:	00 00 80 18 	ori     r4,r0,0x0000
    6c20:	e8 ff 9e 34 	sw      0xffe8(r30),r4
    6c24:	2a 00 00 c0 	ajal    0x000000a8
    6c28:	05 10 80 00 	orr     r4,r0,r2
    6c2c:	e8 ff 9e 34 	sw      0xffe8(r30),r4
    6c30:	01 00 a0 2c 	ldih    r5,0x0001
    6c34:	a0 6c a5 18 	ori     r5,r5,0x6ca0
    6c38:	fe ff 9e 38 	lb      r4,0xfffe(r30)
    6c3c:	18 00 84 20 	lsli    r4,r4,0x0018
    6c40:	18 00 84 24 	lsri    r4,r4,0x0018
    6c44:	02 00 84 20 	lsli    r4,r4,0x0002
    6c48:	00 28 84 00 	add     r4,r4,r5
    6c4c:	00 00 a4 30 	lw      r5,0x0000(r4)
    6c50:	00 00 80 18 	ori     r4,r0,0x0000
    6c54:	02 20 05 00 	sub     r0,r5,r4
    6c58:	06 00 00 40 	beq     0x00006c70
    6c5c:	e8 ff 9e 30 	lw      r4,0xffe8(r30)
    6c60:	2d 00 00 c0 	ajal    0x000000b4
    6c64:	28 00 80 18 	ori     r4,r0,0x0028
    6c68:	e4 ff 9e 34 	sw      0xffe4(r30),r4
    6c6c:	1b 1c 00 80 	ajmp    0x0000706c
    6c70:	ff ff 9e 38 	lb      r4,0xffff(r30)
    6c74:	18 00 84 20 	lsli    r4,r4,0x0018
    6c78:	18 00 84 24 	lsri    r4,r4,0x0018
    6c7c:	ff 00 a0 18 	ori     r5,r0,0x00ff
    6c80:	02 28 04 00 	sub     r0,r4,r5
    6c84:	06 00 40 40 	bne     0x00006c9c
    6c88:	01 00 80 2c 	ldih    r4,0x0001
    6c8c:	88 4c 84 18 	ori     r4,r4,0x4c88
    6c90:	00 00 84 30 	lw      r4,0x0000(r4)
    6c94:	26 00 84 38 	lb      r4,0x0026(r4)
    6c98:	ff ff 9e 3c 	sb      0xffff(r30),r4
    6c9c:	01 00 a0 2c 	ldih    r5,0x0001
    6ca0:	a0 6c a5 18 	ori     r5,r5,0x6ca0
    6ca4:	ff ff 9e 38 	lb      r4,0xffff(r30)
    6ca8:	18 00 84 20 	lsli    r4,r4,0x0018
    6cac:	18 00 84 24 	lsri    r4,r4,0x0018
    6cb0:	02 00 84 20 	lsli    r4,r4,0x0002
    6cb4:	00 28 84 00 	add     r4,r4,r5
    6cb8:	00 00 84 30 	lw      r4,0x0000(r4)
    6cbc:	f4 ff 9e 34 	sw      0xfff4(r30),r4
    6cc0:	f4 ff be 30 	lw      r5,0xfff4(r30)
    6cc4:	00 00 80 18 	ori     r4,r0,0x0000
    6cc8:	02 20 05 00 	sub     r0,r5,r4
    6ccc:	06 00 40 40 	bne     0x00006ce4
    6cd0:	e8 ff 9e 30 	lw      r4,0xffe8(r30)
    6cd4:	2d 00 00 c0 	ajal    0x000000b4
    6cd8:	29 00 a0 18 	ori     r5,r0,0x0029
    6cdc:	e4 ff be 34 	sw      0xffe4(r30),r5
    6ce0:	1b 1c 00 80 	ajmp    0x0000706c
    6ce4:	f4 ff be 30 	lw      r5,0xfff4(r30)
    6ce8:	01 00 80 18 	ori     r4,r0,0x0001
    6cec:	02 20 05 00 	sub     r0,r5,r4
    6cf0:	06 00 40 40 	bne     0x00006d08
    6cf4:	e8 ff 9e 30 	lw      r4,0xffe8(r30)
    6cf8:	2d 00 00 c0 	ajal    0x000000b4
    6cfc:	43 00 80 18 	ori     r4,r0,0x0043
    6d00:	e4 ff 9e 34 	sw      0xffe4(r30),r4
    6d04:	1b 1c 00 80 	ajmp    0x0000706c
    6d08:	fe ff 9e 38 	lb      r4,0xfffe(r30)
    6d0c:	18 00 84 20 	lsli    r4,r4,0x0018
    6d10:	18 00 84 24 	lsri    r4,r4,0x0018
    6d14:	03 00 84 24 	lsri    r4,r4,0x0003
    6d18:	f3 ff 9e 3c 	sb      0xfff3(r30),r4
    6d1c:	fe ff 9e 38 	lb      r4,0xfffe(r30)
    6d20:	07 00 84 14 	andi    r4,r4,0x0007
    6d24:	f2 ff 9e 3c 	sb      0xfff2(r30),r4
    6d28:	f3 ff 9e 38 	lb      r4,0xfff3(r30)
    6d2c:	18 00 84 20 	lsli    r4,r4,0x0018
    6d30:	18 00 84 24 	lsri    r4,r4,0x0018
    6d34:	01 00 a0 18 	ori     r5,r0,0x0001
    6d38:	07 20 85 00 	lsl     r4,r5,r4
    6d3c:	f0 ff 9e 3c 	sb      0xfff0(r30),r4
    6d40:	f2 ff 9e 38 	lb      r4,0xfff2(r30)
    6d44:	18 00 84 20 	lsli    r4,r4,0x0018
    6d48:	18 00 84 24 	lsri    r4,r4,0x0018
    6d4c:	01 00 a0 18 	ori     r5,r0,0x0001
    6d50:	07 20 85 00 	lsl     r4,r5,r4
    6d54:	ef ff 9e 3c 	sb      0xffef(r30),r4
    6d58:	01 00 a0 2c 	ldih    r5,0x0001
    6d5c:	a0 6c a5 18 	ori     r5,r5,0x6ca0
    6d60:	ff ff 9e 38 	lb      r4,0xffff(r30)
    6d64:	18 00 84 20 	lsli    r4,r4,0x0018
    6d68:	18 00 84 24 	lsri    r4,r4,0x0018
    6d6c:	02 00 84 20 	lsli    r4,r4,0x0002
    6d70:	00 28 a4 00 	add     r5,r4,r5
    6d74:	00 00 80 18 	ori     r4,r0,0x0000
    6d78:	00 00 85 34 	sw      0x0000(r5),r4
    6d7c:	01 00 a0 2c 	ldih    r5,0x0001
    6d80:	a0 6c a5 18 	ori     r5,r5,0x6ca0
    6d84:	fe ff 9e 38 	lb      r4,0xfffe(r30)
    6d88:	18 00 84 20 	lsli    r4,r4,0x0018
    6d8c:	18 00 84 24 	lsri    r4,r4,0x0018
    6d90:	02 00 84 20 	lsli    r4,r4,0x0002
    6d94:	00 28 a4 00 	add     r5,r4,r5
    6d98:	f4 ff 9e 30 	lw      r4,0xfff4(r30)
    6d9c:	00 00 85 34 	sw      0x0000(r5),r4
    6da0:	f4 ff 9e 30 	lw      r4,0xfff4(r30)
    6da4:	28 00 84 38 	lb      r4,0x0028(r4)
    6da8:	f1 ff 9e 3c 	sb      0xfff1(r30),r4
    6dac:	f4 ff 9e 30 	lw      r4,0xfff4(r30)
    6db0:	2a 00 84 38 	lb      r4,0x002a(r4)
    6db4:	ee ff 9e 3c 	sb      0xffee(r30),r4
    6db8:	f4 ff 9e 30 	lw      r4,0xfff4(r30)
    6dbc:	29 00 84 38 	lb      r4,0x0029(r4)
    6dc0:	ed ff 9e 3c 	sb      0xffed(r30),r4
    6dc4:	01 00 a0 2c 	ldih    r5,0x0001
    6dc8:	78 4c a5 18 	ori     r5,r5,0x4c78
    6dcc:	f1 ff 9e 38 	lb      r4,0xfff1(r30)
    6dd0:	18 00 84 20 	lsli    r4,r4,0x0018
    6dd4:	18 00 84 24 	lsri    r4,r4,0x0018
    6dd8:	00 20 85 00 	add     r4,r5,r4
    6ddc:	00 00 a4 38 	lb      r5,0x0000(r4)
    6de0:	ed ff 9e 38 	lb      r4,0xffed(r30)
    6de4:	04 20 85 00 	and     r4,r5,r4
    6de8:	18 00 84 20 	lsli    r4,r4,0x0018
    6dec:	18 00 84 24 	lsri    r4,r4,0x0018
    6df0:	00 00 a0 18 	ori     r5,r0,0x0000
    6df4:	02 28 04 00 	sub     r0,r4,r5
    6df8:	40 00 00 40 	beq     0x00006ef8
    6dfc:	01 00 a0 2c 	ldih    r5,0x0001
    6e00:	78 4c a5 18 	ori     r5,r5,0x4c78
    6e04:	f1 ff 9e 38 	lb      r4,0xfff1(r30)
    6e08:	18 00 84 20 	lsli    r4,r4,0x0018
    6e0c:	18 00 84 24 	lsri    r4,r4,0x0018
    6e10:	00 20 c5 00 	add     r6,r5,r4
    6e14:	01 00 a0 2c 	ldih    r5,0x0001
    6e18:	78 4c a5 18 	ori     r5,r5,0x4c78
    6e1c:	f1 ff 9e 38 	lb      r4,0xfff1(r30)
    6e20:	18 00 84 20 	lsli    r4,r4,0x0018
    6e24:	18 00 84 24 	lsri    r4,r4,0x0018
    6e28:	00 20 a5 00 	add     r5,r5,r4
    6e2c:	ed ff 9e 38 	lb      r4,0xffed(r30)
    6e30:	0c 00 84 6c 	not     r4,r4
    6e34:	00 00 a5 38 	lb      r5,0x0000(r5)
    6e38:	04 20 85 00 	and     r4,r5,r4
    6e3c:	00 00 86 3c 	sb      0x0000(r6),r4
    6e40:	01 00 a0 2c 	ldih    r5,0x0001
    6e44:	78 4c a5 18 	ori     r5,r5,0x4c78
    6e48:	f1 ff 9e 38 	lb      r4,0xfff1(r30)
    6e4c:	18 00 84 20 	lsli    r4,r4,0x0018
    6e50:	18 00 84 24 	lsri    r4,r4,0x0018
    6e54:	00 20 85 00 	add     r4,r5,r4
    6e58:	00 00 84 38 	lb      r4,0x0000(r4)
    6e5c:	18 00 84 20 	lsli    r4,r4,0x0018
    6e60:	18 00 84 24 	lsri    r4,r4,0x0018
    6e64:	00 00 a0 18 	ori     r5,r0,0x0000
    6e68:	02 28 04 00 	sub     r0,r4,r5
    6e6c:	0b 00 40 40 	bne     0x00006e98
    6e70:	01 00 e0 2c 	ldih    r7,0x0001
    6e74:	74 4c e7 18 	ori     r7,r7,0x4c74
    6e78:	ee ff 9e 38 	lb      r4,0xffee(r30)
    6e7c:	0c 00 84 6c 	not     r4,r4
    6e80:	01 00 a0 2c 	ldih    r5,0x0001
    6e84:	74 4c a5 18 	ori     r5,r5,0x4c74
    6e88:	05 20 c0 00 	orr     r6,r0,r4
    6e8c:	00 00 85 38 	lb      r4,0x0000(r5)
    6e90:	04 20 86 00 	and     r4,r6,r4
    6e94:	00 00 87 3c 	sb      0x0000(r7),r4
    6e98:	01 00 c0 2c 	ldih    r6,0x0001
    6e9c:	74 4c c6 18 	ori     r6,r6,0x4c74
    6ea0:	01 00 80 2c 	ldih    r4,0x0001
    6ea4:	74 4c 84 18 	ori     r4,r4,0x4c74
    6ea8:	00 00 a4 38 	lb      r5,0x0000(r4)
    6eac:	f0 ff 9e 38 	lb      r4,0xfff0(r30)
    6eb0:	05 20 85 00 	orr     r4,r5,r4
    6eb4:	00 00 86 3c 	sb      0x0000(r6),r4
    6eb8:	01 00 a0 2c 	ldih    r5,0x0001
    6ebc:	78 4c a5 18 	ori     r5,r5,0x4c78
    6ec0:	f3 ff 9e 38 	lb      r4,0xfff3(r30)
    6ec4:	18 00 84 20 	lsli    r4,r4,0x0018
    6ec8:	18 00 84 24 	lsri    r4,r4,0x0018
    6ecc:	00 20 c5 00 	add     r6,r5,r4
    6ed0:	01 00 a0 2c 	ldih    r5,0x0001
    6ed4:	78 4c a5 18 	ori     r5,r5,0x4c78
    6ed8:	f3 ff 9e 38 	lb      r4,0xfff3(r30)
    6edc:	18 00 84 20 	lsli    r4,r4,0x0018
    6ee0:	18 00 84 24 	lsri    r4,r4,0x0018
    6ee4:	00 20 85 00 	add     r4,r5,r4
    6ee8:	00 00 a4 38 	lb      r5,0x0000(r4)
    6eec:	ef ff 9e 38 	lb      r4,0xffef(r30)
    6ef0:	05 20 85 00 	orr     r4,r5,r4
    6ef4:	00 00 86 3c 	sb      0x0000(r6),r4
    6ef8:	f4 ff 9e 30 	lw      r4,0xfff4(r30)
    6efc:	1c 00 84 30 	lw      r4,0x001c(r4)
    6f00:	f8 ff 9e 34 	sw      0xfff8(r30),r4
    6f04:	f8 ff be 30 	lw      r5,0xfff8(r30)
    6f08:	00 00 80 18 	ori     r4,r0,0x0000
    6f0c:	02 20 05 00 	sub     r0,r5,r4
    6f10:	3b 00 00 40 	beq     0x00006ffc
    6f14:	f8 ff be 30 	lw      r5,0xfff8(r30)
    6f18:	f1 ff 9e 38 	lb      r4,0xfff1(r30)
    6f1c:	18 00 84 20 	lsli    r4,r4,0x0018
    6f20:	18 00 84 24 	lsri    r4,r4,0x0018
    6f24:	00 28 84 00 	add     r4,r4,r5
    6f28:	08 00 c4 04 	addi    r6,r4,0x0008
    6f2c:	f8 ff be 30 	lw      r5,0xfff8(r30)
    6f30:	f1 ff 9e 38 	lb      r4,0xfff1(r30)
    6f34:	18 00 84 20 	lsli    r4,r4,0x0018
    6f38:	18 00 84 24 	lsri    r4,r4,0x0018
    6f3c:	00 28 84 00 	add     r4,r4,r5
    6f40:	08 00 a4 04 	addi    r5,r4,0x0008
    6f44:	ed ff 9e 38 	lb      r4,0xffed(r30)
    6f48:	0c 00 84 6c 	not     r4,r4
    6f4c:	03 00 a5 38 	lb      r5,0x0003(r5)
    6f50:	04 20 85 00 	and     r4,r5,r4
    6f54:	03 00 86 3c 	sb      0x0003(r6),r4
    6f58:	f8 ff be 30 	lw      r5,0xfff8(r30)
    6f5c:	f1 ff 9e 38 	lb      r4,0xfff1(r30)
    6f60:	18 00 84 20 	lsli    r4,r4,0x0018
    6f64:	18 00 84 24 	lsri    r4,r4,0x0018
    6f68:	00 28 84 00 	add     r4,r4,r5
    6f6c:	08 00 84 04 	addi    r4,r4,0x0008
    6f70:	03 00 84 38 	lb      r4,0x0003(r4)
    6f74:	18 00 84 20 	lsli    r4,r4,0x0018
    6f78:	18 00 84 24 	lsri    r4,r4,0x0018
    6f7c:	00 00 a0 18 	ori     r5,r0,0x0000
    6f80:	02 28 04 00 	sub     r0,r4,r5
    6f84:	08 00 40 40 	bne     0x00006fa4
    6f88:	f8 ff de 30 	lw      r6,0xfff8(r30)
    6f8c:	f8 ff be 30 	lw      r5,0xfff8(r30)
    6f90:	ee ff 9e 38 	lb      r4,0xffee(r30)
    6f94:	0c 00 84 6c 	not     r4,r4
    6f98:	0a 00 a5 38 	lb      r5,0x000a(r5)
    6f9c:	04 20 85 00 	and     r4,r5,r4
    6fa0:	0a 00 86 3c 	sb      0x000a(r6),r4
    6fa4:	f8 ff de 30 	lw      r6,0xfff8(r30)
    6fa8:	f8 ff 9e 30 	lw      r4,0xfff8(r30)
    6fac:	0a 00 a4 38 	lb      r5,0x000a(r4)
    6fb0:	f0 ff 9e 38 	lb      r4,0xfff0(r30)
    6fb4:	05 20 85 00 	orr     r4,r5,r4
    6fb8:	0a 00 86 3c 	sb      0x000a(r6),r4
    6fbc:	f8 ff be 30 	lw      r5,0xfff8(r30)
    6fc0:	f3 ff 9e 38 	lb      r4,0xfff3(r30)
    6fc4:	18 00 84 20 	lsli    r4,r4,0x0018
    6fc8:	18 00 84 24 	lsri    r4,r4,0x0018
    6fcc:	00 28 84 00 	add     r4,r4,r5
    6fd0:	08 00 c4 04 	addi    r6,r4,0x0008
    6fd4:	f8 ff be 30 	lw      r5,0xfff8(r30)
    6fd8:	f3 ff 9e 38 	lb      r4,0xfff3(r30)
    6fdc:	18 00 84 20 	lsli    r4,r4,0x0018
    6fe0:	18 00 84 24 	lsri    r4,r4,0x0018
    6fe4:	00 28 84 00 	add     r4,r4,r5
    6fe8:	08 00 84 04 	addi    r4,r4,0x0008
    6fec:	03 00 a4 38 	lb      r5,0x0003(r4)
    6ff0:	ef ff 9e 38 	lb      r4,0xffef(r30)
    6ff4:	05 20 85 00 	orr     r4,r5,r4
    6ff8:	03 00 86 3c 	sb      0x0003(r6),r4
    6ffc:	f4 ff 9e 30 	lw      r4,0xfff4(r30)
    7000:	fe ff be 38 	lb      r5,0xfffe(r30)
    7004:	26 00 a4 3c 	sb      0x0026(r4),r5
    7008:	f4 ff 9e 30 	lw      r4,0xfff4(r30)
    700c:	f3 ff be 38 	lb      r5,0xfff3(r30)
    7010:	28 00 a4 3c 	sb      0x0028(r4),r5
    7014:	f4 ff 9e 30 	lw      r4,0xfff4(r30)
    7018:	f2 ff be 38 	lb      r5,0xfff2(r30)
    701c:	27 00 a4 3c 	sb      0x0027(r4),r5
    7020:	f4 ff 9e 30 	lw      r4,0xfff4(r30)
    7024:	f0 ff be 38 	lb      r5,0xfff0(r30)
    7028:	2a 00 a4 3c 	sb      0x002a(r4),r5
    702c:	f4 ff 9e 30 	lw      r4,0xfff4(r30)
    7030:	ef ff be 38 	lb      r5,0xffef(r30)
    7034:	29 00 a4 3c 	sb      0x0029(r4),r5
    7038:	e8 ff 9e 30 	lw      r4,0xffe8(r30)
    703c:	2d 00 00 c0 	ajal    0x000000b4
    7040:	01 00 80 2c 	ldih    r4,0x0001
    7044:	42 33 84 18 	ori     r4,r4,0x3342
    7048:	00 00 84 38 	lb      r4,0x0000(r4)
    704c:	18 00 84 20 	lsli    r4,r4,0x0018
    7050:	18 00 84 24 	lsri    r4,r4,0x0018
    7054:	01 00 a0 18 	ori     r5,r0,0x0001
    7058:	02 28 04 00 	sub     r0,r4,r5
    705c:	02 00 40 40 	bne     0x00007064
    7060:	10 19 00 c0 	ajal    0x00006440
    7064:	00 00 80 18 	ori     r4,r0,0x0000
    7068:	e4 ff 9e 34 	sw      0xffe4(r30),r4
    706c:	e4 ff 5e 30 	lw      r2,0xffe4(r30)
    7070:	1c 00 bd 07 	addi    r29,r29,0x001c
    7074:	05 f0 a0 03 	orr     r29,r0,r30
    7078:	08 00 bd 07 	addi    r29,r29,0x0008
    707c:	fc ff fd 33 	lw      r31,0xfffc(r29)
    7080:	f8 ff dd 33 	lw      r30,0xfff8(r29)
    7084:	00 00 e0 47 	jmpr    r31
    7088:	00 00 00 00 	nop
    708c:	00 00 00 00 	nop

00007090 <OSTaskCreate>:
    7090:	f8 ff bd 07 	addi    r29,r29,0xfff8
    7094:	00 00 dd 37 	sw      0x0000(r29),r30
    7098:	04 00 fd 37 	sw      0x0004(r29),r31
    709c:	05 e8 c0 03 	orr     r30,r0,r29
    70a0:	d4 ff bd 07 	addi    r29,r29,0xffd4
    70a4:	fc ff 9e 34 	sw      0xfffc(r30),r4
    70a8:	f8 ff be 34 	sw      0xfff8(r30),r5
    70ac:	f4 ff de 34 	sw      0xfff4(r30),r6
    70b0:	f3 ff fe 3c 	sb      0xfff3(r30),r7
    70b4:	00 00 80 18 	ori     r4,r0,0x0000
    70b8:	e4 ff 9e 34 	sw      0xffe4(r30),r4
    70bc:	2a 00 00 c0 	ajal    0x000000a8
    70c0:	05 10 80 00 	orr     r4,r0,r2
    70c4:	e4 ff 9e 34 	sw      0xffe4(r30),r4
    70c8:	01 00 80 2c 	ldih    r4,0x0001
    70cc:	84 4c 84 18 	ori     r4,r4,0x4c84
    70d0:	00 00 84 38 	lb      r4,0x0000(r4)
    70d4:	18 00 84 20 	lsli    r4,r4,0x0018
    70d8:	18 00 84 24 	lsri    r4,r4,0x0018
    70dc:	00 00 a0 18 	ori     r5,r0,0x0000
    70e0:	02 28 04 00 	sub     r0,r4,r5
    70e4:	06 00 00 40 	beq     0x000070fc
    70e8:	e4 ff 9e 30 	lw      r4,0xffe4(r30)
    70ec:	2d 00 00 c0 	ajal    0x000000b4
    70f0:	3c 00 80 18 	ori     r4,r0,0x003c
    70f4:	e0 ff 9e 34 	sw      0xffe0(r30),r4
    70f8:	90 1c 00 80 	ajmp    0x00007240
    70fc:	01 00 a0 2c 	ldih    r5,0x0001
    7100:	a0 6c a5 18 	ori     r5,r5,0x6ca0
    7104:	f3 ff 9e 38 	lb      r4,0xfff3(r30)
    7108:	18 00 84 20 	lsli    r4,r4,0x0018
    710c:	18 00 84 24 	lsri    r4,r4,0x0018
    7110:	02 00 84 20 	lsli    r4,r4,0x0002
    7114:	00 28 84 00 	add     r4,r4,r5
    7118:	00 00 a4 30 	lw      r5,0x0000(r4)
    711c:	00 00 80 18 	ori     r4,r0,0x0000
    7120:	02 20 05 00 	sub     r0,r5,r4
    7124:	43 00 40 40 	bne     0x00007230
    7128:	01 00 a0 2c 	ldih    r5,0x0001
    712c:	a0 6c a5 18 	ori     r5,r5,0x6ca0
    7130:	f3 ff 9e 38 	lb      r4,0xfff3(r30)
    7134:	18 00 84 20 	lsli    r4,r4,0x0018
    7138:	18 00 84 24 	lsri    r4,r4,0x0018
    713c:	02 00 84 20 	lsli    r4,r4,0x0002
    7140:	00 28 a4 00 	add     r5,r4,r5
    7144:	01 00 80 18 	ori     r4,r0,0x0001
    7148:	00 00 85 34 	sw      0x0000(r5),r4
    714c:	e4 ff 9e 30 	lw      r4,0xffe4(r30)
    7150:	2d 00 00 c0 	ajal    0x000000b4
    7154:	fc ff 9e 30 	lw      r4,0xfffc(r30)
    7158:	f8 ff be 30 	lw      r5,0xfff8(r30)
    715c:	f4 ff de 30 	lw      r6,0xfff4(r30)
    7160:	00 00 e0 18 	ori     r7,r0,0x0000
    7164:	14 28 00 c0 	ajal    0x0000a050
    7168:	05 10 80 00 	orr     r4,r0,r2
    716c:	ec ff 9e 34 	sw      0xffec(r30),r4
    7170:	00 00 80 18 	ori     r4,r0,0x0000
    7174:	00 00 9d 34 	sw      0x0000(r29),r4
    7178:	00 00 80 18 	ori     r4,r0,0x0000
    717c:	04 00 9d 34 	sw      0x0004(r29),r4
    7180:	00 00 80 18 	ori     r4,r0,0x0000
    7184:	08 00 9d 68 	sh      0x0008(r29),r4
    7188:	f3 ff 9e 38 	lb      r4,0xfff3(r30)
    718c:	ec ff be 30 	lw      r5,0xffec(r30)
    7190:	00 00 c0 18 	ori     r6,r0,0x0000
    7194:	00 00 e0 18 	ori     r7,r0,0x0000
    7198:	1c 1a 00 c0 	ajal    0x00006870
    719c:	05 10 80 00 	orr     r4,r0,r2
    71a0:	eb ff 9e 3c 	sb      0xffeb(r30),r4
    71a4:	eb ff 9e 38 	lb      r4,0xffeb(r30)
    71a8:	18 00 84 20 	lsli    r4,r4,0x0018
    71ac:	18 00 84 24 	lsri    r4,r4,0x0018
    71b0:	00 00 a0 18 	ori     r5,r0,0x0000
    71b4:	02 28 04 00 	sub     r0,r4,r5
    71b8:	0b 00 40 40 	bne     0x000071e4
    71bc:	01 00 80 2c 	ldih    r4,0x0001
    71c0:	42 33 84 18 	ori     r4,r4,0x3342
    71c4:	00 00 84 38 	lb      r4,0x0000(r4)
    71c8:	18 00 84 20 	lsli    r4,r4,0x0018
    71cc:	18 00 84 24 	lsri    r4,r4,0x0018
    71d0:	01 00 a0 18 	ori     r5,r0,0x0001
    71d4:	02 28 04 00 	sub     r0,r4,r5
    71d8:	11 00 40 40 	bne     0x0000721c
    71dc:	10 19 00 c0 	ajal    0x00006440
    71e0:	87 1c 00 80 	ajmp    0x0000721c
    71e4:	2a 00 00 c0 	ajal    0x000000a8
    71e8:	05 10 80 00 	orr     r4,r0,r2
    71ec:	e4 ff 9e 34 	sw      0xffe4(r30),r4
    71f0:	01 00 a0 2c 	ldih    r5,0x0001
    71f4:	a0 6c a5 18 	ori     r5,r5,0x6ca0
    71f8:	f3 ff 9e 38 	lb      r4,0xfff3(r30)
    71fc:	18 00 84 20 	lsli    r4,r4,0x0018
    7200:	18 00 84 24 	lsri    r4,r4,0x0018
    7204:	02 00 84 20 	lsli    r4,r4,0x0002
    7208:	00 28 a4 00 	add     r5,r4,r5
    720c:	00 00 80 18 	ori     r4,r0,0x0000
    7210:	00 00 85 34 	sw      0x0000(r5),r4
    7214:	e4 ff 9e 30 	lw      r4,0xffe4(r30)
    7218:	2d 00 00 c0 	ajal    0x000000b4
    721c:	eb ff 9e 38 	lb      r4,0xffeb(r30)
    7220:	18 00 84 20 	lsli    r4,r4,0x0018
    7224:	18 00 84 24 	lsri    r4,r4,0x0018
    7228:	e0 ff 9e 34 	sw      0xffe0(r30),r4
    722c:	90 1c 00 80 	ajmp    0x00007240
    7230:	e4 ff 9e 30 	lw      r4,0xffe4(r30)
    7234:	2d 00 00 c0 	ajal    0x000000b4
    7238:	28 00 80 18 	ori     r4,r0,0x0028
    723c:	e0 ff 9e 34 	sw      0xffe0(r30),r4
    7240:	e0 ff 5e 30 	lw      r2,0xffe0(r30)
    7244:	2c 00 bd 07 	addi    r29,r29,0x002c
    7248:	05 f0 a0 03 	orr     r29,r0,r30
    724c:	08 00 bd 07 	addi    r29,r29,0x0008
    7250:	fc ff fd 33 	lw      r31,0xfffc(r29)
    7254:	f8 ff dd 33 	lw      r30,0xfff8(r29)
    7258:	00 00 e0 47 	jmpr    r31
    725c:	00 00 00 00 	nop

00007260 <OSTaskCreateExt>:
    7260:	f8 ff bd 07 	addi    r29,r29,0xfff8
    7264:	00 00 dd 37 	sw      0x0000(r29),r30
    7268:	04 00 fd 37 	sw      0x0004(r29),r31
    726c:	05 e8 c0 03 	orr     r30,r0,r29
    7270:	d4 ff bd 07 	addi    r29,r29,0xffd4
    7274:	fc ff 9e 34 	sw      0xfffc(r30),r4
    7278:	f8 ff be 34 	sw      0xfff8(r30),r5
    727c:	f4 ff de 34 	sw      0xfff4(r30),r6
    7280:	f3 ff fe 3c 	sb      0xfff3(r30),r7
    7284:	00 00 80 18 	ori     r4,r0,0x0000
    7288:	e4 ff 9e 34 	sw      0xffe4(r30),r4
    728c:	2a 00 00 c0 	ajal    0x000000a8
    7290:	05 10 80 00 	orr     r4,r0,r2
    7294:	e4 ff 9e 34 	sw      0xffe4(r30),r4
    7298:	01 00 80 2c 	ldih    r4,0x0001
    729c:	84 4c 84 18 	ori     r4,r4,0x4c84
    72a0:	00 00 84 38 	lb      r4,0x0000(r4)
    72a4:	18 00 84 20 	lsli    r4,r4,0x0018
    72a8:	18 00 84 24 	lsri    r4,r4,0x0018
    72ac:	00 00 a0 18 	ori     r5,r0,0x0000
    72b0:	02 28 04 00 	sub     r0,r4,r5
    72b4:	06 00 00 40 	beq     0x000072cc
    72b8:	e4 ff 9e 30 	lw      r4,0xffe4(r30)
    72bc:	2d 00 00 c0 	ajal    0x000000b4
    72c0:	3c 00 80 18 	ori     r4,r0,0x003c
    72c4:	e0 ff 9e 34 	sw      0xffe0(r30),r4
    72c8:	04 1d 00 80 	ajmp    0x00007410
    72cc:	01 00 a0 2c 	ldih    r5,0x0001
    72d0:	a0 6c a5 18 	ori     r5,r5,0x6ca0
    72d4:	f3 ff 9e 38 	lb      r4,0xfff3(r30)
    72d8:	18 00 84 20 	lsli    r4,r4,0x0018
    72dc:	18 00 84 24 	lsri    r4,r4,0x0018
    72e0:	02 00 84 20 	lsli    r4,r4,0x0002
    72e4:	00 28 84 00 	add     r4,r4,r5
    72e8:	00 00 a4 30 	lw      r5,0x0000(r4)
    72ec:	00 00 80 18 	ori     r4,r0,0x0000
    72f0:	02 20 05 00 	sub     r0,r5,r4
    72f4:	43 00 40 40 	bne     0x00007400
    72f8:	01 00 a0 2c 	ldih    r5,0x0001
    72fc:	a0 6c a5 18 	ori     r5,r5,0x6ca0
    7300:	f3 ff 9e 38 	lb      r4,0xfff3(r30)
    7304:	18 00 84 20 	lsli    r4,r4,0x0018
    7308:	18 00 84 24 	lsri    r4,r4,0x0018
    730c:	02 00 84 20 	lsli    r4,r4,0x0002
    7310:	00 28 a4 00 	add     r5,r4,r5
    7314:	01 00 80 18 	ori     r4,r0,0x0001
    7318:	00 00 85 34 	sw      0x0000(r5),r4
    731c:	e4 ff 9e 30 	lw      r4,0xffe4(r30)
    7320:	2d 00 00 c0 	ajal    0x000000b4
    7324:	fc ff 9e 30 	lw      r4,0xfffc(r30)
    7328:	f8 ff be 30 	lw      r5,0xfff8(r30)
    732c:	f4 ff de 30 	lw      r6,0xfff4(r30)
    7330:	18 00 fe 64 	lh      r7,0x0018(r30)
    7334:	14 28 00 c0 	ajal    0x0000a050
    7338:	05 10 80 00 	orr     r4,r0,r2
    733c:	ec ff 9e 34 	sw      0xffec(r30),r4
    7340:	10 00 9e 30 	lw      r4,0x0010(r30)
    7344:	00 00 9d 34 	sw      0x0000(r29),r4
    7348:	14 00 9e 30 	lw      r4,0x0014(r30)
    734c:	04 00 9d 34 	sw      0x0004(r29),r4
    7350:	18 00 9e 64 	lh      r4,0x0018(r30)
    7354:	08 00 9d 68 	sh      0x0008(r29),r4
    7358:	f3 ff 9e 38 	lb      r4,0xfff3(r30)
    735c:	ec ff be 30 	lw      r5,0xffec(r30)
    7360:	0c 00 de 30 	lw      r6,0x000c(r30)
    7364:	08 00 fe 64 	lh      r7,0x0008(r30)
    7368:	1c 1a 00 c0 	ajal    0x00006870
    736c:	05 10 80 00 	orr     r4,r0,r2
    7370:	eb ff 9e 3c 	sb      0xffeb(r30),r4
    7374:	eb ff 9e 38 	lb      r4,0xffeb(r30)
    7378:	18 00 84 20 	lsli    r4,r4,0x0018
    737c:	18 00 84 24 	lsri    r4,r4,0x0018
    7380:	00 00 a0 18 	ori     r5,r0,0x0000
    7384:	02 28 04 00 	sub     r0,r4,r5
    7388:	0b 00 40 40 	bne     0x000073b4
    738c:	01 00 80 2c 	ldih    r4,0x0001
    7390:	42 33 84 18 	ori     r4,r4,0x3342
    7394:	00 00 84 38 	lb      r4,0x0000(r4)
    7398:	18 00 84 20 	lsli    r4,r4,0x0018
    739c:	18 00 84 24 	lsri    r4,r4,0x0018
    73a0:	01 00 a0 18 	ori     r5,r0,0x0001
    73a4:	02 28 04 00 	sub     r0,r4,r5
    73a8:	11 00 40 40 	bne     0x000073ec
    73ac:	10 19 00 c0 	ajal    0x00006440
    73b0:	fb 1c 00 80 	ajmp    0x000073ec
    73b4:	2a 00 00 c0 	ajal    0x000000a8
    73b8:	05 10 80 00 	orr     r4,r0,r2
    73bc:	e4 ff 9e 34 	sw      0xffe4(r30),r4
    73c0:	01 00 a0 2c 	ldih    r5,0x0001
    73c4:	a0 6c a5 18 	ori     r5,r5,0x6ca0
    73c8:	f3 ff 9e 38 	lb      r4,0xfff3(r30)
    73cc:	18 00 84 20 	lsli    r4,r4,0x0018
    73d0:	18 00 84 24 	lsri    r4,r4,0x0018
    73d4:	02 00 84 20 	lsli    r4,r4,0x0002
    73d8:	00 28 a4 00 	add     r5,r4,r5
    73dc:	00 00 80 18 	ori     r4,r0,0x0000
    73e0:	00 00 85 34 	sw      0x0000(r5),r4
    73e4:	e4 ff 9e 30 	lw      r4,0xffe4(r30)
    73e8:	2d 00 00 c0 	ajal    0x000000b4
    73ec:	eb ff 9e 38 	lb      r4,0xffeb(r30)
    73f0:	18 00 84 20 	lsli    r4,r4,0x0018
    73f4:	18 00 84 24 	lsri    r4,r4,0x0018
    73f8:	e0 ff 9e 34 	sw      0xffe0(r30),r4
    73fc:	04 1d 00 80 	ajmp    0x00007410
    7400:	e4 ff 9e 30 	lw      r4,0xffe4(r30)
    7404:	2d 00 00 c0 	ajal    0x000000b4
    7408:	28 00 80 18 	ori     r4,r0,0x0028
    740c:	e0 ff 9e 34 	sw      0xffe0(r30),r4
    7410:	e0 ff 5e 30 	lw      r2,0xffe0(r30)
    7414:	2c 00 bd 07 	addi    r29,r29,0x002c
    7418:	05 f0 a0 03 	orr     r29,r0,r30
    741c:	08 00 bd 07 	addi    r29,r29,0x0008
    7420:	fc ff fd 33 	lw      r31,0xfffc(r29)
    7424:	f8 ff dd 33 	lw      r30,0xfff8(r29)
    7428:	00 00 e0 47 	jmpr    r31
    742c:	00 00 00 00 	nop

00007430 <OSTaskDel>:
    7430:	f8 ff bd 07 	addi    r29,r29,0xfff8
    7434:	00 00 dd 37 	sw      0x0000(r29),r30
    7438:	04 00 fd 37 	sw      0x0004(r29),r31
    743c:	05 e8 c0 03 	orr     r30,r0,r29
    7440:	f0 ff bd 07 	addi    r29,r29,0xfff0
    7444:	ff ff 9e 3c 	sb      0xffff(r30),r4
    7448:	00 00 80 18 	ori     r4,r0,0x0000
    744c:	f4 ff 9e 34 	sw      0xfff4(r30),r4
    7450:	01 00 80 2c 	ldih    r4,0x0001
    7454:	84 4c 84 18 	ori     r4,r4,0x4c84
    7458:	00 00 84 38 	lb      r4,0x0000(r4)
    745c:	18 00 84 20 	lsli    r4,r4,0x0018
    7460:	18 00 84 24 	lsri    r4,r4,0x0018
    7464:	00 00 a0 18 	ori     r5,r0,0x0000
    7468:	02 28 04 00 	sub     r0,r4,r5
    746c:	04 00 00 40 	beq     0x0000747c
    7470:	40 00 80 18 	ori     r4,r0,0x0040
    7474:	f0 ff 9e 34 	sw      0xfff0(r30),r4
    7478:	f8 1d 00 80 	ajmp    0x000077e0
    747c:	ff ff 9e 38 	lb      r4,0xffff(r30)
    7480:	18 00 84 20 	lsli    r4,r4,0x0018
    7484:	18 00 84 24 	lsri    r4,r4,0x0018
    7488:	3f 00 a0 18 	ori     r5,r0,0x003f
    748c:	02 28 04 00 	sub     r0,r4,r5
    7490:	04 00 40 40 	bne     0x000074a0
    7494:	3e 00 a0 18 	ori     r5,r0,0x003e
    7498:	f0 ff be 34 	sw      0xfff0(r30),r5
    749c:	f8 1d 00 80 	ajmp    0x000077e0
    74a0:	2a 00 00 c0 	ajal    0x000000a8
    74a4:	05 10 80 00 	orr     r4,r0,r2
    74a8:	f4 ff 9e 34 	sw      0xfff4(r30),r4
    74ac:	ff ff 9e 38 	lb      r4,0xffff(r30)
    74b0:	18 00 84 20 	lsli    r4,r4,0x0018
    74b4:	18 00 84 24 	lsri    r4,r4,0x0018
    74b8:	ff 00 a0 18 	ori     r5,r0,0x00ff
    74bc:	02 28 04 00 	sub     r0,r4,r5
    74c0:	06 00 40 40 	bne     0x000074d8
    74c4:	01 00 80 2c 	ldih    r4,0x0001
    74c8:	88 4c 84 18 	ori     r4,r4,0x4c88
    74cc:	00 00 84 30 	lw      r4,0x0000(r4)
    74d0:	26 00 84 38 	lb      r4,0x0026(r4)
    74d4:	ff ff 9e 3c 	sb      0xffff(r30),r4
    74d8:	01 00 a0 2c 	ldih    r5,0x0001
    74dc:	a0 6c a5 18 	ori     r5,r5,0x6ca0
    74e0:	ff ff 9e 38 	lb      r4,0xffff(r30)
    74e4:	18 00 84 20 	lsli    r4,r4,0x0018
    74e8:	18 00 84 24 	lsri    r4,r4,0x0018
    74ec:	02 00 84 20 	lsli    r4,r4,0x0002
    74f0:	00 28 84 00 	add     r4,r4,r5
    74f4:	00 00 84 30 	lw      r4,0x0000(r4)
    74f8:	f8 ff 9e 34 	sw      0xfff8(r30),r4
    74fc:	f8 ff be 30 	lw      r5,0xfff8(r30)
    7500:	00 00 80 18 	ori     r4,r0,0x0000
    7504:	02 20 05 00 	sub     r0,r5,r4
    7508:	06 00 40 40 	bne     0x00007520
    750c:	f4 ff 9e 30 	lw      r4,0xfff4(r30)
    7510:	2d 00 00 c0 	ajal    0x000000b4
    7514:	43 00 80 18 	ori     r4,r0,0x0043
    7518:	f0 ff 9e 34 	sw      0xfff0(r30),r4
    751c:	f8 1d 00 80 	ajmp    0x000077e0
    7520:	f8 ff be 30 	lw      r5,0xfff8(r30)
    7524:	01 00 80 18 	ori     r4,r0,0x0001
    7528:	02 20 05 00 	sub     r0,r5,r4
    752c:	06 00 40 40 	bne     0x00007544
    7530:	f4 ff 9e 30 	lw      r4,0xfff4(r30)
    7534:	2d 00 00 c0 	ajal    0x000000b4
    7538:	3d 00 a0 18 	ori     r5,r0,0x003d
    753c:	f0 ff be 34 	sw      0xfff0(r30),r5
    7540:	f8 1d 00 80 	ajmp    0x000077e0
    7544:	01 00 a0 2c 	ldih    r5,0x0001
    7548:	78 4c a5 18 	ori     r5,r5,0x4c78
    754c:	f8 ff 9e 30 	lw      r4,0xfff8(r30)
    7550:	28 00 84 38 	lb      r4,0x0028(r4)
    7554:	18 00 84 20 	lsli    r4,r4,0x0018
    7558:	18 00 84 24 	lsri    r4,r4,0x0018
    755c:	00 20 c5 00 	add     r6,r5,r4
    7560:	01 00 a0 2c 	ldih    r5,0x0001
    7564:	78 4c a5 18 	ori     r5,r5,0x4c78
    7568:	f8 ff 9e 30 	lw      r4,0xfff8(r30)
    756c:	28 00 84 38 	lb      r4,0x0028(r4)
    7570:	18 00 84 20 	lsli    r4,r4,0x0018
    7574:	18 00 84 24 	lsri    r4,r4,0x0018
    7578:	00 20 a5 00 	add     r5,r5,r4
    757c:	f8 ff 9e 30 	lw      r4,0xfff8(r30)
    7580:	29 00 84 38 	lb      r4,0x0029(r4)
    7584:	0c 00 84 6c 	not     r4,r4
    7588:	00 00 a5 38 	lb      r5,0x0000(r5)
    758c:	04 20 85 00 	and     r4,r5,r4
    7590:	00 00 86 3c 	sb      0x0000(r6),r4
    7594:	01 00 a0 2c 	ldih    r5,0x0001
    7598:	78 4c a5 18 	ori     r5,r5,0x4c78
    759c:	f8 ff 9e 30 	lw      r4,0xfff8(r30)
    75a0:	28 00 84 38 	lb      r4,0x0028(r4)
    75a4:	18 00 84 20 	lsli    r4,r4,0x0018
    75a8:	18 00 84 24 	lsri    r4,r4,0x0018
    75ac:	00 20 85 00 	add     r4,r5,r4
    75b0:	00 00 84 38 	lb      r4,0x0000(r4)
    75b4:	18 00 84 20 	lsli    r4,r4,0x0018
    75b8:	18 00 84 24 	lsri    r4,r4,0x0018
    75bc:	00 00 a0 18 	ori     r5,r0,0x0000
    75c0:	02 28 04 00 	sub     r0,r4,r5
    75c4:	0c 00 40 40 	bne     0x000075f4
    75c8:	01 00 e0 2c 	ldih    r7,0x0001
    75cc:	74 4c e7 18 	ori     r7,r7,0x4c74
    75d0:	f8 ff 9e 30 	lw      r4,0xfff8(r30)
    75d4:	2a 00 84 38 	lb      r4,0x002a(r4)
    75d8:	0c 00 84 6c 	not     r4,r4
    75dc:	01 00 a0 2c 	ldih    r5,0x0001
    75e0:	74 4c a5 18 	ori     r5,r5,0x4c74
    75e4:	05 20 c0 00 	orr     r6,r0,r4
    75e8:	00 00 85 38 	lb      r4,0x0000(r5)
    75ec:	04 20 86 00 	and     r4,r6,r4
    75f0:	00 00 87 3c 	sb      0x0000(r7),r4
    75f4:	f8 ff 9e 30 	lw      r4,0xfff8(r30)
    75f8:	1c 00 a4 30 	lw      r5,0x001c(r4)
    75fc:	00 00 80 18 	ori     r4,r0,0x0000
    7600:	02 20 05 00 	sub     r0,r5,r4
    7604:	05 00 00 40 	beq     0x00007618
    7608:	f8 ff be 30 	lw      r5,0xfff8(r30)
    760c:	f8 ff 9e 30 	lw      r4,0xfff8(r30)
    7610:	1c 00 a5 30 	lw      r5,0x001c(r5)
    7614:	1c 17 00 c0 	ajal    0x00005c70
    7618:	f8 ff be 30 	lw      r5,0xfff8(r30)
    761c:	00 00 80 18 	ori     r4,r0,0x0000
    7620:	20 00 85 34 	sw      0x0020(r5),r4
    7624:	f8 ff 9e 30 	lw      r4,0xfff8(r30)
    7628:	00 00 a0 18 	ori     r5,r0,0x0000
    762c:	24 00 a4 3c 	sb      0x0024(r4),r5
    7630:	f8 ff 9e 30 	lw      r4,0xfff8(r30)
    7634:	00 00 a0 18 	ori     r5,r0,0x0000
    7638:	25 00 a4 3c 	sb      0x0025(r4),r5
    763c:	01 00 80 2c 	ldih    r4,0x0001
    7640:	40 33 84 18 	ori     r4,r4,0x3340
    7644:	00 00 84 38 	lb      r4,0x0000(r4)
    7648:	18 00 84 20 	lsli    r4,r4,0x0018
    764c:	18 00 84 24 	lsri    r4,r4,0x0018
    7650:	ff 00 a0 18 	ori     r5,r0,0x00ff
    7654:	02 28 04 00 	sub     r0,r4,r5
    7658:	08 00 00 40 	beq     0x00007678
    765c:	01 00 a0 2c 	ldih    r5,0x0001
    7660:	40 33 a5 18 	ori     r5,r5,0x3340
    7664:	01 00 80 2c 	ldih    r4,0x0001
    7668:	40 33 84 18 	ori     r4,r4,0x3340
    766c:	00 00 84 38 	lb      r4,0x0000(r4)
    7670:	01 00 84 04 	addi    r4,r4,0x0001
    7674:	00 00 85 3c 	sb      0x0000(r5),r4
    7678:	f4 ff 9e 30 	lw      r4,0xfff4(r30)
    767c:	2d 00 00 c0 	ajal    0x000000b4
    7680:	40 16 00 c0 	ajal    0x00005900
    7684:	2a 00 00 c0 	ajal    0x000000a8
    7688:	05 10 80 00 	orr     r4,r0,r2
    768c:	f4 ff 9e 34 	sw      0xfff4(r30),r4
    7690:	01 00 80 2c 	ldih    r4,0x0001
    7694:	40 33 84 18 	ori     r4,r4,0x3340
    7698:	00 00 84 38 	lb      r4,0x0000(r4)
    769c:	18 00 84 20 	lsli    r4,r4,0x0018
    76a0:	18 00 84 24 	lsri    r4,r4,0x0018
    76a4:	00 00 a0 18 	ori     r5,r0,0x0000
    76a8:	02 28 04 00 	sub     r0,r4,r5
    76ac:	08 00 00 40 	beq     0x000076cc
    76b0:	01 00 a0 2c 	ldih    r5,0x0001
    76b4:	40 33 a5 18 	ori     r5,r5,0x3340
    76b8:	01 00 80 2c 	ldih    r4,0x0001
    76bc:	40 33 84 18 	ori     r4,r4,0x3340
    76c0:	00 00 84 38 	lb      r4,0x0000(r4)
    76c4:	ff ff 84 04 	addi    r4,r4,0xffff
    76c8:	00 00 85 3c 	sb      0x0000(r5),r4
    76cc:	f8 ff 9e 30 	lw      r4,0xfff8(r30)
    76d0:	d4 27 00 c0 	ajal    0x00009f50
    76d4:	01 00 a0 2c 	ldih    r5,0x0001
    76d8:	6d 4c a5 18 	ori     r5,r5,0x4c6d
    76dc:	01 00 80 2c 	ldih    r4,0x0001
    76e0:	6d 4c 84 18 	ori     r4,r4,0x4c6d
    76e4:	00 00 84 38 	lb      r4,0x0000(r4)
    76e8:	ff ff 84 04 	addi    r4,r4,0xffff
    76ec:	00 00 85 3c 	sb      0x0000(r5),r4
    76f0:	01 00 a0 2c 	ldih    r5,0x0001
    76f4:	a0 6c a5 18 	ori     r5,r5,0x6ca0
    76f8:	ff ff 9e 38 	lb      r4,0xffff(r30)
    76fc:	18 00 84 20 	lsli    r4,r4,0x0018
    7700:	18 00 84 24 	lsri    r4,r4,0x0018
    7704:	02 00 84 20 	lsli    r4,r4,0x0002
    7708:	00 28 a4 00 	add     r5,r4,r5
    770c:	00 00 80 18 	ori     r4,r0,0x0000
    7710:	00 00 85 34 	sw      0x0000(r5),r4
    7714:	f8 ff 9e 30 	lw      r4,0xfff8(r30)
    7718:	18 00 a4 30 	lw      r5,0x0018(r4)
    771c:	00 00 80 18 	ori     r4,r0,0x0000
    7720:	02 20 05 00 	sub     r0,r5,r4
    7724:	0b 00 40 40 	bne     0x00007750
    7728:	f8 ff 9e 30 	lw      r4,0xfff8(r30)
    772c:	14 00 a4 30 	lw      r5,0x0014(r4)
    7730:	00 00 80 18 	ori     r4,r0,0x0000
    7734:	18 00 85 34 	sw      0x0018(r5),r4
    7738:	01 00 a0 2c 	ldih    r5,0x0001
    773c:	4c 33 a5 18 	ori     r5,r5,0x334c
    7740:	f8 ff 9e 30 	lw      r4,0xfff8(r30)
    7744:	14 00 84 30 	lw      r4,0x0014(r4)
    7748:	00 00 85 34 	sw      0x0000(r5),r4
    774c:	de 1d 00 80 	ajmp    0x00007778
    7750:	f8 ff 9e 30 	lw      r4,0xfff8(r30)
    7754:	18 00 a4 30 	lw      r5,0x0018(r4)
    7758:	f8 ff 9e 30 	lw      r4,0xfff8(r30)
    775c:	14 00 84 30 	lw      r4,0x0014(r4)
    7760:	14 00 85 34 	sw      0x0014(r5),r4
    7764:	f8 ff 9e 30 	lw      r4,0xfff8(r30)
    7768:	14 00 a4 30 	lw      r5,0x0014(r4)
    776c:	f8 ff 9e 30 	lw      r4,0xfff8(r30)
    7770:	18 00 84 30 	lw      r4,0x0018(r4)
    7774:	18 00 85 34 	sw      0x0018(r5),r4
    7778:	f8 ff be 30 	lw      r5,0xfff8(r30)
    777c:	01 00 80 2c 	ldih    r4,0x0001
    7780:	68 4c 84 18 	ori     r4,r4,0x4c68
    7784:	00 00 84 30 	lw      r4,0x0000(r4)
    7788:	14 00 85 34 	sw      0x0014(r5),r4
    778c:	01 00 a0 2c 	ldih    r5,0x0001
    7790:	68 4c a5 18 	ori     r5,r5,0x4c68
    7794:	f8 ff 9e 30 	lw      r4,0xfff8(r30)
    7798:	00 00 85 34 	sw      0x0000(r5),r4
    779c:	f8 ff be 30 	lw      r5,0xfff8(r30)
    77a0:	01 00 80 2c 	ldih    r4,0x0001
    77a4:	32 73 84 18 	ori     r4,r4,0x7332
    77a8:	40 00 85 34 	sw      0x0040(r5),r4
    77ac:	f4 ff 9e 30 	lw      r4,0xfff4(r30)
    77b0:	2d 00 00 c0 	ajal    0x000000b4
    77b4:	01 00 80 2c 	ldih    r4,0x0001
    77b8:	42 33 84 18 	ori     r4,r4,0x3342
    77bc:	00 00 84 38 	lb      r4,0x0000(r4)
    77c0:	18 00 84 20 	lsli    r4,r4,0x0018
    77c4:	18 00 84 24 	lsri    r4,r4,0x0018
    77c8:	01 00 a0 18 	ori     r5,r0,0x0001
    77cc:	02 28 04 00 	sub     r0,r4,r5
    77d0:	02 00 40 40 	bne     0x000077d8
    77d4:	10 19 00 c0 	ajal    0x00006440
    77d8:	00 00 80 18 	ori     r4,r0,0x0000
    77dc:	f0 ff 9e 34 	sw      0xfff0(r30),r4
    77e0:	f0 ff 5e 30 	lw      r2,0xfff0(r30)
    77e4:	10 00 bd 07 	addi    r29,r29,0x0010
    77e8:	05 f0 a0 03 	orr     r29,r0,r30
    77ec:	08 00 bd 07 	addi    r29,r29,0x0008
    77f0:	fc ff fd 33 	lw      r31,0xfffc(r29)
    77f4:	f8 ff dd 33 	lw      r30,0xfff8(r29)
    77f8:	00 00 e0 47 	jmpr    r31
    77fc:	00 00 00 00 	nop

00007800 <OSTaskDelReq>:
    7800:	f8 ff bd 07 	addi    r29,r29,0xfff8
    7804:	00 00 dd 37 	sw      0x0000(r29),r30
    7808:	04 00 fd 37 	sw      0x0004(r29),r31
    780c:	05 e8 c0 03 	orr     r30,r0,r29
    7810:	f0 ff bd 07 	addi    r29,r29,0xfff0
    7814:	ff ff 9e 3c 	sb      0xffff(r30),r4
    7818:	00 00 80 18 	ori     r4,r0,0x0000
    781c:	f4 ff 9e 34 	sw      0xfff4(r30),r4
    7820:	ff ff 9e 38 	lb      r4,0xffff(r30)
    7824:	18 00 84 20 	lsli    r4,r4,0x0018
    7828:	18 00 84 24 	lsri    r4,r4,0x0018
    782c:	3f 00 a0 18 	ori     r5,r0,0x003f
    7830:	02 28 04 00 	sub     r0,r4,r5
    7834:	04 00 40 40 	bne     0x00007844
    7838:	3e 00 80 18 	ori     r4,r0,0x003e
    783c:	f0 ff 9e 34 	sw      0xfff0(r30),r4
    7840:	4b 1e 00 80 	ajmp    0x0000792c
    7844:	ff ff 9e 38 	lb      r4,0xffff(r30)
    7848:	18 00 84 20 	lsli    r4,r4,0x0018
    784c:	18 00 84 24 	lsri    r4,r4,0x0018
    7850:	ff 00 a0 18 	ori     r5,r0,0x00ff
    7854:	02 28 04 00 	sub     r0,r4,r5
    7858:	10 00 40 40 	bne     0x00007898
    785c:	2a 00 00 c0 	ajal    0x000000a8
    7860:	05 10 80 00 	orr     r4,r0,r2
    7864:	f4 ff 9e 34 	sw      0xfff4(r30),r4
    7868:	01 00 80 2c 	ldih    r4,0x0001
    786c:	88 4c 84 18 	ori     r4,r4,0x4c88
    7870:	00 00 84 30 	lw      r4,0x0000(r4)
    7874:	2b 00 84 38 	lb      r4,0x002b(r4)
    7878:	fe ff 9e 3c 	sb      0xfffe(r30),r4
    787c:	f4 ff 9e 30 	lw      r4,0xfff4(r30)
    7880:	2d 00 00 c0 	ajal    0x000000b4
    7884:	fe ff 9e 38 	lb      r4,0xfffe(r30)
    7888:	18 00 84 20 	lsli    r4,r4,0x0018
    788c:	18 00 84 24 	lsri    r4,r4,0x0018
    7890:	f0 ff 9e 34 	sw      0xfff0(r30),r4
    7894:	4b 1e 00 80 	ajmp    0x0000792c
    7898:	2a 00 00 c0 	ajal    0x000000a8
    789c:	05 10 80 00 	orr     r4,r0,r2
    78a0:	f4 ff 9e 34 	sw      0xfff4(r30),r4
    78a4:	01 00 a0 2c 	ldih    r5,0x0001
    78a8:	a0 6c a5 18 	ori     r5,r5,0x6ca0
    78ac:	ff ff 9e 38 	lb      r4,0xffff(r30)
    78b0:	18 00 84 20 	lsli    r4,r4,0x0018
    78b4:	18 00 84 24 	lsri    r4,r4,0x0018
    78b8:	02 00 84 20 	lsli    r4,r4,0x0002
    78bc:	00 28 84 00 	add     r4,r4,r5
    78c0:	00 00 84 30 	lw      r4,0x0000(r4)
    78c4:	f8 ff 9e 34 	sw      0xfff8(r30),r4
    78c8:	f8 ff be 30 	lw      r5,0xfff8(r30)
    78cc:	00 00 80 18 	ori     r4,r0,0x0000
    78d0:	02 20 05 00 	sub     r0,r5,r4
    78d4:	06 00 40 40 	bne     0x000078ec
    78d8:	f4 ff 9e 30 	lw      r4,0xfff4(r30)
    78dc:	2d 00 00 c0 	ajal    0x000000b4
    78e0:	43 00 a0 18 	ori     r5,r0,0x0043
    78e4:	f0 ff be 34 	sw      0xfff0(r30),r5
    78e8:	4b 1e 00 80 	ajmp    0x0000792c
    78ec:	f8 ff be 30 	lw      r5,0xfff8(r30)
    78f0:	01 00 80 18 	ori     r4,r0,0x0001
    78f4:	02 20 05 00 	sub     r0,r5,r4
    78f8:	06 00 40 40 	bne     0x00007910
    78fc:	f4 ff 9e 30 	lw      r4,0xfff4(r30)
    7900:	2d 00 00 c0 	ajal    0x000000b4
    7904:	3d 00 80 18 	ori     r4,r0,0x003d
    7908:	f0 ff 9e 34 	sw      0xfff0(r30),r4
    790c:	4b 1e 00 80 	ajmp    0x0000792c
    7910:	f8 ff 9e 30 	lw      r4,0xfff8(r30)
    7914:	3f 00 a0 18 	ori     r5,r0,0x003f
    7918:	2b 00 a4 3c 	sb      0x002b(r4),r5
    791c:	f4 ff 9e 30 	lw      r4,0xfff4(r30)
    7920:	2d 00 00 c0 	ajal    0x000000b4
    7924:	00 00 80 18 	ori     r4,r0,0x0000
    7928:	f0 ff 9e 34 	sw      0xfff0(r30),r4
    792c:	f0 ff 5e 30 	lw      r2,0xfff0(r30)
    7930:	10 00 bd 07 	addi    r29,r29,0x0010
    7934:	05 f0 a0 03 	orr     r29,r0,r30
    7938:	08 00 bd 07 	addi    r29,r29,0x0008
    793c:	fc ff fd 33 	lw      r31,0xfffc(r29)
    7940:	f8 ff dd 33 	lw      r30,0xfff8(r29)
    7944:	00 00 e0 47 	jmpr    r31
    7948:	00 00 00 00 	nop
    794c:	00 00 00 00 	nop

00007950 <OSTaskNameGet>:
    7950:	f8 ff bd 07 	addi    r29,r29,0xfff8
    7954:	00 00 dd 37 	sw      0x0000(r29),r30
    7958:	04 00 fd 37 	sw      0x0004(r29),r31
    795c:	05 e8 c0 03 	orr     r30,r0,r29
    7960:	e4 ff bd 07 	addi    r29,r29,0xffe4
    7964:	ff ff 9e 3c 	sb      0xffff(r30),r4
    7968:	f8 ff be 34 	sw      0xfff8(r30),r5
    796c:	f4 ff de 34 	sw      0xfff4(r30),r6
    7970:	00 00 80 18 	ori     r4,r0,0x0000
    7974:	e8 ff 9e 34 	sw      0xffe8(r30),r4
    7978:	01 00 80 2c 	ldih    r4,0x0001
    797c:	84 4c 84 18 	ori     r4,r4,0x4c84
    7980:	00 00 84 38 	lb      r4,0x0000(r4)
    7984:	18 00 84 20 	lsli    r4,r4,0x0018
    7988:	18 00 84 24 	lsri    r4,r4,0x0018
    798c:	00 00 a0 18 	ori     r5,r0,0x0000
    7990:	02 28 04 00 	sub     r0,r4,r5
    7994:	07 00 00 40 	beq     0x000079b0
    7998:	f4 ff 9e 30 	lw      r4,0xfff4(r30)
    799c:	11 00 a0 18 	ori     r5,r0,0x0011
    79a0:	00 00 a4 3c 	sb      0x0000(r4),r5
    79a4:	00 00 80 18 	ori     r4,r0,0x0000
    79a8:	e4 ff 9e 34 	sw      0xffe4(r30),r4
    79ac:	ad 1e 00 80 	ajmp    0x00007ab4
    79b0:	2a 00 00 c0 	ajal    0x000000a8
    79b4:	05 10 80 00 	orr     r4,r0,r2
    79b8:	e8 ff 9e 34 	sw      0xffe8(r30),r4
    79bc:	ff ff 9e 38 	lb      r4,0xffff(r30)
    79c0:	18 00 84 20 	lsli    r4,r4,0x0018
    79c4:	18 00 84 24 	lsri    r4,r4,0x0018
    79c8:	ff 00 a0 18 	ori     r5,r0,0x00ff
    79cc:	02 28 04 00 	sub     r0,r4,r5
    79d0:	06 00 40 40 	bne     0x000079e8
    79d4:	01 00 80 2c 	ldih    r4,0x0001
    79d8:	88 4c 84 18 	ori     r4,r4,0x4c88
    79dc:	00 00 84 30 	lw      r4,0x0000(r4)
    79e0:	26 00 84 38 	lb      r4,0x0026(r4)
    79e4:	ff ff 9e 3c 	sb      0xffff(r30),r4
    79e8:	01 00 a0 2c 	ldih    r5,0x0001
    79ec:	a0 6c a5 18 	ori     r5,r5,0x6ca0
    79f0:	ff ff 9e 38 	lb      r4,0xffff(r30)
    79f4:	18 00 84 20 	lsli    r4,r4,0x0018
    79f8:	18 00 84 24 	lsri    r4,r4,0x0018
    79fc:	02 00 84 20 	lsli    r4,r4,0x0002
    7a00:	00 28 84 00 	add     r4,r4,r5
    7a04:	00 00 84 30 	lw      r4,0x0000(r4)
    7a08:	f0 ff 9e 34 	sw      0xfff0(r30),r4
    7a0c:	f0 ff be 30 	lw      r5,0xfff0(r30)
    7a10:	00 00 80 18 	ori     r4,r0,0x0000
    7a14:	02 20 05 00 	sub     r0,r5,r4
    7a18:	09 00 40 40 	bne     0x00007a3c
    7a1c:	e8 ff 9e 30 	lw      r4,0xffe8(r30)
    7a20:	2d 00 00 c0 	ajal    0x000000b4
    7a24:	f4 ff 9e 30 	lw      r4,0xfff4(r30)
    7a28:	43 00 a0 18 	ori     r5,r0,0x0043
    7a2c:	00 00 a4 3c 	sb      0x0000(r4),r5
    7a30:	00 00 80 18 	ori     r4,r0,0x0000
    7a34:	e4 ff 9e 34 	sw      0xffe4(r30),r4
    7a38:	ad 1e 00 80 	ajmp    0x00007ab4
    7a3c:	f0 ff be 30 	lw      r5,0xfff0(r30)
    7a40:	01 00 80 18 	ori     r4,r0,0x0001
    7a44:	02 20 05 00 	sub     r0,r5,r4
    7a48:	09 00 40 40 	bne     0x00007a6c
    7a4c:	e8 ff 9e 30 	lw      r4,0xffe8(r30)
    7a50:	2d 00 00 c0 	ajal    0x000000b4
    7a54:	f4 ff 9e 30 	lw      r4,0xfff4(r30)
    7a58:	43 00 a0 18 	ori     r5,r0,0x0043
    7a5c:	00 00 a4 3c 	sb      0x0000(r4),r5
    7a60:	00 00 80 18 	ori     r4,r0,0x0000
    7a64:	e4 ff 9e 34 	sw      0xffe4(r30),r4
    7a68:	ad 1e 00 80 	ajmp    0x00007ab4
    7a6c:	f8 ff be 30 	lw      r5,0xfff8(r30)
    7a70:	f0 ff 9e 30 	lw      r4,0xfff0(r30)
    7a74:	40 00 84 30 	lw      r4,0x0040(r4)
    7a78:	00 00 85 34 	sw      0x0000(r5),r4
    7a7c:	f8 ff 9e 30 	lw      r4,0xfff8(r30)
    7a80:	00 00 84 30 	lw      r4,0x0000(r4)
    7a84:	8c 19 00 c0 	ajal    0x00006630
    7a88:	05 10 80 00 	orr     r4,r0,r2
    7a8c:	ef ff 9e 3c 	sb      0xffef(r30),r4
    7a90:	e8 ff 9e 30 	lw      r4,0xffe8(r30)
    7a94:	2d 00 00 c0 	ajal    0x000000b4
    7a98:	f4 ff 9e 30 	lw      r4,0xfff4(r30)
    7a9c:	00 00 a0 18 	ori     r5,r0,0x0000
    7aa0:	00 00 a4 3c 	sb      0x0000(r4),r5
    7aa4:	ef ff 9e 38 	lb      r4,0xffef(r30)
    7aa8:	18 00 84 20 	lsli    r4,r4,0x0018
    7aac:	18 00 84 24 	lsri    r4,r4,0x0018
    7ab0:	e4 ff 9e 34 	sw      0xffe4(r30),r4
    7ab4:	e4 ff 5e 30 	lw      r2,0xffe4(r30)
    7ab8:	1c 00 bd 07 	addi    r29,r29,0x001c
    7abc:	05 f0 a0 03 	orr     r29,r0,r30
    7ac0:	08 00 bd 07 	addi    r29,r29,0x0008
    7ac4:	fc ff fd 33 	lw      r31,0xfffc(r29)
    7ac8:	f8 ff dd 33 	lw      r30,0xfff8(r29)
    7acc:	00 00 e0 47 	jmpr    r31

00007ad0 <OSTaskNameSet>:
    7ad0:	f8 ff bd 07 	addi    r29,r29,0xfff8
    7ad4:	00 00 dd 37 	sw      0x0000(r29),r30
    7ad8:	04 00 fd 37 	sw      0x0004(r29),r31
    7adc:	05 e8 c0 03 	orr     r30,r0,r29
    7ae0:	ec ff bd 07 	addi    r29,r29,0xffec
    7ae4:	ff ff 9e 3c 	sb      0xffff(r30),r4
    7ae8:	f8 ff be 34 	sw      0xfff8(r30),r5
    7aec:	f4 ff de 34 	sw      0xfff4(r30),r6
    7af0:	00 00 80 18 	ori     r4,r0,0x0000
    7af4:	ec ff 9e 34 	sw      0xffec(r30),r4
    7af8:	01 00 80 2c 	ldih    r4,0x0001
    7afc:	84 4c 84 18 	ori     r4,r4,0x4c84
    7b00:	00 00 84 38 	lb      r4,0x0000(r4)
    7b04:	18 00 84 20 	lsli    r4,r4,0x0018
    7b08:	18 00 84 24 	lsri    r4,r4,0x0018
    7b0c:	00 00 a0 18 	ori     r5,r0,0x0000
    7b10:	02 28 04 00 	sub     r0,r4,r5
    7b14:	05 00 00 40 	beq     0x00007b28
    7b18:	f4 ff 9e 30 	lw      r4,0xfff4(r30)
    7b1c:	12 00 a0 18 	ori     r5,r0,0x0012
    7b20:	00 00 a4 3c 	sb      0x0000(r4),r5
    7b24:	fd 1e 00 80 	ajmp    0x00007bf4
    7b28:	2a 00 00 c0 	ajal    0x000000a8
    7b2c:	05 10 80 00 	orr     r4,r0,r2
    7b30:	ec ff 9e 34 	sw      0xffec(r30),r4
    7b34:	ff ff 9e 38 	lb      r4,0xffff(r30)
    7b38:	18 00 84 20 	lsli    r4,r4,0x0018
    7b3c:	18 00 84 24 	lsri    r4,r4,0x0018
    7b40:	ff 00 a0 18 	ori     r5,r0,0x00ff
    7b44:	02 28 04 00 	sub     r0,r4,r5
    7b48:	06 00 40 40 	bne     0x00007b60
    7b4c:	01 00 80 2c 	ldih    r4,0x0001
    7b50:	88 4c 84 18 	ori     r4,r4,0x4c88
    7b54:	00 00 84 30 	lw      r4,0x0000(r4)
    7b58:	26 00 84 38 	lb      r4,0x0026(r4)
    7b5c:	ff ff 9e 3c 	sb      0xffff(r30),r4
    7b60:	01 00 a0 2c 	ldih    r5,0x0001
    7b64:	a0 6c a5 18 	ori     r5,r5,0x6ca0
    7b68:	ff ff 9e 38 	lb      r4,0xffff(r30)
    7b6c:	18 00 84 20 	lsli    r4,r4,0x0018
    7b70:	18 00 84 24 	lsri    r4,r4,0x0018
    7b74:	02 00 84 20 	lsli    r4,r4,0x0002
    7b78:	00 28 84 00 	add     r4,r4,r5
    7b7c:	00 00 84 30 	lw      r4,0x0000(r4)
    7b80:	f0 ff 9e 34 	sw      0xfff0(r30),r4
    7b84:	f0 ff be 30 	lw      r5,0xfff0(r30)
    7b88:	00 00 80 18 	ori     r4,r0,0x0000
    7b8c:	02 20 05 00 	sub     r0,r5,r4
    7b90:	07 00 40 40 	bne     0x00007bac
    7b94:	ec ff 9e 30 	lw      r4,0xffec(r30)
    7b98:	2d 00 00 c0 	ajal    0x000000b4
    7b9c:	f4 ff 9e 30 	lw      r4,0xfff4(r30)
    7ba0:	43 00 a0 18 	ori     r5,r0,0x0043
    7ba4:	00 00 a4 3c 	sb      0x0000(r4),r5
    7ba8:	fd 1e 00 80 	ajmp    0x00007bf4
    7bac:	f0 ff be 30 	lw      r5,0xfff0(r30)
    7bb0:	01 00 80 18 	ori     r4,r0,0x0001
    7bb4:	02 20 05 00 	sub     r0,r5,r4
    7bb8:	07 00 40 40 	bne     0x00007bd4
    7bbc:	ec ff 9e 30 	lw      r4,0xffec(r30)
    7bc0:	2d 00 00 c0 	ajal    0x000000b4
    7bc4:	f4 ff 9e 30 	lw      r4,0xfff4(r30)
    7bc8:	43 00 a0 18 	ori     r5,r0,0x0043
    7bcc:	00 00 a4 3c 	sb      0x0000(r4),r5
    7bd0:	fd 1e 00 80 	ajmp    0x00007bf4
    7bd4:	f0 ff 9e 30 	lw      r4,0xfff0(r30)
    7bd8:	f8 ff be 30 	lw      r5,0xfff8(r30)
    7bdc:	40 00 a4 34 	sw      0x0040(r4),r5
    7be0:	ec ff 9e 30 	lw      r4,0xffec(r30)
    7be4:	2d 00 00 c0 	ajal    0x000000b4
    7be8:	f4 ff 9e 30 	lw      r4,0xfff4(r30)
    7bec:	00 00 a0 18 	ori     r5,r0,0x0000
    7bf0:	00 00 a4 3c 	sb      0x0000(r4),r5
    7bf4:	14 00 bd 07 	addi    r29,r29,0x0014
    7bf8:	05 f0 a0 03 	orr     r29,r0,r30
    7bfc:	08 00 bd 07 	addi    r29,r29,0x0008
    7c00:	fc ff fd 33 	lw      r31,0xfffc(r29)
    7c04:	f8 ff dd 33 	lw      r30,0xfff8(r29)
    7c08:	00 00 e0 47 	jmpr    r31
    7c0c:	00 00 00 00 	nop

00007c10 <OSTaskResume>:
    7c10:	f8 ff bd 07 	addi    r29,r29,0xfff8
    7c14:	00 00 dd 37 	sw      0x0000(r29),r30
    7c18:	04 00 fd 37 	sw      0x0004(r29),r31
    7c1c:	05 e8 c0 03 	orr     r30,r0,r29
    7c20:	f0 ff bd 07 	addi    r29,r29,0xfff0
    7c24:	ff ff 9e 3c 	sb      0xffff(r30),r4
    7c28:	00 00 80 18 	ori     r4,r0,0x0000
    7c2c:	f4 ff 9e 34 	sw      0xfff4(r30),r4
    7c30:	2a 00 00 c0 	ajal    0x000000a8
    7c34:	05 10 80 00 	orr     r4,r0,r2
    7c38:	f4 ff 9e 34 	sw      0xfff4(r30),r4
    7c3c:	01 00 a0 2c 	ldih    r5,0x0001
    7c40:	a0 6c a5 18 	ori     r5,r5,0x6ca0
    7c44:	ff ff 9e 38 	lb      r4,0xffff(r30)
    7c48:	18 00 84 20 	lsli    r4,r4,0x0018
    7c4c:	18 00 84 24 	lsri    r4,r4,0x0018
    7c50:	02 00 84 20 	lsli    r4,r4,0x0002
    7c54:	00 28 84 00 	add     r4,r4,r5
    7c58:	00 00 84 30 	lw      r4,0x0000(r4)
    7c5c:	f8 ff 9e 34 	sw      0xfff8(r30),r4
    7c60:	f8 ff be 30 	lw      r5,0xfff8(r30)
    7c64:	00 00 80 18 	ori     r4,r0,0x0000
    7c68:	02 20 05 00 	sub     r0,r5,r4
    7c6c:	06 00 40 40 	bne     0x00007c84
    7c70:	f4 ff 9e 30 	lw      r4,0xfff4(r30)
    7c74:	2d 00 00 c0 	ajal    0x000000b4
    7c78:	46 00 80 18 	ori     r4,r0,0x0046
    7c7c:	f0 ff 9e 34 	sw      0xfff0(r30),r4
    7c80:	7a 1f 00 80 	ajmp    0x00007de8
    7c84:	f8 ff be 30 	lw      r5,0xfff8(r30)
    7c88:	01 00 80 18 	ori     r4,r0,0x0001
    7c8c:	02 20 05 00 	sub     r0,r5,r4
    7c90:	06 00 40 40 	bne     0x00007ca8
    7c94:	f4 ff 9e 30 	lw      r4,0xfff4(r30)
    7c98:	2d 00 00 c0 	ajal    0x000000b4
    7c9c:	43 00 80 18 	ori     r4,r0,0x0043
    7ca0:	f0 ff 9e 34 	sw      0xfff0(r30),r4
    7ca4:	7a 1f 00 80 	ajmp    0x00007de8
    7ca8:	f8 ff 9e 30 	lw      r4,0xfff8(r30)
    7cac:	24 00 84 38 	lb      r4,0x0024(r4)
    7cb0:	18 00 84 20 	lsli    r4,r4,0x0018
    7cb4:	18 00 84 24 	lsri    r4,r4,0x0018
    7cb8:	03 00 84 24 	lsri    r4,r4,0x0003
    7cbc:	01 00 a4 14 	andi    r5,r4,0x0001
    7cc0:	00 00 80 18 	ori     r4,r0,0x0000
    7cc4:	02 20 05 00 	sub     r0,r5,r4
    7cc8:	44 00 00 40 	beq     0x00007dd8
    7ccc:	f8 ff de 30 	lw      r6,0xfff8(r30)
    7cd0:	f8 ff 9e 30 	lw      r4,0xfff8(r30)
    7cd4:	ff ff a0 2c 	ldih    r5,0xffff
    7cd8:	f7 ff a5 18 	ori     r5,r5,0xfff7
    7cdc:	24 00 84 38 	lb      r4,0x0024(r4)
    7ce0:	04 28 84 00 	and     r4,r4,r5
    7ce4:	24 00 86 3c 	sb      0x0024(r6),r4
    7ce8:	f8 ff 9e 30 	lw      r4,0xfff8(r30)
    7cec:	24 00 84 38 	lb      r4,0x0024(r4)
    7cf0:	18 00 84 20 	lsli    r4,r4,0x0018
    7cf4:	18 00 84 24 	lsri    r4,r4,0x0018
    7cf8:	00 00 a0 18 	ori     r5,r0,0x0000
    7cfc:	02 28 04 00 	sub     r0,r4,r5
    7d00:	31 00 40 40 	bne     0x00007dc4
    7d04:	f8 ff 9e 30 	lw      r4,0xfff8(r30)
    7d08:	20 00 a4 30 	lw      r5,0x0020(r4)
    7d0c:	00 00 80 18 	ori     r4,r0,0x0000
    7d10:	02 20 05 00 	sub     r0,r5,r4
    7d14:	29 00 40 40 	bne     0x00007db8
    7d18:	01 00 e0 2c 	ldih    r7,0x0001
    7d1c:	74 4c e7 18 	ori     r7,r7,0x4c74
    7d20:	f8 ff 9e 30 	lw      r4,0xfff8(r30)
    7d24:	01 00 a0 2c 	ldih    r5,0x0001
    7d28:	74 4c a5 18 	ori     r5,r5,0x4c74
    7d2c:	2a 00 c4 38 	lb      r6,0x002a(r4)
    7d30:	00 00 85 38 	lb      r4,0x0000(r5)
    7d34:	05 20 86 00 	orr     r4,r6,r4
    7d38:	00 00 87 3c 	sb      0x0000(r7),r4
    7d3c:	01 00 a0 2c 	ldih    r5,0x0001
    7d40:	78 4c a5 18 	ori     r5,r5,0x4c78
    7d44:	f8 ff 9e 30 	lw      r4,0xfff8(r30)
    7d48:	28 00 84 38 	lb      r4,0x0028(r4)
    7d4c:	18 00 84 20 	lsli    r4,r4,0x0018
    7d50:	18 00 84 24 	lsri    r4,r4,0x0018
    7d54:	00 20 e5 00 	add     r7,r5,r4
    7d58:	01 00 a0 2c 	ldih    r5,0x0001
    7d5c:	78 4c a5 18 	ori     r5,r5,0x4c78
    7d60:	f8 ff 9e 30 	lw      r4,0xfff8(r30)
    7d64:	28 00 84 38 	lb      r4,0x0028(r4)
    7d68:	18 00 84 20 	lsli    r4,r4,0x0018
    7d6c:	18 00 84 24 	lsri    r4,r4,0x0018
    7d70:	00 20 85 00 	add     r4,r5,r4
    7d74:	f8 ff be 30 	lw      r5,0xfff8(r30)
    7d78:	00 00 c4 38 	lb      r6,0x0000(r4)
    7d7c:	29 00 85 38 	lb      r4,0x0029(r5)
    7d80:	05 20 86 00 	orr     r4,r6,r4
    7d84:	00 00 87 3c 	sb      0x0000(r7),r4
    7d88:	f4 ff 9e 30 	lw      r4,0xfff4(r30)
    7d8c:	2d 00 00 c0 	ajal    0x000000b4
    7d90:	01 00 80 2c 	ldih    r4,0x0001
    7d94:	42 33 84 18 	ori     r4,r4,0x3342
    7d98:	00 00 84 38 	lb      r4,0x0000(r4)
    7d9c:	18 00 84 20 	lsli    r4,r4,0x0018
    7da0:	18 00 84 24 	lsri    r4,r4,0x0018
    7da4:	01 00 a0 18 	ori     r5,r0,0x0001
    7da8:	02 28 04 00 	sub     r0,r4,r5
    7dac:	08 00 40 40 	bne     0x00007dcc
    7db0:	10 19 00 c0 	ajal    0x00006440
    7db4:	73 1f 00 80 	ajmp    0x00007dcc
    7db8:	f4 ff 9e 30 	lw      r4,0xfff4(r30)
    7dbc:	2d 00 00 c0 	ajal    0x000000b4
    7dc0:	73 1f 00 80 	ajmp    0x00007dcc
    7dc4:	f4 ff 9e 30 	lw      r4,0xfff4(r30)
    7dc8:	2d 00 00 c0 	ajal    0x000000b4
    7dcc:	00 00 80 18 	ori     r4,r0,0x0000
    7dd0:	f0 ff 9e 34 	sw      0xfff0(r30),r4
    7dd4:	7a 1f 00 80 	ajmp    0x00007de8
    7dd8:	f4 ff 9e 30 	lw      r4,0xfff4(r30)
    7ddc:	2d 00 00 c0 	ajal    0x000000b4
    7de0:	44 00 80 18 	ori     r4,r0,0x0044
    7de4:	f0 ff 9e 34 	sw      0xfff0(r30),r4
    7de8:	f0 ff 5e 30 	lw      r2,0xfff0(r30)
    7dec:	10 00 bd 07 	addi    r29,r29,0x0010
    7df0:	05 f0 a0 03 	orr     r29,r0,r30
    7df4:	08 00 bd 07 	addi    r29,r29,0x0008
    7df8:	fc ff fd 33 	lw      r31,0xfffc(r29)
    7dfc:	f8 ff dd 33 	lw      r30,0xfff8(r29)
    7e00:	00 00 e0 47 	jmpr    r31
    7e04:	00 00 00 00 	nop
    7e08:	00 00 00 00 	nop
    7e0c:	00 00 00 00 	nop

00007e10 <OSTaskSuspend>:
    7e10:	f8 ff bd 07 	addi    r29,r29,0xfff8
    7e14:	00 00 dd 37 	sw      0x0000(r29),r30
    7e18:	04 00 fd 37 	sw      0x0004(r29),r31
    7e1c:	05 e8 c0 03 	orr     r30,r0,r29
    7e20:	ec ff bd 07 	addi    r29,r29,0xffec
    7e24:	ff ff 9e 3c 	sb      0xffff(r30),r4
    7e28:	00 00 80 18 	ori     r4,r0,0x0000
    7e2c:	f0 ff 9e 34 	sw      0xfff0(r30),r4
    7e30:	2a 00 00 c0 	ajal    0x000000a8
    7e34:	05 10 80 00 	orr     r4,r0,r2
    7e38:	f0 ff 9e 34 	sw      0xfff0(r30),r4
    7e3c:	ff ff 9e 38 	lb      r4,0xffff(r30)
    7e40:	18 00 84 20 	lsli    r4,r4,0x0018
    7e44:	18 00 84 24 	lsri    r4,r4,0x0018
    7e48:	ff 00 a0 18 	ori     r5,r0,0x00ff
    7e4c:	02 28 04 00 	sub     r0,r4,r5
    7e50:	09 00 40 40 	bne     0x00007e74
    7e54:	01 00 80 2c 	ldih    r4,0x0001
    7e58:	88 4c 84 18 	ori     r4,r4,0x4c88
    7e5c:	00 00 84 30 	lw      r4,0x0000(r4)
    7e60:	26 00 84 38 	lb      r4,0x0026(r4)
    7e64:	ff ff 9e 3c 	sb      0xffff(r30),r4
    7e68:	01 00 80 18 	ori     r4,r0,0x0001
    7e6c:	fe ff 9e 3c 	sb      0xfffe(r30),r4
    7e70:	ad 1f 00 80 	ajmp    0x00007eb4
    7e74:	01 00 80 2c 	ldih    r4,0x0001
    7e78:	88 4c 84 18 	ori     r4,r4,0x4c88
    7e7c:	00 00 84 30 	lw      r4,0x0000(r4)
    7e80:	26 00 84 38 	lb      r4,0x0026(r4)
    7e84:	18 00 a4 20 	lsli    r5,r4,0x0018
    7e88:	18 00 a5 24 	lsri    r5,r5,0x0018
    7e8c:	ff ff 9e 38 	lb      r4,0xffff(r30)
    7e90:	18 00 84 20 	lsli    r4,r4,0x0018
    7e94:	18 00 84 24 	lsri    r4,r4,0x0018
    7e98:	02 20 05 00 	sub     r0,r5,r4
    7e9c:	04 00 40 40 	bne     0x00007eac
    7ea0:	01 00 80 18 	ori     r4,r0,0x0001
    7ea4:	fe ff 9e 3c 	sb      0xfffe(r30),r4
    7ea8:	ad 1f 00 80 	ajmp    0x00007eb4
    7eac:	00 00 80 18 	ori     r4,r0,0x0000
    7eb0:	fe ff 9e 3c 	sb      0xfffe(r30),r4
    7eb4:	01 00 a0 2c 	ldih    r5,0x0001
    7eb8:	a0 6c a5 18 	ori     r5,r5,0x6ca0
    7ebc:	ff ff 9e 38 	lb      r4,0xffff(r30)
    7ec0:	18 00 84 20 	lsli    r4,r4,0x0018
    7ec4:	18 00 84 24 	lsri    r4,r4,0x0018
    7ec8:	02 00 84 20 	lsli    r4,r4,0x0002
    7ecc:	00 28 84 00 	add     r4,r4,r5
    7ed0:	00 00 84 30 	lw      r4,0x0000(r4)
    7ed4:	f8 ff 9e 34 	sw      0xfff8(r30),r4
    7ed8:	f8 ff be 30 	lw      r5,0xfff8(r30)
    7edc:	00 00 80 18 	ori     r4,r0,0x0000
    7ee0:	02 20 05 00 	sub     r0,r5,r4
    7ee4:	06 00 40 40 	bne     0x00007efc
    7ee8:	f0 ff 9e 30 	lw      r4,0xfff0(r30)
    7eec:	2d 00 00 c0 	ajal    0x000000b4
    7ef0:	48 00 80 18 	ori     r4,r0,0x0048
    7ef4:	ec ff 9e 34 	sw      0xffec(r30),r4
    7ef8:	04 20 00 80 	ajmp    0x00008010
    7efc:	f8 ff be 30 	lw      r5,0xfff8(r30)
    7f00:	01 00 80 18 	ori     r4,r0,0x0001
    7f04:	02 20 05 00 	sub     r0,r5,r4
    7f08:	06 00 40 40 	bne     0x00007f20
    7f0c:	f0 ff 9e 30 	lw      r4,0xfff0(r30)
    7f10:	2d 00 00 c0 	ajal    0x000000b4
    7f14:	43 00 80 18 	ori     r4,r0,0x0043
    7f18:	ec ff 9e 34 	sw      0xffec(r30),r4
    7f1c:	04 20 00 80 	ajmp    0x00008010
    7f20:	f8 ff 9e 30 	lw      r4,0xfff8(r30)
    7f24:	28 00 84 38 	lb      r4,0x0028(r4)
    7f28:	f7 ff 9e 3c 	sb      0xfff7(r30),r4
    7f2c:	01 00 a0 2c 	ldih    r5,0x0001
    7f30:	78 4c a5 18 	ori     r5,r5,0x4c78
    7f34:	f7 ff 9e 38 	lb      r4,0xfff7(r30)
    7f38:	18 00 84 20 	lsli    r4,r4,0x0018
    7f3c:	18 00 84 24 	lsri    r4,r4,0x0018
    7f40:	00 20 c5 00 	add     r6,r5,r4
    7f44:	01 00 a0 2c 	ldih    r5,0x0001
    7f48:	78 4c a5 18 	ori     r5,r5,0x4c78
    7f4c:	f7 ff 9e 38 	lb      r4,0xfff7(r30)
    7f50:	18 00 84 20 	lsli    r4,r4,0x0018
    7f54:	18 00 84 24 	lsri    r4,r4,0x0018
    7f58:	00 20 a5 00 	add     r5,r5,r4
    7f5c:	f8 ff 9e 30 	lw      r4,0xfff8(r30)
    7f60:	29 00 84 38 	lb      r4,0x0029(r4)
    7f64:	0c 00 84 6c 	not     r4,r4
    7f68:	00 00 a5 38 	lb      r5,0x0000(r5)
    7f6c:	04 20 85 00 	and     r4,r5,r4
    7f70:	00 00 86 3c 	sb      0x0000(r6),r4
    7f74:	01 00 a0 2c 	ldih    r5,0x0001
    7f78:	78 4c a5 18 	ori     r5,r5,0x4c78
    7f7c:	f7 ff 9e 38 	lb      r4,0xfff7(r30)
    7f80:	18 00 84 20 	lsli    r4,r4,0x0018
    7f84:	18 00 84 24 	lsri    r4,r4,0x0018
    7f88:	00 20 85 00 	add     r4,r5,r4
    7f8c:	00 00 84 38 	lb      r4,0x0000(r4)
    7f90:	18 00 84 20 	lsli    r4,r4,0x0018
    7f94:	18 00 84 24 	lsri    r4,r4,0x0018
    7f98:	00 00 a0 18 	ori     r5,r0,0x0000
    7f9c:	02 28 04 00 	sub     r0,r4,r5
    7fa0:	0c 00 40 40 	bne     0x00007fd0
    7fa4:	01 00 e0 2c 	ldih    r7,0x0001
    7fa8:	74 4c e7 18 	ori     r7,r7,0x4c74
    7fac:	f8 ff 9e 30 	lw      r4,0xfff8(r30)
    7fb0:	2a 00 84 38 	lb      r4,0x002a(r4)
    7fb4:	0c 00 84 6c 	not     r4,r4
    7fb8:	01 00 a0 2c 	ldih    r5,0x0001
    7fbc:	74 4c a5 18 	ori     r5,r5,0x4c74
    7fc0:	05 20 c0 00 	orr     r6,r0,r4
    7fc4:	00 00 85 38 	lb      r4,0x0000(r5)
    7fc8:	04 20 86 00 	and     r4,r6,r4
    7fcc:	00 00 87 3c 	sb      0x0000(r7),r4
    7fd0:	f8 ff be 30 	lw      r5,0xfff8(r30)
    7fd4:	f8 ff 9e 30 	lw      r4,0xfff8(r30)
    7fd8:	24 00 84 38 	lb      r4,0x0024(r4)
    7fdc:	08 00 84 18 	ori     r4,r4,0x0008
    7fe0:	24 00 85 3c 	sb      0x0024(r5),r4
    7fe4:	f0 ff 9e 30 	lw      r4,0xfff0(r30)
    7fe8:	2d 00 00 c0 	ajal    0x000000b4
    7fec:	fe ff 9e 38 	lb      r4,0xfffe(r30)
    7ff0:	18 00 84 20 	lsli    r4,r4,0x0018
    7ff4:	18 00 84 24 	lsri    r4,r4,0x0018
    7ff8:	01 00 a0 18 	ori     r5,r0,0x0001
    7ffc:	02 28 04 00 	sub     r0,r4,r5
    8000:	02 00 40 40 	bne     0x00008008
    8004:	10 19 00 c0 	ajal    0x00006440
    8008:	00 00 80 18 	ori     r4,r0,0x0000
    800c:	ec ff 9e 34 	sw      0xffec(r30),r4
    8010:	ec ff 5e 30 	lw      r2,0xffec(r30)
    8014:	14 00 bd 07 	addi    r29,r29,0x0014
    8018:	05 f0 a0 03 	orr     r29,r0,r30
    801c:	08 00 bd 07 	addi    r29,r29,0x0008
    8020:	fc ff fd 33 	lw      r31,0xfffc(r29)
    8024:	f8 ff dd 33 	lw      r30,0xfff8(r29)
    8028:	00 00 e0 47 	jmpr    r31
    802c:	00 00 00 00 	nop

00008030 <OSTaskQuery>:
    8030:	f8 ff bd 07 	addi    r29,r29,0xfff8
    8034:	00 00 dd 37 	sw      0x0000(r29),r30
    8038:	04 00 fd 37 	sw      0x0004(r29),r31
    803c:	05 e8 c0 03 	orr     r30,r0,r29
    8040:	ec ff bd 07 	addi    r29,r29,0xffec
    8044:	ff ff 9e 3c 	sb      0xffff(r30),r4
    8048:	f8 ff be 34 	sw      0xfff8(r30),r5
    804c:	00 00 80 18 	ori     r4,r0,0x0000
    8050:	f0 ff 9e 34 	sw      0xfff0(r30),r4
    8054:	2a 00 00 c0 	ajal    0x000000a8
    8058:	05 10 80 00 	orr     r4,r0,r2
    805c:	f0 ff 9e 34 	sw      0xfff0(r30),r4
    8060:	ff ff 9e 38 	lb      r4,0xffff(r30)
    8064:	18 00 84 20 	lsli    r4,r4,0x0018
    8068:	18 00 84 24 	lsri    r4,r4,0x0018
    806c:	ff 00 a0 18 	ori     r5,r0,0x00ff
    8070:	02 28 04 00 	sub     r0,r4,r5
    8074:	06 00 40 40 	bne     0x0000808c
    8078:	01 00 80 2c 	ldih    r4,0x0001
    807c:	88 4c 84 18 	ori     r4,r4,0x4c88
    8080:	00 00 84 30 	lw      r4,0x0000(r4)
    8084:	26 00 84 38 	lb      r4,0x0026(r4)
    8088:	ff ff 9e 3c 	sb      0xffff(r30),r4
    808c:	01 00 a0 2c 	ldih    r5,0x0001
    8090:	a0 6c a5 18 	ori     r5,r5,0x6ca0
    8094:	ff ff 9e 38 	lb      r4,0xffff(r30)
    8098:	18 00 84 20 	lsli    r4,r4,0x0018
    809c:	18 00 84 24 	lsri    r4,r4,0x0018
    80a0:	02 00 84 20 	lsli    r4,r4,0x0002
    80a4:	00 28 84 00 	add     r4,r4,r5
    80a8:	00 00 84 30 	lw      r4,0x0000(r4)
    80ac:	f4 ff 9e 34 	sw      0xfff4(r30),r4
    80b0:	f4 ff be 30 	lw      r5,0xfff4(r30)
    80b4:	00 00 80 18 	ori     r4,r0,0x0000
    80b8:	02 20 05 00 	sub     r0,r5,r4
    80bc:	06 00 40 40 	bne     0x000080d4
    80c0:	f0 ff 9e 30 	lw      r4,0xfff0(r30)
    80c4:	2d 00 00 c0 	ajal    0x000000b4
    80c8:	29 00 80 18 	ori     r4,r0,0x0029
    80cc:	ec ff 9e 34 	sw      0xffec(r30),r4
    80d0:	46 20 00 80 	ajmp    0x00008118
    80d4:	f4 ff be 30 	lw      r5,0xfff4(r30)
    80d8:	01 00 80 18 	ori     r4,r0,0x0001
    80dc:	02 20 05 00 	sub     r0,r5,r4
    80e0:	06 00 40 40 	bne     0x000080f8
    80e4:	f0 ff 9e 30 	lw      r4,0xfff0(r30)
    80e8:	2d 00 00 c0 	ajal    0x000000b4
    80ec:	43 00 80 18 	ori     r4,r0,0x0043
    80f0:	ec ff 9e 34 	sw      0xffec(r30),r4
    80f4:	46 20 00 80 	ajmp    0x00008118
    80f8:	f8 ff 9e 30 	lw      r4,0xfff8(r30)
    80fc:	f4 ff be 30 	lw      r5,0xfff4(r30)
    8100:	48 00 c0 18 	ori     r6,r0,0x0048
    8104:	ec 18 00 c0 	ajal    0x000063b0
    8108:	f0 ff 9e 30 	lw      r4,0xfff0(r30)
    810c:	2d 00 00 c0 	ajal    0x000000b4
    8110:	00 00 80 18 	ori     r4,r0,0x0000
    8114:	ec ff 9e 34 	sw      0xffec(r30),r4
    8118:	ec ff 5e 30 	lw      r2,0xffec(r30)
    811c:	14 00 bd 07 	addi    r29,r29,0x0014
    8120:	05 f0 a0 03 	orr     r29,r0,r30
    8124:	08 00 bd 07 	addi    r29,r29,0x0008
    8128:	fc ff fd 33 	lw      r31,0xfffc(r29)
    812c:	f8 ff dd 33 	lw      r30,0xfff8(r29)
    8130:	00 00 e0 47 	jmpr    r31
    8134:	00 00 00 00 	nop
    8138:	00 00 00 00 	nop
    813c:	00 00 00 00 	nop

00008140 <OSTaskRegGet>:
    8140:	f8 ff bd 07 	addi    r29,r29,0xfff8
    8144:	00 00 dd 37 	sw      0x0000(r29),r30
    8148:	04 00 fd 37 	sw      0x0004(r29),r31
    814c:	05 e8 c0 03 	orr     r30,r0,r29
    8150:	ec ff bd 07 	addi    r29,r29,0xffec
    8154:	ff ff 9e 3c 	sb      0xffff(r30),r4
    8158:	fe ff be 3c 	sb      0xfffe(r30),r5
    815c:	f8 ff de 34 	sw      0xfff8(r30),r6
    8160:	00 00 80 18 	ori     r4,r0,0x0000
    8164:	f4 ff 9e 34 	sw      0xfff4(r30),r4
    8168:	2a 00 00 c0 	ajal    0x000000a8
    816c:	05 10 80 00 	orr     r4,r0,r2
    8170:	f4 ff 9e 34 	sw      0xfff4(r30),r4
    8174:	ff ff 9e 38 	lb      r4,0xffff(r30)
    8178:	18 00 84 20 	lsli    r4,r4,0x0018
    817c:	18 00 84 24 	lsri    r4,r4,0x0018
    8180:	ff 00 a0 18 	ori     r5,r0,0x00ff
    8184:	02 28 04 00 	sub     r0,r4,r5
    8188:	06 00 40 40 	bne     0x000081a0
    818c:	01 00 80 2c 	ldih    r4,0x0001
    8190:	88 4c 84 18 	ori     r4,r4,0x4c88
    8194:	00 00 84 30 	lw      r4,0x0000(r4)
    8198:	ec ff 9e 34 	sw      0xffec(r30),r4
    819c:	71 20 00 80 	ajmp    0x000081c4
    81a0:	01 00 a0 2c 	ldih    r5,0x0001
    81a4:	a0 6c a5 18 	ori     r5,r5,0x6ca0
    81a8:	ff ff 9e 38 	lb      r4,0xffff(r30)
    81ac:	18 00 84 20 	lsli    r4,r4,0x0018
    81b0:	18 00 84 24 	lsri    r4,r4,0x0018
    81b4:	02 00 84 20 	lsli    r4,r4,0x0002
    81b8:	00 28 84 00 	add     r4,r4,r5
    81bc:	00 00 84 30 	lw      r4,0x0000(r4)
    81c0:	ec ff 9e 34 	sw      0xffec(r30),r4
    81c4:	ec ff be 30 	lw      r5,0xffec(r30)
    81c8:	fe ff 9e 38 	lb      r4,0xfffe(r30)
    81cc:	18 00 84 20 	lsli    r4,r4,0x0018
    81d0:	18 00 84 24 	lsri    r4,r4,0x0018
    81d4:	02 00 84 20 	lsli    r4,r4,0x0002
    81d8:	00 28 84 00 	add     r4,r4,r5
    81dc:	44 00 84 04 	addi    r4,r4,0x0044
    81e0:	00 00 84 30 	lw      r4,0x0000(r4)
    81e4:	f0 ff 9e 34 	sw      0xfff0(r30),r4
    81e8:	f4 ff 9e 30 	lw      r4,0xfff4(r30)
    81ec:	2d 00 00 c0 	ajal    0x000000b4
    81f0:	f8 ff 9e 30 	lw      r4,0xfff8(r30)
    81f4:	00 00 a0 18 	ori     r5,r0,0x0000
    81f8:	00 00 a4 3c 	sb      0x0000(r4),r5
    81fc:	f0 ff 9e 30 	lw      r4,0xfff0(r30)
    8200:	05 20 40 00 	orr     r2,r0,r4
    8204:	14 00 bd 07 	addi    r29,r29,0x0014
    8208:	05 f0 a0 03 	orr     r29,r0,r30
    820c:	08 00 bd 07 	addi    r29,r29,0x0008
    8210:	fc ff fd 33 	lw      r31,0xfffc(r29)
    8214:	f8 ff dd 33 	lw      r30,0xfff8(r29)
    8218:	00 00 e0 47 	jmpr    r31
    821c:	00 00 00 00 	nop

00008220 <OSTaskRegGetID>:
    8220:	f8 ff bd 07 	addi    r29,r29,0xfff8
    8224:	00 00 dd 37 	sw      0x0000(r29),r30
    8228:	04 00 fd 37 	sw      0x0004(r29),r31
    822c:	05 e8 c0 03 	orr     r30,r0,r29
    8230:	f0 ff bd 07 	addi    r29,r29,0xfff0
    8234:	fc ff 9e 34 	sw      0xfffc(r30),r4
    8238:	00 00 80 18 	ori     r4,r0,0x0000
    823c:	f8 ff 9e 34 	sw      0xfff8(r30),r4
    8240:	2a 00 00 c0 	ajal    0x000000a8
    8244:	05 10 80 00 	orr     r4,r0,r2
    8248:	f8 ff 9e 34 	sw      0xfff8(r30),r4
    824c:	01 00 80 2c 	ldih    r4,0x0001
    8250:	41 33 84 18 	ori     r4,r4,0x3341
    8254:	00 00 84 38 	lb      r4,0x0000(r4)
    8258:	18 00 84 20 	lsli    r4,r4,0x0018
    825c:	18 00 84 24 	lsri    r4,r4,0x0018
    8260:	00 00 a0 18 	ori     r5,r0,0x0000
    8264:	02 28 04 00 	sub     r0,r4,r5
    8268:	0a 00 00 40 	beq     0x00008290
    826c:	fc ff 9e 30 	lw      r4,0xfffc(r30)
    8270:	ff ff a0 2c 	ldih    r5,0xffff
    8274:	96 ff a5 18 	ori     r5,r5,0xff96
    8278:	00 00 a4 3c 	sb      0x0000(r4),r5
    827c:	f8 ff 9e 30 	lw      r4,0xfff8(r30)
    8280:	2d 00 00 c0 	ajal    0x000000b4
    8284:	01 00 80 18 	ori     r4,r0,0x0001
    8288:	f0 ff 9e 34 	sw      0xfff0(r30),r4
    828c:	b8 20 00 80 	ajmp    0x000082e0
    8290:	01 00 80 2c 	ldih    r4,0x0001
    8294:	41 33 84 18 	ori     r4,r4,0x3341
    8298:	00 00 84 38 	lb      r4,0x0000(r4)
    829c:	f7 ff 9e 3c 	sb      0xfff7(r30),r4
    82a0:	01 00 a0 2c 	ldih    r5,0x0001
    82a4:	41 33 a5 18 	ori     r5,r5,0x3341
    82a8:	01 00 80 2c 	ldih    r4,0x0001
    82ac:	41 33 84 18 	ori     r4,r4,0x3341
    82b0:	00 00 84 38 	lb      r4,0x0000(r4)
    82b4:	01 00 84 04 	addi    r4,r4,0x0001
    82b8:	00 00 85 3c 	sb      0x0000(r5),r4
    82bc:	f8 ff 9e 30 	lw      r4,0xfff8(r30)
    82c0:	2d 00 00 c0 	ajal    0x000000b4
    82c4:	fc ff 9e 30 	lw      r4,0xfffc(r30)
    82c8:	00 00 a0 18 	ori     r5,r0,0x0000
    82cc:	00 00 a4 3c 	sb      0x0000(r4),r5
    82d0:	f7 ff 9e 38 	lb      r4,0xfff7(r30)
    82d4:	18 00 84 20 	lsli    r4,r4,0x0018
    82d8:	18 00 84 24 	lsri    r4,r4,0x0018
    82dc:	f0 ff 9e 34 	sw      0xfff0(r30),r4
    82e0:	f0 ff 5e 30 	lw      r2,0xfff0(r30)
    82e4:	10 00 bd 07 	addi    r29,r29,0x0010
    82e8:	05 f0 a0 03 	orr     r29,r0,r30
    82ec:	08 00 bd 07 	addi    r29,r29,0x0008
    82f0:	fc ff fd 33 	lw      r31,0xfffc(r29)
    82f4:	f8 ff dd 33 	lw      r30,0xfff8(r29)
    82f8:	00 00 e0 47 	jmpr    r31
    82fc:	00 00 00 00 	nop

00008300 <OSTaskRegSet>:
    8300:	f8 ff bd 07 	addi    r29,r29,0xfff8
    8304:	00 00 dd 37 	sw      0x0000(r29),r30
    8308:	04 00 fd 37 	sw      0x0004(r29),r31
    830c:	05 e8 c0 03 	orr     r30,r0,r29
    8310:	ec ff bd 07 	addi    r29,r29,0xffec
    8314:	ff ff 9e 3c 	sb      0xffff(r30),r4
    8318:	fe ff be 3c 	sb      0xfffe(r30),r5
    831c:	f8 ff de 34 	sw      0xfff8(r30),r6
    8320:	f4 ff fe 34 	sw      0xfff4(r30),r7
    8324:	00 00 80 18 	ori     r4,r0,0x0000
    8328:	f0 ff 9e 34 	sw      0xfff0(r30),r4
    832c:	2a 00 00 c0 	ajal    0x000000a8
    8330:	05 10 80 00 	orr     r4,r0,r2
    8334:	f0 ff 9e 34 	sw      0xfff0(r30),r4
    8338:	ff ff 9e 38 	lb      r4,0xffff(r30)
    833c:	18 00 84 20 	lsli    r4,r4,0x0018
    8340:	18 00 84 24 	lsri    r4,r4,0x0018
    8344:	ff 00 a0 18 	ori     r5,r0,0x00ff
    8348:	02 28 04 00 	sub     r0,r4,r5
    834c:	06 00 40 40 	bne     0x00008364
    8350:	01 00 80 2c 	ldih    r4,0x0001
    8354:	88 4c 84 18 	ori     r4,r4,0x4c88
    8358:	00 00 84 30 	lw      r4,0x0000(r4)
    835c:	ec ff 9e 34 	sw      0xffec(r30),r4
    8360:	e2 20 00 80 	ajmp    0x00008388
    8364:	01 00 a0 2c 	ldih    r5,0x0001
    8368:	a0 6c a5 18 	ori     r5,r5,0x6ca0
    836c:	ff ff 9e 38 	lb      r4,0xffff(r30)
    8370:	18 00 84 20 	lsli    r4,r4,0x0018
    8374:	18 00 84 24 	lsri    r4,r4,0x0018
    8378:	02 00 84 20 	lsli    r4,r4,0x0002
    837c:	00 28 84 00 	add     r4,r4,r5
    8380:	00 00 84 30 	lw      r4,0x0000(r4)
    8384:	ec ff 9e 34 	sw      0xffec(r30),r4
    8388:	ec ff be 30 	lw      r5,0xffec(r30)
    838c:	fe ff 9e 38 	lb      r4,0xfffe(r30)
    8390:	18 00 84 20 	lsli    r4,r4,0x0018
    8394:	18 00 84 24 	lsri    r4,r4,0x0018
    8398:	02 00 84 20 	lsli    r4,r4,0x0002
    839c:	00 28 84 00 	add     r4,r4,r5
    83a0:	44 00 a4 04 	addi    r5,r4,0x0044
    83a4:	f8 ff 9e 30 	lw      r4,0xfff8(r30)
    83a8:	00 00 85 34 	sw      0x0000(r5),r4
    83ac:	f0 ff 9e 30 	lw      r4,0xfff0(r30)
    83b0:	2d 00 00 c0 	ajal    0x000000b4
    83b4:	f4 ff 9e 30 	lw      r4,0xfff4(r30)
    83b8:	00 00 a0 18 	ori     r5,r0,0x0000
    83bc:	00 00 a4 3c 	sb      0x0000(r4),r5
    83c0:	14 00 bd 07 	addi    r29,r29,0x0014
    83c4:	05 f0 a0 03 	orr     r29,r0,r30
    83c8:	08 00 bd 07 	addi    r29,r29,0x0008
    83cc:	fc ff fd 33 	lw      r31,0xfffc(r29)
    83d0:	f8 ff dd 33 	lw      r30,0xfff8(r29)
    83d4:	00 00 e0 47 	jmpr    r31
    83d8:	00 00 00 00 	nop
    83dc:	00 00 00 00 	nop

000083e0 <OS_TaskReturn>:
    83e0:	f8 ff bd 07 	addi    r29,r29,0xfff8
    83e4:	00 00 dd 37 	sw      0x0000(r29),r30
    83e8:	04 00 fd 37 	sw      0x0004(r29),r31
    83ec:	05 e8 c0 03 	orr     r30,r0,r29
    83f0:	01 00 80 2c 	ldih    r4,0x0001
    83f4:	88 4c 84 18 	ori     r4,r4,0x4c88
    83f8:	00 00 84 30 	lw      r4,0x0000(r4)
    83fc:	f0 27 00 c0 	ajal    0x00009fc0
    8400:	ff ff 80 2c 	ldih    r4,0xffff
    8404:	ff ff 84 18 	ori     r4,r4,0xffff
    8408:	0c 1d 00 c0 	ajal    0x00007430
    840c:	05 f0 a0 03 	orr     r29,r0,r30
    8410:	08 00 bd 07 	addi    r29,r29,0x0008
    8414:	fc ff fd 33 	lw      r31,0xfffc(r29)
    8418:	f8 ff dd 33 	lw      r30,0xfff8(r29)
    841c:	00 00 e0 47 	jmpr    r31

00008420 <OSTimeDly>:
    8420:	f8 ff bd 07 	addi    r29,r29,0xfff8
    8424:	00 00 dd 37 	sw      0x0000(r29),r30
    8428:	04 00 fd 37 	sw      0x0004(r29),r31
    842c:	05 e8 c0 03 	orr     r30,r0,r29
    8430:	f4 ff bd 07 	addi    r29,r29,0xfff4
    8434:	fc ff 9e 34 	sw      0xfffc(r30),r4
    8438:	00 00 80 18 	ori     r4,r0,0x0000
    843c:	f4 ff 9e 34 	sw      0xfff4(r30),r4
    8440:	01 00 80 2c 	ldih    r4,0x0001
    8444:	84 4c 84 18 	ori     r4,r4,0x4c84
    8448:	00 00 84 38 	lb      r4,0x0000(r4)
    844c:	18 00 84 20 	lsli    r4,r4,0x0018
    8450:	18 00 84 24 	lsri    r4,r4,0x0018
    8454:	00 00 a0 18 	ori     r5,r0,0x0000
    8458:	02 28 04 00 	sub     r0,r4,r5
    845c:	02 00 00 40 	beq     0x00008464
    8460:	63 21 00 80 	ajmp    0x0000858c
    8464:	01 00 80 2c 	ldih    r4,0x0001
    8468:	40 33 84 18 	ori     r4,r4,0x3340
    846c:	00 00 84 38 	lb      r4,0x0000(r4)
    8470:	18 00 84 20 	lsli    r4,r4,0x0018
    8474:	18 00 84 24 	lsri    r4,r4,0x0018
    8478:	00 00 a0 18 	ori     r5,r0,0x0000
    847c:	02 28 04 00 	sub     r0,r4,r5
    8480:	02 00 00 40 	beq     0x00008488
    8484:	63 21 00 80 	ajmp    0x0000858c
    8488:	fc ff be 30 	lw      r5,0xfffc(r30)
    848c:	00 00 80 18 	ori     r4,r0,0x0000
    8490:	02 20 05 00 	sub     r0,r5,r4
    8494:	3e 00 00 40 	beq     0x0000858c
    8498:	2a 00 00 c0 	ajal    0x000000a8
    849c:	05 10 80 00 	orr     r4,r0,r2
    84a0:	f4 ff 9e 34 	sw      0xfff4(r30),r4
    84a4:	01 00 80 2c 	ldih    r4,0x0001
    84a8:	88 4c 84 18 	ori     r4,r4,0x4c88
    84ac:	00 00 84 30 	lw      r4,0x0000(r4)
    84b0:	28 00 84 38 	lb      r4,0x0028(r4)
    84b4:	fb ff 9e 3c 	sb      0xfffb(r30),r4
    84b8:	01 00 a0 2c 	ldih    r5,0x0001
    84bc:	78 4c a5 18 	ori     r5,r5,0x4c78
    84c0:	fb ff 9e 38 	lb      r4,0xfffb(r30)
    84c4:	18 00 84 20 	lsli    r4,r4,0x0018
    84c8:	18 00 84 24 	lsri    r4,r4,0x0018
    84cc:	00 20 c5 00 	add     r6,r5,r4
    84d0:	01 00 a0 2c 	ldih    r5,0x0001
    84d4:	78 4c a5 18 	ori     r5,r5,0x4c78
    84d8:	fb ff 9e 38 	lb      r4,0xfffb(r30)
    84dc:	18 00 84 20 	lsli    r4,r4,0x0018
    84e0:	18 00 84 24 	lsri    r4,r4,0x0018
    84e4:	00 20 a5 00 	add     r5,r5,r4
    84e8:	01 00 80 2c 	ldih    r4,0x0001
    84ec:	88 4c 84 18 	ori     r4,r4,0x4c88
    84f0:	00 00 84 30 	lw      r4,0x0000(r4)
    84f4:	29 00 84 38 	lb      r4,0x0029(r4)
    84f8:	0c 00 84 6c 	not     r4,r4
    84fc:	00 00 a5 38 	lb      r5,0x0000(r5)
    8500:	04 20 85 00 	and     r4,r5,r4
    8504:	00 00 86 3c 	sb      0x0000(r6),r4
    8508:	01 00 a0 2c 	ldih    r5,0x0001
    850c:	78 4c a5 18 	ori     r5,r5,0x4c78
    8510:	fb ff 9e 38 	lb      r4,0xfffb(r30)
    8514:	18 00 84 20 	lsli    r4,r4,0x0018
    8518:	18 00 84 24 	lsri    r4,r4,0x0018
    851c:	00 20 85 00 	add     r4,r5,r4
    8520:	00 00 84 38 	lb      r4,0x0000(r4)
    8524:	18 00 84 20 	lsli    r4,r4,0x0018
    8528:	18 00 84 24 	lsri    r4,r4,0x0018
    852c:	00 00 a0 18 	ori     r5,r0,0x0000
    8530:	02 28 04 00 	sub     r0,r4,r5
    8534:	0e 00 40 40 	bne     0x0000856c
    8538:	01 00 e0 2c 	ldih    r7,0x0001
    853c:	74 4c e7 18 	ori     r7,r7,0x4c74
    8540:	01 00 80 2c 	ldih    r4,0x0001
    8544:	88 4c 84 18 	ori     r4,r4,0x4c88
    8548:	00 00 84 30 	lw      r4,0x0000(r4)
    854c:	2a 00 84 38 	lb      r4,0x002a(r4)
    8550:	0c 00 84 6c 	not     r4,r4
    8554:	01 00 a0 2c 	ldih    r5,0x0001
    8558:	74 4c a5 18 	ori     r5,r5,0x4c74
    855c:	05 20 c0 00 	orr     r6,r0,r4
    8560:	00 00 85 38 	lb      r4,0x0000(r5)
    8564:	04 20 86 00 	and     r4,r6,r4
    8568:	00 00 87 3c 	sb      0x0000(r7),r4
    856c:	01 00 80 2c 	ldih    r4,0x0001
    8570:	88 4c 84 18 	ori     r4,r4,0x4c88
    8574:	00 00 a4 30 	lw      r5,0x0000(r4)
    8578:	fc ff 9e 30 	lw      r4,0xfffc(r30)
    857c:	20 00 85 34 	sw      0x0020(r5),r4
    8580:	f4 ff 9e 30 	lw      r4,0xfff4(r30)
    8584:	2d 00 00 c0 	ajal    0x000000b4
    8588:	10 19 00 c0 	ajal    0x00006440
    858c:	0c 00 bd 07 	addi    r29,r29,0x000c
    8590:	05 f0 a0 03 	orr     r29,r0,r30
    8594:	08 00 bd 07 	addi    r29,r29,0x0008
    8598:	fc ff fd 33 	lw      r31,0xfffc(r29)
    859c:	f8 ff dd 33 	lw      r30,0xfff8(r29)
    85a0:	00 00 e0 47 	jmpr    r31
    85a4:	00 00 00 00 	nop
    85a8:	00 00 00 00 	nop
    85ac:	00 00 00 00 	nop

000085b0 <OSTimeDlyHMSM>:
    85b0:	f8 ff bd 07 	addi    r29,r29,0xfff8
    85b4:	00 00 dd 37 	sw      0x0000(r29),r30
    85b8:	04 00 fd 37 	sw      0x0004(r29),r31
    85bc:	05 e8 c0 03 	orr     r30,r0,r29
    85c0:	f0 ff bd 07 	addi    r29,r29,0xfff0
    85c4:	ff ff 9e 3c 	sb      0xffff(r30),r4
    85c8:	fe ff be 3c 	sb      0xfffe(r30),r5
    85cc:	fd ff de 3c 	sb      0xfffd(r30),r6
    85d0:	fa ff fe 68 	sh      0xfffa(r30),r7
    85d4:	01 00 80 2c 	ldih    r4,0x0001
    85d8:	84 4c 84 18 	ori     r4,r4,0x4c84
    85dc:	00 00 84 38 	lb      r4,0x0000(r4)
    85e0:	18 00 84 20 	lsli    r4,r4,0x0018
    85e4:	18 00 84 24 	lsri    r4,r4,0x0018
    85e8:	00 00 a0 18 	ori     r5,r0,0x0000
    85ec:	02 28 04 00 	sub     r0,r4,r5
    85f0:	04 00 00 40 	beq     0x00008600
    85f4:	55 00 80 18 	ori     r4,r0,0x0055
    85f8:	f0 ff 9e 34 	sw      0xfff0(r30),r4
    85fc:	ac 21 00 80 	ajmp    0x000086b0
    8600:	01 00 80 2c 	ldih    r4,0x0001
    8604:	40 33 84 18 	ori     r4,r4,0x3340
    8608:	00 00 84 38 	lb      r4,0x0000(r4)
    860c:	18 00 84 20 	lsli    r4,r4,0x0018
    8610:	18 00 84 24 	lsri    r4,r4,0x0018
    8614:	00 00 a0 18 	ori     r5,r0,0x0000
    8618:	02 28 04 00 	sub     r0,r4,r5
    861c:	04 00 00 40 	beq     0x0000862c
    8620:	32 00 80 18 	ori     r4,r0,0x0032
    8624:	f0 ff 9e 34 	sw      0xfff0(r30),r4
    8628:	ac 21 00 80 	ajmp    0x000086b0
    862c:	ff ff 9e 38 	lb      r4,0xffff(r30)
    8630:	18 00 84 20 	lsli    r4,r4,0x0018
    8634:	18 00 84 24 	lsri    r4,r4,0x0018
    8638:	10 0e a0 18 	ori     r5,r0,0x0e10
    863c:	0a 28 c4 00 	mul     r6,r4,r5
    8640:	fe ff 9e 38 	lb      r4,0xfffe(r30)
    8644:	18 00 a4 20 	lsli    r5,r4,0x0018
    8648:	18 00 a5 24 	lsri    r5,r5,0x0018
    864c:	05 28 80 00 	orr     r4,r0,r5
    8650:	04 00 84 20 	lsli    r4,r4,0x0004
    8654:	02 28 84 00 	sub     r4,r4,r5
    8658:	02 00 84 20 	lsli    r4,r4,0x0002
    865c:	00 20 a6 00 	add     r5,r6,r4
    8660:	fd ff 9e 38 	lb      r4,0xfffd(r30)
    8664:	18 00 84 20 	lsli    r4,r4,0x0018
    8668:	18 00 84 24 	lsri    r4,r4,0x0018
    866c:	00 20 a5 00 	add     r5,r5,r4
    8670:	64 00 80 18 	ori     r4,r0,0x0064
    8674:	0a 20 c5 00 	mul     r6,r5,r4
    8678:	fa ff 9e 64 	lh      r4,0xfffa(r30)
    867c:	10 00 84 20 	lsli    r4,r4,0x0010
    8680:	10 00 84 24 	lsri    r4,r4,0x0010
    8684:	64 00 a0 18 	ori     r5,r0,0x0064
    8688:	0a 28 84 00 	mul     r4,r4,r5
    868c:	f4 01 a4 04 	addi    r5,r4,0x01f4
    8690:	e8 03 80 18 	ori     r4,r0,0x03e8
    8694:	0e 20 85 00 	divu    r4,r5,r4
    8698:	00 20 86 00 	add     r4,r6,r4
    869c:	f4 ff 9e 34 	sw      0xfff4(r30),r4
    86a0:	f4 ff 9e 30 	lw      r4,0xfff4(r30)
    86a4:	08 21 00 c0 	ajal    0x00008420
    86a8:	00 00 80 18 	ori     r4,r0,0x0000
    86ac:	f0 ff 9e 34 	sw      0xfff0(r30),r4
    86b0:	f0 ff 5e 30 	lw      r2,0xfff0(r30)
    86b4:	10 00 bd 07 	addi    r29,r29,0x0010
    86b8:	05 f0 a0 03 	orr     r29,r0,r30
    86bc:	08 00 bd 07 	addi    r29,r29,0x0008
    86c0:	fc ff fd 33 	lw      r31,0xfffc(r29)
    86c4:	f8 ff dd 33 	lw      r30,0xfff8(r29)
    86c8:	00 00 e0 47 	jmpr    r31
    86cc:	00 00 00 00 	nop

000086d0 <OSTimeDlyResume>:
    86d0:	f8 ff bd 07 	addi    r29,r29,0xfff8
    86d4:	00 00 dd 37 	sw      0x0000(r29),r30
    86d8:	04 00 fd 37 	sw      0x0004(r29),r31
    86dc:	05 e8 c0 03 	orr     r30,r0,r29
    86e0:	f0 ff bd 07 	addi    r29,r29,0xfff0
    86e4:	ff ff 9e 3c 	sb      0xffff(r30),r4
    86e8:	00 00 80 18 	ori     r4,r0,0x0000
    86ec:	f4 ff 9e 34 	sw      0xfff4(r30),r4
    86f0:	ff ff 9e 38 	lb      r4,0xffff(r30)
    86f4:	18 00 84 20 	lsli    r4,r4,0x0018
    86f8:	18 00 84 24 	lsri    r4,r4,0x0018
    86fc:	3e 00 a0 18 	ori     r5,r0,0x003e
    8700:	02 28 04 00 	sub     r0,r4,r5
    8704:	04 00 40 42 	bls     0x00008714
    8708:	2a 00 80 18 	ori     r4,r0,0x002a
    870c:	f0 ff 9e 34 	sw      0xfff0(r30),r4
    8710:	34 22 00 80 	ajmp    0x000088d0
    8714:	2a 00 00 c0 	ajal    0x000000a8
    8718:	05 10 80 00 	orr     r4,r0,r2
    871c:	f4 ff 9e 34 	sw      0xfff4(r30),r4
    8720:	01 00 a0 2c 	ldih    r5,0x0001
    8724:	a0 6c a5 18 	ori     r5,r5,0x6ca0
    8728:	ff ff 9e 38 	lb      r4,0xffff(r30)
    872c:	18 00 84 20 	lsli    r4,r4,0x0018
    8730:	18 00 84 24 	lsri    r4,r4,0x0018
    8734:	02 00 84 20 	lsli    r4,r4,0x0002
    8738:	00 28 84 00 	add     r4,r4,r5
    873c:	00 00 84 30 	lw      r4,0x0000(r4)
    8740:	f8 ff 9e 34 	sw      0xfff8(r30),r4
    8744:	f8 ff be 30 	lw      r5,0xfff8(r30)
    8748:	00 00 80 18 	ori     r4,r0,0x0000
    874c:	02 20 05 00 	sub     r0,r5,r4
    8750:	06 00 40 40 	bne     0x00008768
    8754:	f4 ff 9e 30 	lw      r4,0xfff4(r30)
    8758:	2d 00 00 c0 	ajal    0x000000b4
    875c:	43 00 a0 18 	ori     r5,r0,0x0043
    8760:	f0 ff be 34 	sw      0xfff0(r30),r5
    8764:	34 22 00 80 	ajmp    0x000088d0
    8768:	f8 ff be 30 	lw      r5,0xfff8(r30)
    876c:	01 00 80 18 	ori     r4,r0,0x0001
    8770:	02 20 05 00 	sub     r0,r5,r4
    8774:	06 00 40 40 	bne     0x0000878c
    8778:	f4 ff 9e 30 	lw      r4,0xfff4(r30)
    877c:	2d 00 00 c0 	ajal    0x000000b4
    8780:	43 00 80 18 	ori     r4,r0,0x0043
    8784:	f0 ff 9e 34 	sw      0xfff0(r30),r4
    8788:	34 22 00 80 	ajmp    0x000088d0
    878c:	f8 ff 9e 30 	lw      r4,0xfff8(r30)
    8790:	20 00 a4 30 	lw      r5,0x0020(r4)
    8794:	00 00 80 18 	ori     r4,r0,0x0000
    8798:	02 20 05 00 	sub     r0,r5,r4
    879c:	06 00 40 40 	bne     0x000087b4
    87a0:	f4 ff 9e 30 	lw      r4,0xfff4(r30)
    87a4:	2d 00 00 c0 	ajal    0x000000b4
    87a8:	50 00 a0 18 	ori     r5,r0,0x0050
    87ac:	f0 ff be 34 	sw      0xfff0(r30),r5
    87b0:	34 22 00 80 	ajmp    0x000088d0
    87b4:	f8 ff be 30 	lw      r5,0xfff8(r30)
    87b8:	00 00 80 18 	ori     r4,r0,0x0000
    87bc:	20 00 85 34 	sw      0x0020(r5),r4
    87c0:	f8 ff 9e 30 	lw      r4,0xfff8(r30)
    87c4:	24 00 84 38 	lb      r4,0x0024(r4)
    87c8:	18 00 84 20 	lsli    r4,r4,0x0018
    87cc:	18 00 84 24 	lsri    r4,r4,0x0018
    87d0:	37 00 a4 14 	andi    r5,r4,0x0037
    87d4:	00 00 80 18 	ori     r4,r0,0x0000
    87d8:	02 20 05 00 	sub     r0,r5,r4
    87dc:	0c 00 00 40 	beq     0x0000880c
    87e0:	f8 ff de 30 	lw      r6,0xfff8(r30)
    87e4:	f8 ff 9e 30 	lw      r4,0xfff8(r30)
    87e8:	24 00 a4 38 	lb      r5,0x0024(r4)
    87ec:	ff ff 80 2c 	ldih    r4,0xffff
    87f0:	c8 ff 84 18 	ori     r4,r4,0xffc8
    87f4:	04 20 85 00 	and     r4,r5,r4
    87f8:	24 00 86 3c 	sb      0x0024(r6),r4
    87fc:	f8 ff 9e 30 	lw      r4,0xfff8(r30)
    8800:	01 00 a0 18 	ori     r5,r0,0x0001
    8804:	25 00 a4 3c 	sb      0x0025(r4),r5
    8808:	06 22 00 80 	ajmp    0x00008818
    880c:	f8 ff 9e 30 	lw      r4,0xfff8(r30)
    8810:	00 00 a0 18 	ori     r5,r0,0x0000
    8814:	25 00 a4 3c 	sb      0x0025(r4),r5
    8818:	f8 ff 9e 30 	lw      r4,0xfff8(r30)
    881c:	24 00 84 38 	lb      r4,0x0024(r4)
    8820:	18 00 84 20 	lsli    r4,r4,0x0018
    8824:	18 00 84 24 	lsri    r4,r4,0x0018
    8828:	03 00 84 24 	lsri    r4,r4,0x0003
    882c:	01 00 84 1c 	xori    r4,r4,0x0001
    8830:	01 00 a4 14 	andi    r5,r4,0x0001
    8834:	00 00 80 18 	ori     r4,r0,0x0000
    8838:	02 20 05 00 	sub     r0,r5,r4
    883c:	21 00 00 40 	beq     0x000088c0
    8840:	01 00 e0 2c 	ldih    r7,0x0001
    8844:	74 4c e7 18 	ori     r7,r7,0x4c74
    8848:	f8 ff 9e 30 	lw      r4,0xfff8(r30)
    884c:	01 00 a0 2c 	ldih    r5,0x0001
    8850:	74 4c a5 18 	ori     r5,r5,0x4c74
    8854:	2a 00 c4 38 	lb      r6,0x002a(r4)
    8858:	00 00 85 38 	lb      r4,0x0000(r5)
    885c:	05 20 86 00 	orr     r4,r6,r4
    8860:	00 00 87 3c 	sb      0x0000(r7),r4
    8864:	01 00 a0 2c 	ldih    r5,0x0001
    8868:	78 4c a5 18 	ori     r5,r5,0x4c78
    886c:	f8 ff 9e 30 	lw      r4,0xfff8(r30)
    8870:	28 00 84 38 	lb      r4,0x0028(r4)
    8874:	18 00 84 20 	lsli    r4,r4,0x0018
    8878:	18 00 84 24 	lsri    r4,r4,0x0018
    887c:	00 20 e5 00 	add     r7,r5,r4
    8880:	01 00 a0 2c 	ldih    r5,0x0001
    8884:	78 4c a5 18 	ori     r5,r5,0x4c78
    8888:	f8 ff 9e 30 	lw      r4,0xfff8(r30)
    888c:	28 00 84 38 	lb      r4,0x0028(r4)
    8890:	18 00 84 20 	lsli    r4,r4,0x0018
    8894:	18 00 84 24 	lsri    r4,r4,0x0018
    8898:	00 20 85 00 	add     r4,r5,r4
    889c:	f8 ff be 30 	lw      r5,0xfff8(r30)
    88a0:	00 00 c4 38 	lb      r6,0x0000(r4)
    88a4:	29 00 85 38 	lb      r4,0x0029(r5)
    88a8:	05 20 86 00 	orr     r4,r6,r4
    88ac:	00 00 87 3c 	sb      0x0000(r7),r4
    88b0:	f4 ff 9e 30 	lw      r4,0xfff4(r30)
    88b4:	2d 00 00 c0 	ajal    0x000000b4
    88b8:	10 19 00 c0 	ajal    0x00006440
    88bc:	32 22 00 80 	ajmp    0x000088c8
    88c0:	f4 ff 9e 30 	lw      r4,0xfff4(r30)
    88c4:	2d 00 00 c0 	ajal    0x000000b4
    88c8:	00 00 80 18 	ori     r4,r0,0x0000
    88cc:	f0 ff 9e 34 	sw      0xfff0(r30),r4
    88d0:	f0 ff 5e 30 	lw      r2,0xfff0(r30)
    88d4:	10 00 bd 07 	addi    r29,r29,0x0010
    88d8:	05 f0 a0 03 	orr     r29,r0,r30
    88dc:	08 00 bd 07 	addi    r29,r29,0x0008
    88e0:	fc ff fd 33 	lw      r31,0xfffc(r29)
    88e4:	f8 ff dd 33 	lw      r30,0xfff8(r29)
    88e8:	00 00 e0 47 	jmpr    r31
    88ec:	00 00 00 00 	nop

000088f0 <OSTimeGet>:
    88f0:	f8 ff bd 07 	addi    r29,r29,0xfff8
    88f4:	00 00 dd 37 	sw      0x0000(r29),r30
    88f8:	04 00 fd 37 	sw      0x0004(r29),r31
    88fc:	05 e8 c0 03 	orr     r30,r0,r29
    8900:	f8 ff bd 07 	addi    r29,r29,0xfff8
    8904:	00 00 80 18 	ori     r4,r0,0x0000
    8908:	f8 ff 9e 34 	sw      0xfff8(r30),r4
    890c:	2a 00 00 c0 	ajal    0x000000a8
    8910:	05 10 80 00 	orr     r4,r0,r2
    8914:	f8 ff 9e 34 	sw      0xfff8(r30),r4
    8918:	01 00 80 2c 	ldih    r4,0x0001
    891c:	8c 4c 84 18 	ori     r4,r4,0x4c8c
    8920:	00 00 84 30 	lw      r4,0x0000(r4)
    8924:	fc ff 9e 34 	sw      0xfffc(r30),r4
    8928:	f8 ff 9e 30 	lw      r4,0xfff8(r30)
    892c:	2d 00 00 c0 	ajal    0x000000b4
    8930:	fc ff 9e 30 	lw      r4,0xfffc(r30)
    8934:	05 20 40 00 	orr     r2,r0,r4
    8938:	08 00 bd 07 	addi    r29,r29,0x0008
    893c:	05 f0 a0 03 	orr     r29,r0,r30
    8940:	08 00 bd 07 	addi    r29,r29,0x0008
    8944:	fc ff fd 33 	lw      r31,0xfffc(r29)
    8948:	f8 ff dd 33 	lw      r30,0xfff8(r29)
    894c:	00 00 e0 47 	jmpr    r31

00008950 <OSTimeSet>:
    8950:	f8 ff bd 07 	addi    r29,r29,0xfff8
    8954:	00 00 dd 37 	sw      0x0000(r29),r30
    8958:	04 00 fd 37 	sw      0x0004(r29),r31
    895c:	05 e8 c0 03 	orr     r30,r0,r29
    8960:	f8 ff bd 07 	addi    r29,r29,0xfff8
    8964:	fc ff 9e 34 	sw      0xfffc(r30),r4
    8968:	00 00 80 18 	ori     r4,r0,0x0000
    896c:	f8 ff 9e 34 	sw      0xfff8(r30),r4
    8970:	2a 00 00 c0 	ajal    0x000000a8
    8974:	05 10 80 00 	orr     r4,r0,r2
    8978:	f8 ff 9e 34 	sw      0xfff8(r30),r4
    897c:	01 00 a0 2c 	ldih    r5,0x0001
    8980:	8c 4c a5 18 	ori     r5,r5,0x4c8c
    8984:	fc ff 9e 30 	lw      r4,0xfffc(r30)
    8988:	00 00 85 34 	sw      0x0000(r5),r4
    898c:	f8 ff 9e 30 	lw      r4,0xfff8(r30)
    8990:	2d 00 00 c0 	ajal    0x000000b4
    8994:	08 00 bd 07 	addi    r29,r29,0x0008
    8998:	05 f0 a0 03 	orr     r29,r0,r30
    899c:	08 00 bd 07 	addi    r29,r29,0x0008
    89a0:	fc ff fd 33 	lw      r31,0xfffc(r29)
    89a4:	f8 ff dd 33 	lw      r30,0xfff8(r29)
    89a8:	00 00 e0 47 	jmpr    r31
    89ac:	00 00 00 00 	nop

000089b0 <OSMutexAccept>:
    89b0:	f8 ff bd 07 	addi    r29,r29,0xfff8
    89b4:	00 00 dd 37 	sw      0x0000(r29),r30
    89b8:	04 00 fd 37 	sw      0x0004(r29),r31
    89bc:	05 e8 c0 03 	orr     r30,r0,r29
    89c0:	ec ff bd 07 	addi    r29,r29,0xffec
    89c4:	fc ff 9e 34 	sw      0xfffc(r30),r4
    89c8:	f8 ff be 34 	sw      0xfff8(r30),r5
    89cc:	00 00 80 18 	ori     r4,r0,0x0000
    89d0:	f0 ff 9e 34 	sw      0xfff0(r30),r4
    89d4:	fc ff 9e 30 	lw      r4,0xfffc(r30)
    89d8:	00 00 84 38 	lb      r4,0x0000(r4)
    89dc:	18 00 84 20 	lsli    r4,r4,0x0018
    89e0:	18 00 84 24 	lsri    r4,r4,0x0018
    89e4:	04 00 a0 18 	ori     r5,r0,0x0004
    89e8:	02 28 04 00 	sub     r0,r4,r5
    89ec:	07 00 00 40 	beq     0x00008a08
    89f0:	f8 ff 9e 30 	lw      r4,0xfff8(r30)
    89f4:	01 00 a0 18 	ori     r5,r0,0x0001
    89f8:	00 00 a4 3c 	sb      0x0000(r4),r5
    89fc:	00 00 80 18 	ori     r4,r0,0x0000
    8a00:	ec ff 9e 34 	sw      0xffec(r30),r4
    8a04:	e1 22 00 80 	ajmp    0x00008b84
    8a08:	01 00 80 2c 	ldih    r4,0x0001
    8a0c:	84 4c 84 18 	ori     r4,r4,0x4c84
    8a10:	00 00 84 38 	lb      r4,0x0000(r4)
    8a14:	18 00 84 20 	lsli    r4,r4,0x0018
    8a18:	18 00 84 24 	lsri    r4,r4,0x0018
    8a1c:	00 00 a0 18 	ori     r5,r0,0x0000
    8a20:	02 28 04 00 	sub     r0,r4,r5
    8a24:	07 00 00 40 	beq     0x00008a40
    8a28:	f8 ff 9e 30 	lw      r4,0xfff8(r30)
    8a2c:	02 00 a0 18 	ori     r5,r0,0x0002
    8a30:	00 00 a4 3c 	sb      0x0000(r4),r5
    8a34:	00 00 80 18 	ori     r4,r0,0x0000
    8a38:	ec ff 9e 34 	sw      0xffec(r30),r4
    8a3c:	e1 22 00 80 	ajmp    0x00008b84
    8a40:	2a 00 00 c0 	ajal    0x000000a8
    8a44:	05 10 80 00 	orr     r4,r0,r2
    8a48:	f0 ff 9e 34 	sw      0xfff0(r30),r4
    8a4c:	fc ff 9e 30 	lw      r4,0xfffc(r30)
    8a50:	08 00 84 64 	lh      r4,0x0008(r4)
    8a54:	10 00 84 20 	lsli    r4,r4,0x0010
    8a58:	10 00 84 24 	lsri    r4,r4,0x0010
    8a5c:	08 00 84 24 	lsri    r4,r4,0x0008
    8a60:	f7 ff 9e 3c 	sb      0xfff7(r30),r4
    8a64:	fc ff 9e 30 	lw      r4,0xfffc(r30)
    8a68:	08 00 84 64 	lh      r4,0x0008(r4)
    8a6c:	10 00 84 20 	lsli    r4,r4,0x0010
    8a70:	10 00 84 24 	lsri    r4,r4,0x0010
    8a74:	ff 00 a4 14 	andi    r5,r4,0x00ff
    8a78:	ff 00 80 18 	ori     r4,r0,0x00ff
    8a7c:	02 20 05 00 	sub     r0,r5,r4
    8a80:	3a 00 40 40 	bne     0x00008b68
    8a84:	fc ff de 30 	lw      r6,0xfffc(r30)
    8a88:	fc ff 9e 30 	lw      r4,0xfffc(r30)
    8a8c:	ff ff a0 2c 	ldih    r5,0xffff
    8a90:	00 ff a5 18 	ori     r5,r5,0xff00
    8a94:	08 00 84 64 	lh      r4,0x0008(r4)
    8a98:	04 28 84 00 	and     r4,r4,r5
    8a9c:	08 00 86 68 	sh      0x0008(r6),r4
    8aa0:	fc ff de 30 	lw      r6,0xfffc(r30)
    8aa4:	fc ff fe 30 	lw      r7,0xfffc(r30)
    8aa8:	01 00 80 2c 	ldih    r4,0x0001
    8aac:	88 4c 84 18 	ori     r4,r4,0x4c88
    8ab0:	00 00 84 30 	lw      r4,0x0000(r4)
    8ab4:	26 00 84 38 	lb      r4,0x0026(r4)
    8ab8:	08 00 84 20 	lsli    r4,r4,0x0008
    8abc:	10 00 84 20 	lsli    r4,r4,0x0010
    8ac0:	10 00 84 24 	lsri    r4,r4,0x0010
    8ac4:	08 00 84 24 	lsri    r4,r4,0x0008
    8ac8:	05 20 a0 00 	orr     r5,r0,r4
    8acc:	08 00 87 64 	lh      r4,0x0008(r7)
    8ad0:	05 28 84 00 	orr     r4,r4,r5
    8ad4:	08 00 86 68 	sh      0x0008(r6),r4
    8ad8:	fc ff be 30 	lw      r5,0xfffc(r30)
    8adc:	01 00 80 2c 	ldih    r4,0x0001
    8ae0:	88 4c 84 18 	ori     r4,r4,0x4c88
    8ae4:	00 00 84 30 	lw      r4,0x0000(r4)
    8ae8:	04 00 85 34 	sw      0x0004(r5),r4
    8aec:	f7 ff 9e 38 	lb      r4,0xfff7(r30)
    8af0:	18 00 84 20 	lsli    r4,r4,0x0018
    8af4:	18 00 84 24 	lsri    r4,r4,0x0018
    8af8:	ff 00 a0 18 	ori     r5,r0,0x00ff
    8afc:	02 28 04 00 	sub     r0,r4,r5
    8b00:	12 00 00 40 	beq     0x00008b48
    8b04:	01 00 80 2c 	ldih    r4,0x0001
    8b08:	88 4c 84 18 	ori     r4,r4,0x4c88
    8b0c:	00 00 84 30 	lw      r4,0x0000(r4)
    8b10:	26 00 84 38 	lb      r4,0x0026(r4)
    8b14:	18 00 a4 20 	lsli    r5,r4,0x0018
    8b18:	18 00 a5 24 	lsri    r5,r5,0x0018
    8b1c:	f7 ff 9e 38 	lb      r4,0xfff7(r30)
    8b20:	18 00 84 20 	lsli    r4,r4,0x0018
    8b24:	18 00 84 24 	lsri    r4,r4,0x0018
    8b28:	02 20 05 00 	sub     r0,r5,r4
    8b2c:	07 00 00 42 	bhi     0x00008b48
    8b30:	f0 ff 9e 30 	lw      r4,0xfff0(r30)
    8b34:	2d 00 00 c0 	ajal    0x000000b4
    8b38:	f8 ff 9e 30 	lw      r4,0xfff8(r30)
    8b3c:	78 00 a0 18 	ori     r5,r0,0x0078
    8b40:	00 00 a4 3c 	sb      0x0000(r4),r5
    8b44:	d7 22 00 80 	ajmp    0x00008b5c
    8b48:	f0 ff 9e 30 	lw      r4,0xfff0(r30)
    8b4c:	2d 00 00 c0 	ajal    0x000000b4
    8b50:	f8 ff 9e 30 	lw      r4,0xfff8(r30)
    8b54:	00 00 a0 18 	ori     r5,r0,0x0000
    8b58:	00 00 a4 3c 	sb      0x0000(r4),r5
    8b5c:	01 00 80 18 	ori     r4,r0,0x0001
    8b60:	ec ff 9e 34 	sw      0xffec(r30),r4
    8b64:	e1 22 00 80 	ajmp    0x00008b84
    8b68:	f0 ff 9e 30 	lw      r4,0xfff0(r30)
    8b6c:	2d 00 00 c0 	ajal    0x000000b4
    8b70:	f8 ff 9e 30 	lw      r4,0xfff8(r30)
    8b74:	00 00 a0 18 	ori     r5,r0,0x0000
    8b78:	00 00 a4 3c 	sb      0x0000(r4),r5
    8b7c:	00 00 80 18 	ori     r4,r0,0x0000
    8b80:	ec ff 9e 34 	sw      0xffec(r30),r4
    8b84:	ec ff 5e 30 	lw      r2,0xffec(r30)
    8b88:	14 00 bd 07 	addi    r29,r29,0x0014
    8b8c:	05 f0 a0 03 	orr     r29,r0,r30
    8b90:	08 00 bd 07 	addi    r29,r29,0x0008
    8b94:	fc ff fd 33 	lw      r31,0xfffc(r29)
    8b98:	f8 ff dd 33 	lw      r30,0xfff8(r29)
    8b9c:	00 00 e0 47 	jmpr    r31

00008ba0 <OSMutexCreate>:
    8ba0:	f8 ff bd 07 	addi    r29,r29,0xfff8
    8ba4:	00 00 dd 37 	sw      0x0000(r29),r30
    8ba8:	04 00 fd 37 	sw      0x0004(r29),r31
    8bac:	05 e8 c0 03 	orr     r30,r0,r29
    8bb0:	ec ff bd 07 	addi    r29,r29,0xffec
    8bb4:	ff ff 9e 3c 	sb      0xffff(r30),r4
    8bb8:	f8 ff be 34 	sw      0xfff8(r30),r5
    8bbc:	00 00 80 18 	ori     r4,r0,0x0000
    8bc0:	f0 ff 9e 34 	sw      0xfff0(r30),r4
    8bc4:	01 00 80 2c 	ldih    r4,0x0001
    8bc8:	84 4c 84 18 	ori     r4,r4,0x4c84
    8bcc:	00 00 84 38 	lb      r4,0x0000(r4)
    8bd0:	18 00 84 20 	lsli    r4,r4,0x0018
    8bd4:	18 00 84 24 	lsri    r4,r4,0x0018
    8bd8:	00 00 a0 18 	ori     r5,r0,0x0000
    8bdc:	02 28 04 00 	sub     r0,r4,r5
    8be0:	07 00 00 40 	beq     0x00008bfc
    8be4:	f8 ff 9e 30 	lw      r4,0xfff8(r30)
    8be8:	10 00 a0 18 	ori     r5,r0,0x0010
    8bec:	00 00 a4 3c 	sb      0x0000(r4),r5
    8bf0:	00 00 80 18 	ori     r4,r0,0x0000
    8bf4:	ec ff 9e 34 	sw      0xffec(r30),r4
    8bf8:	62 23 00 80 	ajmp    0x00008d88
    8bfc:	2a 00 00 c0 	ajal    0x000000a8
    8c00:	05 10 80 00 	orr     r4,r0,r2
    8c04:	f0 ff 9e 34 	sw      0xfff0(r30),r4
    8c08:	ff ff 9e 38 	lb      r4,0xffff(r30)
    8c0c:	18 00 84 20 	lsli    r4,r4,0x0018
    8c10:	18 00 84 24 	lsri    r4,r4,0x0018
    8c14:	ff 00 a0 18 	ori     r5,r0,0x00ff
    8c18:	02 28 04 00 	sub     r0,r4,r5
    8c1c:	1d 00 00 40 	beq     0x00008c90
    8c20:	01 00 a0 2c 	ldih    r5,0x0001
    8c24:	a0 6c a5 18 	ori     r5,r5,0x6ca0
    8c28:	ff ff 9e 38 	lb      r4,0xffff(r30)
    8c2c:	18 00 84 20 	lsli    r4,r4,0x0018
    8c30:	18 00 84 24 	lsri    r4,r4,0x0018
    8c34:	02 00 84 20 	lsli    r4,r4,0x0002
    8c38:	00 28 84 00 	add     r4,r4,r5
    8c3c:	00 00 a4 30 	lw      r5,0x0000(r4)
    8c40:	00 00 80 18 	ori     r4,r0,0x0000
    8c44:	02 20 05 00 	sub     r0,r5,r4
    8c48:	09 00 00 40 	beq     0x00008c6c
    8c4c:	f0 ff 9e 30 	lw      r4,0xfff0(r30)
    8c50:	2d 00 00 c0 	ajal    0x000000b4
    8c54:	f8 ff 9e 30 	lw      r4,0xfff8(r30)
    8c58:	28 00 a0 18 	ori     r5,r0,0x0028
    8c5c:	00 00 a4 3c 	sb      0x0000(r4),r5
    8c60:	00 00 80 18 	ori     r4,r0,0x0000
    8c64:	ec ff 9e 34 	sw      0xffec(r30),r4
    8c68:	62 23 00 80 	ajmp    0x00008d88
    8c6c:	01 00 a0 2c 	ldih    r5,0x0001
    8c70:	a0 6c a5 18 	ori     r5,r5,0x6ca0
    8c74:	ff ff 9e 38 	lb      r4,0xffff(r30)
    8c78:	18 00 84 20 	lsli    r4,r4,0x0018
    8c7c:	18 00 84 24 	lsri    r4,r4,0x0018
    8c80:	02 00 84 20 	lsli    r4,r4,0x0002
    8c84:	00 28 a4 00 	add     r5,r4,r5
    8c88:	01 00 80 18 	ori     r4,r0,0x0001
    8c8c:	00 00 85 34 	sw      0x0000(r5),r4
    8c90:	01 00 80 2c 	ldih    r4,0x0001
    8c94:	80 4c 84 18 	ori     r4,r4,0x4c80
    8c98:	00 00 84 30 	lw      r4,0x0000(r4)
    8c9c:	f4 ff 9e 34 	sw      0xfff4(r30),r4
    8ca0:	f4 ff be 30 	lw      r5,0xfff4(r30)
    8ca4:	00 00 80 18 	ori     r4,r0,0x0000
    8ca8:	02 20 05 00 	sub     r0,r5,r4
    8cac:	18 00 40 40 	bne     0x00008d0c
    8cb0:	ff ff 9e 38 	lb      r4,0xffff(r30)
    8cb4:	18 00 84 20 	lsli    r4,r4,0x0018
    8cb8:	18 00 84 24 	lsri    r4,r4,0x0018
    8cbc:	ff 00 a0 18 	ori     r5,r0,0x00ff
    8cc0:	02 28 04 00 	sub     r0,r4,r5
    8cc4:	0a 00 00 40 	beq     0x00008cec
    8cc8:	01 00 a0 2c 	ldih    r5,0x0001
    8ccc:	a0 6c a5 18 	ori     r5,r5,0x6ca0
    8cd0:	ff ff 9e 38 	lb      r4,0xffff(r30)
    8cd4:	18 00 84 20 	lsli    r4,r4,0x0018
    8cd8:	18 00 84 24 	lsri    r4,r4,0x0018
    8cdc:	02 00 84 20 	lsli    r4,r4,0x0002
    8ce0:	00 28 a4 00 	add     r5,r4,r5
    8ce4:	00 00 80 18 	ori     r4,r0,0x0000
    8ce8:	00 00 85 34 	sw      0x0000(r5),r4
    8cec:	f0 ff 9e 30 	lw      r4,0xfff0(r30)
    8cf0:	2d 00 00 c0 	ajal    0x000000b4
    8cf4:	f8 ff 9e 30 	lw      r4,0xfff8(r30)
    8cf8:	04 00 a0 18 	ori     r5,r0,0x0004
    8cfc:	00 00 a4 3c 	sb      0x0000(r4),r5
    8d00:	f4 ff 9e 30 	lw      r4,0xfff4(r30)
    8d04:	ec ff 9e 34 	sw      0xffec(r30),r4
    8d08:	62 23 00 80 	ajmp    0x00008d88
    8d0c:	01 00 a0 2c 	ldih    r5,0x0001
    8d10:	80 4c a5 18 	ori     r5,r5,0x4c80
    8d14:	01 00 80 2c 	ldih    r4,0x0001
    8d18:	80 4c 84 18 	ori     r4,r4,0x4c80
    8d1c:	00 00 84 30 	lw      r4,0x0000(r4)
    8d20:	04 00 84 30 	lw      r4,0x0004(r4)
    8d24:	00 00 85 34 	sw      0x0000(r5),r4
    8d28:	f0 ff 9e 30 	lw      r4,0xfff0(r30)
    8d2c:	2d 00 00 c0 	ajal    0x000000b4
    8d30:	f4 ff 9e 30 	lw      r4,0xfff4(r30)
    8d34:	04 00 a0 18 	ori     r5,r0,0x0004
    8d38:	00 00 a4 3c 	sb      0x0000(r4),r5
    8d3c:	f4 ff be 30 	lw      r5,0xfff4(r30)
    8d40:	ff ff 9e 38 	lb      r4,0xffff(r30)
    8d44:	08 00 84 20 	lsli    r4,r4,0x0008
    8d48:	10 00 84 20 	lsli    r4,r4,0x0010
    8d4c:	10 00 84 24 	lsri    r4,r4,0x0010
    8d50:	08 00 84 24 	lsri    r4,r4,0x0008
    8d54:	08 00 84 20 	lsli    r4,r4,0x0008
    8d58:	ff 00 84 18 	ori     r4,r4,0x00ff
    8d5c:	08 00 85 68 	sh      0x0008(r5),r4
    8d60:	f4 ff be 30 	lw      r5,0xfff4(r30)
    8d64:	00 00 80 18 	ori     r4,r0,0x0000
    8d68:	04 00 85 34 	sw      0x0004(r5),r4
    8d6c:	f4 ff 9e 30 	lw      r4,0xfff4(r30)
    8d70:	50 17 00 c0 	ajal    0x00005d40
    8d74:	f8 ff 9e 30 	lw      r4,0xfff8(r30)
    8d78:	00 00 a0 18 	ori     r5,r0,0x0000
    8d7c:	00 00 a4 3c 	sb      0x0000(r4),r5
    8d80:	f4 ff 9e 30 	lw      r4,0xfff4(r30)
    8d84:	ec ff 9e 34 	sw      0xffec(r30),r4
    8d88:	ec ff 5e 30 	lw      r2,0xffec(r30)
    8d8c:	14 00 bd 07 	addi    r29,r29,0x0014
    8d90:	05 f0 a0 03 	orr     r29,r0,r30
    8d94:	08 00 bd 07 	addi    r29,r29,0x0008
    8d98:	fc ff fd 33 	lw      r31,0xfffc(r29)
    8d9c:	f8 ff dd 33 	lw      r30,0xfff8(r29)
    8da0:	00 00 e0 47 	jmpr    r31
    8da4:	00 00 00 00 	nop
    8da8:	00 00 00 00 	nop
    8dac:	00 00 00 00 	nop

00008db0 <OSMutexDel>:
    8db0:	f8 ff bd 07 	addi    r29,r29,0xfff8
    8db4:	00 00 dd 37 	sw      0x0000(r29),r30
    8db8:	04 00 fd 37 	sw      0x0004(r29),r31
    8dbc:	05 e8 c0 03 	orr     r30,r0,r29
    8dc0:	d8 ff bd 07 	addi    r29,r29,0xffd8
    8dc4:	fc ff 9e 34 	sw      0xfffc(r30),r4
    8dc8:	fb ff be 3c 	sb      0xfffb(r30),r5
    8dcc:	f4 ff de 34 	sw      0xfff4(r30),r6
    8dd0:	00 00 80 18 	ori     r4,r0,0x0000
    8dd4:	e0 ff 9e 34 	sw      0xffe0(r30),r4
    8dd8:	fc ff 9e 30 	lw      r4,0xfffc(r30)
    8ddc:	00 00 84 38 	lb      r4,0x0000(r4)
    8de0:	18 00 84 20 	lsli    r4,r4,0x0018
    8de4:	18 00 84 24 	lsri    r4,r4,0x0018
    8de8:	04 00 a0 18 	ori     r5,r0,0x0004
    8dec:	02 28 04 00 	sub     r0,r4,r5
    8df0:	07 00 00 40 	beq     0x00008e0c
    8df4:	f4 ff 9e 30 	lw      r4,0xfff4(r30)
    8df8:	01 00 a0 18 	ori     r5,r0,0x0001
    8dfc:	00 00 a4 3c 	sb      0x0000(r4),r5
    8e00:	fc ff 9e 30 	lw      r4,0xfffc(r30)
    8e04:	dc ff 9e 34 	sw      0xffdc(r30),r4
    8e08:	54 24 00 80 	ajmp    0x00009150
    8e0c:	01 00 80 2c 	ldih    r4,0x0001
    8e10:	84 4c 84 18 	ori     r4,r4,0x4c84
    8e14:	00 00 84 38 	lb      r4,0x0000(r4)
    8e18:	18 00 84 20 	lsli    r4,r4,0x0018
    8e1c:	18 00 84 24 	lsri    r4,r4,0x0018
    8e20:	00 00 a0 18 	ori     r5,r0,0x0000
    8e24:	02 28 04 00 	sub     r0,r4,r5
    8e28:	07 00 00 40 	beq     0x00008e44
    8e2c:	f4 ff 9e 30 	lw      r4,0xfff4(r30)
    8e30:	0f 00 a0 18 	ori     r5,r0,0x000f
    8e34:	00 00 a4 3c 	sb      0x0000(r4),r5
    8e38:	fc ff 9e 30 	lw      r4,0xfffc(r30)
    8e3c:	dc ff 9e 34 	sw      0xffdc(r30),r4
    8e40:	54 24 00 80 	ajmp    0x00009150
    8e44:	2a 00 00 c0 	ajal    0x000000a8
    8e48:	05 10 80 00 	orr     r4,r0,r2
    8e4c:	e0 ff 9e 34 	sw      0xffe0(r30),r4
    8e50:	fc ff 9e 30 	lw      r4,0xfffc(r30)
    8e54:	0a 00 84 38 	lb      r4,0x000a(r4)
    8e58:	18 00 84 20 	lsli    r4,r4,0x0018
    8e5c:	18 00 84 24 	lsri    r4,r4,0x0018
    8e60:	00 00 a0 18 	ori     r5,r0,0x0000
    8e64:	02 28 04 00 	sub     r0,r4,r5
    8e68:	04 00 00 40 	beq     0x00008e78
    8e6c:	01 00 80 18 	ori     r4,r0,0x0001
    8e70:	f3 ff 9e 3c 	sb      0xfff3(r30),r4
    8e74:	a0 23 00 80 	ajmp    0x00008e80
    8e78:	00 00 a0 18 	ori     r5,r0,0x0000
    8e7c:	f3 ff be 3c 	sb      0xfff3(r30),r5
    8e80:	fb ff 9e 38 	lb      r4,0xfffb(r30)
    8e84:	18 00 84 20 	lsli    r4,r4,0x0018
    8e88:	d8 ff 9e 34 	sw      0xffd8(r30),r4
    8e8c:	d8 ff 9e 30 	lw      r4,0xffd8(r30)
    8e90:	18 00 84 24 	lsri    r4,r4,0x0018
    8e94:	d8 ff 9e 34 	sw      0xffd8(r30),r4
    8e98:	00 00 80 18 	ori     r4,r0,0x0000
    8e9c:	d8 ff be 30 	lw      r5,0xffd8(r30)
    8ea0:	02 20 05 00 	sub     r0,r5,r4
    8ea4:	06 00 00 40 	beq     0x00008ebc
    8ea8:	01 00 80 18 	ori     r4,r0,0x0001
    8eac:	d8 ff be 30 	lw      r5,0xffd8(r30)
    8eb0:	02 20 05 00 	sub     r0,r5,r4
    8eb4:	3c 00 00 40 	beq     0x00008fa4
    8eb8:	4b 24 00 80 	ajmp    0x0000912c
    8ebc:	f3 ff 9e 38 	lb      r4,0xfff3(r30)
    8ec0:	18 00 84 20 	lsli    r4,r4,0x0018
    8ec4:	18 00 84 24 	lsri    r4,r4,0x0018
    8ec8:	00 00 a0 18 	ori     r5,r0,0x0000
    8ecc:	02 28 04 00 	sub     r0,r4,r5
    8ed0:	2d 00 40 40 	bne     0x00008f84
    8ed4:	fc ff 9e 30 	lw      r4,0xfffc(r30)
    8ed8:	08 00 84 64 	lh      r4,0x0008(r4)
    8edc:	10 00 84 20 	lsli    r4,r4,0x0010
    8ee0:	10 00 84 24 	lsri    r4,r4,0x0010
    8ee4:	08 00 84 24 	lsri    r4,r4,0x0008
    8ee8:	eb ff 9e 3c 	sb      0xffeb(r30),r4
    8eec:	eb ff 9e 38 	lb      r4,0xffeb(r30)
    8ef0:	18 00 84 20 	lsli    r4,r4,0x0018
    8ef4:	18 00 84 24 	lsri    r4,r4,0x0018
    8ef8:	ff 00 a0 18 	ori     r5,r0,0x00ff
    8efc:	02 28 04 00 	sub     r0,r4,r5
    8f00:	0a 00 00 40 	beq     0x00008f28
    8f04:	01 00 a0 2c 	ldih    r5,0x0001
    8f08:	a0 6c a5 18 	ori     r5,r5,0x6ca0
    8f0c:	eb ff 9e 38 	lb      r4,0xffeb(r30)
    8f10:	18 00 84 20 	lsli    r4,r4,0x0018
    8f14:	18 00 84 24 	lsri    r4,r4,0x0018
    8f18:	02 00 84 20 	lsli    r4,r4,0x0002
    8f1c:	00 28 a4 00 	add     r5,r4,r5
    8f20:	00 00 80 18 	ori     r4,r0,0x0000
    8f24:	00 00 85 34 	sw      0x0000(r5),r4
    8f28:	fc ff 9e 30 	lw      r4,0xfffc(r30)
    8f2c:	00 00 a0 18 	ori     r5,r0,0x0000
    8f30:	00 00 a4 3c 	sb      0x0000(r4),r5
    8f34:	fc ff be 30 	lw      r5,0xfffc(r30)
    8f38:	01 00 80 2c 	ldih    r4,0x0001
    8f3c:	80 4c 84 18 	ori     r4,r4,0x4c80
    8f40:	00 00 84 30 	lw      r4,0x0000(r4)
    8f44:	04 00 85 34 	sw      0x0004(r5),r4
    8f48:	fc ff 9e 30 	lw      r4,0xfffc(r30)
    8f4c:	00 00 a0 18 	ori     r5,r0,0x0000
    8f50:	08 00 a4 68 	sh      0x0008(r4),r5
    8f54:	01 00 a0 2c 	ldih    r5,0x0001
    8f58:	80 4c a5 18 	ori     r5,r5,0x4c80
    8f5c:	fc ff 9e 30 	lw      r4,0xfffc(r30)
    8f60:	00 00 85 34 	sw      0x0000(r5),r4
    8f64:	e0 ff 9e 30 	lw      r4,0xffe0(r30)
    8f68:	2d 00 00 c0 	ajal    0x000000b4
    8f6c:	f4 ff 9e 30 	lw      r4,0xfff4(r30)
    8f70:	00 00 a0 18 	ori     r5,r0,0x0000
    8f74:	00 00 a4 3c 	sb      0x0000(r4),r5
    8f78:	00 00 80 18 	ori     r4,r0,0x0000
    8f7c:	ec ff 9e 34 	sw      0xffec(r30),r4
    8f80:	52 24 00 80 	ajmp    0x00009148
    8f84:	e0 ff 9e 30 	lw      r4,0xffe0(r30)
    8f88:	2d 00 00 c0 	ajal    0x000000b4
    8f8c:	f4 ff 9e 30 	lw      r4,0xfff4(r30)
    8f90:	49 00 a0 18 	ori     r5,r0,0x0049
    8f94:	00 00 a4 3c 	sb      0x0000(r4),r5
    8f98:	fc ff 9e 30 	lw      r4,0xfffc(r30)
    8f9c:	ec ff 9e 34 	sw      0xffec(r30),r4
    8fa0:	52 24 00 80 	ajmp    0x00009148
    8fa4:	fc ff 9e 30 	lw      r4,0xfffc(r30)
    8fa8:	08 00 84 64 	lh      r4,0x0008(r4)
    8fac:	10 00 84 20 	lsli    r4,r4,0x0010
    8fb0:	10 00 84 24 	lsri    r4,r4,0x0010
    8fb4:	08 00 84 24 	lsri    r4,r4,0x0008
    8fb8:	eb ff 9e 3c 	sb      0xffeb(r30),r4
    8fbc:	eb ff 9e 38 	lb      r4,0xffeb(r30)
    8fc0:	18 00 84 20 	lsli    r4,r4,0x0018
    8fc4:	18 00 84 24 	lsri    r4,r4,0x0018
    8fc8:	ff 00 a0 18 	ori     r5,r0,0x00ff
    8fcc:	02 28 04 00 	sub     r0,r4,r5
    8fd0:	17 00 00 40 	beq     0x0000902c
    8fd4:	fc ff 9e 30 	lw      r4,0xfffc(r30)
    8fd8:	08 00 84 64 	lh      r4,0x0008(r4)
    8fdc:	ea ff 9e 3c 	sb      0xffea(r30),r4
    8fe0:	fc ff 9e 30 	lw      r4,0xfffc(r30)
    8fe4:	04 00 84 30 	lw      r4,0x0004(r4)
    8fe8:	e4 ff 9e 34 	sw      0xffe4(r30),r4
    8fec:	e4 ff be 30 	lw      r5,0xffe4(r30)
    8ff0:	00 00 80 18 	ori     r4,r0,0x0000
    8ff4:	02 20 05 00 	sub     r0,r5,r4
    8ff8:	0d 00 00 40 	beq     0x0000902c
    8ffc:	e4 ff 9e 30 	lw      r4,0xffe4(r30)
    9000:	26 00 84 38 	lb      r4,0x0026(r4)
    9004:	18 00 a4 20 	lsli    r5,r4,0x0018
    9008:	18 00 a5 24 	lsri    r5,r5,0x0018
    900c:	eb ff 9e 38 	lb      r4,0xffeb(r30)
    9010:	18 00 84 20 	lsli    r4,r4,0x0018
    9014:	18 00 84 24 	lsri    r4,r4,0x0018
    9018:	02 20 05 00 	sub     r0,r5,r4
    901c:	04 00 40 40 	bne     0x0000902c
    9020:	e4 ff 9e 30 	lw      r4,0xffe4(r30)
    9024:	ea ff be 38 	lb      r5,0xffea(r30)
    9028:	34 27 00 c0 	ajal    0x00009cd0
    902c:	fc ff 9e 30 	lw      r4,0xfffc(r30)
    9030:	0a 00 84 38 	lb      r4,0x000a(r4)
    9034:	18 00 84 20 	lsli    r4,r4,0x0018
    9038:	18 00 84 24 	lsri    r4,r4,0x0018
    903c:	00 00 a0 18 	ori     r5,r0,0x0000
    9040:	02 28 04 00 	sub     r0,r4,r5
    9044:	07 00 00 40 	beq     0x00009060
    9048:	fc ff 9e 30 	lw      r4,0xfffc(r30)
    904c:	00 00 a0 18 	ori     r5,r0,0x0000
    9050:	10 00 c0 18 	ori     r6,r0,0x0010
    9054:	02 00 e0 18 	ori     r7,r0,0x0002
    9058:	48 16 00 c0 	ajal    0x00005920
    905c:	0b 24 00 80 	ajmp    0x0000902c
    9060:	fc ff 9e 30 	lw      r4,0xfffc(r30)
    9064:	08 00 84 64 	lh      r4,0x0008(r4)
    9068:	10 00 84 20 	lsli    r4,r4,0x0010
    906c:	10 00 84 24 	lsri    r4,r4,0x0010
    9070:	08 00 84 24 	lsri    r4,r4,0x0008
    9074:	eb ff 9e 3c 	sb      0xffeb(r30),r4
    9078:	eb ff 9e 38 	lb      r4,0xffeb(r30)
    907c:	18 00 84 20 	lsli    r4,r4,0x0018
    9080:	18 00 84 24 	lsri    r4,r4,0x0018
    9084:	ff 00 a0 18 	ori     r5,r0,0x00ff
    9088:	02 28 04 00 	sub     r0,r4,r5
    908c:	0a 00 00 40 	beq     0x000090b4
    9090:	01 00 a0 2c 	ldih    r5,0x0001
    9094:	a0 6c a5 18 	ori     r5,r5,0x6ca0
    9098:	eb ff 9e 38 	lb      r4,0xffeb(r30)
    909c:	18 00 84 20 	lsli    r4,r4,0x0018
    90a0:	18 00 84 24 	lsri    r4,r4,0x0018
    90a4:	02 00 84 20 	lsli    r4,r4,0x0002
    90a8:	00 28 a4 00 	add     r5,r4,r5
    90ac:	00 00 80 18 	ori     r4,r0,0x0000
    90b0:	00 00 85 34 	sw      0x0000(r5),r4
    90b4:	fc ff 9e 30 	lw      r4,0xfffc(r30)
    90b8:	00 00 a0 18 	ori     r5,r0,0x0000
    90bc:	00 00 a4 3c 	sb      0x0000(r4),r5
    90c0:	fc ff be 30 	lw      r5,0xfffc(r30)
    90c4:	01 00 80 2c 	ldih    r4,0x0001
    90c8:	80 4c 84 18 	ori     r4,r4,0x4c80
    90cc:	00 00 84 30 	lw      r4,0x0000(r4)
    90d0:	04 00 85 34 	sw      0x0004(r5),r4
    90d4:	fc ff 9e 30 	lw      r4,0xfffc(r30)
    90d8:	00 00 a0 18 	ori     r5,r0,0x0000
    90dc:	08 00 a4 68 	sh      0x0008(r4),r5
    90e0:	01 00 a0 2c 	ldih    r5,0x0001
    90e4:	80 4c a5 18 	ori     r5,r5,0x4c80
    90e8:	fc ff 9e 30 	lw      r4,0xfffc(r30)
    90ec:	00 00 85 34 	sw      0x0000(r5),r4
    90f0:	e0 ff 9e 30 	lw      r4,0xffe0(r30)
    90f4:	2d 00 00 c0 	ajal    0x000000b4
    90f8:	f3 ff 9e 38 	lb      r4,0xfff3(r30)
    90fc:	18 00 84 20 	lsli    r4,r4,0x0018
    9100:	18 00 84 24 	lsri    r4,r4,0x0018
    9104:	01 00 a0 18 	ori     r5,r0,0x0001
    9108:	02 28 04 00 	sub     r0,r4,r5
    910c:	02 00 40 40 	bne     0x00009114
    9110:	10 19 00 c0 	ajal    0x00006440
    9114:	f4 ff 9e 30 	lw      r4,0xfff4(r30)
    9118:	00 00 a0 18 	ori     r5,r0,0x0000
    911c:	00 00 a4 3c 	sb      0x0000(r4),r5
    9120:	00 00 80 18 	ori     r4,r0,0x0000
    9124:	ec ff 9e 34 	sw      0xffec(r30),r4
    9128:	52 24 00 80 	ajmp    0x00009148
    912c:	e0 ff 9e 30 	lw      r4,0xffe0(r30)
    9130:	2d 00 00 c0 	ajal    0x000000b4
    9134:	f4 ff 9e 30 	lw      r4,0xfff4(r30)
    9138:	07 00 a0 18 	ori     r5,r0,0x0007
    913c:	00 00 a4 3c 	sb      0x0000(r4),r5
    9140:	fc ff 9e 30 	lw      r4,0xfffc(r30)
    9144:	ec ff 9e 34 	sw      0xffec(r30),r4
    9148:	ec ff 9e 30 	lw      r4,0xffec(r30)
    914c:	dc ff 9e 34 	sw      0xffdc(r30),r4
    9150:	dc ff 5e 30 	lw      r2,0xffdc(r30)
    9154:	28 00 bd 07 	addi    r29,r29,0x0028
    9158:	05 f0 a0 03 	orr     r29,r0,r30
    915c:	08 00 bd 07 	addi    r29,r29,0x0008
    9160:	fc ff fd 33 	lw      r31,0xfffc(r29)
    9164:	f8 ff dd 33 	lw      r30,0xfff8(r29)
    9168:	00 00 e0 47 	jmpr    r31
    916c:	00 00 00 00 	nop

00009170 <OSMutexPend>:
    9170:	f8 ff bd 07 	addi    r29,r29,0xfff8
    9174:	00 00 dd 37 	sw      0x0000(r29),r30
    9178:	04 00 fd 37 	sw      0x0004(r29),r31
    917c:	05 e8 c0 03 	orr     r30,r0,r29
    9180:	dc ff bd 07 	addi    r29,r29,0xffdc
    9184:	fc ff 9e 34 	sw      0xfffc(r30),r4
    9188:	f8 ff be 34 	sw      0xfff8(r30),r5
    918c:	f4 ff de 34 	sw      0xfff4(r30),r6
    9190:	00 00 80 18 	ori     r4,r0,0x0000
    9194:	e0 ff 9e 34 	sw      0xffe0(r30),r4
    9198:	fc ff 9e 30 	lw      r4,0xfffc(r30)
    919c:	00 00 84 38 	lb      r4,0x0000(r4)
    91a0:	18 00 84 20 	lsli    r4,r4,0x0018
    91a4:	18 00 84 24 	lsri    r4,r4,0x0018
    91a8:	04 00 a0 18 	ori     r5,r0,0x0004
    91ac:	02 28 04 00 	sub     r0,r4,r5
    91b0:	05 00 00 40 	beq     0x000091c4
    91b4:	f4 ff 9e 30 	lw      r4,0xfff4(r30)
    91b8:	01 00 a0 18 	ori     r5,r0,0x0001
    91bc:	00 00 a4 3c 	sb      0x0000(r4),r5
    91c0:	1a 26 00 80 	ajmp    0x00009868
    91c4:	01 00 80 2c 	ldih    r4,0x0001
    91c8:	84 4c 84 18 	ori     r4,r4,0x4c84
    91cc:	00 00 84 38 	lb      r4,0x0000(r4)
    91d0:	18 00 84 20 	lsli    r4,r4,0x0018
    91d4:	18 00 84 24 	lsri    r4,r4,0x0018
    91d8:	00 00 a0 18 	ori     r5,r0,0x0000
    91dc:	02 28 04 00 	sub     r0,r4,r5
    91e0:	05 00 00 40 	beq     0x000091f4
    91e4:	f4 ff 9e 30 	lw      r4,0xfff4(r30)
    91e8:	02 00 a0 18 	ori     r5,r0,0x0002
    91ec:	00 00 a4 3c 	sb      0x0000(r4),r5
    91f0:	1a 26 00 80 	ajmp    0x00009868
    91f4:	01 00 80 2c 	ldih    r4,0x0001
    91f8:	40 33 84 18 	ori     r4,r4,0x3340
    91fc:	00 00 84 38 	lb      r4,0x0000(r4)
    9200:	18 00 84 20 	lsli    r4,r4,0x0018
    9204:	18 00 84 24 	lsri    r4,r4,0x0018
    9208:	00 00 a0 18 	ori     r5,r0,0x0000
    920c:	02 28 04 00 	sub     r0,r4,r5
    9210:	05 00 00 40 	beq     0x00009224
    9214:	f4 ff 9e 30 	lw      r4,0xfff4(r30)
    9218:	0d 00 a0 18 	ori     r5,r0,0x000d
    921c:	00 00 a4 3c 	sb      0x0000(r4),r5
    9220:	1a 26 00 80 	ajmp    0x00009868
    9224:	2a 00 00 c0 	ajal    0x000000a8
    9228:	05 10 80 00 	orr     r4,r0,r2
    922c:	e0 ff 9e 34 	sw      0xffe0(r30),r4
    9230:	fc ff 9e 30 	lw      r4,0xfffc(r30)
    9234:	08 00 84 64 	lh      r4,0x0008(r4)
    9238:	10 00 84 20 	lsli    r4,r4,0x0010
    923c:	10 00 84 24 	lsri    r4,r4,0x0010
    9240:	08 00 84 24 	lsri    r4,r4,0x0008
    9244:	f3 ff 9e 3c 	sb      0xfff3(r30),r4
    9248:	fc ff 9e 30 	lw      r4,0xfffc(r30)
    924c:	08 00 84 64 	lh      r4,0x0008(r4)
    9250:	18 00 84 20 	lsli    r4,r4,0x0018
    9254:	18 00 84 24 	lsri    r4,r4,0x0018
    9258:	ff 00 a0 18 	ori     r5,r0,0x00ff
    925c:	02 28 04 00 	sub     r0,r4,r5
    9260:	38 00 40 40 	bne     0x00009340
    9264:	fc ff de 30 	lw      r6,0xfffc(r30)
    9268:	fc ff 9e 30 	lw      r4,0xfffc(r30)
    926c:	ff ff a0 2c 	ldih    r5,0xffff
    9270:	00 ff a5 18 	ori     r5,r5,0xff00
    9274:	08 00 84 64 	lh      r4,0x0008(r4)
    9278:	04 28 84 00 	and     r4,r4,r5
    927c:	08 00 86 68 	sh      0x0008(r6),r4
    9280:	fc ff de 30 	lw      r6,0xfffc(r30)
    9284:	fc ff fe 30 	lw      r7,0xfffc(r30)
    9288:	01 00 80 2c 	ldih    r4,0x0001
    928c:	88 4c 84 18 	ori     r4,r4,0x4c88
    9290:	00 00 84 30 	lw      r4,0x0000(r4)
    9294:	26 00 84 38 	lb      r4,0x0026(r4)
    9298:	08 00 84 20 	lsli    r4,r4,0x0008
    929c:	10 00 84 20 	lsli    r4,r4,0x0010
    92a0:	10 00 84 24 	lsri    r4,r4,0x0010
    92a4:	08 00 84 24 	lsri    r4,r4,0x0008
    92a8:	05 20 a0 00 	orr     r5,r0,r4
    92ac:	08 00 87 64 	lh      r4,0x0008(r7)
    92b0:	05 28 84 00 	orr     r4,r4,r5
    92b4:	08 00 86 68 	sh      0x0008(r6),r4
    92b8:	fc ff be 30 	lw      r5,0xfffc(r30)
    92bc:	01 00 80 2c 	ldih    r4,0x0001
    92c0:	88 4c 84 18 	ori     r4,r4,0x4c88
    92c4:	00 00 84 30 	lw      r4,0x0000(r4)
    92c8:	04 00 85 34 	sw      0x0004(r5),r4
    92cc:	f3 ff 9e 38 	lb      r4,0xfff3(r30)
    92d0:	18 00 84 20 	lsli    r4,r4,0x0018
    92d4:	18 00 84 24 	lsri    r4,r4,0x0018
    92d8:	ff 00 a0 18 	ori     r5,r0,0x00ff
    92dc:	02 28 04 00 	sub     r0,r4,r5
    92e0:	12 00 00 40 	beq     0x00009328
    92e4:	01 00 80 2c 	ldih    r4,0x0001
    92e8:	88 4c 84 18 	ori     r4,r4,0x4c88
    92ec:	00 00 84 30 	lw      r4,0x0000(r4)
    92f0:	26 00 84 38 	lb      r4,0x0026(r4)
    92f4:	18 00 a4 20 	lsli    r5,r4,0x0018
    92f8:	18 00 a5 24 	lsri    r5,r5,0x0018
    92fc:	f3 ff 9e 38 	lb      r4,0xfff3(r30)
    9300:	18 00 84 20 	lsli    r4,r4,0x0018
    9304:	18 00 84 24 	lsri    r4,r4,0x0018
    9308:	02 20 05 00 	sub     r0,r5,r4
    930c:	07 00 00 42 	bhi     0x00009328
    9310:	e0 ff 9e 30 	lw      r4,0xffe0(r30)
    9314:	2d 00 00 c0 	ajal    0x000000b4
    9318:	f4 ff 9e 30 	lw      r4,0xfff4(r30)
    931c:	78 00 a0 18 	ori     r5,r0,0x0078
    9320:	00 00 a4 3c 	sb      0x0000(r4),r5
    9324:	1a 26 00 80 	ajmp    0x00009868
    9328:	e0 ff 9e 30 	lw      r4,0xffe0(r30)
    932c:	2d 00 00 c0 	ajal    0x000000b4
    9330:	f4 ff 9e 30 	lw      r4,0xfff4(r30)
    9334:	00 00 a0 18 	ori     r5,r0,0x0000
    9338:	00 00 a4 3c 	sb      0x0000(r4),r5
    933c:	1a 26 00 80 	ajmp    0x00009868
    9340:	f3 ff 9e 38 	lb      r4,0xfff3(r30)
    9344:	18 00 84 20 	lsli    r4,r4,0x0018
    9348:	18 00 84 24 	lsri    r4,r4,0x0018
    934c:	ff 00 a0 18 	ori     r5,r0,0x00ff
    9350:	02 28 04 00 	sub     r0,r4,r5
    9354:	f7 00 00 40 	beq     0x00009730
    9358:	fc ff 9e 30 	lw      r4,0xfffc(r30)
    935c:	08 00 84 64 	lh      r4,0x0008(r4)
    9360:	f2 ff 9e 3c 	sb      0xfff2(r30),r4
    9364:	fc ff 9e 30 	lw      r4,0xfffc(r30)
    9368:	04 00 84 30 	lw      r4,0x0004(r4)
    936c:	ec ff 9e 34 	sw      0xffec(r30),r4
    9370:	ec ff 9e 30 	lw      r4,0xffec(r30)
    9374:	26 00 84 38 	lb      r4,0x0026(r4)
    9378:	18 00 a4 20 	lsli    r5,r4,0x0018
    937c:	18 00 a5 24 	lsri    r5,r5,0x0018
    9380:	f3 ff 9e 38 	lb      r4,0xfff3(r30)
    9384:	18 00 84 20 	lsli    r4,r4,0x0018
    9388:	18 00 84 24 	lsri    r4,r4,0x0018
    938c:	02 20 05 00 	sub     r0,r5,r4
    9390:	e8 00 40 42 	bls     0x00009730
    9394:	01 00 80 2c 	ldih    r4,0x0001
    9398:	88 4c 84 18 	ori     r4,r4,0x4c88
    939c:	00 00 84 30 	lw      r4,0x0000(r4)
    93a0:	26 00 84 38 	lb      r4,0x0026(r4)
    93a4:	18 00 a4 20 	lsli    r5,r4,0x0018
    93a8:	18 00 a5 24 	lsri    r5,r5,0x0018
    93ac:	f2 ff 9e 38 	lb      r4,0xfff2(r30)
    93b0:	18 00 84 20 	lsli    r4,r4,0x0018
    93b4:	18 00 84 24 	lsri    r4,r4,0x0018
    93b8:	02 20 05 00 	sub     r0,r5,r4
    93bc:	dd 00 00 41 	bhs     0x00009730
    93c0:	ec ff 9e 30 	lw      r4,0xffec(r30)
    93c4:	28 00 84 38 	lb      r4,0x0028(r4)
    93c8:	e7 ff 9e 3c 	sb      0xffe7(r30),r4
    93cc:	01 00 a0 2c 	ldih    r5,0x0001
    93d0:	78 4c a5 18 	ori     r5,r5,0x4c78
    93d4:	e7 ff 9e 38 	lb      r4,0xffe7(r30)
    93d8:	18 00 84 20 	lsli    r4,r4,0x0018
    93dc:	18 00 84 24 	lsri    r4,r4,0x0018
    93e0:	00 20 85 00 	add     r4,r5,r4
    93e4:	ec ff be 30 	lw      r5,0xffec(r30)
    93e8:	00 00 c4 38 	lb      r6,0x0000(r4)
    93ec:	29 00 85 38 	lb      r4,0x0029(r5)
    93f0:	04 20 86 00 	and     r4,r6,r4
    93f4:	18 00 84 20 	lsli    r4,r4,0x0018
    93f8:	18 00 84 24 	lsri    r4,r4,0x0018
    93fc:	00 00 a0 18 	ori     r5,r0,0x0000
    9400:	02 28 04 00 	sub     r0,r4,r5
    9404:	2d 00 00 40 	beq     0x000094b8
    9408:	01 00 a0 2c 	ldih    r5,0x0001
    940c:	78 4c a5 18 	ori     r5,r5,0x4c78
    9410:	e7 ff 9e 38 	lb      r4,0xffe7(r30)
    9414:	18 00 84 20 	lsli    r4,r4,0x0018
    9418:	18 00 84 24 	lsri    r4,r4,0x0018
    941c:	00 20 c5 00 	add     r6,r5,r4
    9420:	01 00 a0 2c 	ldih    r5,0x0001
    9424:	78 4c a5 18 	ori     r5,r5,0x4c78
    9428:	e7 ff 9e 38 	lb      r4,0xffe7(r30)
    942c:	18 00 84 20 	lsli    r4,r4,0x0018
    9430:	18 00 84 24 	lsri    r4,r4,0x0018
    9434:	00 20 a5 00 	add     r5,r5,r4
    9438:	ec ff 9e 30 	lw      r4,0xffec(r30)
    943c:	29 00 84 38 	lb      r4,0x0029(r4)
    9440:	0c 00 84 6c 	not     r4,r4
    9444:	00 00 a5 38 	lb      r5,0x0000(r5)
    9448:	04 20 85 00 	and     r4,r5,r4
    944c:	00 00 86 3c 	sb      0x0000(r6),r4
    9450:	01 00 a0 2c 	ldih    r5,0x0001
    9454:	78 4c a5 18 	ori     r5,r5,0x4c78
    9458:	e7 ff 9e 38 	lb      r4,0xffe7(r30)
    945c:	18 00 84 20 	lsli    r4,r4,0x0018
    9460:	18 00 84 24 	lsri    r4,r4,0x0018
    9464:	00 20 85 00 	add     r4,r5,r4
    9468:	00 00 84 38 	lb      r4,0x0000(r4)
    946c:	18 00 84 20 	lsli    r4,r4,0x0018
    9470:	18 00 84 24 	lsri    r4,r4,0x0018
    9474:	00 00 a0 18 	ori     r5,r0,0x0000
    9478:	02 28 04 00 	sub     r0,r4,r5
    947c:	0c 00 40 40 	bne     0x000094ac
    9480:	01 00 e0 2c 	ldih    r7,0x0001
    9484:	74 4c e7 18 	ori     r7,r7,0x4c74
    9488:	ec ff 9e 30 	lw      r4,0xffec(r30)
    948c:	2a 00 84 38 	lb      r4,0x002a(r4)
    9490:	0c 00 84 6c 	not     r4,r4
    9494:	01 00 a0 2c 	ldih    r5,0x0001
    9498:	74 4c a5 18 	ori     r5,r5,0x4c74
    949c:	05 20 c0 00 	orr     r6,r0,r4
    94a0:	00 00 85 38 	lb      r4,0x0000(r5)
    94a4:	04 20 86 00 	and     r4,r6,r4
    94a8:	00 00 87 3c 	sb      0x0000(r7),r4
    94ac:	01 00 80 18 	ori     r4,r0,0x0001
    94b0:	f1 ff 9e 3c 	sb      0xfff1(r30),r4
    94b4:	60 25 00 80 	ajmp    0x00009580
    94b8:	ec ff 9e 30 	lw      r4,0xffec(r30)
    94bc:	1c 00 84 30 	lw      r4,0x001c(r4)
    94c0:	e8 ff 9e 34 	sw      0xffe8(r30),r4
    94c4:	e8 ff be 30 	lw      r5,0xffe8(r30)
    94c8:	00 00 80 18 	ori     r4,r0,0x0000
    94cc:	02 20 05 00 	sub     r0,r5,r4
    94d0:	2a 00 00 40 	beq     0x00009578
    94d4:	ec ff 9e 30 	lw      r4,0xffec(r30)
    94d8:	28 00 84 38 	lb      r4,0x0028(r4)
    94dc:	e7 ff 9e 3c 	sb      0xffe7(r30),r4
    94e0:	e8 ff be 30 	lw      r5,0xffe8(r30)
    94e4:	e7 ff 9e 38 	lb      r4,0xffe7(r30)
    94e8:	18 00 84 20 	lsli    r4,r4,0x0018
    94ec:	18 00 84 24 	lsri    r4,r4,0x0018
    94f0:	00 28 84 00 	add     r4,r4,r5
    94f4:	08 00 c4 04 	addi    r6,r4,0x0008
    94f8:	e8 ff be 30 	lw      r5,0xffe8(r30)
    94fc:	e7 ff 9e 38 	lb      r4,0xffe7(r30)
    9500:	18 00 84 20 	lsli    r4,r4,0x0018
    9504:	18 00 84 24 	lsri    r4,r4,0x0018
    9508:	00 28 84 00 	add     r4,r4,r5
    950c:	08 00 a4 04 	addi    r5,r4,0x0008
    9510:	ec ff 9e 30 	lw      r4,0xffec(r30)
    9514:	29 00 84 38 	lb      r4,0x0029(r4)
    9518:	0c 00 84 6c 	not     r4,r4
    951c:	03 00 a5 38 	lb      r5,0x0003(r5)
    9520:	04 20 85 00 	and     r4,r5,r4
    9524:	03 00 86 3c 	sb      0x0003(r6),r4
    9528:	e8 ff be 30 	lw      r5,0xffe8(r30)
    952c:	e7 ff 9e 38 	lb      r4,0xffe7(r30)
    9530:	18 00 84 20 	lsli    r4,r4,0x0018
    9534:	18 00 84 24 	lsri    r4,r4,0x0018
    9538:	00 28 84 00 	add     r4,r4,r5
    953c:	08 00 84 04 	addi    r4,r4,0x0008
    9540:	03 00 84 38 	lb      r4,0x0003(r4)
    9544:	18 00 84 20 	lsli    r4,r4,0x0018
    9548:	18 00 84 24 	lsri    r4,r4,0x0018
    954c:	00 00 a0 18 	ori     r5,r0,0x0000
    9550:	02 28 04 00 	sub     r0,r4,r5
    9554:	09 00 40 40 	bne     0x00009578
    9558:	e8 ff de 30 	lw      r6,0xffe8(r30)
    955c:	e8 ff be 30 	lw      r5,0xffe8(r30)
    9560:	ec ff 9e 30 	lw      r4,0xffec(r30)
    9564:	2a 00 84 38 	lb      r4,0x002a(r4)
    9568:	0c 00 84 6c 	not     r4,r4
    956c:	0a 00 a5 38 	lb      r5,0x000a(r5)
    9570:	04 20 85 00 	and     r4,r5,r4
    9574:	0a 00 86 3c 	sb      0x000a(r6),r4
    9578:	00 00 a0 18 	ori     r5,r0,0x0000
    957c:	f1 ff be 3c 	sb      0xfff1(r30),r5
    9580:	ec ff 9e 30 	lw      r4,0xffec(r30)
    9584:	f3 ff be 38 	lb      r5,0xfff3(r30)
    9588:	26 00 a4 3c 	sb      0x0026(r4),r5
    958c:	ec ff be 30 	lw      r5,0xffec(r30)
    9590:	ec ff 9e 30 	lw      r4,0xffec(r30)
    9594:	26 00 84 38 	lb      r4,0x0026(r4)
    9598:	18 00 84 20 	lsli    r4,r4,0x0018
    959c:	18 00 84 24 	lsri    r4,r4,0x0018
    95a0:	03 00 84 24 	lsri    r4,r4,0x0003
    95a4:	28 00 85 3c 	sb      0x0028(r5),r4
    95a8:	ec ff be 30 	lw      r5,0xffec(r30)
    95ac:	ec ff 9e 30 	lw      r4,0xffec(r30)
    95b0:	26 00 84 38 	lb      r4,0x0026(r4)
    95b4:	07 00 84 14 	andi    r4,r4,0x0007
    95b8:	27 00 85 3c 	sb      0x0027(r5),r4
    95bc:	ec ff de 30 	lw      r6,0xffec(r30)
    95c0:	ec ff 9e 30 	lw      r4,0xffec(r30)
    95c4:	28 00 84 38 	lb      r4,0x0028(r4)
    95c8:	18 00 84 20 	lsli    r4,r4,0x0018
    95cc:	18 00 84 24 	lsri    r4,r4,0x0018
    95d0:	01 00 a0 18 	ori     r5,r0,0x0001
    95d4:	07 20 85 00 	lsl     r4,r5,r4
    95d8:	2a 00 86 3c 	sb      0x002a(r6),r4
    95dc:	ec ff de 30 	lw      r6,0xffec(r30)
    95e0:	ec ff 9e 30 	lw      r4,0xffec(r30)
    95e4:	27 00 84 38 	lb      r4,0x0027(r4)
    95e8:	18 00 84 20 	lsli    r4,r4,0x0018
    95ec:	18 00 84 24 	lsri    r4,r4,0x0018
    95f0:	01 00 a0 18 	ori     r5,r0,0x0001
    95f4:	07 20 85 00 	lsl     r4,r5,r4
    95f8:	29 00 86 3c 	sb      0x0029(r6),r4
    95fc:	f1 ff 9e 38 	lb      r4,0xfff1(r30)
    9600:	18 00 84 20 	lsli    r4,r4,0x0018
    9604:	18 00 84 24 	lsri    r4,r4,0x0018
    9608:	01 00 a0 18 	ori     r5,r0,0x0001
    960c:	02 28 04 00 	sub     r0,r4,r5
    9610:	1e 00 40 40 	bne     0x00009688
    9614:	01 00 e0 2c 	ldih    r7,0x0001
    9618:	74 4c e7 18 	ori     r7,r7,0x4c74
    961c:	ec ff 9e 30 	lw      r4,0xffec(r30)
    9620:	01 00 a0 2c 	ldih    r5,0x0001
    9624:	74 4c a5 18 	ori     r5,r5,0x4c74
    9628:	2a 00 c4 38 	lb      r6,0x002a(r4)
    962c:	00 00 85 38 	lb      r4,0x0000(r5)
    9630:	05 20 86 00 	orr     r4,r6,r4
    9634:	00 00 87 3c 	sb      0x0000(r7),r4
    9638:	01 00 a0 2c 	ldih    r5,0x0001
    963c:	78 4c a5 18 	ori     r5,r5,0x4c78
    9640:	ec ff 9e 30 	lw      r4,0xffec(r30)
    9644:	28 00 84 38 	lb      r4,0x0028(r4)
    9648:	18 00 84 20 	lsli    r4,r4,0x0018
    964c:	18 00 84 24 	lsri    r4,r4,0x0018
    9650:	00 20 e5 00 	add     r7,r5,r4
    9654:	01 00 a0 2c 	ldih    r5,0x0001
    9658:	78 4c a5 18 	ori     r5,r5,0x4c78
    965c:	ec ff 9e 30 	lw      r4,0xffec(r30)
    9660:	28 00 84 38 	lb      r4,0x0028(r4)
    9664:	18 00 84 20 	lsli    r4,r4,0x0018
    9668:	18 00 84 24 	lsri    r4,r4,0x0018
    966c:	00 20 85 00 	add     r4,r5,r4
    9670:	ec ff be 30 	lw      r5,0xffec(r30)
    9674:	00 00 c4 38 	lb      r6,0x0000(r4)
    9678:	29 00 85 38 	lb      r4,0x0029(r5)
    967c:	05 20 86 00 	orr     r4,r6,r4
    9680:	00 00 87 3c 	sb      0x0000(r7),r4
    9684:	c3 25 00 80 	ajmp    0x0000970c
    9688:	ec ff 9e 30 	lw      r4,0xffec(r30)
    968c:	1c 00 84 30 	lw      r4,0x001c(r4)
    9690:	e8 ff 9e 34 	sw      0xffe8(r30),r4
    9694:	e8 ff be 30 	lw      r5,0xffe8(r30)
    9698:	00 00 80 18 	ori     r4,r0,0x0000
    969c:	02 20 05 00 	sub     r0,r5,r4
    96a0:	1b 00 00 40 	beq     0x0000970c
    96a4:	e8 ff fe 30 	lw      r7,0xffe8(r30)
    96a8:	e8 ff 9e 30 	lw      r4,0xffe8(r30)
    96ac:	ec ff be 30 	lw      r5,0xffec(r30)
    96b0:	0a 00 c4 38 	lb      r6,0x000a(r4)
    96b4:	2a 00 85 38 	lb      r4,0x002a(r5)
    96b8:	05 20 86 00 	orr     r4,r6,r4
    96bc:	0a 00 87 3c 	sb      0x000a(r7),r4
    96c0:	e8 ff be 30 	lw      r5,0xffe8(r30)
    96c4:	ec ff 9e 30 	lw      r4,0xffec(r30)
    96c8:	28 00 84 38 	lb      r4,0x0028(r4)
    96cc:	18 00 84 20 	lsli    r4,r4,0x0018
    96d0:	18 00 84 24 	lsri    r4,r4,0x0018
    96d4:	00 28 84 00 	add     r4,r4,r5
    96d8:	08 00 e4 04 	addi    r7,r4,0x0008
    96dc:	e8 ff be 30 	lw      r5,0xffe8(r30)
    96e0:	ec ff 9e 30 	lw      r4,0xffec(r30)
    96e4:	28 00 84 38 	lb      r4,0x0028(r4)
    96e8:	18 00 84 20 	lsli    r4,r4,0x0018
    96ec:	18 00 84 24 	lsri    r4,r4,0x0018
    96f0:	00 28 84 00 	add     r4,r4,r5
    96f4:	08 00 84 04 	addi    r4,r4,0x0008
    96f8:	ec ff be 30 	lw      r5,0xffec(r30)
    96fc:	03 00 c4 38 	lb      r6,0x0003(r4)
    9700:	29 00 85 38 	lb      r4,0x0029(r5)
    9704:	05 20 86 00 	orr     r4,r6,r4
    9708:	03 00 87 3c 	sb      0x0003(r7),r4
    970c:	01 00 a0 2c 	ldih    r5,0x0001
    9710:	a0 6c a5 18 	ori     r5,r5,0x6ca0
    9714:	f3 ff 9e 38 	lb      r4,0xfff3(r30)
    9718:	18 00 84 20 	lsli    r4,r4,0x0018
    971c:	18 00 84 24 	lsri    r4,r4,0x0018
    9720:	02 00 84 20 	lsli    r4,r4,0x0002
    9724:	00 28 a4 00 	add     r5,r4,r5
    9728:	ec ff 9e 30 	lw      r4,0xffec(r30)
    972c:	00 00 85 34 	sw      0x0000(r5),r4
    9730:	01 00 80 2c 	ldih    r4,0x0001
    9734:	88 4c 84 18 	ori     r4,r4,0x4c88
    9738:	00 00 a4 30 	lw      r5,0x0000(r4)
    973c:	01 00 80 2c 	ldih    r4,0x0001
    9740:	88 4c 84 18 	ori     r4,r4,0x4c88
    9744:	00 00 84 30 	lw      r4,0x0000(r4)
    9748:	24 00 84 38 	lb      r4,0x0024(r4)
    974c:	10 00 84 18 	ori     r4,r4,0x0010
    9750:	24 00 85 3c 	sb      0x0024(r5),r4
    9754:	01 00 80 2c 	ldih    r4,0x0001
    9758:	88 4c 84 18 	ori     r4,r4,0x4c88
    975c:	00 00 84 30 	lw      r4,0x0000(r4)
    9760:	00 00 a0 18 	ori     r5,r0,0x0000
    9764:	25 00 a4 3c 	sb      0x0025(r4),r5
    9768:	01 00 80 2c 	ldih    r4,0x0001
    976c:	88 4c 84 18 	ori     r4,r4,0x4c88
    9770:	00 00 a4 30 	lw      r5,0x0000(r4)
    9774:	f8 ff 9e 30 	lw      r4,0xfff8(r30)
    9778:	20 00 85 34 	sw      0x0020(r5),r4
    977c:	fc ff 9e 30 	lw      r4,0xfffc(r30)
    9780:	b8 16 00 c0 	ajal    0x00005ae0
    9784:	e0 ff 9e 30 	lw      r4,0xffe0(r30)
    9788:	2d 00 00 c0 	ajal    0x000000b4
    978c:	10 19 00 c0 	ajal    0x00006440
    9790:	2a 00 00 c0 	ajal    0x000000a8
    9794:	05 10 80 00 	orr     r4,r0,r2
    9798:	e0 ff 9e 34 	sw      0xffe0(r30),r4
    979c:	01 00 80 2c 	ldih    r4,0x0001
    97a0:	88 4c 84 18 	ori     r4,r4,0x4c88
    97a4:	00 00 84 30 	lw      r4,0x0000(r4)
    97a8:	25 00 84 38 	lb      r4,0x0025(r4)
    97ac:	18 00 84 20 	lsli    r4,r4,0x0018
    97b0:	dc ff 9e 34 	sw      0xffdc(r30),r4
    97b4:	dc ff 9e 30 	lw      r4,0xffdc(r30)
    97b8:	18 00 84 24 	lsri    r4,r4,0x0018
    97bc:	dc ff 9e 34 	sw      0xffdc(r30),r4
    97c0:	00 00 80 18 	ori     r4,r0,0x0000
    97c4:	dc ff be 30 	lw      r5,0xffdc(r30)
    97c8:	02 20 05 00 	sub     r0,r5,r4
    97cc:	06 00 00 40 	beq     0x000097e4
    97d0:	02 00 80 18 	ori     r4,r0,0x0002
    97d4:	dc ff be 30 	lw      r5,0xffdc(r30)
    97d8:	02 20 05 00 	sub     r0,r5,r4
    97dc:	06 00 00 40 	beq     0x000097f4
    97e0:	01 26 00 80 	ajmp    0x00009804
    97e4:	f4 ff 9e 30 	lw      r4,0xfff4(r30)
    97e8:	00 00 a0 18 	ori     r5,r0,0x0000
    97ec:	00 00 a4 3c 	sb      0x0000(r4),r5
    97f0:	09 26 00 80 	ajmp    0x00009824
    97f4:	f4 ff 9e 30 	lw      r4,0xfff4(r30)
    97f8:	0e 00 a0 18 	ori     r5,r0,0x000e
    97fc:	00 00 a4 3c 	sb      0x0000(r4),r5
    9800:	09 26 00 80 	ajmp    0x00009824
    9804:	01 00 80 2c 	ldih    r4,0x0001
    9808:	88 4c 84 18 	ori     r4,r4,0x4c88
    980c:	00 00 84 30 	lw      r4,0x0000(r4)
    9810:	fc ff be 30 	lw      r5,0xfffc(r30)
    9814:	1c 17 00 c0 	ajal    0x00005c70
    9818:	f4 ff 9e 30 	lw      r4,0xfff4(r30)
    981c:	0a 00 a0 18 	ori     r5,r0,0x000a
    9820:	00 00 a4 3c 	sb      0x0000(r4),r5
    9824:	01 00 80 2c 	ldih    r4,0x0001
    9828:	88 4c 84 18 	ori     r4,r4,0x4c88
    982c:	00 00 84 30 	lw      r4,0x0000(r4)
    9830:	00 00 a0 18 	ori     r5,r0,0x0000
    9834:	24 00 a4 3c 	sb      0x0024(r4),r5
    9838:	01 00 80 2c 	ldih    r4,0x0001
    983c:	88 4c 84 18 	ori     r4,r4,0x4c88
    9840:	00 00 84 30 	lw      r4,0x0000(r4)
    9844:	00 00 a0 18 	ori     r5,r0,0x0000
    9848:	25 00 a4 3c 	sb      0x0025(r4),r5
    984c:	01 00 80 2c 	ldih    r4,0x0001
    9850:	88 4c 84 18 	ori     r4,r4,0x4c88
    9854:	00 00 a4 30 	lw      r5,0x0000(r4)
    9858:	00 00 80 18 	ori     r4,r0,0x0000
    985c:	1c 00 85 34 	sw      0x001c(r5),r4
    9860:	e0 ff 9e 30 	lw      r4,0xffe0(r30)
    9864:	2d 00 00 c0 	ajal    0x000000b4
    9868:	24 00 bd 07 	addi    r29,r29,0x0024
    986c:	05 f0 a0 03 	orr     r29,r0,r30
    9870:	08 00 bd 07 	addi    r29,r29,0x0008
    9874:	fc ff fd 33 	lw      r31,0xfffc(r29)
    9878:	f8 ff dd 33 	lw      r30,0xfff8(r29)
    987c:	00 00 e0 47 	jmpr    r31

00009880 <OSMutexPost>:
    9880:	f8 ff bd 07 	addi    r29,r29,0xfff8
    9884:	00 00 dd 37 	sw      0x0000(r29),r30
    9888:	04 00 fd 37 	sw      0x0004(r29),r31
    988c:	05 e8 c0 03 	orr     r30,r0,r29
    9890:	f0 ff bd 07 	addi    r29,r29,0xfff0
    9894:	fc ff 9e 34 	sw      0xfffc(r30),r4
    9898:	00 00 80 18 	ori     r4,r0,0x0000
    989c:	f4 ff 9e 34 	sw      0xfff4(r30),r4
    98a0:	01 00 80 2c 	ldih    r4,0x0001
    98a4:	84 4c 84 18 	ori     r4,r4,0x4c84
    98a8:	00 00 84 38 	lb      r4,0x0000(r4)
    98ac:	18 00 84 20 	lsli    r4,r4,0x0018
    98b0:	18 00 84 24 	lsri    r4,r4,0x0018
    98b4:	00 00 a0 18 	ori     r5,r0,0x0000
    98b8:	02 28 04 00 	sub     r0,r4,r5
    98bc:	04 00 00 40 	beq     0x000098cc
    98c0:	05 00 80 18 	ori     r4,r0,0x0005
    98c4:	f0 ff 9e 34 	sw      0xfff0(r30),r4
    98c8:	c4 26 00 80 	ajmp    0x00009b10
    98cc:	fc ff 9e 30 	lw      r4,0xfffc(r30)
    98d0:	00 00 84 38 	lb      r4,0x0000(r4)
    98d4:	18 00 84 20 	lsli    r4,r4,0x0018
    98d8:	18 00 84 24 	lsri    r4,r4,0x0018
    98dc:	04 00 a0 18 	ori     r5,r0,0x0004
    98e0:	02 28 04 00 	sub     r0,r4,r5
    98e4:	04 00 00 40 	beq     0x000098f4
    98e8:	01 00 80 18 	ori     r4,r0,0x0001
    98ec:	f0 ff 9e 34 	sw      0xfff0(r30),r4
    98f0:	c4 26 00 80 	ajmp    0x00009b10
    98f4:	2a 00 00 c0 	ajal    0x000000a8
    98f8:	05 10 80 00 	orr     r4,r0,r2
    98fc:	f4 ff 9e 34 	sw      0xfff4(r30),r4
    9900:	fc ff 9e 30 	lw      r4,0xfffc(r30)
    9904:	08 00 84 64 	lh      r4,0x0008(r4)
    9908:	10 00 84 20 	lsli    r4,r4,0x0010
    990c:	10 00 84 24 	lsri    r4,r4,0x0010
    9910:	08 00 84 24 	lsri    r4,r4,0x0008
    9914:	fb ff 9e 3c 	sb      0xfffb(r30),r4
    9918:	fc ff 9e 30 	lw      r4,0xfffc(r30)
    991c:	08 00 84 64 	lh      r4,0x0008(r4)
    9920:	fa ff 9e 3c 	sb      0xfffa(r30),r4
    9924:	fc ff 9e 30 	lw      r4,0xfffc(r30)
    9928:	01 00 a0 2c 	ldih    r5,0x0001
    992c:	88 4c a5 18 	ori     r5,r5,0x4c88
    9930:	04 00 c4 30 	lw      r6,0x0004(r4)
    9934:	00 00 85 30 	lw      r4,0x0000(r5)
    9938:	02 20 06 00 	sub     r0,r6,r4
    993c:	06 00 00 40 	beq     0x00009954
    9940:	f4 ff 9e 30 	lw      r4,0xfff4(r30)
    9944:	2d 00 00 c0 	ajal    0x000000b4
    9948:	64 00 80 18 	ori     r4,r0,0x0064
    994c:	f0 ff 9e 34 	sw      0xfff0(r30),r4
    9950:	c4 26 00 80 	ajmp    0x00009b10
    9954:	fb ff 9e 38 	lb      r4,0xfffb(r30)
    9958:	18 00 84 20 	lsli    r4,r4,0x0018
    995c:	18 00 84 24 	lsri    r4,r4,0x0018
    9960:	ff 00 a0 18 	ori     r5,r0,0x00ff
    9964:	02 28 04 00 	sub     r0,r4,r5
    9968:	1a 00 00 40 	beq     0x000099d0
    996c:	01 00 80 2c 	ldih    r4,0x0001
    9970:	88 4c 84 18 	ori     r4,r4,0x4c88
    9974:	00 00 84 30 	lw      r4,0x0000(r4)
    9978:	26 00 84 38 	lb      r4,0x0026(r4)
    997c:	18 00 a4 20 	lsli    r5,r4,0x0018
    9980:	18 00 a5 24 	lsri    r5,r5,0x0018
    9984:	fb ff 9e 38 	lb      r4,0xfffb(r30)
    9988:	18 00 84 20 	lsli    r4,r4,0x0018
    998c:	18 00 84 24 	lsri    r4,r4,0x0018
    9990:	02 20 05 00 	sub     r0,r5,r4
    9994:	06 00 40 40 	bne     0x000099ac
    9998:	01 00 80 2c 	ldih    r4,0x0001
    999c:	88 4c 84 18 	ori     r4,r4,0x4c88
    99a0:	00 00 84 30 	lw      r4,0x0000(r4)
    99a4:	fa ff be 38 	lb      r5,0xfffa(r30)
    99a8:	34 27 00 c0 	ajal    0x00009cd0
    99ac:	01 00 a0 2c 	ldih    r5,0x0001
    99b0:	a0 6c a5 18 	ori     r5,r5,0x6ca0
    99b4:	fb ff 9e 38 	lb      r4,0xfffb(r30)
    99b8:	18 00 84 20 	lsli    r4,r4,0x0018
    99bc:	18 00 84 24 	lsri    r4,r4,0x0018
    99c0:	02 00 84 20 	lsli    r4,r4,0x0002
    99c4:	00 28 a4 00 	add     r5,r4,r5
    99c8:	01 00 80 18 	ori     r4,r0,0x0001
    99cc:	00 00 85 34 	sw      0x0000(r5),r4
    99d0:	fc ff 9e 30 	lw      r4,0xfffc(r30)
    99d4:	0a 00 84 38 	lb      r4,0x000a(r4)
    99d8:	18 00 84 20 	lsli    r4,r4,0x0018
    99dc:	18 00 84 24 	lsri    r4,r4,0x0018
    99e0:	00 00 a0 18 	ori     r5,r0,0x0000
    99e4:	02 28 04 00 	sub     r0,r4,r5
    99e8:	3e 00 00 40 	beq     0x00009ae0
    99ec:	fc ff 9e 30 	lw      r4,0xfffc(r30)
    99f0:	00 00 a0 18 	ori     r5,r0,0x0000
    99f4:	10 00 c0 18 	ori     r6,r0,0x0010
    99f8:	00 00 e0 18 	ori     r7,r0,0x0000
    99fc:	48 16 00 c0 	ajal    0x00005920
    9a00:	05 10 80 00 	orr     r4,r0,r2
    9a04:	fa ff 9e 3c 	sb      0xfffa(r30),r4
    9a08:	fc ff de 30 	lw      r6,0xfffc(r30)
    9a0c:	fc ff 9e 30 	lw      r4,0xfffc(r30)
    9a10:	ff ff a0 2c 	ldih    r5,0xffff
    9a14:	00 ff a5 18 	ori     r5,r5,0xff00
    9a18:	08 00 84 64 	lh      r4,0x0008(r4)
    9a1c:	04 28 84 00 	and     r4,r4,r5
    9a20:	08 00 86 68 	sh      0x0008(r6),r4
    9a24:	fc ff fe 30 	lw      r7,0xfffc(r30)
    9a28:	fc ff de 30 	lw      r6,0xfffc(r30)
    9a2c:	fa ff 9e 38 	lb      r4,0xfffa(r30)
    9a30:	08 00 84 20 	lsli    r4,r4,0x0008
    9a34:	10 00 84 20 	lsli    r4,r4,0x0010
    9a38:	10 00 84 24 	lsri    r4,r4,0x0010
    9a3c:	08 00 84 24 	lsri    r4,r4,0x0008
    9a40:	05 20 a0 00 	orr     r5,r0,r4
    9a44:	08 00 86 64 	lh      r4,0x0008(r6)
    9a48:	05 28 84 00 	orr     r4,r4,r5
    9a4c:	08 00 87 68 	sh      0x0008(r7),r4
    9a50:	fc ff be 30 	lw      r5,0xfffc(r30)
    9a54:	01 00 c0 2c 	ldih    r6,0x0001
    9a58:	a0 6c c6 18 	ori     r6,r6,0x6ca0
    9a5c:	fa ff 9e 38 	lb      r4,0xfffa(r30)
    9a60:	18 00 84 20 	lsli    r4,r4,0x0018
    9a64:	18 00 84 24 	lsri    r4,r4,0x0018
    9a68:	02 00 84 20 	lsli    r4,r4,0x0002
    9a6c:	00 30 84 00 	add     r4,r4,r6
    9a70:	00 00 84 30 	lw      r4,0x0000(r4)
    9a74:	04 00 85 34 	sw      0x0004(r5),r4
    9a78:	fb ff 9e 38 	lb      r4,0xfffb(r30)
    9a7c:	18 00 84 20 	lsli    r4,r4,0x0018
    9a80:	18 00 84 24 	lsri    r4,r4,0x0018
    9a84:	ff 00 a0 18 	ori     r5,r0,0x00ff
    9a88:	02 28 04 00 	sub     r0,r4,r5
    9a8c:	0f 00 00 40 	beq     0x00009ac8
    9a90:	fa ff 9e 38 	lb      r4,0xfffa(r30)
    9a94:	18 00 a4 20 	lsli    r5,r4,0x0018
    9a98:	18 00 a5 24 	lsri    r5,r5,0x0018
    9a9c:	fb ff 9e 38 	lb      r4,0xfffb(r30)
    9aa0:	18 00 84 20 	lsli    r4,r4,0x0018
    9aa4:	18 00 84 24 	lsri    r4,r4,0x0018
    9aa8:	02 20 05 00 	sub     r0,r5,r4
    9aac:	07 00 00 42 	bhi     0x00009ac8
    9ab0:	f4 ff 9e 30 	lw      r4,0xfff4(r30)
    9ab4:	2d 00 00 c0 	ajal    0x000000b4
    9ab8:	10 19 00 c0 	ajal    0x00006440
    9abc:	78 00 80 18 	ori     r4,r0,0x0078
    9ac0:	f0 ff 9e 34 	sw      0xfff0(r30),r4
    9ac4:	c4 26 00 80 	ajmp    0x00009b10
    9ac8:	f4 ff 9e 30 	lw      r4,0xfff4(r30)
    9acc:	2d 00 00 c0 	ajal    0x000000b4
    9ad0:	10 19 00 c0 	ajal    0x00006440
    9ad4:	00 00 80 18 	ori     r4,r0,0x0000
    9ad8:	f0 ff 9e 34 	sw      0xfff0(r30),r4
    9adc:	c4 26 00 80 	ajmp    0x00009b10
    9ae0:	fc ff be 30 	lw      r5,0xfffc(r30)
    9ae4:	fc ff 9e 30 	lw      r4,0xfffc(r30)
    9ae8:	08 00 84 64 	lh      r4,0x0008(r4)
    9aec:	ff 00 84 18 	ori     r4,r4,0x00ff
    9af0:	08 00 85 68 	sh      0x0008(r5),r4
    9af4:	fc ff be 30 	lw      r5,0xfffc(r30)
    9af8:	00 00 80 18 	ori     r4,r0,0x0000
    9afc:	04 00 85 34 	sw      0x0004(r5),r4
    9b00:	f4 ff 9e 30 	lw      r4,0xfff4(r30)
    9b04:	2d 00 00 c0 	ajal    0x000000b4
    9b08:	00 00 80 18 	ori     r4,r0,0x0000
    9b0c:	f0 ff 9e 34 	sw      0xfff0(r30),r4
    9b10:	f0 ff 5e 30 	lw      r2,0xfff0(r30)
    9b14:	10 00 bd 07 	addi    r29,r29,0x0010
    9b18:	05 f0 a0 03 	orr     r29,r0,r30
    9b1c:	08 00 bd 07 	addi    r29,r29,0x0008
    9b20:	fc ff fd 33 	lw      r31,0xfffc(r29)
    9b24:	f8 ff dd 33 	lw      r30,0xfff8(r29)
    9b28:	00 00 e0 47 	jmpr    r31
    9b2c:	00 00 00 00 	nop

00009b30 <OSMutexQuery>:
    9b30:	f4 ff bd 07 	addi    r29,r29,0xfff4
    9b34:	00 00 dd 37 	sw      0x0000(r29),r30
    9b38:	04 00 fd 37 	sw      0x0004(r29),r31
    9b3c:	08 00 1d 35 	sw      0x0008(r29),r8
    9b40:	05 e8 c0 03 	orr     r30,r0,r29
    9b44:	e4 ff bd 07 	addi    r29,r29,0xffe4
    9b48:	fc ff 9e 34 	sw      0xfffc(r30),r4
    9b4c:	f8 ff be 34 	sw      0xfff8(r30),r5
    9b50:	00 00 80 18 	ori     r4,r0,0x0000
    9b54:	e8 ff 9e 34 	sw      0xffe8(r30),r4
    9b58:	01 00 80 2c 	ldih    r4,0x0001
    9b5c:	84 4c 84 18 	ori     r4,r4,0x4c84
    9b60:	00 00 84 38 	lb      r4,0x0000(r4)
    9b64:	18 00 84 20 	lsli    r4,r4,0x0018
    9b68:	18 00 84 24 	lsri    r4,r4,0x0018
    9b6c:	00 00 a0 18 	ori     r5,r0,0x0000
    9b70:	02 28 04 00 	sub     r0,r4,r5
    9b74:	04 00 00 40 	beq     0x00009b84
    9b78:	06 00 80 18 	ori     r4,r0,0x0006
    9b7c:	e4 ff 9e 34 	sw      0xffe4(r30),r4
    9b80:	2b 27 00 80 	ajmp    0x00009cac
    9b84:	fc ff 9e 30 	lw      r4,0xfffc(r30)
    9b88:	00 00 84 38 	lb      r4,0x0000(r4)
    9b8c:	18 00 84 20 	lsli    r4,r4,0x0018
    9b90:	18 00 84 24 	lsri    r4,r4,0x0018
    9b94:	04 00 a0 18 	ori     r5,r0,0x0004
    9b98:	02 28 04 00 	sub     r0,r4,r5
    9b9c:	04 00 00 40 	beq     0x00009bac
    9ba0:	01 00 a0 18 	ori     r5,r0,0x0001
    9ba4:	e4 ff be 34 	sw      0xffe4(r30),r5
    9ba8:	2b 27 00 80 	ajmp    0x00009cac
    9bac:	2a 00 00 c0 	ajal    0x000000a8
    9bb0:	05 10 80 00 	orr     r4,r0,r2
    9bb4:	e8 ff 9e 34 	sw      0xffe8(r30),r4
    9bb8:	f8 ff be 30 	lw      r5,0xfff8(r30)
    9bbc:	fc ff 9e 30 	lw      r4,0xfffc(r30)
    9bc0:	08 00 84 64 	lh      r4,0x0008(r4)
    9bc4:	10 00 84 20 	lsli    r4,r4,0x0010
    9bc8:	10 00 84 24 	lsri    r4,r4,0x0010
    9bcc:	08 00 84 24 	lsri    r4,r4,0x0008
    9bd0:	0b 00 85 3c 	sb      0x000b(r5),r4
    9bd4:	f8 ff be 30 	lw      r5,0xfff8(r30)
    9bd8:	fc ff 9e 30 	lw      r4,0xfffc(r30)
    9bdc:	08 00 84 64 	lh      r4,0x0008(r4)
    9be0:	0a 00 85 3c 	sb      0x000a(r5),r4
    9be4:	f8 ff 9e 30 	lw      r4,0xfff8(r30)
    9be8:	0a 00 84 38 	lb      r4,0x000a(r4)
    9bec:	18 00 84 20 	lsli    r4,r4,0x0018
    9bf0:	18 00 84 24 	lsri    r4,r4,0x0018
    9bf4:	ff 00 a0 18 	ori     r5,r0,0x00ff
    9bf8:	02 28 04 00 	sub     r0,r4,r5
    9bfc:	05 00 40 40 	bne     0x00009c10
    9c00:	f8 ff 9e 30 	lw      r4,0xfff8(r30)
    9c04:	01 00 a0 18 	ori     r5,r0,0x0001
    9c08:	09 00 a4 3c 	sb      0x0009(r4),r5
    9c0c:	07 27 00 80 	ajmp    0x00009c1c
    9c10:	f8 ff 9e 30 	lw      r4,0xfff8(r30)
    9c14:	00 00 a0 18 	ori     r5,r0,0x0000
    9c18:	09 00 a4 3c 	sb      0x0009(r4),r5
    9c1c:	f8 ff be 30 	lw      r5,0xfff8(r30)
    9c20:	fc ff 9e 30 	lw      r4,0xfffc(r30)
    9c24:	0a 00 84 38 	lb      r4,0x000a(r4)
    9c28:	08 00 85 3c 	sb      0x0008(r5),r4
    9c2c:	fc ff 9e 30 	lw      r4,0xfffc(r30)
    9c30:	0b 00 84 04 	addi    r4,r4,0x000b
    9c34:	f0 ff 9e 34 	sw      0xfff0(r30),r4
    9c38:	f8 ff 9e 30 	lw      r4,0xfff8(r30)
    9c3c:	ec ff 9e 34 	sw      0xffec(r30),r4
    9c40:	00 00 80 18 	ori     r4,r0,0x0000
    9c44:	f7 ff 9e 3c 	sb      0xfff7(r30),r4
    9c48:	f7 ff 9e 38 	lb      r4,0xfff7(r30)
    9c4c:	18 00 84 20 	lsli    r4,r4,0x0018
    9c50:	18 00 84 24 	lsri    r4,r4,0x0018
    9c54:	07 00 a0 18 	ori     r5,r0,0x0007
    9c58:	02 28 04 00 	sub     r0,r4,r5
    9c5c:	10 00 00 42 	bhi     0x00009c9c
    9c60:	ec ff 1e 05 	addi    r8,r30,0xffec
    9c64:	00 00 a8 30 	lw      r5,0x0000(r8)
    9c68:	f0 ff de 04 	addi    r6,r30,0xfff0
    9c6c:	00 00 86 30 	lw      r4,0x0000(r6)
    9c70:	00 00 e4 38 	lb      r7,0x0000(r4)
    9c74:	01 00 84 04 	addi    r4,r4,0x0001
    9c78:	00 00 86 34 	sw      0x0000(r6),r4
    9c7c:	05 28 80 00 	orr     r4,r0,r5
    9c80:	00 00 e4 3c 	sb      0x0000(r4),r7
    9c84:	01 00 a5 04 	addi    r5,r5,0x0001
    9c88:	00 00 a8 34 	sw      0x0000(r8),r5
    9c8c:	f7 ff 9e 38 	lb      r4,0xfff7(r30)
    9c90:	01 00 84 04 	addi    r4,r4,0x0001
    9c94:	f7 ff 9e 3c 	sb      0xfff7(r30),r4
    9c98:	12 27 00 80 	ajmp    0x00009c48
    9c9c:	e8 ff 9e 30 	lw      r4,0xffe8(r30)
    9ca0:	2d 00 00 c0 	ajal    0x000000b4
    9ca4:	00 00 a0 18 	ori     r5,r0,0x0000
    9ca8:	e4 ff be 34 	sw      0xffe4(r30),r5
    9cac:	e4 ff 5e 30 	lw      r2,0xffe4(r30)
    9cb0:	1c 00 bd 07 	addi    r29,r29,0x001c
    9cb4:	05 f0 a0 03 	orr     r29,r0,r30
    9cb8:	0c 00 bd 07 	addi    r29,r29,0x000c
    9cbc:	fc ff 1d 31 	lw      r8,0xfffc(r29)
    9cc0:	f8 ff fd 33 	lw      r31,0xfff8(r29)
    9cc4:	f4 ff dd 33 	lw      r30,0xfff4(r29)
    9cc8:	00 00 e0 47 	jmpr    r31
    9ccc:	00 00 00 00 	nop

00009cd0 <OSMutex_RdyAtPrio>:
    9cd0:	fc ff bd 07 	addi    r29,r29,0xfffc
    9cd4:	00 00 dd 37 	sw      0x0000(r29),r30
    9cd8:	05 e8 c0 03 	orr     r30,r0,r29
    9cdc:	f8 ff bd 07 	addi    r29,r29,0xfff8
    9ce0:	fc ff 9e 34 	sw      0xfffc(r30),r4
    9ce4:	fb ff be 3c 	sb      0xfffb(r30),r5
    9ce8:	fc ff 9e 30 	lw      r4,0xfffc(r30)
    9cec:	28 00 84 38 	lb      r4,0x0028(r4)
    9cf0:	fa ff 9e 3c 	sb      0xfffa(r30),r4
    9cf4:	01 00 a0 2c 	ldih    r5,0x0001
    9cf8:	78 4c a5 18 	ori     r5,r5,0x4c78
    9cfc:	fa ff 9e 38 	lb      r4,0xfffa(r30)
    9d00:	18 00 84 20 	lsli    r4,r4,0x0018
    9d04:	18 00 84 24 	lsri    r4,r4,0x0018
    9d08:	00 20 c5 00 	add     r6,r5,r4
    9d0c:	01 00 a0 2c 	ldih    r5,0x0001
    9d10:	78 4c a5 18 	ori     r5,r5,0x4c78
    9d14:	fa ff 9e 38 	lb      r4,0xfffa(r30)
    9d18:	18 00 84 20 	lsli    r4,r4,0x0018
    9d1c:	18 00 84 24 	lsri    r4,r4,0x0018
    9d20:	00 20 a5 00 	add     r5,r5,r4
    9d24:	fc ff 9e 30 	lw      r4,0xfffc(r30)
    9d28:	29 00 84 38 	lb      r4,0x0029(r4)
    9d2c:	0c 00 84 6c 	not     r4,r4
    9d30:	00 00 a5 38 	lb      r5,0x0000(r5)
    9d34:	04 20 85 00 	and     r4,r5,r4
    9d38:	00 00 86 3c 	sb      0x0000(r6),r4
    9d3c:	01 00 a0 2c 	ldih    r5,0x0001
    9d40:	78 4c a5 18 	ori     r5,r5,0x4c78
    9d44:	fa ff 9e 38 	lb      r4,0xfffa(r30)
    9d48:	18 00 84 20 	lsli    r4,r4,0x0018
    9d4c:	18 00 84 24 	lsri    r4,r4,0x0018
    9d50:	00 20 85 00 	add     r4,r5,r4
    9d54:	00 00 84 38 	lb      r4,0x0000(r4)
    9d58:	18 00 84 20 	lsli    r4,r4,0x0018
    9d5c:	18 00 84 24 	lsri    r4,r4,0x0018
    9d60:	00 00 a0 18 	ori     r5,r0,0x0000
    9d64:	02 28 04 00 	sub     r0,r4,r5
    9d68:	0c 00 40 40 	bne     0x00009d98
    9d6c:	01 00 e0 2c 	ldih    r7,0x0001
    9d70:	74 4c e7 18 	ori     r7,r7,0x4c74
    9d74:	fc ff 9e 30 	lw      r4,0xfffc(r30)
    9d78:	2a 00 84 38 	lb      r4,0x002a(r4)
    9d7c:	0c 00 84 6c 	not     r4,r4
    9d80:	01 00 a0 2c 	ldih    r5,0x0001
    9d84:	74 4c a5 18 	ori     r5,r5,0x4c74
    9d88:	05 20 c0 00 	orr     r6,r0,r4
    9d8c:	00 00 85 38 	lb      r4,0x0000(r5)
    9d90:	04 20 86 00 	and     r4,r6,r4
    9d94:	00 00 87 3c 	sb      0x0000(r7),r4
    9d98:	fc ff 9e 30 	lw      r4,0xfffc(r30)
    9d9c:	fb ff be 38 	lb      r5,0xfffb(r30)
    9da0:	26 00 a4 3c 	sb      0x0026(r4),r5
    9da4:	01 00 80 2c 	ldih    r4,0x0001
    9da8:	49 33 84 18 	ori     r4,r4,0x3349
    9dac:	fb ff be 38 	lb      r5,0xfffb(r30)
    9db0:	00 00 a4 3c 	sb      0x0000(r4),r5
    9db4:	fc ff be 30 	lw      r5,0xfffc(r30)
    9db8:	fb ff 9e 38 	lb      r4,0xfffb(r30)
    9dbc:	18 00 84 20 	lsli    r4,r4,0x0018
    9dc0:	18 00 84 24 	lsri    r4,r4,0x0018
    9dc4:	03 00 84 24 	lsri    r4,r4,0x0003
    9dc8:	07 00 84 14 	andi    r4,r4,0x0007
    9dcc:	28 00 85 3c 	sb      0x0028(r5),r4
    9dd0:	fc ff be 30 	lw      r5,0xfffc(r30)
    9dd4:	fb ff 9e 38 	lb      r4,0xfffb(r30)
    9dd8:	07 00 84 14 	andi    r4,r4,0x0007
    9ddc:	27 00 85 3c 	sb      0x0027(r5),r4
    9de0:	fc ff de 30 	lw      r6,0xfffc(r30)
    9de4:	fc ff 9e 30 	lw      r4,0xfffc(r30)
    9de8:	28 00 84 38 	lb      r4,0x0028(r4)
    9dec:	18 00 84 20 	lsli    r4,r4,0x0018
    9df0:	18 00 84 24 	lsri    r4,r4,0x0018
    9df4:	01 00 a0 18 	ori     r5,r0,0x0001
    9df8:	07 20 85 00 	lsl     r4,r5,r4
    9dfc:	2a 00 86 3c 	sb      0x002a(r6),r4
    9e00:	fc ff de 30 	lw      r6,0xfffc(r30)
    9e04:	fc ff 9e 30 	lw      r4,0xfffc(r30)
    9e08:	27 00 84 38 	lb      r4,0x0027(r4)
    9e0c:	18 00 84 20 	lsli    r4,r4,0x0018
    9e10:	18 00 84 24 	lsri    r4,r4,0x0018
    9e14:	01 00 a0 18 	ori     r5,r0,0x0001
    9e18:	07 20 85 00 	lsl     r4,r5,r4
    9e1c:	29 00 86 3c 	sb      0x0029(r6),r4
    9e20:	01 00 e0 2c 	ldih    r7,0x0001
    9e24:	74 4c e7 18 	ori     r7,r7,0x4c74
    9e28:	fc ff 9e 30 	lw      r4,0xfffc(r30)
    9e2c:	01 00 a0 2c 	ldih    r5,0x0001
    9e30:	74 4c a5 18 	ori     r5,r5,0x4c74
    9e34:	2a 00 c4 38 	lb      r6,0x002a(r4)
    9e38:	00 00 85 38 	lb      r4,0x0000(r5)
    9e3c:	05 20 86 00 	orr     r4,r6,r4
    9e40:	00 00 87 3c 	sb      0x0000(r7),r4
    9e44:	01 00 a0 2c 	ldih    r5,0x0001
    9e48:	78 4c a5 18 	ori     r5,r5,0x4c78
    9e4c:	fc ff 9e 30 	lw      r4,0xfffc(r30)
    9e50:	28 00 84 38 	lb      r4,0x0028(r4)
    9e54:	18 00 84 20 	lsli    r4,r4,0x0018
    9e58:	18 00 84 24 	lsri    r4,r4,0x0018
    9e5c:	00 20 e5 00 	add     r7,r5,r4
    9e60:	01 00 a0 2c 	ldih    r5,0x0001
    9e64:	78 4c a5 18 	ori     r5,r5,0x4c78
    9e68:	fc ff 9e 30 	lw      r4,0xfffc(r30)
    9e6c:	28 00 84 38 	lb      r4,0x0028(r4)
    9e70:	18 00 84 20 	lsli    r4,r4,0x0018
    9e74:	18 00 84 24 	lsri    r4,r4,0x0018
    9e78:	00 20 85 00 	add     r4,r5,r4
    9e7c:	fc ff be 30 	lw      r5,0xfffc(r30)
    9e80:	00 00 c4 38 	lb      r6,0x0000(r4)
    9e84:	29 00 85 38 	lb      r4,0x0029(r5)
    9e88:	05 20 86 00 	orr     r4,r6,r4
    9e8c:	00 00 87 3c 	sb      0x0000(r7),r4
    9e90:	01 00 a0 2c 	ldih    r5,0x0001
    9e94:	a0 6c a5 18 	ori     r5,r5,0x6ca0
    9e98:	fb ff 9e 38 	lb      r4,0xfffb(r30)
    9e9c:	18 00 84 20 	lsli    r4,r4,0x0018
    9ea0:	18 00 84 24 	lsri    r4,r4,0x0018
    9ea4:	02 00 84 20 	lsli    r4,r4,0x0002
    9ea8:	00 28 a4 00 	add     r5,r4,r5
    9eac:	fc ff 9e 30 	lw      r4,0xfffc(r30)
    9eb0:	00 00 85 34 	sw      0x0000(r5),r4
    9eb4:	08 00 bd 07 	addi    r29,r29,0x0008
    9eb8:	05 f0 a0 03 	orr     r29,r0,r30
    9ebc:	04 00 bd 07 	addi    r29,r29,0x0004
    9ec0:	fc ff dd 33 	lw      r30,0xfffc(r29)
    9ec4:	00 00 e0 47 	jmpr    r31
    9ec8:	00 00 00 00 	nop
    9ecc:	00 00 00 00 	nop

00009ed0 <OSInitHookBegin>:
    9ed0:	fc ff bd 07 	addi    r29,r29,0xfffc
    9ed4:	00 00 dd 37 	sw      0x0000(r29),r30
    9ed8:	05 e8 c0 03 	orr     r30,r0,r29
    9edc:	05 f0 a0 03 	orr     r29,r0,r30
    9ee0:	04 00 bd 07 	addi    r29,r29,0x0004
    9ee4:	fc ff dd 33 	lw      r30,0xfffc(r29)
    9ee8:	00 00 e0 47 	jmpr    r31
    9eec:	00 00 00 00 	nop

00009ef0 <OSInitHookEnd>:
    9ef0:	fc ff bd 07 	addi    r29,r29,0xfffc
    9ef4:	00 00 dd 37 	sw      0x0000(r29),r30
    9ef8:	05 e8 c0 03 	orr     r30,r0,r29
    9efc:	05 f0 a0 03 	orr     r29,r0,r30
    9f00:	04 00 bd 07 	addi    r29,r29,0x0004
    9f04:	fc ff dd 33 	lw      r30,0xfffc(r29)
    9f08:	00 00 e0 47 	jmpr    r31
    9f0c:	00 00 00 00 	nop

00009f10 <OSTaskCreateHook>:
    9f10:	f8 ff bd 07 	addi    r29,r29,0xfff8
    9f14:	00 00 dd 37 	sw      0x0000(r29),r30
    9f18:	04 00 fd 37 	sw      0x0004(r29),r31
    9f1c:	05 e8 c0 03 	orr     r30,r0,r29
    9f20:	fc ff bd 07 	addi    r29,r29,0xfffc
    9f24:	fc ff 9e 34 	sw      0xfffc(r30),r4
    9f28:	fc ff 9e 30 	lw      r4,0xfffc(r30)
    9f2c:	84 01 00 c0 	ajal    0x00000610
    9f30:	04 00 bd 07 	addi    r29,r29,0x0004
    9f34:	05 f0 a0 03 	orr     r29,r0,r30
    9f38:	08 00 bd 07 	addi    r29,r29,0x0008
    9f3c:	fc ff fd 33 	lw      r31,0xfffc(r29)
    9f40:	f8 ff dd 33 	lw      r30,0xfff8(r29)
    9f44:	00 00 e0 47 	jmpr    r31
    9f48:	00 00 00 00 	nop
    9f4c:	00 00 00 00 	nop

00009f50 <OSTaskDelHook>:
    9f50:	f8 ff bd 07 	addi    r29,r29,0xfff8
    9f54:	00 00 dd 37 	sw      0x0000(r29),r30
    9f58:	04 00 fd 37 	sw      0x0004(r29),r31
    9f5c:	05 e8 c0 03 	orr     r30,r0,r29
    9f60:	fc ff bd 07 	addi    r29,r29,0xfffc
    9f64:	fc ff 9e 34 	sw      0xfffc(r30),r4
    9f68:	fc ff 9e 30 	lw      r4,0xfffc(r30)
    9f6c:	90 01 00 c0 	ajal    0x00000640
    9f70:	04 00 bd 07 	addi    r29,r29,0x0004
    9f74:	05 f0 a0 03 	orr     r29,r0,r30
    9f78:	08 00 bd 07 	addi    r29,r29,0x0008
    9f7c:	fc ff fd 33 	lw      r31,0xfffc(r29)
    9f80:	f8 ff dd 33 	lw      r30,0xfff8(r29)
    9f84:	00 00 e0 47 	jmpr    r31
    9f88:	00 00 00 00 	nop
    9f8c:	00 00 00 00 	nop

00009f90 <OSTaskIdleHook>:
    9f90:	f8 ff bd 07 	addi    r29,r29,0xfff8
    9f94:	00 00 dd 37 	sw      0x0000(r29),r30
    9f98:	04 00 fd 37 	sw      0x0004(r29),r31
    9f9c:	05 e8 c0 03 	orr     r30,r0,r29
    9fa0:	9c 01 00 c0 	ajal    0x00000670
    9fa4:	05 f0 a0 03 	orr     r29,r0,r30
    9fa8:	08 00 bd 07 	addi    r29,r29,0x0008
    9fac:	fc ff fd 33 	lw      r31,0xfffc(r29)
    9fb0:	f8 ff dd 33 	lw      r30,0xfff8(r29)
    9fb4:	00 00 e0 47 	jmpr    r31
    9fb8:	00 00 00 00 	nop
    9fbc:	00 00 00 00 	nop

00009fc0 <OSTaskReturnHook>:
    9fc0:	f8 ff bd 07 	addi    r29,r29,0xfff8
    9fc4:	00 00 dd 37 	sw      0x0000(r29),r30
    9fc8:	04 00 fd 37 	sw      0x0004(r29),r31
    9fcc:	05 e8 c0 03 	orr     r30,r0,r29
    9fd0:	f4 ff bd 07 	addi    r29,r29,0xfff4
    9fd4:	fc ff 9e 34 	sw      0xfffc(r30),r4
    9fd8:	01 00 80 2c 	ldih    r4,0x0001
    9fdc:	34 73 84 18 	ori     r4,r4,0x7334
    9fe0:	00 00 9d 34 	sw      0x0000(r29),r4
    9fe4:	fc ff 9e 30 	lw      r4,0xfffc(r30)
    9fe8:	26 00 84 38 	lb      r4,0x0026(r4)
    9fec:	18 00 84 20 	lsli    r4,r4,0x0018
    9ff0:	18 00 84 24 	lsri    r4,r4,0x0018
    9ff4:	04 00 9d 34 	sw      0x0004(r29),r4
    9ff8:	48 0c 00 c0 	ajal    0x00003120
    9ffc:	fc ff 9e 30 	lw      r4,0xfffc(r30)
    a000:	a4 01 00 c0 	ajal    0x00000690
    a004:	0c 00 bd 07 	addi    r29,r29,0x000c
    a008:	05 f0 a0 03 	orr     r29,r0,r30
    a00c:	08 00 bd 07 	addi    r29,r29,0x0008
    a010:	fc ff fd 33 	lw      r31,0xfffc(r29)
    a014:	f8 ff dd 33 	lw      r30,0xfff8(r29)
    a018:	00 00 e0 47 	jmpr    r31
    a01c:	00 00 00 00 	nop

0000a020 <OSTaskStatHook>:
    a020:	f8 ff bd 07 	addi    r29,r29,0xfff8
    a024:	00 00 dd 37 	sw      0x0000(r29),r30
    a028:	04 00 fd 37 	sw      0x0004(r29),r31
    a02c:	05 e8 c0 03 	orr     r30,r0,r29
    a030:	b0 01 00 c0 	ajal    0x000006c0
    a034:	05 f0 a0 03 	orr     r29,r0,r30
    a038:	08 00 bd 07 	addi    r29,r29,0x0008
    a03c:	fc ff fd 33 	lw      r31,0xfffc(r29)
    a040:	f8 ff dd 33 	lw      r30,0xfff8(r29)
    a044:	00 00 e0 47 	jmpr    r31
    a048:	00 00 00 00 	nop
    a04c:	00 00 00 00 	nop

0000a050 <OSTaskStkInit>:
    a050:	fc ff bd 07 	addi    r29,r29,0xfffc
    a054:	00 00 dd 37 	sw      0x0000(r29),r30
    a058:	05 e8 c0 03 	orr     r30,r0,r29
    a05c:	e8 ff bd 07 	addi    r29,r29,0xffe8
    a060:	fc ff 9e 34 	sw      0xfffc(r30),r4
    a064:	f8 ff be 34 	sw      0xfff8(r30),r5
    a068:	f4 ff de 34 	sw      0xfff4(r30),r6
    a06c:	f2 ff fe 68 	sh      0xfff2(r30),r7
    a070:	00 89 a0 2c 	ldih    r5,0x8900
    a074:	00 00 a5 18 	ori     r5,r5,0x0000
    a078:	f4 ff 9e 30 	lw      r4,0xfff4(r30)
    a07c:	00 00 85 34 	sw      0x0000(r5),r4
    a080:	f4 ff 9e 30 	lw      r4,0xfff4(r30)
    a084:	04 00 84 04 	addi    r4,r4,0x0004
    a088:	ec ff 9e 34 	sw      0xffec(r30),r4
    a08c:	ec ff be 30 	lw      r5,0xffec(r30)
    a090:	ff ff 80 2c 	ldih    r4,0xffff
    a094:	f8 ff 84 18 	ori     r4,r4,0xfff8
    a098:	04 20 85 00 	and     r4,r5,r4
    a09c:	ec ff 9e 34 	sw      0xffec(r30),r4
    a0a0:	ec ff 9e 30 	lw      r4,0xffec(r30)
    a0a4:	fc ff 84 04 	addi    r4,r4,0xfffc
    a0a8:	ec ff 9e 34 	sw      0xffec(r30),r4
    a0ac:	ec ff 9e 30 	lw      r4,0xffec(r30)
    a0b0:	fc ff 84 04 	addi    r4,r4,0xfffc
    a0b4:	05 20 a0 00 	orr     r5,r0,r4
    a0b8:	ec ff be 34 	sw      0xffec(r30),r5
    a0bc:	10 00 80 18 	ori     r4,r0,0x0010
    a0c0:	00 00 85 34 	sw      0x0000(r5),r4
    a0c4:	ec ff 9e 30 	lw      r4,0xffec(r30)
    a0c8:	fc ff 84 04 	addi    r4,r4,0xfffc
    a0cc:	05 20 a0 00 	orr     r5,r0,r4
    a0d0:	ec ff be 34 	sw      0xffec(r30),r5
    a0d4:	fc ff 9e 30 	lw      r4,0xfffc(r30)
    a0d8:	00 00 85 34 	sw      0x0000(r5),r4
    a0dc:	ec ff 9e 30 	lw      r4,0xffec(r30)
    a0e0:	fc ff 84 04 	addi    r4,r4,0xfffc
    a0e4:	05 20 a0 00 	orr     r5,r0,r4
    a0e8:	ec ff be 34 	sw      0xffec(r30),r5
    a0ec:	00 00 80 2c 	ldih    r4,0x0000
    a0f0:	e0 83 84 18 	ori     r4,r4,0x83e0
    a0f4:	00 00 85 34 	sw      0x0000(r5),r4
    a0f8:	1e 00 80 18 	ori     r4,r0,0x001e
    a0fc:	e8 ff 9e 34 	sw      0xffe8(r30),r4
    a100:	e8 ff be 30 	lw      r5,0xffe8(r30)
    a104:	00 00 80 18 	ori     r4,r0,0x0000
    a108:	02 20 05 00 	sub     r0,r5,r4
    a10c:	16 00 c0 42 	blt     0x0000a164
    a110:	e8 ff be 30 	lw      r5,0xffe8(r30)
    a114:	04 00 80 18 	ori     r4,r0,0x0004
    a118:	02 20 05 00 	sub     r0,r5,r4
    a11c:	08 00 40 40 	bne     0x0000a13c
    a120:	ec ff 9e 30 	lw      r4,0xffec(r30)
    a124:	fc ff 84 04 	addi    r4,r4,0xfffc
    a128:	05 20 a0 00 	orr     r5,r0,r4
    a12c:	ec ff be 34 	sw      0xffec(r30),r5
    a130:	f8 ff 9e 30 	lw      r4,0xfff8(r30)
    a134:	00 00 85 34 	sw      0x0000(r5),r4
    a138:	55 28 00 80 	ajmp    0x0000a154
    a13c:	ec ff 9e 30 	lw      r4,0xffec(r30)
    a140:	fc ff 84 04 	addi    r4,r4,0xfffc
    a144:	05 20 a0 00 	orr     r5,r0,r4
    a148:	ec ff be 34 	sw      0xffec(r30),r5
    a14c:	e8 ff 9e 30 	lw      r4,0xffe8(r30)
    a150:	00 00 85 34 	sw      0x0000(r5),r4
    a154:	e8 ff 9e 30 	lw      r4,0xffe8(r30)
    a158:	ff ff 84 04 	addi    r4,r4,0xffff
    a15c:	e8 ff 9e 34 	sw      0xffe8(r30),r4
    a160:	40 28 00 80 	ajmp    0x0000a100
    a164:	ec ff 9e 30 	lw      r4,0xffec(r30)
    a168:	05 20 40 00 	orr     r2,r0,r4
    a16c:	18 00 bd 07 	addi    r29,r29,0x0018
    a170:	05 f0 a0 03 	orr     r29,r0,r30
    a174:	04 00 bd 07 	addi    r29,r29,0x0004
    a178:	fc ff dd 33 	lw      r30,0xfffc(r29)
    a17c:	00 00 e0 47 	jmpr    r31

0000a180 <OSTaskSwHook>:
    a180:	f8 ff bd 07 	addi    r29,r29,0xfff8
    a184:	00 00 dd 37 	sw      0x0000(r29),r30
    a188:	04 00 fd 37 	sw      0x0004(r29),r31
    a18c:	05 e8 c0 03 	orr     r30,r0,r29
    a190:	b8 01 00 c0 	ajal    0x000006e0
    a194:	05 f0 a0 03 	orr     r29,r0,r30
    a198:	08 00 bd 07 	addi    r29,r29,0x0008
    a19c:	fc ff fd 33 	lw      r31,0xfffc(r29)
    a1a0:	f8 ff dd 33 	lw      r30,0xfff8(r29)
    a1a4:	00 00 e0 47 	jmpr    r31
    a1a8:	00 00 00 00 	nop
    a1ac:	00 00 00 00 	nop

0000a1b0 <OSTCBInitHook>:
    a1b0:	f8 ff bd 07 	addi    r29,r29,0xfff8
    a1b4:	00 00 dd 37 	sw      0x0000(r29),r30
    a1b8:	04 00 fd 37 	sw      0x0004(r29),r31
    a1bc:	05 e8 c0 03 	orr     r30,r0,r29
    a1c0:	fc ff bd 07 	addi    r29,r29,0xfffc
    a1c4:	fc ff 9e 34 	sw      0xfffc(r30),r4
    a1c8:	fc ff 9e 30 	lw      r4,0xfffc(r30)
    a1cc:	c0 01 00 c0 	ajal    0x00000700
    a1d0:	04 00 bd 07 	addi    r29,r29,0x0004
    a1d4:	05 f0 a0 03 	orr     r29,r0,r30
    a1d8:	08 00 bd 07 	addi    r29,r29,0x0008
    a1dc:	fc ff fd 33 	lw      r31,0xfffc(r29)
    a1e0:	f8 ff dd 33 	lw      r30,0xfff8(r29)
    a1e4:	00 00 e0 47 	jmpr    r31
    a1e8:	00 00 00 00 	nop
    a1ec:	00 00 00 00 	nop

0000a1f0 <OSTimeTickHook>:
    a1f0:	f8 ff bd 07 	addi    r29,r29,0xfff8
    a1f4:	00 00 dd 37 	sw      0x0000(r29),r30
    a1f8:	04 00 fd 37 	sw      0x0004(r29),r31
    a1fc:	05 e8 c0 03 	orr     r30,r0,r29
    a200:	cc 01 00 c0 	ajal    0x00000730
    a204:	05 f0 a0 03 	orr     r29,r0,r30
    a208:	08 00 bd 07 	addi    r29,r29,0x0008
    a20c:	fc ff fd 33 	lw      r31,0xfffc(r29)
    a210:	f8 ff dd 33 	lw      r30,0xfff8(r29)
    a214:	00 00 e0 47 	jmpr    r31
    a218:	00 00 00 00 	nop
    a21c:	00 00 00 00 	nop

0000a220 <OS_CPU_SysTickHandler>:
    a220:	f8 ff bd 07 	addi    r29,r29,0xfff8
    a224:	00 00 dd 37 	sw      0x0000(r29),r30
    a228:	04 00 fd 37 	sw      0x0004(r29),r31
    a22c:	05 e8 c0 03 	orr     r30,r0,r29
    a230:	fc ff bd 07 	addi    r29,r29,0xfffc
    a234:	2a 00 00 c0 	ajal    0x000000a8
    a238:	05 10 80 00 	orr     r4,r0,r2
    a23c:	fc ff 9e 34 	sw      0xfffc(r30),r4
    a240:	01 00 a0 2c 	ldih    r5,0x0001
    a244:	84 4c a5 18 	ori     r5,r5,0x4c84
    a248:	01 00 80 2c 	ldih    r4,0x0001
    a24c:	84 4c 84 18 	ori     r4,r4,0x4c84
    a250:	00 00 84 38 	lb      r4,0x0000(r4)
    a254:	01 00 84 04 	addi    r4,r4,0x0001
    a258:	00 00 85 3c 	sb      0x0000(r5),r4
    a25c:	fc ff 9e 30 	lw      r4,0xfffc(r30)
    a260:	2d 00 00 c0 	ajal    0x000000b4
    a264:	7c 15 00 c0 	ajal    0x000055f0
    a268:	48 14 00 c0 	ajal    0x00005120
    a26c:	04 00 bd 07 	addi    r29,r29,0x0004
    a270:	05 f0 a0 03 	orr     r29,r0,r30
    a274:	08 00 bd 07 	addi    r29,r29,0x0008
    a278:	fc ff fd 33 	lw      r31,0xfffc(r29)
    a27c:	f8 ff dd 33 	lw      r30,0xfff8(r29)
    a280:	00 00 e0 47 	jmpr    r31
    a284:	00 00 00 00 	nop
    a288:	00 00 00 00 	nop
    a28c:	00 00 00 00 	nop

0000a290 <__nedf2>:
    a290:	fc ff fd 37 	sw      0xfffc(r29),r31
    a294:	f8 ff dd 37 	sw      0xfff8(r29),r30
    a298:	f8 ff bd 07 	addi    r29,r29,0xfff8
    a29c:	05 e8 c0 03 	orr     r30,r0,r29
    a2a0:	b4 ff bd 07 	addi    r29,r29,0xffb4
    a2a4:	f8 ff 9e 34 	sw      0xfff8(r30),r4
    a2a8:	fc ff be 34 	sw      0xfffc(r30),r5
    a2ac:	f0 ff de 34 	sw      0xfff0(r30),r6
    a2b0:	f4 ff fe 34 	sw      0xfff4(r30),r7
    a2b4:	f8 ff 9e 30 	lw      r4,0xfff8(r30)
    a2b8:	c0 ff 9e 34 	sw      0xffc0(r30),r4
    a2bc:	fc ff 9e 30 	lw      r4,0xfffc(r30)
    a2c0:	c4 ff 9e 34 	sw      0xffc4(r30),r4
    a2c4:	f0 ff 9e 30 	lw      r4,0xfff0(r30)
    a2c8:	b8 ff 9e 34 	sw      0xffb8(r30),r4
    a2cc:	f4 ff 9e 30 	lw      r4,0xfff4(r30)
    a2d0:	bc ff 9e 34 	sw      0xffbc(r30),r4
    a2d4:	c0 ff 9e 04 	addi    r4,r30,0xffc0
    a2d8:	dc ff be 04 	addi    r5,r30,0xffdc
    a2dc:	c4 31 00 c0 	ajal    0x0000c710
    a2e0:	b8 ff 9e 04 	addi    r4,r30,0xffb8
    a2e4:	c8 ff be 04 	addi    r5,r30,0xffc8
    a2e8:	c4 31 00 c0 	ajal    0x0000c710
    a2ec:	dc ff 9e 04 	addi    r4,r30,0xffdc
    a2f0:	d8 28 00 c0 	ajal    0x0000a360
    a2f4:	05 10 a0 00 	orr     r5,r0,r2
    a2f8:	00 00 80 18 	ori     r4,r0,0x0000
    a2fc:	02 20 05 00 	sub     r0,r5,r4
    a300:	08 00 40 40 	bne     0x0000a320
    a304:	c8 ff 9e 04 	addi    r4,r30,0xffc8
    a308:	d8 28 00 c0 	ajal    0x0000a360
    a30c:	05 10 a0 00 	orr     r5,r0,r2
    a310:	00 00 80 18 	ori     r4,r0,0x0000
    a314:	02 20 05 00 	sub     r0,r5,r4
    a318:	02 00 40 40 	bne     0x0000a320
    a31c:	cb 28 00 80 	ajmp    0x0000a32c
    a320:	01 00 80 18 	ori     r4,r0,0x0001
    a324:	b4 ff 9e 34 	sw      0xffb4(r30),r4
    a328:	d0 28 00 80 	ajmp    0x0000a340
    a32c:	dc ff 9e 04 	addi    r4,r30,0xffdc
    a330:	c8 ff be 04 	addi    r5,r30,0xffc8
    a334:	80 32 00 c0 	ajal    0x0000ca00
    a338:	05 10 80 00 	orr     r4,r0,r2
    a33c:	b4 ff 9e 34 	sw      0xffb4(r30),r4
    a340:	b4 ff 5e 30 	lw      r2,0xffb4(r30)
    a344:	4c 00 bd 07 	addi    r29,r29,0x004c
    a348:	05 f0 a0 03 	orr     r29,r0,r30
    a34c:	08 00 bd 07 	addi    r29,r29,0x0008
    a350:	fc ff fd 33 	lw      r31,0xfffc(r29)
    a354:	f8 ff dd 33 	lw      r30,0xfff8(r29)
    a358:	00 00 e0 47 	jmpr    r31
    a35c:	00 00 00 00 	nop

0000a360 <isnan>:
    a360:	fc ff dd 37 	sw      0xfffc(r29),r30
    a364:	fc ff bd 07 	addi    r29,r29,0xfffc
    a368:	05 e8 c0 03 	orr     r30,r0,r29
    a36c:	f8 ff bd 07 	addi    r29,r29,0xfff8
    a370:	fc ff 9e 34 	sw      0xfffc(r30),r4
    a374:	00 00 80 18 	ori     r4,r0,0x0000
    a378:	f8 ff 9e 34 	sw      0xfff8(r30),r4
    a37c:	fc ff 9e 30 	lw      r4,0xfffc(r30)
    a380:	00 00 a4 30 	lw      r5,0x0000(r4)
    a384:	00 00 80 18 	ori     r4,r0,0x0000
    a388:	02 20 05 00 	sub     r0,r5,r4
    a38c:	07 00 00 40 	beq     0x0000a3a8
    a390:	fc ff 9e 30 	lw      r4,0xfffc(r30)
    a394:	00 00 a4 30 	lw      r5,0x0000(r4)
    a398:	01 00 80 18 	ori     r4,r0,0x0001
    a39c:	02 20 05 00 	sub     r0,r5,r4
    a3a0:	02 00 00 40 	beq     0x0000a3a8
    a3a4:	ec 28 00 80 	ajmp    0x0000a3b0
    a3a8:	01 00 80 18 	ori     r4,r0,0x0001
    a3ac:	f8 ff 9e 34 	sw      0xfff8(r30),r4
    a3b0:	f8 ff 9e 30 	lw      r4,0xfff8(r30)
    a3b4:	05 20 40 00 	orr     r2,r0,r4
    a3b8:	08 00 bd 07 	addi    r29,r29,0x0008
    a3bc:	05 f0 a0 03 	orr     r29,r0,r30
    a3c0:	04 00 bd 07 	addi    r29,r29,0x0004
    a3c4:	fc ff dd 33 	lw      r30,0xfffc(r29)
    a3c8:	00 00 e0 47 	jmpr    r31
    a3cc:	00 00 00 00 	nop

0000a3d0 <__ltdf2>:
    a3d0:	fc ff fd 37 	sw      0xfffc(r29),r31
    a3d4:	f8 ff dd 37 	sw      0xfff8(r29),r30
    a3d8:	f8 ff bd 07 	addi    r29,r29,0xfff8
    a3dc:	05 e8 c0 03 	orr     r30,r0,r29
    a3e0:	b4 ff bd 07 	addi    r29,r29,0xffb4
    a3e4:	f8 ff 9e 34 	sw      0xfff8(r30),r4
    a3e8:	fc ff be 34 	sw      0xfffc(r30),r5
    a3ec:	f0 ff de 34 	sw      0xfff0(r30),r6
    a3f0:	f4 ff fe 34 	sw      0xfff4(r30),r7
    a3f4:	f8 ff 9e 30 	lw      r4,0xfff8(r30)
    a3f8:	c0 ff 9e 34 	sw      0xffc0(r30),r4
    a3fc:	fc ff 9e 30 	lw      r4,0xfffc(r30)
    a400:	c4 ff 9e 34 	sw      0xffc4(r30),r4
    a404:	f0 ff 9e 30 	lw      r4,0xfff0(r30)
    a408:	b8 ff 9e 34 	sw      0xffb8(r30),r4
    a40c:	f4 ff 9e 30 	lw      r4,0xfff4(r30)
    a410:	bc ff 9e 34 	sw      0xffbc(r30),r4
    a414:	c0 ff 9e 04 	addi    r4,r30,0xffc0
    a418:	dc ff be 04 	addi    r5,r30,0xffdc
    a41c:	c4 31 00 c0 	ajal    0x0000c710
    a420:	b8 ff 9e 04 	addi    r4,r30,0xffb8
    a424:	c8 ff be 04 	addi    r5,r30,0xffc8
    a428:	c4 31 00 c0 	ajal    0x0000c710
    a42c:	dc ff 9e 04 	addi    r4,r30,0xffdc
    a430:	28 29 00 c0 	ajal    0x0000a4a0
    a434:	05 10 a0 00 	orr     r5,r0,r2
    a438:	00 00 80 18 	ori     r4,r0,0x0000
    a43c:	02 20 05 00 	sub     r0,r5,r4
    a440:	08 00 40 40 	bne     0x0000a460
    a444:	c8 ff 9e 04 	addi    r4,r30,0xffc8
    a448:	28 29 00 c0 	ajal    0x0000a4a0
    a44c:	05 10 a0 00 	orr     r5,r0,r2
    a450:	00 00 80 18 	ori     r4,r0,0x0000
    a454:	02 20 05 00 	sub     r0,r5,r4
    a458:	02 00 40 40 	bne     0x0000a460
    a45c:	1b 29 00 80 	ajmp    0x0000a46c
    a460:	01 00 80 18 	ori     r4,r0,0x0001
    a464:	b4 ff 9e 34 	sw      0xffb4(r30),r4
    a468:	20 29 00 80 	ajmp    0x0000a480
    a46c:	dc ff 9e 04 	addi    r4,r30,0xffdc
    a470:	c8 ff be 04 	addi    r5,r30,0xffc8
    a474:	80 32 00 c0 	ajal    0x0000ca00
    a478:	05 10 80 00 	orr     r4,r0,r2
    a47c:	b4 ff 9e 34 	sw      0xffb4(r30),r4
    a480:	b4 ff 5e 30 	lw      r2,0xffb4(r30)
    a484:	4c 00 bd 07 	addi    r29,r29,0x004c
    a488:	05 f0 a0 03 	orr     r29,r0,r30
    a48c:	08 00 bd 07 	addi    r29,r29,0x0008
    a490:	fc ff fd 33 	lw      r31,0xfffc(r29)
    a494:	f8 ff dd 33 	lw      r30,0xfff8(r29)
    a498:	00 00 e0 47 	jmpr    r31
    a49c:	00 00 00 00 	nop

0000a4a0 <isnan>:
    a4a0:	fc ff dd 37 	sw      0xfffc(r29),r30
    a4a4:	fc ff bd 07 	addi    r29,r29,0xfffc
    a4a8:	05 e8 c0 03 	orr     r30,r0,r29
    a4ac:	f8 ff bd 07 	addi    r29,r29,0xfff8
    a4b0:	fc ff 9e 34 	sw      0xfffc(r30),r4
    a4b4:	00 00 80 18 	ori     r4,r0,0x0000
    a4b8:	f8 ff 9e 34 	sw      0xfff8(r30),r4
    a4bc:	fc ff 9e 30 	lw      r4,0xfffc(r30)
    a4c0:	00 00 a4 30 	lw      r5,0x0000(r4)
    a4c4:	00 00 80 18 	ori     r4,r0,0x0000
    a4c8:	02 20 05 00 	sub     r0,r5,r4
    a4cc:	07 00 00 40 	beq     0x0000a4e8
    a4d0:	fc ff 9e 30 	lw      r4,0xfffc(r30)
    a4d4:	00 00 a4 30 	lw      r5,0x0000(r4)
    a4d8:	01 00 80 18 	ori     r4,r0,0x0001
    a4dc:	02 20 05 00 	sub     r0,r5,r4
    a4e0:	02 00 00 40 	beq     0x0000a4e8
    a4e4:	3c 29 00 80 	ajmp    0x0000a4f0
    a4e8:	01 00 80 18 	ori     r4,r0,0x0001
    a4ec:	f8 ff 9e 34 	sw      0xfff8(r30),r4
    a4f0:	f8 ff 9e 30 	lw      r4,0xfff8(r30)
    a4f4:	05 20 40 00 	orr     r2,r0,r4
    a4f8:	08 00 bd 07 	addi    r29,r29,0x0008
    a4fc:	05 f0 a0 03 	orr     r29,r0,r30
    a500:	04 00 bd 07 	addi    r29,r29,0x0004
    a504:	fc ff dd 33 	lw      r30,0xfffc(r29)
    a508:	00 00 e0 47 	jmpr    r31
    a50c:	00 00 00 00 	nop

0000a510 <_fpadd_parts>:
    a510:	fc ff 1d 35 	sw      0xfffc(r29),r8
    a514:	f8 ff fd 37 	sw      0xfff8(r29),r31
    a518:	f4 ff dd 37 	sw      0xfff4(r29),r30
    a51c:	f4 ff bd 07 	addi    r29,r29,0xfff4
    a520:	05 e8 c0 03 	orr     r30,r0,r29
    a524:	e4 fe bd 07 	addi    r29,r29,0xfee4
    a528:	fc ff 9e 34 	sw      0xfffc(r30),r4
    a52c:	f8 ff be 34 	sw      0xfff8(r30),r5
    a530:	f4 ff de 34 	sw      0xfff4(r30),r6
    a534:	fc ff 9e 30 	lw      r4,0xfffc(r30)
    a538:	6c 2b 00 c0 	ajal    0x0000adb0
    a53c:	05 10 a0 00 	orr     r5,r0,r2
    a540:	00 00 80 18 	ori     r4,r0,0x0000
    a544:	02 20 05 00 	sub     r0,r5,r4
    a548:	04 00 00 40 	beq     0x0000a558
    a54c:	fc ff 9e 30 	lw      r4,0xfffc(r30)
    a550:	c4 ff 9e 34 	sw      0xffc4(r30),r4
    a554:	25 2b 00 80 	ajmp    0x0000ac94
    a558:	f8 ff 9e 30 	lw      r4,0xfff8(r30)
    a55c:	6c 2b 00 c0 	ajal    0x0000adb0
    a560:	05 10 a0 00 	orr     r5,r0,r2
    a564:	00 00 80 18 	ori     r4,r0,0x0000
    a568:	02 20 05 00 	sub     r0,r5,r4
    a56c:	04 00 00 40 	beq     0x0000a57c
    a570:	f8 ff 9e 30 	lw      r4,0xfff8(r30)
    a574:	c4 ff 9e 34 	sw      0xffc4(r30),r4
    a578:	25 2b 00 80 	ajmp    0x0000ac94
    a57c:	fc ff 9e 30 	lw      r4,0xfffc(r30)
    a580:	54 2b 00 c0 	ajal    0x0000ad50
    a584:	05 10 a0 00 	orr     r5,r0,r2
    a588:	00 00 80 18 	ori     r4,r0,0x0000
    a58c:	02 20 05 00 	sub     r0,r5,r4
    a590:	14 00 00 40 	beq     0x0000a5e0
    a594:	f8 ff 9e 30 	lw      r4,0xfff8(r30)
    a598:	54 2b 00 c0 	ajal    0x0000ad50
    a59c:	05 10 a0 00 	orr     r5,r0,r2
    a5a0:	00 00 80 18 	ori     r4,r0,0x0000
    a5a4:	02 20 05 00 	sub     r0,r5,r4
    a5a8:	0b 00 00 40 	beq     0x0000a5d4
    a5ac:	fc ff 9e 30 	lw      r4,0xfffc(r30)
    a5b0:	f8 ff be 30 	lw      r5,0xfff8(r30)
    a5b4:	04 00 c4 30 	lw      r6,0x0004(r4)
    a5b8:	04 00 85 30 	lw      r4,0x0004(r5)
    a5bc:	02 20 06 00 	sub     r0,r6,r4
    a5c0:	05 00 00 40 	beq     0x0000a5d4
    a5c4:	48 2b 00 c0 	ajal    0x0000ad20
    a5c8:	05 10 80 00 	orr     r4,r0,r2
    a5cc:	c4 ff 9e 34 	sw      0xffc4(r30),r4
    a5d0:	25 2b 00 80 	ajmp    0x0000ac94
    a5d4:	fc ff 9e 30 	lw      r4,0xfffc(r30)
    a5d8:	c4 ff 9e 34 	sw      0xffc4(r30),r4
    a5dc:	25 2b 00 80 	ajmp    0x0000ac94
    a5e0:	f8 ff 9e 30 	lw      r4,0xfff8(r30)
    a5e4:	54 2b 00 c0 	ajal    0x0000ad50
    a5e8:	05 10 a0 00 	orr     r5,r0,r2
    a5ec:	00 00 80 18 	ori     r4,r0,0x0000
    a5f0:	02 20 05 00 	sub     r0,r5,r4
    a5f4:	04 00 00 40 	beq     0x0000a604
    a5f8:	f8 ff 9e 30 	lw      r4,0xfff8(r30)
    a5fc:	c4 ff 9e 34 	sw      0xffc4(r30),r4
    a600:	25 2b 00 80 	ajmp    0x0000ac94
    a604:	f8 ff 9e 30 	lw      r4,0xfff8(r30)
    a608:	30 2b 00 c0 	ajal    0x0000acc0
    a60c:	05 10 a0 00 	orr     r5,r0,r2
    a610:	00 00 80 18 	ori     r4,r0,0x0000
    a614:	02 20 05 00 	sub     r0,r5,r4
    a618:	18 00 00 40 	beq     0x0000a678
    a61c:	fc ff 9e 30 	lw      r4,0xfffc(r30)
    a620:	30 2b 00 c0 	ajal    0x0000acc0
    a624:	05 10 a0 00 	orr     r5,r0,r2
    a628:	00 00 80 18 	ori     r4,r0,0x0000
    a62c:	02 20 05 00 	sub     r0,r5,r4
    a630:	0f 00 00 40 	beq     0x0000a66c
    a634:	f4 ff 9e 30 	lw      r4,0xfff4(r30)
    a638:	fc ff be 30 	lw      r5,0xfffc(r30)
    a63c:	14 00 c0 18 	ori     r6,r0,0x0014
    a640:	e4 0f 00 c0 	ajal    0x00003f90
    a644:	f4 ff fe 30 	lw      r7,0xfff4(r30)
    a648:	fc ff 9e 30 	lw      r4,0xfffc(r30)
    a64c:	f8 ff be 30 	lw      r5,0xfff8(r30)
    a650:	04 00 c4 30 	lw      r6,0x0004(r4)
    a654:	04 00 85 30 	lw      r4,0x0004(r5)
    a658:	04 20 86 00 	and     r4,r6,r4
    a65c:	04 00 87 34 	sw      0x0004(r7),r4
    a660:	f4 ff 9e 30 	lw      r4,0xfff4(r30)
    a664:	c4 ff 9e 34 	sw      0xffc4(r30),r4
    a668:	25 2b 00 80 	ajmp    0x0000ac94
    a66c:	fc ff 9e 30 	lw      r4,0xfffc(r30)
    a670:	c4 ff 9e 34 	sw      0xffc4(r30),r4
    a674:	25 2b 00 80 	ajmp    0x0000ac94
    a678:	fc ff 9e 30 	lw      r4,0xfffc(r30)
    a67c:	30 2b 00 c0 	ajal    0x0000acc0
    a680:	05 10 a0 00 	orr     r5,r0,r2
    a684:	00 00 80 18 	ori     r4,r0,0x0000
    a688:	02 20 05 00 	sub     r0,r5,r4
    a68c:	04 00 00 40 	beq     0x0000a69c
    a690:	f8 ff 9e 30 	lw      r4,0xfff8(r30)
    a694:	c4 ff 9e 34 	sw      0xffc4(r30),r4
    a698:	25 2b 00 80 	ajmp    0x0000ac94
    a69c:	fc ff 9e 30 	lw      r4,0xfffc(r30)
    a6a0:	08 00 84 30 	lw      r4,0x0008(r4)
    a6a4:	e8 ff 9e 34 	sw      0xffe8(r30),r4
    a6a8:	f8 ff 9e 30 	lw      r4,0xfff8(r30)
    a6ac:	08 00 84 30 	lw      r4,0x0008(r4)
    a6b0:	e4 ff 9e 34 	sw      0xffe4(r30),r4
    a6b4:	fc ff 9e 30 	lw      r4,0xfffc(r30)
    a6b8:	0c 00 a4 30 	lw      r5,0x000c(r4)
    a6bc:	bc ff be 34 	sw      0xffbc(r30),r5
    a6c0:	10 00 84 30 	lw      r4,0x0010(r4)
    a6c4:	c0 ff 9e 34 	sw      0xffc0(r30),r4
    a6c8:	bc ff de 30 	lw      r6,0xffbc(r30)
    a6cc:	dc ff de 34 	sw      0xffdc(r30),r6
    a6d0:	c0 ff fe 30 	lw      r7,0xffc0(r30)
    a6d4:	e0 ff fe 34 	sw      0xffe0(r30),r7
    a6d8:	f8 ff 9e 30 	lw      r4,0xfff8(r30)
    a6dc:	0c 00 a4 30 	lw      r5,0x000c(r4)
    a6e0:	b4 ff be 34 	sw      0xffb4(r30),r5
    a6e4:	10 00 84 30 	lw      r4,0x0010(r4)
    a6e8:	b8 ff 9e 34 	sw      0xffb8(r30),r4
    a6ec:	b4 ff de 30 	lw      r6,0xffb4(r30)
    a6f0:	d4 ff de 34 	sw      0xffd4(r30),r6
    a6f4:	b8 ff fe 30 	lw      r7,0xffb8(r30)
    a6f8:	d8 ff fe 34 	sw      0xffd8(r30),r7
    a6fc:	e8 ff be 30 	lw      r5,0xffe8(r30)
    a700:	e4 ff 9e 30 	lw      r4,0xffe4(r30)
    a704:	02 20 85 00 	sub     r4,r5,r4
    a708:	d0 ff 9e 34 	sw      0xffd0(r30),r4
    a70c:	d0 ff be 30 	lw      r5,0xffd0(r30)
    a710:	00 00 80 18 	ori     r4,r0,0x0000
    a714:	02 20 05 00 	sub     r0,r5,r4
    a718:	04 00 80 42 	bge     0x0000a728
    a71c:	d0 ff 9e 30 	lw      r4,0xffd0(r30)
    a720:	02 20 80 00 	sub     r4,r0,r4
    a724:	d0 ff 9e 34 	sw      0xffd0(r30),r4
    a728:	d0 ff be 30 	lw      r5,0xffd0(r30)
    a72c:	3f 00 80 18 	ori     r4,r0,0x003f
    a730:	02 20 05 00 	sub     r0,r5,r4
    a734:	3f 00 00 43 	bgt     0x0000a830
    a738:	e8 ff be 30 	lw      r5,0xffe8(r30)
    a73c:	e4 ff 9e 30 	lw      r4,0xffe4(r30)
    a740:	02 20 05 00 	sub     r0,r5,r4
    a744:	1c 00 40 43 	ble     0x0000a7b4
    a748:	e4 ff 9e 30 	lw      r4,0xffe4(r30)
    a74c:	01 00 84 04 	addi    r4,r4,0x0001
    a750:	e4 ff 9e 34 	sw      0xffe4(r30),r4
    a754:	d4 ff 9e 30 	lw      r4,0xffd4(r30)
    a758:	d8 ff be 30 	lw      r5,0xffd8(r30)
    a75c:	01 00 84 14 	andi    r4,r4,0x0001
    a760:	ac ff 9e 34 	sw      0xffac(r30),r4
    a764:	00 00 a5 14 	andi    r5,r5,0x0000
    a768:	b0 ff be 34 	sw      0xffb0(r30),r5
    a76c:	d8 ff 9e 30 	lw      r4,0xffd8(r30)
    a770:	1f 00 c4 20 	lsli    r6,r4,0x001f
    a774:	d4 ff 9e 30 	lw      r4,0xffd4(r30)
    a778:	01 00 84 24 	lsri    r4,r4,0x0001
    a77c:	d8 ff be 30 	lw      r5,0xffd8(r30)
    a780:	05 20 c6 00 	orr     r6,r6,r4
    a784:	a4 ff de 34 	sw      0xffa4(r30),r6
    a788:	01 00 a5 24 	lsri    r5,r5,0x0001
    a78c:	a8 ff be 34 	sw      0xffa8(r30),r5
    a790:	ac ff be 30 	lw      r5,0xffac(r30)
    a794:	a4 ff de 30 	lw      r6,0xffa4(r30)
    a798:	05 30 85 00 	orr     r4,r5,r6
    a79c:	d4 ff 9e 34 	sw      0xffd4(r30),r4
    a7a0:	b0 ff fe 30 	lw      r7,0xffb0(r30)
    a7a4:	a8 ff be 30 	lw      r5,0xffa8(r30)
    a7a8:	05 28 87 00 	orr     r4,r7,r5
    a7ac:	d8 ff 9e 34 	sw      0xffd8(r30),r4
    a7b0:	ce 29 00 80 	ajmp    0x0000a738
    a7b4:	e4 ff be 30 	lw      r5,0xffe4(r30)
    a7b8:	e8 ff 9e 30 	lw      r4,0xffe8(r30)
    a7bc:	02 20 05 00 	sub     r0,r5,r4
    a7c0:	2d 00 40 43 	ble     0x0000a874
    a7c4:	e8 ff 9e 30 	lw      r4,0xffe8(r30)
    a7c8:	01 00 84 04 	addi    r4,r4,0x0001
    a7cc:	e8 ff 9e 34 	sw      0xffe8(r30),r4
    a7d0:	dc ff 9e 30 	lw      r4,0xffdc(r30)
    a7d4:	e0 ff be 30 	lw      r5,0xffe0(r30)
    a7d8:	01 00 84 14 	andi    r4,r4,0x0001
    a7dc:	9c ff 9e 34 	sw      0xff9c(r30),r4
    a7e0:	00 00 a5 14 	andi    r5,r5,0x0000
    a7e4:	a0 ff be 34 	sw      0xffa0(r30),r5
    a7e8:	e0 ff 9e 30 	lw      r4,0xffe0(r30)
    a7ec:	1f 00 c4 20 	lsli    r6,r4,0x001f
    a7f0:	dc ff 9e 30 	lw      r4,0xffdc(r30)
    a7f4:	01 00 84 24 	lsri    r4,r4,0x0001
    a7f8:	e0 ff be 30 	lw      r5,0xffe0(r30)
    a7fc:	05 20 c6 00 	orr     r6,r6,r4
    a800:	94 ff de 34 	sw      0xff94(r30),r6
    a804:	01 00 a5 24 	lsri    r5,r5,0x0001
    a808:	98 ff be 34 	sw      0xff98(r30),r5
    a80c:	9c ff de 30 	lw      r6,0xff9c(r30)
    a810:	94 ff fe 30 	lw      r7,0xff94(r30)
    a814:	05 38 86 00 	orr     r4,r6,r7
    a818:	dc ff 9e 34 	sw      0xffdc(r30),r4
    a81c:	a0 ff be 30 	lw      r5,0xffa0(r30)
    a820:	98 ff de 30 	lw      r6,0xff98(r30)
    a824:	05 30 85 00 	orr     r4,r5,r6
    a828:	e0 ff 9e 34 	sw      0xffe0(r30),r4
    a82c:	ed 29 00 80 	ajmp    0x0000a7b4
    a830:	e8 ff be 30 	lw      r5,0xffe8(r30)
    a834:	e4 ff 9e 30 	lw      r4,0xffe4(r30)
    a838:	02 20 05 00 	sub     r0,r5,r4
    a83c:	08 00 40 43 	ble     0x0000a85c
    a840:	e8 ff 9e 30 	lw      r4,0xffe8(r30)
    a844:	e4 ff 9e 34 	sw      0xffe4(r30),r4
    a848:	00 00 80 18 	ori     r4,r0,0x0000
    a84c:	d4 ff 9e 34 	sw      0xffd4(r30),r4
    a850:	00 00 80 18 	ori     r4,r0,0x0000
    a854:	d8 ff 9e 34 	sw      0xffd8(r30),r4
    a858:	1d 2a 00 80 	ajmp    0x0000a874
    a85c:	e4 ff 9e 30 	lw      r4,0xffe4(r30)
    a860:	e8 ff 9e 34 	sw      0xffe8(r30),r4
    a864:	00 00 80 18 	ori     r4,r0,0x0000
    a868:	dc ff 9e 34 	sw      0xffdc(r30),r4
    a86c:	00 00 80 18 	ori     r4,r0,0x0000
    a870:	e0 ff 9e 34 	sw      0xffe0(r30),r4
    a874:	fc ff 9e 30 	lw      r4,0xfffc(r30)
    a878:	f8 ff be 30 	lw      r5,0xfff8(r30)
    a87c:	04 00 c4 30 	lw      r6,0x0004(r4)
    a880:	04 00 85 30 	lw      r4,0x0004(r5)
    a884:	02 20 06 00 	sub     r0,r6,r4
    a888:	98 00 00 40 	beq     0x0000aae8
    a88c:	fc ff 9e 30 	lw      r4,0xfffc(r30)
    a890:	04 00 a4 30 	lw      r5,0x0004(r4)
    a894:	00 00 80 18 	ori     r4,r0,0x0000
    a898:	02 20 05 00 	sub     r0,r5,r4
    a89c:	22 00 00 40 	beq     0x0000a924
    a8a0:	d4 ff fe 30 	lw      r7,0xffd4(r30)
    a8a4:	8c ff fe 34 	sw      0xff8c(r30),r7
    a8a8:	d8 ff 9e 30 	lw      r4,0xffd8(r30)
    a8ac:	90 ff 9e 34 	sw      0xff90(r30),r4
    a8b0:	dc ff be 30 	lw      r5,0xffdc(r30)
    a8b4:	84 ff be 34 	sw      0xff84(r30),r5
    a8b8:	e0 ff de 30 	lw      r6,0xffe0(r30)
    a8bc:	88 ff de 34 	sw      0xff88(r30),r6
    a8c0:	8c ff fe 30 	lw      r7,0xff8c(r30)
    a8c4:	84 ff 9e 30 	lw      r4,0xff84(r30)
    a8c8:	02 20 e7 00 	sub     r7,r7,r4
    a8cc:	7c ff fe 34 	sw      0xff7c(r30),r7
    a8d0:	01 00 a0 18 	ori     r5,r0,0x0001
    a8d4:	78 ff be 34 	sw      0xff78(r30),r5
    a8d8:	7c ff de 30 	lw      r6,0xff7c(r30)
    a8dc:	8c ff fe 30 	lw      r7,0xff8c(r30)
    a8e0:	02 38 06 00 	sub     r0,r6,r7
    a8e4:	03 00 00 42 	bhi     0x0000a8f0
    a8e8:	00 00 80 18 	ori     r4,r0,0x0000
    a8ec:	78 ff 9e 34 	sw      0xff78(r30),r4
    a8f0:	90 ff be 30 	lw      r5,0xff90(r30)
    a8f4:	88 ff de 30 	lw      r6,0xff88(r30)
    a8f8:	02 30 a5 00 	sub     r5,r5,r6
    a8fc:	80 ff be 34 	sw      0xff80(r30),r5
    a900:	80 ff fe 30 	lw      r7,0xff80(r30)
    a904:	78 ff be 30 	lw      r5,0xff78(r30)
    a908:	02 28 87 00 	sub     r4,r7,r5
    a90c:	80 ff 9e 34 	sw      0xff80(r30),r4
    a910:	7c ff de 30 	lw      r6,0xff7c(r30)
    a914:	ec ff de 34 	sw      0xffec(r30),r6
    a918:	80 ff fe 30 	lw      r7,0xff80(r30)
    a91c:	f0 ff fe 34 	sw      0xfff0(r30),r7
    a920:	69 2a 00 80 	ajmp    0x0000a9a4
    a924:	dc ff 9e 30 	lw      r4,0xffdc(r30)
    a928:	70 ff 9e 34 	sw      0xff70(r30),r4
    a92c:	e0 ff be 30 	lw      r5,0xffe0(r30)
    a930:	74 ff be 34 	sw      0xff74(r30),r5
    a934:	d4 ff de 30 	lw      r6,0xffd4(r30)
    a938:	68 ff de 34 	sw      0xff68(r30),r6
    a93c:	d8 ff fe 30 	lw      r7,0xffd8(r30)
    a940:	6c ff fe 34 	sw      0xff6c(r30),r7
    a944:	70 ff 9e 30 	lw      r4,0xff70(r30)
    a948:	68 ff be 30 	lw      r5,0xff68(r30)
    a94c:	02 28 84 00 	sub     r4,r4,r5
    a950:	60 ff 9e 34 	sw      0xff60(r30),r4
    a954:	01 00 c0 18 	ori     r6,r0,0x0001
    a958:	5c ff de 34 	sw      0xff5c(r30),r6
    a95c:	60 ff fe 30 	lw      r7,0xff60(r30)
    a960:	70 ff 9e 30 	lw      r4,0xff70(r30)
    a964:	02 20 07 00 	sub     r0,r7,r4
    a968:	03 00 00 42 	bhi     0x0000a974
    a96c:	00 00 a0 18 	ori     r5,r0,0x0000
    a970:	5c ff be 34 	sw      0xff5c(r30),r5
    a974:	74 ff de 30 	lw      r6,0xff74(r30)
    a978:	6c ff fe 30 	lw      r7,0xff6c(r30)
    a97c:	02 38 c6 00 	sub     r6,r6,r7
    a980:	64 ff de 34 	sw      0xff64(r30),r6
    a984:	64 ff be 30 	lw      r5,0xff64(r30)
    a988:	5c ff de 30 	lw      r6,0xff5c(r30)
    a98c:	02 30 85 00 	sub     r4,r5,r6
    a990:	64 ff 9e 34 	sw      0xff64(r30),r4
    a994:	60 ff fe 30 	lw      r7,0xff60(r30)
    a998:	ec ff fe 34 	sw      0xffec(r30),r7
    a99c:	64 ff 9e 30 	lw      r4,0xff64(r30)
    a9a0:	f0 ff 9e 34 	sw      0xfff0(r30),r4
    a9a4:	f0 ff be 30 	lw      r5,0xfff0(r30)
    a9a8:	00 00 80 18 	ori     r4,r0,0x0000
    a9ac:	02 20 05 00 	sub     r0,r5,r4
    a9b0:	0d 00 c0 42 	blt     0x0000a9e4
    a9b4:	f4 ff be 30 	lw      r5,0xfff4(r30)
    a9b8:	00 00 80 18 	ori     r4,r0,0x0000
    a9bc:	04 00 85 34 	sw      0x0004(r5),r4
    a9c0:	f4 ff be 30 	lw      r5,0xfff4(r30)
    a9c4:	e8 ff 9e 30 	lw      r4,0xffe8(r30)
    a9c8:	08 00 85 34 	sw      0x0008(r5),r4
    a9cc:	f4 ff be 30 	lw      r5,0xfff4(r30)
    a9d0:	ec ff 9e 30 	lw      r4,0xffec(r30)
    a9d4:	0c 00 85 34 	sw      0x000c(r5),r4
    a9d8:	f0 ff 9e 30 	lw      r4,0xfff0(r30)
    a9dc:	10 00 85 34 	sw      0x0010(r5),r4
    a9e0:	8c 2a 00 80 	ajmp    0x0000aa30
    a9e4:	f4 ff be 30 	lw      r5,0xfff4(r30)
    a9e8:	01 00 80 18 	ori     r4,r0,0x0001
    a9ec:	04 00 85 34 	sw      0x0004(r5),r4
    a9f0:	f4 ff be 30 	lw      r5,0xfff4(r30)
    a9f4:	e8 ff 9e 30 	lw      r4,0xffe8(r30)
    a9f8:	08 00 85 34 	sw      0x0008(r5),r4
    a9fc:	f4 ff 1e 31 	lw      r8,0xfff4(r30)
    aa00:	c8 ff 9e 04 	addi    r4,r30,0xffc8
    aa04:	ec ff be 30 	lw      r5,0xffec(r30)
    aa08:	f0 ff de 30 	lw      r6,0xfff0(r30)
    aa0c:	e4 33 00 c0 	ajal    0x0000cf90
    aa10:	c8 ff be 30 	lw      r5,0xffc8(r30)
    aa14:	54 ff be 34 	sw      0xff54(r30),r5
    aa18:	cc ff de 30 	lw      r6,0xffcc(r30)
    aa1c:	58 ff de 34 	sw      0xff58(r30),r6
    aa20:	54 ff fe 30 	lw      r7,0xff54(r30)
    aa24:	0c 00 e8 34 	sw      0x000c(r8),r7
    aa28:	58 ff 9e 30 	lw      r4,0xff58(r30)
    aa2c:	10 00 88 34 	sw      0x0010(r8),r4
    aa30:	f4 ff 9e 30 	lw      r4,0xfff4(r30)
    aa34:	0c 00 a4 30 	lw      r5,0x000c(r4)
    aa38:	4c ff be 34 	sw      0xff4c(r30),r5
    aa3c:	10 00 84 30 	lw      r4,0x0010(r4)
    aa40:	50 ff 9e 34 	sw      0xff50(r30),r4
    aa44:	ff 0f 80 2c 	ldih    r4,0x0fff
    aa48:	ff ff 84 18 	ori     r4,r4,0xffff
    aa4c:	50 ff de 30 	lw      r6,0xff50(r30)
    aa50:	02 20 06 00 	sub     r0,r6,r4
    aa54:	50 00 00 42 	bhi     0x0000ab94
    aa58:	f4 ff 9e 30 	lw      r4,0xfff4(r30)
    aa5c:	0c 00 e4 30 	lw      r7,0x000c(r4)
    aa60:	44 ff fe 34 	sw      0xff44(r30),r7
    aa64:	10 00 84 30 	lw      r4,0x0010(r4)
    aa68:	48 ff 9e 34 	sw      0xff48(r30),r4
    aa6c:	44 ff 9e 30 	lw      r4,0xff44(r30)
    aa70:	48 ff be 30 	lw      r5,0xff48(r30)
    aa74:	05 28 84 00 	orr     r4,r4,r5
    aa78:	00 00 a0 18 	ori     r5,r0,0x0000
    aa7c:	02 28 04 00 	sub     r0,r4,r5
    aa80:	45 00 00 40 	beq     0x0000ab94
    aa84:	f4 ff de 30 	lw      r6,0xfff4(r30)
    aa88:	f4 ff 9e 30 	lw      r4,0xfff4(r30)
    aa8c:	0c 00 e4 30 	lw      r7,0x000c(r4)
    aa90:	3c ff fe 34 	sw      0xff3c(r30),r7
    aa94:	10 00 84 30 	lw      r4,0x0010(r4)
    aa98:	40 ff 9e 34 	sw      0xff40(r30),r4
    aa9c:	3c ff 9e 30 	lw      r4,0xff3c(r30)
    aaa0:	1f 00 a4 24 	lsri    r5,r4,0x001f
    aaa4:	40 ff fe 30 	lw      r7,0xff40(r30)
    aaa8:	01 00 87 20 	lsli    r4,r7,0x0001
    aaac:	05 20 a5 00 	orr     r5,r5,r4
    aab0:	38 ff be 34 	sw      0xff38(r30),r5
    aab4:	3c ff 9e 30 	lw      r4,0xff3c(r30)
    aab8:	01 00 84 20 	lsli    r4,r4,0x0001
    aabc:	34 ff 9e 34 	sw      0xff34(r30),r4
    aac0:	34 ff be 30 	lw      r5,0xff34(r30)
    aac4:	0c 00 a6 34 	sw      0x000c(r6),r5
    aac8:	38 ff fe 30 	lw      r7,0xff38(r30)
    aacc:	10 00 e6 34 	sw      0x0010(r6),r7
    aad0:	f4 ff be 30 	lw      r5,0xfff4(r30)
    aad4:	f4 ff 9e 30 	lw      r4,0xfff4(r30)
    aad8:	08 00 84 30 	lw      r4,0x0008(r4)
    aadc:	ff ff 84 04 	addi    r4,r4,0xffff
    aae0:	08 00 85 34 	sw      0x0008(r5),r4
    aae4:	8c 2a 00 80 	ajmp    0x0000aa30
    aae8:	f4 ff be 30 	lw      r5,0xfff4(r30)
    aaec:	fc ff 9e 30 	lw      r4,0xfffc(r30)
    aaf0:	04 00 84 30 	lw      r4,0x0004(r4)
    aaf4:	04 00 85 34 	sw      0x0004(r5),r4
    aaf8:	f4 ff be 30 	lw      r5,0xfff4(r30)
    aafc:	e8 ff 9e 30 	lw      r4,0xffe8(r30)
    ab00:	08 00 85 34 	sw      0x0008(r5),r4
    ab04:	f4 ff 9e 30 	lw      r4,0xfff4(r30)
    ab08:	30 ff 9e 34 	sw      0xff30(r30),r4
    ab0c:	dc ff be 30 	lw      r5,0xffdc(r30)
    ab10:	28 ff be 34 	sw      0xff28(r30),r5
    ab14:	e0 ff de 30 	lw      r6,0xffe0(r30)
    ab18:	2c ff de 34 	sw      0xff2c(r30),r6
    ab1c:	d4 ff fe 30 	lw      r7,0xffd4(r30)
    ab20:	20 ff fe 34 	sw      0xff20(r30),r7
    ab24:	d8 ff 9e 30 	lw      r4,0xffd8(r30)
    ab28:	24 ff 9e 34 	sw      0xff24(r30),r4
    ab2c:	28 ff be 30 	lw      r5,0xff28(r30)
    ab30:	20 ff de 30 	lw      r6,0xff20(r30)
    ab34:	00 30 a5 00 	add     r5,r5,r6
    ab38:	18 ff be 34 	sw      0xff18(r30),r5
    ab3c:	01 00 e0 18 	ori     r7,r0,0x0001
    ab40:	14 ff fe 34 	sw      0xff14(r30),r7
    ab44:	18 ff 9e 30 	lw      r4,0xff18(r30)
    ab48:	28 ff be 30 	lw      r5,0xff28(r30)
    ab4c:	02 28 04 00 	sub     r0,r4,r5
    ab50:	03 00 40 41 	blo     0x0000ab5c
    ab54:	00 00 c0 18 	ori     r6,r0,0x0000
    ab58:	14 ff de 34 	sw      0xff14(r30),r6
    ab5c:	2c ff fe 30 	lw      r7,0xff2c(r30)
    ab60:	24 ff 9e 30 	lw      r4,0xff24(r30)
    ab64:	00 20 e7 00 	add     r7,r7,r4
    ab68:	1c ff fe 34 	sw      0xff1c(r30),r7
    ab6c:	14 ff be 30 	lw      r5,0xff14(r30)
    ab70:	1c ff de 30 	lw      r6,0xff1c(r30)
    ab74:	00 30 85 00 	add     r4,r5,r6
    ab78:	1c ff 9e 34 	sw      0xff1c(r30),r4
    ab7c:	18 ff 9e 30 	lw      r4,0xff18(r30)
    ab80:	30 ff fe 30 	lw      r7,0xff30(r30)
    ab84:	0c 00 87 34 	sw      0x000c(r7),r4
    ab88:	1c ff de 30 	lw      r6,0xff1c(r30)
    ab8c:	30 ff be 30 	lw      r5,0xff30(r30)
    ab90:	10 00 c5 34 	sw      0x0010(r5),r6
    ab94:	f4 ff be 30 	lw      r5,0xfff4(r30)
    ab98:	03 00 80 18 	ori     r4,r0,0x0003
    ab9c:	00 00 85 34 	sw      0x0000(r5),r4
    aba0:	f4 ff 9e 30 	lw      r4,0xfff4(r30)
    aba4:	0c 00 e4 30 	lw      r7,0x000c(r4)
    aba8:	0c ff fe 34 	sw      0xff0c(r30),r7
    abac:	10 00 84 30 	lw      r4,0x0010(r4)
    abb0:	10 ff 9e 34 	sw      0xff10(r30),r4
    abb4:	ff 1f 80 2c 	ldih    r4,0x1fff
    abb8:	ff ff 84 18 	ori     r4,r4,0xffff
    abbc:	10 ff be 30 	lw      r5,0xff10(r30)
    abc0:	02 20 05 00 	sub     r0,r5,r4
    abc4:	07 00 00 42 	bhi     0x0000abe0
    abc8:	ff 1f 80 2c 	ldih    r4,0x1fff
    abcc:	ff ff 84 18 	ori     r4,r4,0xffff
    abd0:	10 ff de 30 	lw      r6,0xff10(r30)
    abd4:	02 20 06 00 	sub     r0,r6,r4
    abd8:	2d 00 40 40 	bne     0x0000ac8c
    abdc:	23 2b 00 80 	ajmp    0x0000ac8c
    abe0:	f4 ff de 30 	lw      r6,0xfff4(r30)
    abe4:	f4 ff 9e 30 	lw      r4,0xfff4(r30)
    abe8:	0c 00 e4 30 	lw      r7,0x000c(r4)
    abec:	04 ff fe 34 	sw      0xff04(r30),r7
    abf0:	10 00 84 30 	lw      r4,0x0010(r4)
    abf4:	08 ff 9e 34 	sw      0xff08(r30),r4
    abf8:	04 ff 9e 30 	lw      r4,0xff04(r30)
    abfc:	01 00 84 14 	andi    r4,r4,0x0001
    ac00:	fc fe 9e 34 	sw      0xfefc(r30),r4
    ac04:	08 ff be 30 	lw      r5,0xff08(r30)
    ac08:	00 00 a5 14 	andi    r5,r5,0x0000
    ac0c:	00 ff be 34 	sw      0xff00(r30),r5
    ac10:	f4 ff 9e 30 	lw      r4,0xfff4(r30)
    ac14:	0c 00 e4 30 	lw      r7,0x000c(r4)
    ac18:	f4 fe fe 34 	sw      0xfef4(r30),r7
    ac1c:	10 00 84 30 	lw      r4,0x0010(r4)
    ac20:	f8 fe 9e 34 	sw      0xfef8(r30),r4
    ac24:	f8 fe 9e 30 	lw      r4,0xfef8(r30)
    ac28:	1f 00 a4 20 	lsli    r5,r4,0x001f
    ac2c:	f4 fe fe 30 	lw      r7,0xfef4(r30)
    ac30:	01 00 87 24 	lsri    r4,r7,0x0001
    ac34:	05 20 a5 00 	orr     r5,r5,r4
    ac38:	ec fe be 34 	sw      0xfeec(r30),r5
    ac3c:	f8 fe 9e 30 	lw      r4,0xfef8(r30)
    ac40:	01 00 84 24 	lsri    r4,r4,0x0001
    ac44:	f0 fe 9e 34 	sw      0xfef0(r30),r4
    ac48:	fc fe be 30 	lw      r5,0xfefc(r30)
    ac4c:	ec fe fe 30 	lw      r7,0xfeec(r30)
    ac50:	05 38 a5 00 	orr     r5,r5,r7
    ac54:	e4 fe be 34 	sw      0xfee4(r30),r5
    ac58:	00 ff 9e 30 	lw      r4,0xff00(r30)
    ac5c:	f0 fe be 30 	lw      r5,0xfef0(r30)
    ac60:	05 28 84 00 	orr     r4,r4,r5
    ac64:	e8 fe 9e 34 	sw      0xfee8(r30),r4
    ac68:	e4 fe fe 30 	lw      r7,0xfee4(r30)
    ac6c:	0c 00 e6 34 	sw      0x000c(r6),r7
    ac70:	e8 fe 9e 30 	lw      r4,0xfee8(r30)
    ac74:	10 00 86 34 	sw      0x0010(r6),r4
    ac78:	f4 ff be 30 	lw      r5,0xfff4(r30)
    ac7c:	f4 ff 9e 30 	lw      r4,0xfff4(r30)
    ac80:	08 00 84 30 	lw      r4,0x0008(r4)
    ac84:	01 00 84 04 	addi    r4,r4,0x0001
    ac88:	08 00 85 34 	sw      0x0008(r5),r4
    ac8c:	f4 ff 9e 30 	lw      r4,0xfff4(r30)
    ac90:	c4 ff 9e 34 	sw      0xffc4(r30),r4
    ac94:	c4 ff 5e 30 	lw      r2,0xffc4(r30)
    ac98:	1c 01 bd 07 	addi    r29,r29,0x011c
    ac9c:	05 f0 a0 03 	orr     r29,r0,r30
    aca0:	0c 00 bd 07 	addi    r29,r29,0x000c
    aca4:	fc ff 1d 31 	lw      r8,0xfffc(r29)
    aca8:	f8 ff fd 33 	lw      r31,0xfff8(r29)
    acac:	f4 ff dd 33 	lw      r30,0xfff4(r29)
    acb0:	00 00 e0 47 	jmpr    r31
    acb4:	00 00 00 00 	nop
    acb8:	00 00 00 00 	nop
    acbc:	00 00 00 00 	nop

0000acc0 <iszero>:
    acc0:	fc ff dd 37 	sw      0xfffc(r29),r30
    acc4:	fc ff bd 07 	addi    r29,r29,0xfffc
    acc8:	05 e8 c0 03 	orr     r30,r0,r29
    accc:	f8 ff bd 07 	addi    r29,r29,0xfff8
    acd0:	fc ff 9e 34 	sw      0xfffc(r30),r4
    acd4:	00 00 80 18 	ori     r4,r0,0x0000
    acd8:	f8 ff 9e 34 	sw      0xfff8(r30),r4
    acdc:	fc ff 9e 30 	lw      r4,0xfffc(r30)
    ace0:	00 00 a4 30 	lw      r5,0x0000(r4)
    ace4:	02 00 80 18 	ori     r4,r0,0x0002
    ace8:	02 20 05 00 	sub     r0,r5,r4
    acec:	03 00 40 40 	bne     0x0000acf8
    acf0:	01 00 80 18 	ori     r4,r0,0x0001
    acf4:	f8 ff 9e 34 	sw      0xfff8(r30),r4
    acf8:	f8 ff 9e 30 	lw      r4,0xfff8(r30)
    acfc:	05 20 40 00 	orr     r2,r0,r4
    ad00:	08 00 bd 07 	addi    r29,r29,0x0008
    ad04:	05 f0 a0 03 	orr     r29,r0,r30
    ad08:	04 00 bd 07 	addi    r29,r29,0x0004
    ad0c:	fc ff dd 33 	lw      r30,0xfffc(r29)
    ad10:	00 00 e0 47 	jmpr    r31
    ad14:	00 00 00 00 	nop
    ad18:	00 00 00 00 	nop
    ad1c:	00 00 00 00 	nop

0000ad20 <nan>:
    ad20:	fc ff dd 37 	sw      0xfffc(r29),r30
    ad24:	fc ff bd 07 	addi    r29,r29,0xfffc
    ad28:	05 e8 c0 03 	orr     r30,r0,r29
    ad2c:	01 00 80 2c 	ldih    r4,0x0001
    ad30:	60 73 84 18 	ori     r4,r4,0x7360
    ad34:	05 20 40 00 	orr     r2,r0,r4
    ad38:	05 f0 a0 03 	orr     r29,r0,r30
    ad3c:	04 00 bd 07 	addi    r29,r29,0x0004
    ad40:	fc ff dd 33 	lw      r30,0xfffc(r29)
    ad44:	00 00 e0 47 	jmpr    r31
    ad48:	00 00 00 00 	nop
    ad4c:	00 00 00 00 	nop

0000ad50 <isinf>:
    ad50:	fc ff dd 37 	sw      0xfffc(r29),r30
    ad54:	fc ff bd 07 	addi    r29,r29,0xfffc
    ad58:	05 e8 c0 03 	orr     r30,r0,r29
    ad5c:	f8 ff bd 07 	addi    r29,r29,0xfff8
    ad60:	fc ff 9e 34 	sw      0xfffc(r30),r4
    ad64:	00 00 80 18 	ori     r4,r0,0x0000
    ad68:	f8 ff 9e 34 	sw      0xfff8(r30),r4
    ad6c:	fc ff 9e 30 	lw      r4,0xfffc(r30)
    ad70:	00 00 a4 30 	lw      r5,0x0000(r4)
    ad74:	04 00 80 18 	ori     r4,r0,0x0004
    ad78:	02 20 05 00 	sub     r0,r5,r4
    ad7c:	03 00 40 40 	bne     0x0000ad88
    ad80:	01 00 80 18 	ori     r4,r0,0x0001
    ad84:	f8 ff 9e 34 	sw      0xfff8(r30),r4
    ad88:	f8 ff 9e 30 	lw      r4,0xfff8(r30)
    ad8c:	05 20 40 00 	orr     r2,r0,r4
    ad90:	08 00 bd 07 	addi    r29,r29,0x0008
    ad94:	05 f0 a0 03 	orr     r29,r0,r30
    ad98:	04 00 bd 07 	addi    r29,r29,0x0004
    ad9c:	fc ff dd 33 	lw      r30,0xfffc(r29)
    ada0:	00 00 e0 47 	jmpr    r31
    ada4:	00 00 00 00 	nop
    ada8:	00 00 00 00 	nop
    adac:	00 00 00 00 	nop

0000adb0 <isnan>:
    adb0:	fc ff dd 37 	sw      0xfffc(r29),r30
    adb4:	fc ff bd 07 	addi    r29,r29,0xfffc
    adb8:	05 e8 c0 03 	orr     r30,r0,r29
    adbc:	f8 ff bd 07 	addi    r29,r29,0xfff8
    adc0:	fc ff 9e 34 	sw      0xfffc(r30),r4
    adc4:	00 00 80 18 	ori     r4,r0,0x0000
    adc8:	f8 ff 9e 34 	sw      0xfff8(r30),r4
    adcc:	fc ff 9e 30 	lw      r4,0xfffc(r30)
    add0:	00 00 a4 30 	lw      r5,0x0000(r4)
    add4:	00 00 80 18 	ori     r4,r0,0x0000
    add8:	02 20 05 00 	sub     r0,r5,r4
    addc:	07 00 00 40 	beq     0x0000adf8
    ade0:	fc ff 9e 30 	lw      r4,0xfffc(r30)
    ade4:	00 00 a4 30 	lw      r5,0x0000(r4)
    ade8:	01 00 80 18 	ori     r4,r0,0x0001
    adec:	02 20 05 00 	sub     r0,r5,r4
    adf0:	02 00 00 40 	beq     0x0000adf8
    adf4:	80 2b 00 80 	ajmp    0x0000ae00
    adf8:	01 00 80 18 	ori     r4,r0,0x0001
    adfc:	f8 ff 9e 34 	sw      0xfff8(r30),r4
    ae00:	f8 ff 9e 30 	lw      r4,0xfff8(r30)
    ae04:	05 20 40 00 	orr     r2,r0,r4
    ae08:	08 00 bd 07 	addi    r29,r29,0x0008
    ae0c:	05 f0 a0 03 	orr     r29,r0,r30
    ae10:	04 00 bd 07 	addi    r29,r29,0x0004
    ae14:	fc ff dd 33 	lw      r30,0xfffc(r29)
    ae18:	00 00 e0 47 	jmpr    r31
    ae1c:	00 00 00 00 	nop

0000ae20 <__adddf3>:
    ae20:	fc ff 1d 35 	sw      0xfffc(r29),r8
    ae24:	f8 ff fd 37 	sw      0xfff8(r29),r31
    ae28:	f4 ff dd 37 	sw      0xfff4(r29),r30
    ae2c:	f4 ff bd 07 	addi    r29,r29,0xfff4
    ae30:	05 e8 c0 03 	orr     r30,r0,r29
    ae34:	a8 ff bd 07 	addi    r29,r29,0xffa8
    ae38:	05 20 00 01 	orr     r8,r0,r4
    ae3c:	f8 ff be 34 	sw      0xfff8(r30),r5
    ae40:	fc ff de 34 	sw      0xfffc(r30),r6
    ae44:	f8 ff 9e 30 	lw      r4,0xfff8(r30)
    ae48:	b0 ff 9e 34 	sw      0xffb0(r30),r4
    ae4c:	fc ff 9e 30 	lw      r4,0xfffc(r30)
    ae50:	b4 ff 9e 34 	sw      0xffb4(r30),r4
    ae54:	0c 00 9e 30 	lw      r4,0x000c(r30)
    ae58:	a8 ff 9e 34 	sw      0xffa8(r30),r4
    ae5c:	10 00 9e 30 	lw      r4,0x0010(r30)
    ae60:	ac ff 9e 34 	sw      0xffac(r30),r4
    ae64:	b0 ff 9e 04 	addi    r4,r30,0xffb0
    ae68:	e4 ff be 04 	addi    r5,r30,0xffe4
    ae6c:	c4 31 00 c0 	ajal    0x0000c710
    ae70:	a8 ff 9e 04 	addi    r4,r30,0xffa8
    ae74:	d0 ff be 04 	addi    r5,r30,0xffd0
    ae78:	c4 31 00 c0 	ajal    0x0000c710
    ae7c:	e4 ff 9e 04 	addi    r4,r30,0xffe4
    ae80:	d0 ff be 04 	addi    r5,r30,0xffd0
    ae84:	bc ff de 04 	addi    r6,r30,0xffbc
    ae88:	44 29 00 c0 	ajal    0x0000a510
    ae8c:	05 10 80 00 	orr     r4,r0,r2
    ae90:	b8 ff 9e 34 	sw      0xffb8(r30),r4
    ae94:	05 40 80 00 	orr     r4,r0,r8
    ae98:	b8 ff be 30 	lw      r5,0xffb8(r30)
    ae9c:	14 34 00 c0 	ajal    0x0000d050
    aea0:	05 40 40 00 	orr     r2,r0,r8
    aea4:	58 00 bd 07 	addi    r29,r29,0x0058
    aea8:	05 f0 a0 03 	orr     r29,r0,r30
    aeac:	0c 00 bd 07 	addi    r29,r29,0x000c
    aeb0:	fc ff 1d 31 	lw      r8,0xfffc(r29)
    aeb4:	f8 ff fd 33 	lw      r31,0xfff8(r29)
    aeb8:	f4 ff dd 33 	lw      r30,0xfff4(r29)
    aebc:	00 00 e0 47 	jmpr    r31

0000aec0 <__subdf3>:
    aec0:	fc ff 1d 35 	sw      0xfffc(r29),r8
    aec4:	f8 ff fd 37 	sw      0xfff8(r29),r31
    aec8:	f4 ff dd 37 	sw      0xfff4(r29),r30
    aecc:	f4 ff bd 07 	addi    r29,r29,0xfff4
    aed0:	05 e8 c0 03 	orr     r30,r0,r29
    aed4:	a8 ff bd 07 	addi    r29,r29,0xffa8
    aed8:	05 20 00 01 	orr     r8,r0,r4
    aedc:	f8 ff be 34 	sw      0xfff8(r30),r5
    aee0:	fc ff de 34 	sw      0xfffc(r30),r6
    aee4:	f8 ff 9e 30 	lw      r4,0xfff8(r30)
    aee8:	b0 ff 9e 34 	sw      0xffb0(r30),r4
    aeec:	fc ff 9e 30 	lw      r4,0xfffc(r30)
    aef0:	b4 ff 9e 34 	sw      0xffb4(r30),r4
    aef4:	0c 00 9e 30 	lw      r4,0x000c(r30)
    aef8:	a8 ff 9e 34 	sw      0xffa8(r30),r4
    aefc:	10 00 9e 30 	lw      r4,0x0010(r30)
    af00:	ac ff 9e 34 	sw      0xffac(r30),r4
    af04:	b0 ff 9e 04 	addi    r4,r30,0xffb0
    af08:	e4 ff be 04 	addi    r5,r30,0xffe4
    af0c:	c4 31 00 c0 	ajal    0x0000c710
    af10:	a8 ff 9e 04 	addi    r4,r30,0xffa8
    af14:	d0 ff be 04 	addi    r5,r30,0xffd0
    af18:	c4 31 00 c0 	ajal    0x0000c710
    af1c:	d4 ff 9e 30 	lw      r4,0xffd4(r30)
    af20:	01 00 84 1c 	xori    r4,r4,0x0001
    af24:	d4 ff 9e 34 	sw      0xffd4(r30),r4
    af28:	e4 ff 9e 04 	addi    r4,r30,0xffe4
    af2c:	d0 ff be 04 	addi    r5,r30,0xffd0
    af30:	bc ff de 04 	addi    r6,r30,0xffbc
    af34:	44 29 00 c0 	ajal    0x0000a510
    af38:	05 10 80 00 	orr     r4,r0,r2
    af3c:	b8 ff 9e 34 	sw      0xffb8(r30),r4
    af40:	05 40 80 00 	orr     r4,r0,r8
    af44:	b8 ff be 30 	lw      r5,0xffb8(r30)
    af48:	14 34 00 c0 	ajal    0x0000d050
    af4c:	05 40 40 00 	orr     r2,r0,r8
    af50:	58 00 bd 07 	addi    r29,r29,0x0058
    af54:	05 f0 a0 03 	orr     r29,r0,r30
    af58:	0c 00 bd 07 	addi    r29,r29,0x000c
    af5c:	fc ff 1d 31 	lw      r8,0xfffc(r29)
    af60:	f8 ff fd 33 	lw      r31,0xfff8(r29)
    af64:	f4 ff dd 33 	lw      r30,0xfff4(r29)
    af68:	00 00 e0 47 	jmpr    r31
    af6c:	00 00 00 00 	nop

0000af70 <__fixdfsi>:
    af70:	fc ff fd 37 	sw      0xfffc(r29),r31
    af74:	f8 ff dd 37 	sw      0xfff8(r29),r30
    af78:	f8 ff bd 07 	addi    r29,r29,0xfff8
    af7c:	05 e8 c0 03 	orr     r30,r0,r29
    af80:	b0 ff bd 07 	addi    r29,r29,0xffb0
    af84:	f8 ff 9e 34 	sw      0xfff8(r30),r4
    af88:	fc ff be 34 	sw      0xfffc(r30),r5
    af8c:	f8 ff 9e 30 	lw      r4,0xfff8(r30)
    af90:	d8 ff 9e 34 	sw      0xffd8(r30),r4
    af94:	fc ff 9e 30 	lw      r4,0xfffc(r30)
    af98:	dc ff 9e 34 	sw      0xffdc(r30),r4
    af9c:	d8 ff 9e 04 	addi    r4,r30,0xffd8
    afa0:	e4 ff be 04 	addi    r5,r30,0xffe4
    afa4:	c4 31 00 c0 	ajal    0x0000c710
    afa8:	e4 ff 9e 04 	addi    r4,r30,0xffe4
    afac:	80 2c 00 c0 	ajal    0x0000b200
    afb0:	05 10 a0 00 	orr     r5,r0,r2
    afb4:	00 00 80 18 	ori     r4,r0,0x0000
    afb8:	02 20 05 00 	sub     r0,r5,r4
    afbc:	04 00 00 40 	beq     0x0000afcc
    afc0:	00 00 80 18 	ori     r4,r0,0x0000
    afc4:	cc ff 9e 34 	sw      0xffcc(r30),r4
    afc8:	45 2c 00 80 	ajmp    0x0000b114
    afcc:	e4 ff 9e 04 	addi    r4,r30,0xffe4
    afd0:	64 2c 00 c0 	ajal    0x0000b190
    afd4:	05 10 a0 00 	orr     r5,r0,r2
    afd8:	00 00 80 18 	ori     r4,r0,0x0000
    afdc:	02 20 05 00 	sub     r0,r5,r4
    afe0:	04 00 00 40 	beq     0x0000aff0
    afe4:	00 00 80 18 	ori     r4,r0,0x0000
    afe8:	cc ff 9e 34 	sw      0xffcc(r30),r4
    afec:	45 2c 00 80 	ajmp    0x0000b114
    aff0:	e4 ff 9e 04 	addi    r4,r30,0xffe4
    aff4:	4c 2c 00 c0 	ajal    0x0000b130
    aff8:	05 10 a0 00 	orr     r5,r0,r2
    affc:	00 00 80 18 	ori     r4,r0,0x0000
    b000:	02 20 05 00 	sub     r0,r5,r4
    b004:	0f 00 00 40 	beq     0x0000b040
    b008:	e8 ff be 30 	lw      r5,0xffe8(r30)
    b00c:	00 00 80 18 	ori     r4,r0,0x0000
    b010:	02 20 05 00 	sub     r0,r5,r4
    b014:	05 00 00 40 	beq     0x0000b028
    b018:	00 80 80 2c 	ldih    r4,0x8000
    b01c:	00 00 84 18 	ori     r4,r4,0x0000
    b020:	c8 ff 9e 34 	sw      0xffc8(r30),r4
    b024:	0d 2c 00 80 	ajmp    0x0000b034
    b028:	ff 7f 80 2c 	ldih    r4,0x7fff
    b02c:	ff ff 84 18 	ori     r4,r4,0xffff
    b030:	c8 ff 9e 34 	sw      0xffc8(r30),r4
    b034:	c8 ff 9e 30 	lw      r4,0xffc8(r30)
    b038:	cc ff 9e 34 	sw      0xffcc(r30),r4
    b03c:	45 2c 00 80 	ajmp    0x0000b114
    b040:	ec ff be 30 	lw      r5,0xffec(r30)
    b044:	00 00 80 18 	ori     r4,r0,0x0000
    b048:	02 20 05 00 	sub     r0,r5,r4
    b04c:	04 00 80 42 	bge     0x0000b05c
    b050:	00 00 80 18 	ori     r4,r0,0x0000
    b054:	cc ff 9e 34 	sw      0xffcc(r30),r4
    b058:	45 2c 00 80 	ajmp    0x0000b114
    b05c:	ec ff be 30 	lw      r5,0xffec(r30)
    b060:	1e 00 80 18 	ori     r4,r0,0x001e
    b064:	02 20 05 00 	sub     r0,r5,r4
    b068:	0f 00 40 43 	ble     0x0000b0a4
    b06c:	e8 ff be 30 	lw      r5,0xffe8(r30)
    b070:	00 00 80 18 	ori     r4,r0,0x0000
    b074:	02 20 05 00 	sub     r0,r5,r4
    b078:	05 00 00 40 	beq     0x0000b08c
    b07c:	00 80 80 2c 	ldih    r4,0x8000
    b080:	00 00 84 18 	ori     r4,r4,0x0000
    b084:	c4 ff 9e 34 	sw      0xffc4(r30),r4
    b088:	26 2c 00 80 	ajmp    0x0000b098
    b08c:	ff 7f 80 2c 	ldih    r4,0x7fff
    b090:	ff ff 84 18 	ori     r4,r4,0xffff
    b094:	c4 ff 9e 34 	sw      0xffc4(r30),r4
    b098:	c4 ff 9e 30 	lw      r4,0xffc4(r30)
    b09c:	cc ff 9e 34 	sw      0xffcc(r30),r4
    b0a0:	45 2c 00 80 	ajmp    0x0000b114
    b0a4:	f0 ff 9e 30 	lw      r4,0xfff0(r30)
    b0a8:	bc ff 9e 34 	sw      0xffbc(r30),r4
    b0ac:	f4 ff 9e 30 	lw      r4,0xfff4(r30)
    b0b0:	c0 ff 9e 34 	sw      0xffc0(r30),r4
    b0b4:	3c 00 a0 18 	ori     r5,r0,0x003c
    b0b8:	ec ff 9e 30 	lw      r4,0xffec(r30)
    b0bc:	02 20 e5 00 	sub     r7,r5,r4
    b0c0:	d0 ff 9e 04 	addi    r4,r30,0xffd0
    b0c4:	bc ff be 30 	lw      r5,0xffbc(r30)
    b0c8:	c0 ff de 30 	lw      r6,0xffc0(r30)
    b0cc:	70 36 00 c0 	ajal    0x0000d9c0
    b0d0:	d0 ff 9e 30 	lw      r4,0xffd0(r30)
    b0d4:	b4 ff 9e 34 	sw      0xffb4(r30),r4
    b0d8:	d4 ff 9e 30 	lw      r4,0xffd4(r30)
    b0dc:	b8 ff 9e 34 	sw      0xffb8(r30),r4
    b0e0:	b4 ff 9e 30 	lw      r4,0xffb4(r30)
    b0e4:	e0 ff 9e 34 	sw      0xffe0(r30),r4
    b0e8:	e0 ff 9e 30 	lw      r4,0xffe0(r30)
    b0ec:	b0 ff 9e 34 	sw      0xffb0(r30),r4
    b0f0:	e8 ff be 30 	lw      r5,0xffe8(r30)
    b0f4:	00 00 80 18 	ori     r4,r0,0x0000
    b0f8:	02 20 05 00 	sub     r0,r5,r4
    b0fc:	04 00 00 40 	beq     0x0000b10c
    b100:	b0 ff 9e 30 	lw      r4,0xffb0(r30)
    b104:	02 20 80 00 	sub     r4,r0,r4
    b108:	b0 ff 9e 34 	sw      0xffb0(r30),r4
    b10c:	b0 ff 9e 30 	lw      r4,0xffb0(r30)
    b110:	cc ff 9e 34 	sw      0xffcc(r30),r4
    b114:	cc ff 5e 30 	lw      r2,0xffcc(r30)
    b118:	50 00 bd 07 	addi    r29,r29,0x0050
    b11c:	05 f0 a0 03 	orr     r29,r0,r30
    b120:	08 00 bd 07 	addi    r29,r29,0x0008
    b124:	fc ff fd 33 	lw      r31,0xfffc(r29)
    b128:	f8 ff dd 33 	lw      r30,0xfff8(r29)
    b12c:	00 00 e0 47 	jmpr    r31

0000b130 <isinf>:
    b130:	fc ff dd 37 	sw      0xfffc(r29),r30
    b134:	fc ff bd 07 	addi    r29,r29,0xfffc
    b138:	05 e8 c0 03 	orr     r30,r0,r29
    b13c:	f8 ff bd 07 	addi    r29,r29,0xfff8
    b140:	fc ff 9e 34 	sw      0xfffc(r30),r4
    b144:	00 00 80 18 	ori     r4,r0,0x0000
    b148:	f8 ff 9e 34 	sw      0xfff8(r30),r4
    b14c:	fc ff 9e 30 	lw      r4,0xfffc(r30)
    b150:	00 00 a4 30 	lw      r5,0x0000(r4)
    b154:	04 00 80 18 	ori     r4,r0,0x0004
    b158:	02 20 05 00 	sub     r0,r5,r4
    b15c:	03 00 40 40 	bne     0x0000b168
    b160:	01 00 80 18 	ori     r4,r0,0x0001
    b164:	f8 ff 9e 34 	sw      0xfff8(r30),r4
    b168:	f8 ff 9e 30 	lw      r4,0xfff8(r30)
    b16c:	05 20 40 00 	orr     r2,r0,r4
    b170:	08 00 bd 07 	addi    r29,r29,0x0008
    b174:	05 f0 a0 03 	orr     r29,r0,r30
    b178:	04 00 bd 07 	addi    r29,r29,0x0004
    b17c:	fc ff dd 33 	lw      r30,0xfffc(r29)
    b180:	00 00 e0 47 	jmpr    r31
    b184:	00 00 00 00 	nop
    b188:	00 00 00 00 	nop
    b18c:	00 00 00 00 	nop

0000b190 <isnan>:
    b190:	fc ff dd 37 	sw      0xfffc(r29),r30
    b194:	fc ff bd 07 	addi    r29,r29,0xfffc
    b198:	05 e8 c0 03 	orr     r30,r0,r29
    b19c:	f8 ff bd 07 	addi    r29,r29,0xfff8
    b1a0:	fc ff 9e 34 	sw      0xfffc(r30),r4
    b1a4:	00 00 80 18 	ori     r4,r0,0x0000
    b1a8:	f8 ff 9e 34 	sw      0xfff8(r30),r4
    b1ac:	fc ff 9e 30 	lw      r4,0xfffc(r30)
    b1b0:	00 00 a4 30 	lw      r5,0x0000(r4)
    b1b4:	00 00 80 18 	ori     r4,r0,0x0000
    b1b8:	02 20 05 00 	sub     r0,r5,r4
    b1bc:	07 00 00 40 	beq     0x0000b1d8
    b1c0:	fc ff 9e 30 	lw      r4,0xfffc(r30)
    b1c4:	00 00 a4 30 	lw      r5,0x0000(r4)
    b1c8:	01 00 80 18 	ori     r4,r0,0x0001
    b1cc:	02 20 05 00 	sub     r0,r5,r4
    b1d0:	02 00 00 40 	beq     0x0000b1d8
    b1d4:	78 2c 00 80 	ajmp    0x0000b1e0
    b1d8:	01 00 80 18 	ori     r4,r0,0x0001
    b1dc:	f8 ff 9e 34 	sw      0xfff8(r30),r4
    b1e0:	f8 ff 9e 30 	lw      r4,0xfff8(r30)
    b1e4:	05 20 40 00 	orr     r2,r0,r4
    b1e8:	08 00 bd 07 	addi    r29,r29,0x0008
    b1ec:	05 f0 a0 03 	orr     r29,r0,r30
    b1f0:	04 00 bd 07 	addi    r29,r29,0x0004
    b1f4:	fc ff dd 33 	lw      r30,0xfffc(r29)
    b1f8:	00 00 e0 47 	jmpr    r31
    b1fc:	00 00 00 00 	nop

0000b200 <iszero>:
    b200:	fc ff dd 37 	sw      0xfffc(r29),r30
    b204:	fc ff bd 07 	addi    r29,r29,0xfffc
    b208:	05 e8 c0 03 	orr     r30,r0,r29
    b20c:	f8 ff bd 07 	addi    r29,r29,0xfff8
    b210:	fc ff 9e 34 	sw      0xfffc(r30),r4
    b214:	00 00 80 18 	ori     r4,r0,0x0000
    b218:	f8 ff 9e 34 	sw      0xfff8(r30),r4
    b21c:	fc ff 9e 30 	lw      r4,0xfffc(r30)
    b220:	00 00 a4 30 	lw      r5,0x0000(r4)
    b224:	02 00 80 18 	ori     r4,r0,0x0002
    b228:	02 20 05 00 	sub     r0,r5,r4
    b22c:	03 00 40 40 	bne     0x0000b238
    b230:	01 00 80 18 	ori     r4,r0,0x0001
    b234:	f8 ff 9e 34 	sw      0xfff8(r30),r4
    b238:	f8 ff 9e 30 	lw      r4,0xfff8(r30)
    b23c:	05 20 40 00 	orr     r2,r0,r4
    b240:	08 00 bd 07 	addi    r29,r29,0x0008
    b244:	05 f0 a0 03 	orr     r29,r0,r30
    b248:	04 00 bd 07 	addi    r29,r29,0x0004
    b24c:	fc ff dd 33 	lw      r30,0xfffc(r29)
    b250:	00 00 e0 47 	jmpr    r31
    b254:	00 00 00 00 	nop
    b258:	00 00 00 00 	nop
    b25c:	00 00 00 00 	nop

0000b260 <__floatsidf>:
    b260:	fc ff fd 37 	sw      0xfffc(r29),r31
    b264:	f8 ff dd 37 	sw      0xfff8(r29),r30
    b268:	f8 ff bd 07 	addi    r29,r29,0xfff8
    b26c:	05 e8 c0 03 	orr     r30,r0,r29
    b270:	bc ff bd 07 	addi    r29,r29,0xffbc
    b274:	e4 ff 9e 34 	sw      0xffe4(r30),r4
    b278:	fc ff be 34 	sw      0xfffc(r30),r5
    b27c:	03 00 80 18 	ori     r4,r0,0x0003
    b280:	e8 ff 9e 34 	sw      0xffe8(r30),r4
    b284:	00 00 80 18 	ori     r4,r0,0x0000
    b288:	ec ff 9e 34 	sw      0xffec(r30),r4
    b28c:	fc ff be 30 	lw      r5,0xfffc(r30)
    b290:	00 00 80 18 	ori     r4,r0,0x0000
    b294:	02 20 05 00 	sub     r0,r5,r4
    b298:	03 00 80 42 	bge     0x0000b2a4
    b29c:	01 00 80 18 	ori     r4,r0,0x0001
    b2a0:	ec ff 9e 34 	sw      0xffec(r30),r4
    b2a4:	fc ff be 30 	lw      r5,0xfffc(r30)
    b2a8:	00 00 80 18 	ori     r4,r0,0x0000
    b2ac:	02 20 05 00 	sub     r0,r5,r4
    b2b0:	04 00 40 40 	bne     0x0000b2c0
    b2b4:	02 00 80 18 	ori     r4,r0,0x0002
    b2b8:	e8 ff 9e 34 	sw      0xffe8(r30),r4
    b2bc:	f4 2c 00 80 	ajmp    0x0000b3d0
    b2c0:	3c 00 80 18 	ori     r4,r0,0x003c
    b2c4:	f0 ff 9e 34 	sw      0xfff0(r30),r4
    b2c8:	ec ff be 30 	lw      r5,0xffec(r30)
    b2cc:	00 00 80 18 	ori     r4,r0,0x0000
    b2d0:	02 20 05 00 	sub     r0,r5,r4
    b2d4:	18 00 00 40 	beq     0x0000b334
    b2d8:	fc ff be 30 	lw      r5,0xfffc(r30)
    b2dc:	00 80 80 2c 	ldih    r4,0x8000
    b2e0:	00 00 84 18 	ori     r4,r4,0x0000
    b2e4:	02 20 05 00 	sub     r0,r5,r4
    b2e8:	09 00 40 40 	bne     0x0000b30c
    b2ec:	00 00 80 18 	ori     r4,r0,0x0000
    b2f0:	e4 ff be 30 	lw      r5,0xffe4(r30)
    b2f4:	00 00 85 34 	sw      0x0000(r5),r4
    b2f8:	e0 c1 80 2c 	ldih    r4,0xc1e0
    b2fc:	00 00 84 18 	ori     r4,r4,0x0000
    b300:	e4 ff de 30 	lw      r6,0xffe4(r30)
    b304:	04 00 86 34 	sw      0x0004(r6),r4
    b308:	f7 2c 00 80 	ajmp    0x0000b3dc
    b30c:	fc ff 9e 30 	lw      r4,0xfffc(r30)
    b310:	02 20 80 00 	sub     r4,r0,r4
    b314:	1f 00 a4 28 	asri    r5,r4,0x001f
    b318:	dc ff 9e 34 	sw      0xffdc(r30),r4
    b31c:	e0 ff be 34 	sw      0xffe0(r30),r5
    b320:	dc ff 9e 30 	lw      r4,0xffdc(r30)
    b324:	f4 ff 9e 34 	sw      0xfff4(r30),r4
    b328:	e0 ff be 30 	lw      r5,0xffe0(r30)
    b32c:	f8 ff be 34 	sw      0xfff8(r30),r5
    b330:	d6 2c 00 80 	ajmp    0x0000b358
    b334:	fc ff 9e 30 	lw      r4,0xfffc(r30)
    b338:	1f 00 84 28 	asri    r4,r4,0x001f
    b33c:	fc ff de 30 	lw      r6,0xfffc(r30)
    b340:	d4 ff de 34 	sw      0xffd4(r30),r6
    b344:	d8 ff 9e 34 	sw      0xffd8(r30),r4
    b348:	d4 ff 9e 30 	lw      r4,0xffd4(r30)
    b34c:	f4 ff 9e 34 	sw      0xfff4(r30),r4
    b350:	d8 ff be 30 	lw      r5,0xffd8(r30)
    b354:	f8 ff be 34 	sw      0xfff8(r30),r5
    b358:	f4 ff de 30 	lw      r6,0xfff4(r30)
    b35c:	cc ff de 34 	sw      0xffcc(r30),r6
    b360:	f8 ff 9e 30 	lw      r4,0xfff8(r30)
    b364:	d0 ff 9e 34 	sw      0xffd0(r30),r4
    b368:	ff 0f 80 2c 	ldih    r4,0x0fff
    b36c:	ff ff 84 18 	ori     r4,r4,0xffff
    b370:	d0 ff be 30 	lw      r5,0xffd0(r30)
    b374:	02 20 05 00 	sub     r0,r5,r4
    b378:	16 00 00 42 	bhi     0x0000b3d0
    b37c:	f4 ff de 30 	lw      r6,0xfff4(r30)
    b380:	c4 ff de 34 	sw      0xffc4(r30),r6
    b384:	f8 ff 9e 30 	lw      r4,0xfff8(r30)
    b388:	c8 ff 9e 34 	sw      0xffc8(r30),r4
    b38c:	c4 ff de 30 	lw      r6,0xffc4(r30)
    b390:	1f 00 a6 24 	lsri    r5,r6,0x001f
    b394:	c8 ff de 30 	lw      r6,0xffc8(r30)
    b398:	01 00 86 20 	lsli    r4,r6,0x0001
    b39c:	05 20 a5 00 	orr     r5,r5,r4
    b3a0:	c0 ff be 34 	sw      0xffc0(r30),r5
    b3a4:	c4 ff 9e 30 	lw      r4,0xffc4(r30)
    b3a8:	01 00 84 20 	lsli    r4,r4,0x0001
    b3ac:	bc ff 9e 34 	sw      0xffbc(r30),r4
    b3b0:	bc ff be 30 	lw      r5,0xffbc(r30)
    b3b4:	f4 ff be 34 	sw      0xfff4(r30),r5
    b3b8:	c0 ff de 30 	lw      r6,0xffc0(r30)
    b3bc:	f8 ff de 34 	sw      0xfff8(r30),r6
    b3c0:	f0 ff 9e 30 	lw      r4,0xfff0(r30)
    b3c4:	ff ff 84 04 	addi    r4,r4,0xffff
    b3c8:	f0 ff 9e 34 	sw      0xfff0(r30),r4
    b3cc:	d6 2c 00 80 	ajmp    0x0000b358
    b3d0:	e8 ff be 04 	addi    r5,r30,0xffe8
    b3d4:	e4 ff 9e 30 	lw      r4,0xffe4(r30)
    b3d8:	14 34 00 c0 	ajal    0x0000d050
    b3dc:	e4 ff 5e 30 	lw      r2,0xffe4(r30)
    b3e0:	44 00 bd 07 	addi    r29,r29,0x0044
    b3e4:	05 f0 a0 03 	orr     r29,r0,r30
    b3e8:	08 00 bd 07 	addi    r29,r29,0x0008
    b3ec:	fc ff fd 33 	lw      r31,0xfffc(r29)
    b3f0:	f8 ff dd 33 	lw      r30,0xfff8(r29)
    b3f4:	00 00 e0 47 	jmpr    r31
    b3f8:	00 00 00 00 	nop
    b3fc:	00 00 00 00 	nop

0000b400 <__muldf3>:
    b400:	fc ff fd 37 	sw      0xfffc(r29),r31
    b404:	f8 ff dd 37 	sw      0xfff8(r29),r30
    b408:	f8 ff bd 07 	addi    r29,r29,0xfff8
    b40c:	05 e8 c0 03 	orr     r30,r0,r29
    b410:	44 fd bd 07 	addi    r29,r29,0xfd44
    b414:	3c ff 9e 34 	sw      0xff3c(r30),r4
    b418:	f8 ff be 34 	sw      0xfff8(r30),r5
    b41c:	fc ff de 34 	sw      0xfffc(r30),r6
    b420:	f8 ff 9e 30 	lw      r4,0xfff8(r30)
    b424:	b0 ff 9e 34 	sw      0xffb0(r30),r4
    b428:	fc ff 9e 30 	lw      r4,0xfffc(r30)
    b42c:	b4 ff 9e 34 	sw      0xffb4(r30),r4
    b430:	08 00 9e 30 	lw      r4,0x0008(r30)
    b434:	a8 ff 9e 34 	sw      0xffa8(r30),r4
    b438:	0c 00 9e 30 	lw      r4,0x000c(r30)
    b43c:	ac ff 9e 34 	sw      0xffac(r30),r4
    b440:	b0 ff 9e 04 	addi    r4,r30,0xffb0
    b444:	e4 ff be 04 	addi    r5,r30,0xffe4
    b448:	c4 31 00 c0 	ajal    0x0000c710
    b44c:	a8 ff 9e 04 	addi    r4,r30,0xffa8
    b450:	d0 ff be 04 	addi    r5,r30,0xffd0
    b454:	c4 31 00 c0 	ajal    0x0000c710
    b458:	e4 ff 9e 04 	addi    r4,r30,0xffe4
    b45c:	a4 ff 9e 34 	sw      0xffa4(r30),r4
    b460:	d0 ff 9e 04 	addi    r4,r30,0xffd0
    b464:	a0 ff 9e 34 	sw      0xffa0(r30),r4
    b468:	bc ff 9e 04 	addi    r4,r30,0xffbc
    b46c:	9c ff 9e 34 	sw      0xff9c(r30),r4
    b470:	00 00 80 18 	ori     r4,r0,0x0000
    b474:	90 ff 9e 34 	sw      0xff90(r30),r4
    b478:	00 00 80 18 	ori     r4,r0,0x0000
    b47c:	94 ff 9e 34 	sw      0xff94(r30),r4
    b480:	00 00 80 18 	ori     r4,r0,0x0000
    b484:	88 ff 9e 34 	sw      0xff88(r30),r4
    b488:	00 00 80 18 	ori     r4,r0,0x0000
    b48c:	8c ff 9e 34 	sw      0xff8c(r30),r4
    b490:	a4 ff 9e 30 	lw      r4,0xffa4(r30)
    b494:	80 30 00 c0 	ajal    0x0000c200
    b498:	05 10 a0 00 	orr     r5,r0,r2
    b49c:	00 00 80 18 	ori     r4,r0,0x0000
    b4a0:	02 20 05 00 	sub     r0,r5,r4
    b4a4:	13 00 00 40 	beq     0x0000b4f0
    b4a8:	a4 ff 9e 30 	lw      r4,0xffa4(r30)
    b4ac:	38 ff 9e 34 	sw      0xff38(r30),r4
    b4b0:	00 00 a0 18 	ori     r5,r0,0x0000
    b4b4:	34 ff be 34 	sw      0xff34(r30),r5
    b4b8:	a4 ff 9e 30 	lw      r4,0xffa4(r30)
    b4bc:	a0 ff be 30 	lw      r5,0xffa0(r30)
    b4c0:	04 00 c4 30 	lw      r6,0x0004(r4)
    b4c4:	04 00 85 30 	lw      r4,0x0004(r5)
    b4c8:	02 20 06 00 	sub     r0,r6,r4
    b4cc:	03 00 00 40 	beq     0x0000b4d8
    b4d0:	01 00 c0 18 	ori     r6,r0,0x0001
    b4d4:	34 ff de 34 	sw      0xff34(r30),r6
    b4d8:	34 ff be 30 	lw      r5,0xff34(r30)
    b4dc:	38 ff 9e 30 	lw      r4,0xff38(r30)
    b4e0:	04 00 a4 34 	sw      0x0004(r4),r5
    b4e4:	a4 ff 9e 30 	lw      r4,0xffa4(r30)
    b4e8:	98 ff 9e 34 	sw      0xff98(r30),r4
    b4ec:	37 30 00 80 	ajmp    0x0000c0dc
    b4f0:	a0 ff 9e 30 	lw      r4,0xffa0(r30)
    b4f4:	80 30 00 c0 	ajal    0x0000c200
    b4f8:	05 10 a0 00 	orr     r5,r0,r2
    b4fc:	00 00 80 18 	ori     r4,r0,0x0000
    b500:	02 20 05 00 	sub     r0,r5,r4
    b504:	13 00 00 40 	beq     0x0000b550
    b508:	a0 ff de 30 	lw      r6,0xffa0(r30)
    b50c:	30 ff de 34 	sw      0xff30(r30),r6
    b510:	00 00 80 18 	ori     r4,r0,0x0000
    b514:	2c ff 9e 34 	sw      0xff2c(r30),r4
    b518:	a4 ff 9e 30 	lw      r4,0xffa4(r30)
    b51c:	a0 ff be 30 	lw      r5,0xffa0(r30)
    b520:	04 00 c4 30 	lw      r6,0x0004(r4)
    b524:	04 00 85 30 	lw      r4,0x0004(r5)
    b528:	02 20 06 00 	sub     r0,r6,r4
    b52c:	03 00 00 40 	beq     0x0000b538
    b530:	01 00 a0 18 	ori     r5,r0,0x0001
    b534:	2c ff be 34 	sw      0xff2c(r30),r5
    b538:	2c ff 9e 30 	lw      r4,0xff2c(r30)
    b53c:	30 ff de 30 	lw      r6,0xff30(r30)
    b540:	04 00 86 34 	sw      0x0004(r6),r4
    b544:	a0 ff 9e 30 	lw      r4,0xffa0(r30)
    b548:	98 ff 9e 34 	sw      0xff98(r30),r4
    b54c:	37 30 00 80 	ajmp    0x0000c0dc
    b550:	a4 ff 9e 30 	lw      r4,0xffa4(r30)
    b554:	68 30 00 c0 	ajal    0x0000c1a0
    b558:	05 10 a0 00 	orr     r5,r0,r2
    b55c:	00 00 80 18 	ori     r4,r0,0x0000
    b560:	02 20 05 00 	sub     r0,r5,r4
    b564:	1d 00 00 40 	beq     0x0000b5d8
    b568:	a0 ff 9e 30 	lw      r4,0xffa0(r30)
    b56c:	50 30 00 c0 	ajal    0x0000c140
    b570:	05 10 a0 00 	orr     r5,r0,r2
    b574:	00 00 80 18 	ori     r4,r0,0x0000
    b578:	02 20 05 00 	sub     r0,r5,r4
    b57c:	05 00 00 40 	beq     0x0000b590
    b580:	44 30 00 c0 	ajal    0x0000c110
    b584:	05 10 80 00 	orr     r4,r0,r2
    b588:	98 ff 9e 34 	sw      0xff98(r30),r4
    b58c:	37 30 00 80 	ajmp    0x0000c0dc
    b590:	a4 ff be 30 	lw      r5,0xffa4(r30)
    b594:	28 ff be 34 	sw      0xff28(r30),r5
    b598:	00 00 c0 18 	ori     r6,r0,0x0000
    b59c:	24 ff de 34 	sw      0xff24(r30),r6
    b5a0:	a4 ff 9e 30 	lw      r4,0xffa4(r30)
    b5a4:	a0 ff be 30 	lw      r5,0xffa0(r30)
    b5a8:	04 00 c4 30 	lw      r6,0x0004(r4)
    b5ac:	04 00 85 30 	lw      r4,0x0004(r5)
    b5b0:	02 20 06 00 	sub     r0,r6,r4
    b5b4:	03 00 00 40 	beq     0x0000b5c0
    b5b8:	01 00 80 18 	ori     r4,r0,0x0001
    b5bc:	24 ff 9e 34 	sw      0xff24(r30),r4
    b5c0:	24 ff de 30 	lw      r6,0xff24(r30)
    b5c4:	28 ff be 30 	lw      r5,0xff28(r30)
    b5c8:	04 00 c5 34 	sw      0x0004(r5),r6
    b5cc:	a4 ff 9e 30 	lw      r4,0xffa4(r30)
    b5d0:	98 ff 9e 34 	sw      0xff98(r30),r4
    b5d4:	37 30 00 80 	ajmp    0x0000c0dc
    b5d8:	a0 ff 9e 30 	lw      r4,0xffa0(r30)
    b5dc:	68 30 00 c0 	ajal    0x0000c1a0
    b5e0:	05 10 a0 00 	orr     r5,r0,r2
    b5e4:	00 00 80 18 	ori     r4,r0,0x0000
    b5e8:	02 20 05 00 	sub     r0,r5,r4
    b5ec:	1d 00 00 40 	beq     0x0000b660
    b5f0:	a4 ff 9e 30 	lw      r4,0xffa4(r30)
    b5f4:	50 30 00 c0 	ajal    0x0000c140
    b5f8:	05 10 a0 00 	orr     r5,r0,r2
    b5fc:	00 00 80 18 	ori     r4,r0,0x0000
    b600:	02 20 05 00 	sub     r0,r5,r4
    b604:	05 00 00 40 	beq     0x0000b618
    b608:	44 30 00 c0 	ajal    0x0000c110
    b60c:	05 10 80 00 	orr     r4,r0,r2
    b610:	98 ff 9e 34 	sw      0xff98(r30),r4
    b614:	37 30 00 80 	ajmp    0x0000c0dc
    b618:	a0 ff 9e 30 	lw      r4,0xffa0(r30)
    b61c:	20 ff 9e 34 	sw      0xff20(r30),r4
    b620:	00 00 a0 18 	ori     r5,r0,0x0000
    b624:	1c ff be 34 	sw      0xff1c(r30),r5
    b628:	a4 ff 9e 30 	lw      r4,0xffa4(r30)
    b62c:	a0 ff be 30 	lw      r5,0xffa0(r30)
    b630:	04 00 c4 30 	lw      r6,0x0004(r4)
    b634:	04 00 85 30 	lw      r4,0x0004(r5)
    b638:	02 20 06 00 	sub     r0,r6,r4
    b63c:	03 00 00 40 	beq     0x0000b648
    b640:	01 00 c0 18 	ori     r6,r0,0x0001
    b644:	1c ff de 34 	sw      0xff1c(r30),r6
    b648:	1c ff be 30 	lw      r5,0xff1c(r30)
    b64c:	20 ff 9e 30 	lw      r4,0xff20(r30)
    b650:	04 00 a4 34 	sw      0x0004(r4),r5
    b654:	a0 ff 9e 30 	lw      r4,0xffa0(r30)
    b658:	98 ff 9e 34 	sw      0xff98(r30),r4
    b65c:	37 30 00 80 	ajmp    0x0000c0dc
    b660:	a4 ff 9e 30 	lw      r4,0xffa4(r30)
    b664:	50 30 00 c0 	ajal    0x0000c140
    b668:	05 10 a0 00 	orr     r5,r0,r2
    b66c:	00 00 80 18 	ori     r4,r0,0x0000
    b670:	02 20 05 00 	sub     r0,r5,r4
    b674:	13 00 00 40 	beq     0x0000b6c0
    b678:	a4 ff de 30 	lw      r6,0xffa4(r30)
    b67c:	18 ff de 34 	sw      0xff18(r30),r6
    b680:	00 00 80 18 	ori     r4,r0,0x0000
    b684:	14 ff 9e 34 	sw      0xff14(r30),r4
    b688:	a4 ff 9e 30 	lw      r4,0xffa4(r30)
    b68c:	a0 ff be 30 	lw      r5,0xffa0(r30)
    b690:	04 00 c4 30 	lw      r6,0x0004(r4)
    b694:	04 00 85 30 	lw      r4,0x0004(r5)
    b698:	02 20 06 00 	sub     r0,r6,r4
    b69c:	03 00 00 40 	beq     0x0000b6a8
    b6a0:	01 00 a0 18 	ori     r5,r0,0x0001
    b6a4:	14 ff be 34 	sw      0xff14(r30),r5
    b6a8:	14 ff 9e 30 	lw      r4,0xff14(r30)
    b6ac:	18 ff de 30 	lw      r6,0xff18(r30)
    b6b0:	04 00 86 34 	sw      0x0004(r6),r4
    b6b4:	a4 ff 9e 30 	lw      r4,0xffa4(r30)
    b6b8:	98 ff 9e 34 	sw      0xff98(r30),r4
    b6bc:	37 30 00 80 	ajmp    0x0000c0dc
    b6c0:	a0 ff 9e 30 	lw      r4,0xffa0(r30)
    b6c4:	50 30 00 c0 	ajal    0x0000c140
    b6c8:	05 10 a0 00 	orr     r5,r0,r2
    b6cc:	00 00 80 18 	ori     r4,r0,0x0000
    b6d0:	02 20 05 00 	sub     r0,r5,r4
    b6d4:	13 00 00 40 	beq     0x0000b720
    b6d8:	a0 ff be 30 	lw      r5,0xffa0(r30)
    b6dc:	10 ff be 34 	sw      0xff10(r30),r5
    b6e0:	00 00 c0 18 	ori     r6,r0,0x0000
    b6e4:	0c ff de 34 	sw      0xff0c(r30),r6
    b6e8:	a4 ff 9e 30 	lw      r4,0xffa4(r30)
    b6ec:	a0 ff be 30 	lw      r5,0xffa0(r30)
    b6f0:	04 00 c4 30 	lw      r6,0x0004(r4)
    b6f4:	04 00 85 30 	lw      r4,0x0004(r5)
    b6f8:	02 20 06 00 	sub     r0,r6,r4
    b6fc:	03 00 00 40 	beq     0x0000b708
    b700:	01 00 80 18 	ori     r4,r0,0x0001
    b704:	0c ff 9e 34 	sw      0xff0c(r30),r4
    b708:	0c ff de 30 	lw      r6,0xff0c(r30)
    b70c:	10 ff be 30 	lw      r5,0xff10(r30)
    b710:	04 00 c5 34 	sw      0x0004(r5),r6
    b714:	a0 ff 9e 30 	lw      r4,0xffa0(r30)
    b718:	98 ff 9e 34 	sw      0xff98(r30),r4
    b71c:	37 30 00 80 	ajmp    0x0000c0dc
    b720:	a4 ff 9e 30 	lw      r4,0xffa4(r30)
    b724:	0c 00 a4 30 	lw      r5,0x000c(r4)
    b728:	04 ff be 34 	sw      0xff04(r30),r5
    b72c:	10 00 84 30 	lw      r4,0x0010(r4)
    b730:	08 ff 9e 34 	sw      0xff08(r30),r4
    b734:	04 ff de 30 	lw      r6,0xff04(r30)
    b738:	84 ff de 34 	sw      0xff84(r30),r6
    b73c:	a4 ff 9e 30 	lw      r4,0xffa4(r30)
    b740:	0c 00 a4 30 	lw      r5,0x000c(r4)
    b744:	fc fe be 34 	sw      0xfefc(r30),r5
    b748:	10 00 84 30 	lw      r4,0x0010(r4)
    b74c:	00 ff 9e 34 	sw      0xff00(r30),r4
    b750:	00 ff de 30 	lw      r6,0xff00(r30)
    b754:	00 00 c6 24 	lsri    r6,r6,0x0000
    b758:	f4 fe de 34 	sw      0xfef4(r30),r6
    b75c:	00 00 80 18 	ori     r4,r0,0x0000
    b760:	f8 fe 9e 34 	sw      0xfef8(r30),r4
    b764:	f4 fe be 30 	lw      r5,0xfef4(r30)
    b768:	80 ff be 34 	sw      0xff80(r30),r5
    b76c:	a0 ff 9e 30 	lw      r4,0xffa0(r30)
    b770:	0c 00 c4 30 	lw      r6,0x000c(r4)
    b774:	ec fe de 34 	sw      0xfeec(r30),r6
    b778:	10 00 84 30 	lw      r4,0x0010(r4)
    b77c:	f0 fe 9e 34 	sw      0xfef0(r30),r4
    b780:	ec fe 9e 30 	lw      r4,0xfeec(r30)
    b784:	7c ff 9e 34 	sw      0xff7c(r30),r4
    b788:	a0 ff 9e 30 	lw      r4,0xffa0(r30)
    b78c:	0c 00 a4 30 	lw      r5,0x000c(r4)
    b790:	e4 fe be 34 	sw      0xfee4(r30),r5
    b794:	10 00 84 30 	lw      r4,0x0010(r4)
    b798:	e8 fe 9e 34 	sw      0xfee8(r30),r4
    b79c:	e8 fe de 30 	lw      r6,0xfee8(r30)
    b7a0:	00 00 c6 24 	lsri    r6,r6,0x0000
    b7a4:	dc fe de 34 	sw      0xfedc(r30),r6
    b7a8:	00 00 80 18 	ori     r4,r0,0x0000
    b7ac:	e0 fe 9e 34 	sw      0xfee0(r30),r4
    b7b0:	dc fe be 30 	lw      r5,0xfedc(r30)
    b7b4:	78 ff be 34 	sw      0xff78(r30),r5
    b7b8:	7c ff de 30 	lw      r6,0xff7c(r30)
    b7bc:	d4 fe de 34 	sw      0xfed4(r30),r6
    b7c0:	00 00 80 18 	ori     r4,r0,0x0000
    b7c4:	d8 fe 9e 34 	sw      0xfed8(r30),r4
    b7c8:	84 ff be 30 	lw      r5,0xff84(r30)
    b7cc:	cc fe be 34 	sw      0xfecc(r30),r5
    b7d0:	00 00 c0 18 	ori     r6,r0,0x0000
    b7d4:	d0 fe de 34 	sw      0xfed0(r30),r6
    b7d8:	68 ff 9e 04 	addi    r4,r30,0xff68
    b7dc:	cc fe be 30 	lw      r5,0xfecc(r30)
    b7e0:	00 00 bd 34 	sw      0x0000(r29),r5
    b7e4:	d0 fe de 30 	lw      r6,0xfed0(r30)
    b7e8:	04 00 dd 34 	sw      0x0004(r29),r6
    b7ec:	d4 fe be 30 	lw      r5,0xfed4(r30)
    b7f0:	d8 fe de 30 	lw      r6,0xfed8(r30)
    b7f4:	b8 36 00 c0 	ajal    0x0000dae0
    b7f8:	68 ff 9e 30 	lw      r4,0xff68(r30)
    b7fc:	c4 fe 9e 34 	sw      0xfec4(r30),r4
    b800:	6c ff be 30 	lw      r5,0xff6c(r30)
    b804:	c8 fe be 34 	sw      0xfec8(r30),r5
    b808:	c4 fe de 30 	lw      r6,0xfec4(r30)
    b80c:	70 ff de 34 	sw      0xff70(r30),r6
    b810:	c8 fe 9e 30 	lw      r4,0xfec8(r30)
    b814:	74 ff 9e 34 	sw      0xff74(r30),r4
    b818:	78 ff be 30 	lw      r5,0xff78(r30)
    b81c:	bc fe be 34 	sw      0xfebc(r30),r5
    b820:	00 00 c0 18 	ori     r6,r0,0x0000
    b824:	c0 fe de 34 	sw      0xfec0(r30),r6
    b828:	84 ff 9e 30 	lw      r4,0xff84(r30)
    b82c:	b4 fe 9e 34 	sw      0xfeb4(r30),r4
    b830:	00 00 a0 18 	ori     r5,r0,0x0000
    b834:	b8 fe be 34 	sw      0xfeb8(r30),r5
    b838:	60 ff 9e 04 	addi    r4,r30,0xff60
    b83c:	b4 fe de 30 	lw      r6,0xfeb4(r30)
    b840:	00 00 dd 34 	sw      0x0000(r29),r6
    b844:	b8 fe be 30 	lw      r5,0xfeb8(r30)
    b848:	04 00 bd 34 	sw      0x0004(r29),r5
    b84c:	bc fe be 30 	lw      r5,0xfebc(r30)
    b850:	c0 fe de 30 	lw      r6,0xfec0(r30)
    b854:	b8 36 00 c0 	ajal    0x0000dae0
    b858:	60 ff de 30 	lw      r6,0xff60(r30)
    b85c:	ac fe de 34 	sw      0xfeac(r30),r6
    b860:	64 ff 9e 30 	lw      r4,0xff64(r30)
    b864:	b0 fe 9e 34 	sw      0xfeb0(r30),r4
    b868:	ac fe be 30 	lw      r5,0xfeac(r30)
    b86c:	68 ff be 34 	sw      0xff68(r30),r5
    b870:	b0 fe de 30 	lw      r6,0xfeb0(r30)
    b874:	6c ff de 34 	sw      0xff6c(r30),r6
    b878:	7c ff 9e 30 	lw      r4,0xff7c(r30)
    b87c:	a4 fe 9e 34 	sw      0xfea4(r30),r4
    b880:	00 00 a0 18 	ori     r5,r0,0x0000
    b884:	a8 fe be 34 	sw      0xfea8(r30),r5
    b888:	80 ff de 30 	lw      r6,0xff80(r30)
    b88c:	9c fe de 34 	sw      0xfe9c(r30),r6
    b890:	00 00 80 18 	ori     r4,r0,0x0000
    b894:	a0 fe 9e 34 	sw      0xfea0(r30),r4
    b898:	58 ff 9e 04 	addi    r4,r30,0xff58
    b89c:	9c fe be 30 	lw      r5,0xfe9c(r30)
    b8a0:	00 00 bd 34 	sw      0x0000(r29),r5
    b8a4:	a0 fe de 30 	lw      r6,0xfea0(r30)
    b8a8:	04 00 dd 34 	sw      0x0004(r29),r6
    b8ac:	a4 fe be 30 	lw      r5,0xfea4(r30)
    b8b0:	a8 fe de 30 	lw      r6,0xfea8(r30)
    b8b4:	b8 36 00 c0 	ajal    0x0000dae0
    b8b8:	58 ff 9e 30 	lw      r4,0xff58(r30)
    b8bc:	94 fe 9e 34 	sw      0xfe94(r30),r4
    b8c0:	5c ff be 30 	lw      r5,0xff5c(r30)
    b8c4:	98 fe be 34 	sw      0xfe98(r30),r5
    b8c8:	94 fe de 30 	lw      r6,0xfe94(r30)
    b8cc:	60 ff de 34 	sw      0xff60(r30),r6
    b8d0:	98 fe 9e 30 	lw      r4,0xfe98(r30)
    b8d4:	64 ff 9e 34 	sw      0xff64(r30),r4
    b8d8:	78 ff be 30 	lw      r5,0xff78(r30)
    b8dc:	8c fe be 34 	sw      0xfe8c(r30),r5
    b8e0:	00 00 c0 18 	ori     r6,r0,0x0000
    b8e4:	90 fe de 34 	sw      0xfe90(r30),r6
    b8e8:	80 ff 9e 30 	lw      r4,0xff80(r30)
    b8ec:	84 fe 9e 34 	sw      0xfe84(r30),r4
    b8f0:	00 00 a0 18 	ori     r5,r0,0x0000
    b8f4:	88 fe be 34 	sw      0xfe88(r30),r5
    b8f8:	50 ff 9e 04 	addi    r4,r30,0xff50
    b8fc:	84 fe de 30 	lw      r6,0xfe84(r30)
    b900:	00 00 dd 34 	sw      0x0000(r29),r6
    b904:	88 fe be 30 	lw      r5,0xfe88(r30)
    b908:	04 00 bd 34 	sw      0x0004(r29),r5
    b90c:	8c fe be 30 	lw      r5,0xfe8c(r30)
    b910:	90 fe de 30 	lw      r6,0xfe90(r30)
    b914:	b8 36 00 c0 	ajal    0x0000dae0
    b918:	50 ff de 30 	lw      r6,0xff50(r30)
    b91c:	7c fe de 34 	sw      0xfe7c(r30),r6
    b920:	54 ff 9e 30 	lw      r4,0xff54(r30)
    b924:	80 fe 9e 34 	sw      0xfe80(r30),r4
    b928:	7c fe be 30 	lw      r5,0xfe7c(r30)
    b92c:	58 ff be 34 	sw      0xff58(r30),r5
    b930:	80 fe de 30 	lw      r6,0xfe80(r30)
    b934:	5c ff de 34 	sw      0xff5c(r30),r6
    b938:	00 00 80 18 	ori     r4,r0,0x0000
    b93c:	50 ff 9e 34 	sw      0xff50(r30),r4
    b940:	00 00 80 18 	ori     r4,r0,0x0000
    b944:	54 ff 9e 34 	sw      0xff54(r30),r4
    b948:	00 00 80 18 	ori     r4,r0,0x0000
    b94c:	48 ff 9e 34 	sw      0xff48(r30),r4
    b950:	00 00 80 18 	ori     r4,r0,0x0000
    b954:	4c ff 9e 34 	sw      0xff4c(r30),r4
    b958:	68 ff 9e 30 	lw      r4,0xff68(r30)
    b95c:	74 fe 9e 34 	sw      0xfe74(r30),r4
    b960:	6c ff be 30 	lw      r5,0xff6c(r30)
    b964:	78 fe be 34 	sw      0xfe78(r30),r5
    b968:	60 ff de 30 	lw      r6,0xff60(r30)
    b96c:	6c fe de 34 	sw      0xfe6c(r30),r6
    b970:	64 ff 9e 30 	lw      r4,0xff64(r30)
    b974:	70 fe 9e 34 	sw      0xfe70(r30),r4
    b978:	74 fe be 30 	lw      r5,0xfe74(r30)
    b97c:	6c fe de 30 	lw      r6,0xfe6c(r30)
    b980:	00 30 a5 00 	add     r5,r5,r6
    b984:	64 fe be 34 	sw      0xfe64(r30),r5
    b988:	01 00 80 18 	ori     r4,r0,0x0001
    b98c:	60 fe 9e 34 	sw      0xfe60(r30),r4
    b990:	64 fe be 30 	lw      r5,0xfe64(r30)
    b994:	74 fe de 30 	lw      r6,0xfe74(r30)
    b998:	02 30 05 00 	sub     r0,r5,r6
    b99c:	03 00 40 41 	blo     0x0000b9a8
    b9a0:	00 00 80 18 	ori     r4,r0,0x0000
    b9a4:	60 fe 9e 34 	sw      0xfe60(r30),r4
    b9a8:	78 fe be 30 	lw      r5,0xfe78(r30)
    b9ac:	70 fe de 30 	lw      r6,0xfe70(r30)
    b9b0:	00 30 a5 00 	add     r5,r5,r6
    b9b4:	68 fe be 34 	sw      0xfe68(r30),r5
    b9b8:	60 fe be 30 	lw      r5,0xfe60(r30)
    b9bc:	68 fe de 30 	lw      r6,0xfe68(r30)
    b9c0:	00 30 85 00 	add     r4,r5,r6
    b9c4:	68 fe 9e 34 	sw      0xfe68(r30),r4
    b9c8:	64 fe 9e 30 	lw      r4,0xfe64(r30)
    b9cc:	40 ff 9e 34 	sw      0xff40(r30),r4
    b9d0:	68 fe be 30 	lw      r5,0xfe68(r30)
    b9d4:	44 ff be 34 	sw      0xff44(r30),r5
    b9d8:	6c ff be 30 	lw      r5,0xff6c(r30)
    b9dc:	44 ff 9e 30 	lw      r4,0xff44(r30)
    b9e0:	02 20 05 00 	sub     r0,r5,r4
    b9e4:	0a 00 00 42 	bhi     0x0000ba0c
    b9e8:	6c ff be 30 	lw      r5,0xff6c(r30)
    b9ec:	44 ff 9e 30 	lw      r4,0xff44(r30)
    b9f0:	02 20 05 00 	sub     r0,r5,r4
    b9f4:	26 00 40 40 	bne     0x0000ba8c
    b9f8:	68 ff be 30 	lw      r5,0xff68(r30)
    b9fc:	40 ff 9e 30 	lw      r4,0xff40(r30)
    ba00:	02 20 05 00 	sub     r0,r5,r4
    ba04:	02 00 00 42 	bhi     0x0000ba0c
    ba08:	a3 2e 00 80 	ajmp    0x0000ba8c
    ba0c:	50 ff de 30 	lw      r6,0xff50(r30)
    ba10:	58 fe de 34 	sw      0xfe58(r30),r6
    ba14:	54 ff 9e 30 	lw      r4,0xff54(r30)
    ba18:	5c fe 9e 34 	sw      0xfe5c(r30),r4
    ba1c:	00 00 a0 18 	ori     r5,r0,0x0000
    ba20:	50 fe be 34 	sw      0xfe50(r30),r5
    ba24:	01 00 c0 18 	ori     r6,r0,0x0001
    ba28:	54 fe de 34 	sw      0xfe54(r30),r6
    ba2c:	58 fe 9e 30 	lw      r4,0xfe58(r30)
    ba30:	50 fe be 30 	lw      r5,0xfe50(r30)
    ba34:	00 28 84 00 	add     r4,r4,r5
    ba38:	48 fe 9e 34 	sw      0xfe48(r30),r4
    ba3c:	01 00 c0 18 	ori     r6,r0,0x0001
    ba40:	44 fe de 34 	sw      0xfe44(r30),r6
    ba44:	48 fe 9e 30 	lw      r4,0xfe48(r30)
    ba48:	58 fe be 30 	lw      r5,0xfe58(r30)
    ba4c:	02 28 04 00 	sub     r0,r4,r5
    ba50:	03 00 40 41 	blo     0x0000ba5c
    ba54:	00 00 c0 18 	ori     r6,r0,0x0000
    ba58:	44 fe de 34 	sw      0xfe44(r30),r6
    ba5c:	5c fe 9e 30 	lw      r4,0xfe5c(r30)
    ba60:	54 fe be 30 	lw      r5,0xfe54(r30)
    ba64:	00 28 84 00 	add     r4,r4,r5
    ba68:	4c fe 9e 34 	sw      0xfe4c(r30),r4
    ba6c:	44 fe de 30 	lw      r6,0xfe44(r30)
    ba70:	4c fe be 30 	lw      r5,0xfe4c(r30)
    ba74:	00 28 86 00 	add     r4,r6,r5
    ba78:	4c fe 9e 34 	sw      0xfe4c(r30),r4
    ba7c:	48 fe de 30 	lw      r6,0xfe48(r30)
    ba80:	50 ff de 34 	sw      0xff50(r30),r6
    ba84:	4c fe 9e 30 	lw      r4,0xfe4c(r30)
    ba88:	54 ff 9e 34 	sw      0xff54(r30),r4
    ba8c:	40 ff be 30 	lw      r5,0xff40(r30)
    ba90:	3c fe be 34 	sw      0xfe3c(r30),r5
    ba94:	00 00 c0 18 	ori     r6,r0,0x0000
    ba98:	40 fe de 34 	sw      0xfe40(r30),r6
    ba9c:	3c fe be 30 	lw      r5,0xfe3c(r30)
    baa0:	00 00 85 20 	lsli    r4,r5,0x0000
    baa4:	6c ff 9e 34 	sw      0xff6c(r30),r4
    baa8:	00 00 80 18 	ori     r4,r0,0x0000
    baac:	68 ff 9e 34 	sw      0xff68(r30),r4
    bab0:	70 ff de 30 	lw      r6,0xff70(r30)
    bab4:	34 fe de 34 	sw      0xfe34(r30),r6
    bab8:	74 ff 9e 30 	lw      r4,0xff74(r30)
    babc:	38 fe 9e 34 	sw      0xfe38(r30),r4
    bac0:	68 ff be 30 	lw      r5,0xff68(r30)
    bac4:	2c fe be 34 	sw      0xfe2c(r30),r5
    bac8:	6c ff de 30 	lw      r6,0xff6c(r30)
    bacc:	30 fe de 34 	sw      0xfe30(r30),r6
    bad0:	34 fe 9e 30 	lw      r4,0xfe34(r30)
    bad4:	2c fe be 30 	lw      r5,0xfe2c(r30)
    bad8:	00 28 84 00 	add     r4,r4,r5
    badc:	24 fe 9e 34 	sw      0xfe24(r30),r4
    bae0:	01 00 c0 18 	ori     r6,r0,0x0001
    bae4:	20 fe de 34 	sw      0xfe20(r30),r6
    bae8:	24 fe 9e 30 	lw      r4,0xfe24(r30)
    baec:	34 fe be 30 	lw      r5,0xfe34(r30)
    baf0:	02 28 04 00 	sub     r0,r4,r5
    baf4:	03 00 40 41 	blo     0x0000bb00
    baf8:	00 00 c0 18 	ori     r6,r0,0x0000
    bafc:	20 fe de 34 	sw      0xfe20(r30),r6
    bb00:	38 fe 9e 30 	lw      r4,0xfe38(r30)
    bb04:	30 fe be 30 	lw      r5,0xfe30(r30)
    bb08:	00 28 84 00 	add     r4,r4,r5
    bb0c:	28 fe 9e 34 	sw      0xfe28(r30),r4
    bb10:	20 fe de 30 	lw      r6,0xfe20(r30)
    bb14:	28 fe be 30 	lw      r5,0xfe28(r30)
    bb18:	00 28 86 00 	add     r4,r6,r5
    bb1c:	28 fe 9e 34 	sw      0xfe28(r30),r4
    bb20:	24 fe de 30 	lw      r6,0xfe24(r30)
    bb24:	48 ff de 34 	sw      0xff48(r30),r6
    bb28:	28 fe 9e 30 	lw      r4,0xfe28(r30)
    bb2c:	4c ff 9e 34 	sw      0xff4c(r30),r4
    bb30:	74 ff be 30 	lw      r5,0xff74(r30)
    bb34:	4c ff 9e 30 	lw      r4,0xff4c(r30)
    bb38:	02 20 05 00 	sub     r0,r5,r4
    bb3c:	0a 00 00 42 	bhi     0x0000bb64
    bb40:	74 ff be 30 	lw      r5,0xff74(r30)
    bb44:	4c ff 9e 30 	lw      r4,0xff4c(r30)
    bb48:	02 20 05 00 	sub     r0,r5,r4
    bb4c:	26 00 40 40 	bne     0x0000bbe4
    bb50:	70 ff be 30 	lw      r5,0xff70(r30)
    bb54:	48 ff 9e 30 	lw      r4,0xff48(r30)
    bb58:	02 20 05 00 	sub     r0,r5,r4
    bb5c:	02 00 00 42 	bhi     0x0000bb64
    bb60:	f9 2e 00 80 	ajmp    0x0000bbe4
    bb64:	50 ff be 30 	lw      r5,0xff50(r30)
    bb68:	18 fe be 34 	sw      0xfe18(r30),r5
    bb6c:	54 ff de 30 	lw      r6,0xff54(r30)
    bb70:	1c fe de 34 	sw      0xfe1c(r30),r6
    bb74:	01 00 80 18 	ori     r4,r0,0x0001
    bb78:	10 fe 9e 34 	sw      0xfe10(r30),r4
    bb7c:	00 00 a0 18 	ori     r5,r0,0x0000
    bb80:	14 fe be 34 	sw      0xfe14(r30),r5
    bb84:	18 fe de 30 	lw      r6,0xfe18(r30)
    bb88:	10 fe 9e 30 	lw      r4,0xfe10(r30)
    bb8c:	00 20 c6 00 	add     r6,r6,r4
    bb90:	08 fe de 34 	sw      0xfe08(r30),r6
    bb94:	01 00 a0 18 	ori     r5,r0,0x0001
    bb98:	04 fe be 34 	sw      0xfe04(r30),r5
    bb9c:	08 fe de 30 	lw      r6,0xfe08(r30)
    bba0:	18 fe 9e 30 	lw      r4,0xfe18(r30)
    bba4:	02 20 06 00 	sub     r0,r6,r4
    bba8:	03 00 40 41 	blo     0x0000bbb4
    bbac:	00 00 a0 18 	ori     r5,r0,0x0000
    bbb0:	04 fe be 34 	sw      0xfe04(r30),r5
    bbb4:	1c fe de 30 	lw      r6,0xfe1c(r30)
    bbb8:	14 fe 9e 30 	lw      r4,0xfe14(r30)
    bbbc:	00 20 c6 00 	add     r6,r6,r4
    bbc0:	0c fe de 34 	sw      0xfe0c(r30),r6
    bbc4:	04 fe be 30 	lw      r5,0xfe04(r30)
    bbc8:	0c fe de 30 	lw      r6,0xfe0c(r30)
    bbcc:	00 30 85 00 	add     r4,r5,r6
    bbd0:	0c fe 9e 34 	sw      0xfe0c(r30),r4
    bbd4:	08 fe 9e 30 	lw      r4,0xfe08(r30)
    bbd8:	50 ff 9e 34 	sw      0xff50(r30),r4
    bbdc:	0c fe be 30 	lw      r5,0xfe0c(r30)
    bbe0:	54 ff be 34 	sw      0xff54(r30),r5
    bbe4:	44 ff 9e 30 	lw      r4,0xff44(r30)
    bbe8:	00 00 84 24 	lsri    r4,r4,0x0000
    bbec:	fc fd 9e 34 	sw      0xfdfc(r30),r4
    bbf0:	00 00 c0 18 	ori     r6,r0,0x0000
    bbf4:	00 fe de 34 	sw      0xfe00(r30),r6
    bbf8:	58 ff 9e 30 	lw      r4,0xff58(r30)
    bbfc:	f4 fd 9e 34 	sw      0xfdf4(r30),r4
    bc00:	5c ff be 30 	lw      r5,0xff5c(r30)
    bc04:	f8 fd be 34 	sw      0xfdf8(r30),r5
    bc08:	fc fd de 30 	lw      r6,0xfdfc(r30)
    bc0c:	f4 fd 9e 30 	lw      r4,0xfdf4(r30)
    bc10:	00 20 c6 00 	add     r6,r6,r4
    bc14:	ec fd de 34 	sw      0xfdec(r30),r6
    bc18:	01 00 a0 18 	ori     r5,r0,0x0001
    bc1c:	e8 fd be 34 	sw      0xfde8(r30),r5
    bc20:	ec fd de 30 	lw      r6,0xfdec(r30)
    bc24:	fc fd 9e 30 	lw      r4,0xfdfc(r30)
    bc28:	02 20 06 00 	sub     r0,r6,r4
    bc2c:	03 00 40 41 	blo     0x0000bc38
    bc30:	00 00 a0 18 	ori     r5,r0,0x0000
    bc34:	e8 fd be 34 	sw      0xfde8(r30),r5
    bc38:	00 fe de 30 	lw      r6,0xfe00(r30)
    bc3c:	f8 fd 9e 30 	lw      r4,0xfdf8(r30)
    bc40:	00 20 c6 00 	add     r6,r6,r4
    bc44:	f0 fd de 34 	sw      0xfdf0(r30),r6
    bc48:	e8 fd be 30 	lw      r5,0xfde8(r30)
    bc4c:	f0 fd de 30 	lw      r6,0xfdf0(r30)
    bc50:	00 30 85 00 	add     r4,r5,r6
    bc54:	f0 fd 9e 34 	sw      0xfdf0(r30),r4
    bc58:	50 ff 9e 30 	lw      r4,0xff50(r30)
    bc5c:	e0 fd 9e 34 	sw      0xfde0(r30),r4
    bc60:	54 ff be 30 	lw      r5,0xff54(r30)
    bc64:	e4 fd be 34 	sw      0xfde4(r30),r5
    bc68:	e0 fd de 30 	lw      r6,0xfde0(r30)
    bc6c:	ec fd 9e 30 	lw      r4,0xfdec(r30)
    bc70:	00 20 c6 00 	add     r6,r6,r4
    bc74:	d8 fd de 34 	sw      0xfdd8(r30),r6
    bc78:	01 00 a0 18 	ori     r5,r0,0x0001
    bc7c:	d4 fd be 34 	sw      0xfdd4(r30),r5
    bc80:	d8 fd de 30 	lw      r6,0xfdd8(r30)
    bc84:	e0 fd 9e 30 	lw      r4,0xfde0(r30)
    bc88:	02 20 06 00 	sub     r0,r6,r4
    bc8c:	03 00 40 41 	blo     0x0000bc98
    bc90:	00 00 a0 18 	ori     r5,r0,0x0000
    bc94:	d4 fd be 34 	sw      0xfdd4(r30),r5
    bc98:	e4 fd de 30 	lw      r6,0xfde4(r30)
    bc9c:	f0 fd 9e 30 	lw      r4,0xfdf0(r30)
    bca0:	00 20 c6 00 	add     r6,r6,r4
    bca4:	dc fd de 34 	sw      0xfddc(r30),r6
    bca8:	d4 fd be 30 	lw      r5,0xfdd4(r30)
    bcac:	dc fd de 30 	lw      r6,0xfddc(r30)
    bcb0:	00 30 85 00 	add     r4,r5,r6
    bcb4:	dc fd 9e 34 	sw      0xfddc(r30),r4
    bcb8:	d8 fd 9e 30 	lw      r4,0xfdd8(r30)
    bcbc:	50 ff 9e 34 	sw      0xff50(r30),r4
    bcc0:	dc fd be 30 	lw      r5,0xfddc(r30)
    bcc4:	54 ff be 34 	sw      0xff54(r30),r5
    bcc8:	50 ff 9e 30 	lw      r4,0xff50(r30)
    bccc:	88 ff 9e 34 	sw      0xff88(r30),r4
    bcd0:	54 ff 9e 30 	lw      r4,0xff54(r30)
    bcd4:	8c ff 9e 34 	sw      0xff8c(r30),r4
    bcd8:	48 ff 9e 30 	lw      r4,0xff48(r30)
    bcdc:	90 ff 9e 34 	sw      0xff90(r30),r4
    bce0:	4c ff 9e 30 	lw      r4,0xff4c(r30)
    bce4:	94 ff 9e 34 	sw      0xff94(r30),r4
    bce8:	9c ff fe 30 	lw      r7,0xff9c(r30)
    bcec:	a4 ff 9e 30 	lw      r4,0xffa4(r30)
    bcf0:	a0 ff be 30 	lw      r5,0xffa0(r30)
    bcf4:	08 00 c4 30 	lw      r6,0x0008(r4)
    bcf8:	08 00 85 30 	lw      r4,0x0008(r5)
    bcfc:	00 20 86 00 	add     r4,r6,r4
    bd00:	04 00 84 04 	addi    r4,r4,0x0004
    bd04:	08 00 87 34 	sw      0x0008(r7),r4
    bd08:	9c ff de 30 	lw      r6,0xff9c(r30)
    bd0c:	d0 fd de 34 	sw      0xfdd0(r30),r6
    bd10:	00 00 80 18 	ori     r4,r0,0x0000
    bd14:	cc fd 9e 34 	sw      0xfdcc(r30),r4
    bd18:	a4 ff 9e 30 	lw      r4,0xffa4(r30)
    bd1c:	a0 ff be 30 	lw      r5,0xffa0(r30)
    bd20:	04 00 c4 30 	lw      r6,0x0004(r4)
    bd24:	04 00 85 30 	lw      r4,0x0004(r5)
    bd28:	02 20 06 00 	sub     r0,r6,r4
    bd2c:	03 00 00 40 	beq     0x0000bd38
    bd30:	01 00 a0 18 	ori     r5,r0,0x0001
    bd34:	cc fd be 34 	sw      0xfdcc(r30),r5
    bd38:	cc fd 9e 30 	lw      r4,0xfdcc(r30)
    bd3c:	d0 fd de 30 	lw      r6,0xfdd0(r30)
    bd40:	04 00 86 34 	sw      0x0004(r6),r4
    bd44:	8c ff be 30 	lw      r5,0xff8c(r30)
    bd48:	ff 1f 80 2c 	ldih    r4,0x1fff
    bd4c:	ff ff 84 18 	ori     r4,r4,0xffff
    bd50:	02 20 05 00 	sub     r0,r5,r4
    bd54:	07 00 00 42 	bhi     0x0000bd70
    bd58:	8c ff be 30 	lw      r5,0xff8c(r30)
    bd5c:	ff 1f 80 2c 	ldih    r4,0x1fff
    bd60:	ff ff 84 18 	ori     r4,r4,0xffff
    bd64:	02 20 05 00 	sub     r0,r5,r4
    bd68:	38 00 40 40 	bne     0x0000be48
    bd6c:	92 2f 00 80 	ajmp    0x0000be48
    bd70:	9c ff be 30 	lw      r5,0xff9c(r30)
    bd74:	9c ff 9e 30 	lw      r4,0xff9c(r30)
    bd78:	08 00 84 30 	lw      r4,0x0008(r4)
    bd7c:	01 00 84 04 	addi    r4,r4,0x0001
    bd80:	08 00 85 34 	sw      0x0008(r5),r4
    bd84:	88 ff 9e 30 	lw      r4,0xff88(r30)
    bd88:	8c ff be 30 	lw      r5,0xff8c(r30)
    bd8c:	01 00 84 14 	andi    r4,r4,0x0001
    bd90:	c4 fd 9e 34 	sw      0xfdc4(r30),r4
    bd94:	00 00 a5 14 	andi    r5,r5,0x0000
    bd98:	c8 fd be 34 	sw      0xfdc8(r30),r5
    bd9c:	c4 fd be 30 	lw      r5,0xfdc4(r30)
    bda0:	00 00 80 18 	ori     r4,r0,0x0000
    bda4:	02 20 05 00 	sub     r0,r5,r4
    bda8:	1a 00 00 40 	beq     0x0000be10
    bdac:	94 ff 9e 30 	lw      r4,0xff94(r30)
    bdb0:	1f 00 c4 20 	lsli    r6,r4,0x001f
    bdb4:	90 ff 9e 30 	lw      r4,0xff90(r30)
    bdb8:	01 00 84 24 	lsri    r4,r4,0x0001
    bdbc:	94 ff be 30 	lw      r5,0xff94(r30)
    bdc0:	05 20 c6 00 	orr     r6,r6,r4
    bdc4:	bc fd de 34 	sw      0xfdbc(r30),r6
    bdc8:	01 00 a5 24 	lsri    r5,r5,0x0001
    bdcc:	c0 fd be 34 	sw      0xfdc0(r30),r5
    bdd0:	bc fd be 30 	lw      r5,0xfdbc(r30)
    bdd4:	90 ff be 34 	sw      0xff90(r30),r5
    bdd8:	c0 fd de 30 	lw      r6,0xfdc0(r30)
    bddc:	94 ff de 34 	sw      0xff94(r30),r6
    bde0:	90 ff be 30 	lw      r5,0xff90(r30)
    bde4:	94 ff de 30 	lw      r6,0xff94(r30)
    bde8:	00 80 80 2c 	ldih    r4,0x8000
    bdec:	00 00 84 18 	ori     r4,r4,0x0000
    bdf0:	00 00 a5 18 	ori     r5,r5,0x0000
    bdf4:	b4 fd be 34 	sw      0xfdb4(r30),r5
    bdf8:	05 20 c6 00 	orr     r6,r6,r4
    bdfc:	b8 fd de 34 	sw      0xfdb8(r30),r6
    be00:	b4 fd 9e 30 	lw      r4,0xfdb4(r30)
    be04:	90 ff 9e 34 	sw      0xff90(r30),r4
    be08:	b8 fd be 30 	lw      r5,0xfdb8(r30)
    be0c:	94 ff be 34 	sw      0xff94(r30),r5
    be10:	8c ff 9e 30 	lw      r4,0xff8c(r30)
    be14:	1f 00 c4 20 	lsli    r6,r4,0x001f
    be18:	88 ff 9e 30 	lw      r4,0xff88(r30)
    be1c:	01 00 84 24 	lsri    r4,r4,0x0001
    be20:	8c ff be 30 	lw      r5,0xff8c(r30)
    be24:	05 20 c6 00 	orr     r6,r6,r4
    be28:	ac fd de 34 	sw      0xfdac(r30),r6
    be2c:	01 00 a5 24 	lsri    r5,r5,0x0001
    be30:	b0 fd be 34 	sw      0xfdb0(r30),r5
    be34:	ac fd de 30 	lw      r6,0xfdac(r30)
    be38:	88 ff de 34 	sw      0xff88(r30),r6
    be3c:	b0 fd 9e 30 	lw      r4,0xfdb0(r30)
    be40:	8c ff 9e 34 	sw      0xff8c(r30),r4
    be44:	51 2f 00 80 	ajmp    0x0000bd44
    be48:	8c ff be 30 	lw      r5,0xff8c(r30)
    be4c:	ff 0f 80 2c 	ldih    r4,0x0fff
    be50:	ff ff 84 18 	ori     r4,r4,0xffff
    be54:	02 20 05 00 	sub     r0,r5,r4
    be58:	34 00 00 42 	bhi     0x0000bf28
    be5c:	9c ff be 30 	lw      r5,0xff9c(r30)
    be60:	9c ff 9e 30 	lw      r4,0xff9c(r30)
    be64:	08 00 84 30 	lw      r4,0x0008(r4)
    be68:	ff ff 84 04 	addi    r4,r4,0xffff
    be6c:	08 00 85 34 	sw      0x0008(r5),r4
    be70:	88 ff 9e 30 	lw      r4,0xff88(r30)
    be74:	1f 00 c4 24 	lsri    r6,r4,0x001f
    be78:	8c ff 9e 30 	lw      r4,0xff8c(r30)
    be7c:	01 00 84 20 	lsli    r4,r4,0x0001
    be80:	88 ff be 30 	lw      r5,0xff88(r30)
    be84:	05 20 c6 00 	orr     r6,r6,r4
    be88:	a8 fd de 34 	sw      0xfda8(r30),r6
    be8c:	01 00 a5 20 	lsli    r5,r5,0x0001
    be90:	a4 fd be 34 	sw      0xfda4(r30),r5
    be94:	a4 fd be 30 	lw      r5,0xfda4(r30)
    be98:	88 ff be 34 	sw      0xff88(r30),r5
    be9c:	a8 fd de 30 	lw      r6,0xfda8(r30)
    bea0:	8c ff de 34 	sw      0xff8c(r30),r6
    bea4:	94 ff be 30 	lw      r5,0xff94(r30)
    bea8:	00 00 80 18 	ori     r4,r0,0x0000
    beac:	02 20 05 00 	sub     r0,r5,r4
    beb0:	06 00 c0 42 	blt     0x0000bec8
    beb4:	94 ff be 30 	lw      r5,0xff94(r30)
    beb8:	00 00 80 18 	ori     r4,r0,0x0000
    bebc:	02 20 05 00 	sub     r0,r5,r4
    bec0:	0c 00 40 40 	bne     0x0000bef0
    bec4:	bc 2f 00 80 	ajmp    0x0000bef0
    bec8:	88 ff 9e 30 	lw      r4,0xff88(r30)
    becc:	8c ff be 30 	lw      r5,0xff8c(r30)
    bed0:	01 00 84 18 	ori     r4,r4,0x0001
    bed4:	9c fd 9e 34 	sw      0xfd9c(r30),r4
    bed8:	00 00 a5 18 	ori     r5,r5,0x0000
    bedc:	a0 fd be 34 	sw      0xfda0(r30),r5
    bee0:	9c fd 9e 30 	lw      r4,0xfd9c(r30)
    bee4:	88 ff 9e 34 	sw      0xff88(r30),r4
    bee8:	a0 fd be 30 	lw      r5,0xfda0(r30)
    beec:	8c ff be 34 	sw      0xff8c(r30),r5
    bef0:	90 ff 9e 30 	lw      r4,0xff90(r30)
    bef4:	1f 00 c4 24 	lsri    r6,r4,0x001f
    bef8:	94 ff 9e 30 	lw      r4,0xff94(r30)
    befc:	01 00 84 20 	lsli    r4,r4,0x0001
    bf00:	90 ff be 30 	lw      r5,0xff90(r30)
    bf04:	05 20 c6 00 	orr     r6,r6,r4
    bf08:	98 fd de 34 	sw      0xfd98(r30),r6
    bf0c:	01 00 a5 20 	lsli    r5,r5,0x0001
    bf10:	94 fd be 34 	sw      0xfd94(r30),r5
    bf14:	94 fd de 30 	lw      r6,0xfd94(r30)
    bf18:	90 ff de 34 	sw      0xff90(r30),r6
    bf1c:	98 fd 9e 30 	lw      r4,0xfd98(r30)
    bf20:	94 ff 9e 34 	sw      0xff94(r30),r4
    bf24:	92 2f 00 80 	ajmp    0x0000be48
    bf28:	88 ff 9e 30 	lw      r4,0xff88(r30)
    bf2c:	8c ff be 30 	lw      r5,0xff8c(r30)
    bf30:	ff 00 84 14 	andi    r4,r4,0x00ff
    bf34:	8c fd 9e 34 	sw      0xfd8c(r30),r4
    bf38:	00 00 a5 14 	andi    r5,r5,0x0000
    bf3c:	90 fd be 34 	sw      0xfd90(r30),r5
    bf40:	80 00 80 18 	ori     r4,r0,0x0080
    bf44:	8c fd be 30 	lw      r5,0xfd8c(r30)
    bf48:	02 20 05 00 	sub     r0,r5,r4
    bf4c:	5a 00 40 40 	bne     0x0000c0b4
    bf50:	00 00 80 18 	ori     r4,r0,0x0000
    bf54:	90 fd de 30 	lw      r6,0xfd90(r30)
    bf58:	02 20 06 00 	sub     r0,r6,r4
    bf5c:	56 00 40 40 	bne     0x0000c0b4
    bf60:	8c ff 9e 30 	lw      r4,0xff8c(r30)
    bf64:	18 00 c4 20 	lsli    r6,r4,0x0018
    bf68:	88 ff 9e 30 	lw      r4,0xff88(r30)
    bf6c:	08 00 84 24 	lsri    r4,r4,0x0008
    bf70:	8c ff be 30 	lw      r5,0xff8c(r30)
    bf74:	05 20 c6 00 	orr     r6,r6,r4
    bf78:	84 fd de 34 	sw      0xfd84(r30),r6
    bf7c:	08 00 a5 24 	lsri    r5,r5,0x0008
    bf80:	88 fd be 34 	sw      0xfd88(r30),r5
    bf84:	84 fd 9e 30 	lw      r4,0xfd84(r30)
    bf88:	01 00 a4 14 	andi    r5,r4,0x0001
    bf8c:	00 00 80 18 	ori     r4,r0,0x0000
    bf90:	02 20 05 00 	sub     r0,r5,r4
    bf94:	22 00 00 40 	beq     0x0000c01c
    bf98:	88 ff be 30 	lw      r5,0xff88(r30)
    bf9c:	7c fd be 34 	sw      0xfd7c(r30),r5
    bfa0:	8c ff de 30 	lw      r6,0xff8c(r30)
    bfa4:	80 fd de 34 	sw      0xfd80(r30),r6
    bfa8:	80 00 80 18 	ori     r4,r0,0x0080
    bfac:	74 fd 9e 34 	sw      0xfd74(r30),r4
    bfb0:	00 00 a0 18 	ori     r5,r0,0x0000
    bfb4:	78 fd be 34 	sw      0xfd78(r30),r5
    bfb8:	7c fd de 30 	lw      r6,0xfd7c(r30)
    bfbc:	74 fd 9e 30 	lw      r4,0xfd74(r30)
    bfc0:	00 20 c6 00 	add     r6,r6,r4
    bfc4:	6c fd de 34 	sw      0xfd6c(r30),r6
    bfc8:	01 00 a0 18 	ori     r5,r0,0x0001
    bfcc:	68 fd be 34 	sw      0xfd68(r30),r5
    bfd0:	6c fd de 30 	lw      r6,0xfd6c(r30)
    bfd4:	7c fd 9e 30 	lw      r4,0xfd7c(r30)
    bfd8:	02 20 06 00 	sub     r0,r6,r4
    bfdc:	03 00 40 41 	blo     0x0000bfe8
    bfe0:	00 00 a0 18 	ori     r5,r0,0x0000
    bfe4:	68 fd be 34 	sw      0xfd68(r30),r5
    bfe8:	80 fd de 30 	lw      r6,0xfd80(r30)
    bfec:	78 fd 9e 30 	lw      r4,0xfd78(r30)
    bff0:	00 20 c6 00 	add     r6,r6,r4
    bff4:	70 fd de 34 	sw      0xfd70(r30),r6
    bff8:	68 fd be 30 	lw      r5,0xfd68(r30)
    bffc:	70 fd de 30 	lw      r6,0xfd70(r30)
    c000:	00 30 85 00 	add     r4,r5,r6
    c004:	70 fd 9e 34 	sw      0xfd70(r30),r4
    c008:	6c fd 9e 30 	lw      r4,0xfd6c(r30)
    c00c:	88 ff 9e 34 	sw      0xff88(r30),r4
    c010:	70 fd be 30 	lw      r5,0xfd70(r30)
    c014:	8c ff be 34 	sw      0xff8c(r30),r5
    c018:	2d 30 00 80 	ajmp    0x0000c0b4
    c01c:	90 ff 9e 30 	lw      r4,0xff90(r30)
    c020:	94 ff be 30 	lw      r5,0xff94(r30)
    c024:	05 28 84 00 	orr     r4,r4,r5
    c028:	00 00 a0 18 	ori     r5,r0,0x0000
    c02c:	02 28 04 00 	sub     r0,r4,r5
    c030:	21 00 00 40 	beq     0x0000c0b4
    c034:	88 ff de 30 	lw      r6,0xff88(r30)
    c038:	60 fd de 34 	sw      0xfd60(r30),r6
    c03c:	8c ff 9e 30 	lw      r4,0xff8c(r30)
    c040:	64 fd 9e 34 	sw      0xfd64(r30),r4
    c044:	80 00 a0 18 	ori     r5,r0,0x0080
    c048:	58 fd be 34 	sw      0xfd58(r30),r5
    c04c:	00 00 c0 18 	ori     r6,r0,0x0000
    c050:	5c fd de 34 	sw      0xfd5c(r30),r6
    c054:	60 fd 9e 30 	lw      r4,0xfd60(r30)
    c058:	58 fd be 30 	lw      r5,0xfd58(r30)
    c05c:	00 28 84 00 	add     r4,r4,r5
    c060:	50 fd 9e 34 	sw      0xfd50(r30),r4
    c064:	01 00 c0 18 	ori     r6,r0,0x0001
    c068:	4c fd de 34 	sw      0xfd4c(r30),r6
    c06c:	50 fd 9e 30 	lw      r4,0xfd50(r30)
    c070:	60 fd be 30 	lw      r5,0xfd60(r30)
    c074:	02 28 04 00 	sub     r0,r4,r5
    c078:	03 00 40 41 	blo     0x0000c084
    c07c:	00 00 c0 18 	ori     r6,r0,0x0000
    c080:	4c fd de 34 	sw      0xfd4c(r30),r6
    c084:	64 fd 9e 30 	lw      r4,0xfd64(r30)
    c088:	5c fd be 30 	lw      r5,0xfd5c(r30)
    c08c:	00 28 84 00 	add     r4,r4,r5
    c090:	54 fd 9e 34 	sw      0xfd54(r30),r4
    c094:	4c fd de 30 	lw      r6,0xfd4c(r30)
    c098:	54 fd be 30 	lw      r5,0xfd54(r30)
    c09c:	00 28 86 00 	add     r4,r6,r5
    c0a0:	54 fd 9e 34 	sw      0xfd54(r30),r4
    c0a4:	50 fd de 30 	lw      r6,0xfd50(r30)
    c0a8:	88 ff de 34 	sw      0xff88(r30),r6
    c0ac:	54 fd 9e 30 	lw      r4,0xfd54(r30)
    c0b0:	8c ff 9e 34 	sw      0xff8c(r30),r4
    c0b4:	9c ff be 30 	lw      r5,0xff9c(r30)
    c0b8:	88 ff 9e 30 	lw      r4,0xff88(r30)
    c0bc:	0c 00 85 34 	sw      0x000c(r5),r4
    c0c0:	8c ff 9e 30 	lw      r4,0xff8c(r30)
    c0c4:	10 00 85 34 	sw      0x0010(r5),r4
    c0c8:	9c ff be 30 	lw      r5,0xff9c(r30)
    c0cc:	03 00 80 18 	ori     r4,r0,0x0003
    c0d0:	00 00 85 34 	sw      0x0000(r5),r4
    c0d4:	9c ff 9e 30 	lw      r4,0xff9c(r30)
    c0d8:	98 ff 9e 34 	sw      0xff98(r30),r4
    c0dc:	98 ff 9e 30 	lw      r4,0xff98(r30)
    c0e0:	b8 ff 9e 34 	sw      0xffb8(r30),r4
    c0e4:	3c ff 9e 30 	lw      r4,0xff3c(r30)
    c0e8:	b8 ff be 30 	lw      r5,0xffb8(r30)
    c0ec:	14 34 00 c0 	ajal    0x0000d050
    c0f0:	3c ff 5e 30 	lw      r2,0xff3c(r30)
    c0f4:	bc 02 bd 07 	addi    r29,r29,0x02bc
    c0f8:	05 f0 a0 03 	orr     r29,r0,r30
    c0fc:	08 00 bd 07 	addi    r29,r29,0x0008
    c100:	fc ff fd 33 	lw      r31,0xfffc(r29)
    c104:	f8 ff dd 33 	lw      r30,0xfff8(r29)
    c108:	00 00 e0 47 	jmpr    r31
    c10c:	00 00 00 00 	nop

0000c110 <nan>:
    c110:	fc ff dd 37 	sw      0xfffc(r29),r30
    c114:	fc ff bd 07 	addi    r29,r29,0xfffc
    c118:	05 e8 c0 03 	orr     r30,r0,r29
    c11c:	01 00 80 2c 	ldih    r4,0x0001
    c120:	60 73 84 18 	ori     r4,r4,0x7360
    c124:	05 20 40 00 	orr     r2,r0,r4
    c128:	05 f0 a0 03 	orr     r29,r0,r30
    c12c:	04 00 bd 07 	addi    r29,r29,0x0004
    c130:	fc ff dd 33 	lw      r30,0xfffc(r29)
    c134:	00 00 e0 47 	jmpr    r31
    c138:	00 00 00 00 	nop
    c13c:	00 00 00 00 	nop

0000c140 <iszero>:
    c140:	fc ff dd 37 	sw      0xfffc(r29),r30
    c144:	fc ff bd 07 	addi    r29,r29,0xfffc
    c148:	05 e8 c0 03 	orr     r30,r0,r29
    c14c:	f8 ff bd 07 	addi    r29,r29,0xfff8
    c150:	fc ff 9e 34 	sw      0xfffc(r30),r4
    c154:	00 00 80 18 	ori     r4,r0,0x0000
    c158:	f8 ff 9e 34 	sw      0xfff8(r30),r4
    c15c:	fc ff 9e 30 	lw      r4,0xfffc(r30)
    c160:	00 00 a4 30 	lw      r5,0x0000(r4)
    c164:	02 00 80 18 	ori     r4,r0,0x0002
    c168:	02 20 05 00 	sub     r0,r5,r4
    c16c:	03 00 40 40 	bne     0x0000c178
    c170:	01 00 80 18 	ori     r4,r0,0x0001
    c174:	f8 ff 9e 34 	sw      0xfff8(r30),r4
    c178:	f8 ff 9e 30 	lw      r4,0xfff8(r30)
    c17c:	05 20 40 00 	orr     r2,r0,r4
    c180:	08 00 bd 07 	addi    r29,r29,0x0008
    c184:	05 f0 a0 03 	orr     r29,r0,r30
    c188:	04 00 bd 07 	addi    r29,r29,0x0004
    c18c:	fc ff dd 33 	lw      r30,0xfffc(r29)
    c190:	00 00 e0 47 	jmpr    r31
    c194:	00 00 00 00 	nop
    c198:	00 00 00 00 	nop
    c19c:	00 00 00 00 	nop

0000c1a0 <isinf>:
    c1a0:	fc ff dd 37 	sw      0xfffc(r29),r30
    c1a4:	fc ff bd 07 	addi    r29,r29,0xfffc
    c1a8:	05 e8 c0 03 	orr     r30,r0,r29
    c1ac:	f8 ff bd 07 	addi    r29,r29,0xfff8
    c1b0:	fc ff 9e 34 	sw      0xfffc(r30),r4
    c1b4:	00 00 80 18 	ori     r4,r0,0x0000
    c1b8:	f8 ff 9e 34 	sw      0xfff8(r30),r4
    c1bc:	fc ff 9e 30 	lw      r4,0xfffc(r30)
    c1c0:	00 00 a4 30 	lw      r5,0x0000(r4)
    c1c4:	04 00 80 18 	ori     r4,r0,0x0004
    c1c8:	02 20 05 00 	sub     r0,r5,r4
    c1cc:	03 00 40 40 	bne     0x0000c1d8
    c1d0:	01 00 80 18 	ori     r4,r0,0x0001
    c1d4:	f8 ff 9e 34 	sw      0xfff8(r30),r4
    c1d8:	f8 ff 9e 30 	lw      r4,0xfff8(r30)
    c1dc:	05 20 40 00 	orr     r2,r0,r4
    c1e0:	08 00 bd 07 	addi    r29,r29,0x0008
    c1e4:	05 f0 a0 03 	orr     r29,r0,r30
    c1e8:	04 00 bd 07 	addi    r29,r29,0x0004
    c1ec:	fc ff dd 33 	lw      r30,0xfffc(r29)
    c1f0:	00 00 e0 47 	jmpr    r31
    c1f4:	00 00 00 00 	nop
    c1f8:	00 00 00 00 	nop
    c1fc:	00 00 00 00 	nop

0000c200 <isnan>:
    c200:	fc ff dd 37 	sw      0xfffc(r29),r30
    c204:	fc ff bd 07 	addi    r29,r29,0xfffc
    c208:	05 e8 c0 03 	orr     r30,r0,r29
    c20c:	f8 ff bd 07 	addi    r29,r29,0xfff8
    c210:	fc ff 9e 34 	sw      0xfffc(r30),r4
    c214:	00 00 80 18 	ori     r4,r0,0x0000
    c218:	f8 ff 9e 34 	sw      0xfff8(r30),r4
    c21c:	fc ff 9e 30 	lw      r4,0xfffc(r30)
    c220:	00 00 a4 30 	lw      r5,0x0000(r4)
    c224:	00 00 80 18 	ori     r4,r0,0x0000
    c228:	02 20 05 00 	sub     r0,r5,r4
    c22c:	07 00 00 40 	beq     0x0000c248
    c230:	fc ff 9e 30 	lw      r4,0xfffc(r30)
    c234:	00 00 a4 30 	lw      r5,0x0000(r4)
    c238:	01 00 80 18 	ori     r4,r0,0x0001
    c23c:	02 20 05 00 	sub     r0,r5,r4
    c240:	02 00 00 40 	beq     0x0000c248
    c244:	94 30 00 80 	ajmp    0x0000c250
    c248:	01 00 80 18 	ori     r4,r0,0x0001
    c24c:	f8 ff 9e 34 	sw      0xfff8(r30),r4
    c250:	f8 ff 9e 30 	lw      r4,0xfff8(r30)
    c254:	05 20 40 00 	orr     r2,r0,r4
    c258:	08 00 bd 07 	addi    r29,r29,0x0008
    c25c:	05 f0 a0 03 	orr     r29,r0,r30
    c260:	04 00 bd 07 	addi    r29,r29,0x0004
    c264:	fc ff dd 33 	lw      r30,0xfffc(r29)
    c268:	00 00 e0 47 	jmpr    r31
    c26c:	00 00 00 00 	nop

0000c270 <__fixunsdfsi>:
    c270:	fc ff fd 37 	sw      0xfffc(r29),r31
    c274:	f8 ff dd 37 	sw      0xfff8(r29),r30
    c278:	f8 ff bd 07 	addi    r29,r29,0xfff8
    c27c:	05 e8 c0 03 	orr     r30,r0,r29
    c280:	dc ff bd 07 	addi    r29,r29,0xffdc
    c284:	f8 ff 9e 34 	sw      0xfff8(r30),r4
    c288:	fc ff be 34 	sw      0xfffc(r30),r5
    c28c:	f8 ff 9e 30 	lw      r4,0xfff8(r30)
    c290:	fc ff be 30 	lw      r5,0xfffc(r30)
    c294:	00 00 c0 18 	ori     r6,r0,0x0000
    c298:	e0 41 e0 2c 	ldih    r7,0x41e0
    c29c:	00 00 e7 18 	ori     r7,r7,0x0000
    c2a0:	24 31 00 c0 	ajal    0x0000c490
    c2a4:	05 10 a0 00 	orr     r5,r0,r2
    c2a8:	00 00 80 18 	ori     r4,r0,0x0000
    c2ac:	02 20 05 00 	sub     r0,r5,r4
    c2b0:	02 00 80 42 	bge     0x0000c2b8
    c2b4:	c5 30 00 80 	ajmp    0x0000c314
    c2b8:	f0 ff de 04 	addi    r6,r30,0xfff0
    c2bc:	00 00 80 18 	ori     r4,r0,0x0000
    c2c0:	e0 c1 a0 2c 	ldih    r5,0xc1e0
    c2c4:	00 00 a5 18 	ori     r5,r5,0x0000
    c2c8:	00 00 9d 34 	sw      0x0000(r29),r4
    c2cc:	04 00 bd 34 	sw      0x0004(r29),r5
    c2d0:	05 30 80 00 	orr     r4,r0,r6
    c2d4:	f8 ff be 30 	lw      r5,0xfff8(r30)
    c2d8:	fc ff de 30 	lw      r6,0xfffc(r30)
    c2dc:	88 2b 00 c0 	ajal    0x0000ae20
    c2e0:	f0 ff 9e 30 	lw      r4,0xfff0(r30)
    c2e4:	e4 ff 9e 34 	sw      0xffe4(r30),r4
    c2e8:	f4 ff 9e 30 	lw      r4,0xfff4(r30)
    c2ec:	e8 ff 9e 34 	sw      0xffe8(r30),r4
    c2f0:	e4 ff 9e 30 	lw      r4,0xffe4(r30)
    c2f4:	e8 ff be 30 	lw      r5,0xffe8(r30)
    c2f8:	dc 2b 00 c0 	ajal    0x0000af70
    c2fc:	05 10 80 00 	orr     r4,r0,r2
    c300:	00 80 a0 2c 	ldih    r5,0x8000
    c304:	00 00 a5 18 	ori     r5,r5,0x0000
    c308:	00 28 84 00 	add     r4,r4,r5
    c30c:	ec ff 9e 34 	sw      0xffec(r30),r4
    c310:	ca 30 00 80 	ajmp    0x0000c328
    c314:	f8 ff 9e 30 	lw      r4,0xfff8(r30)
    c318:	fc ff be 30 	lw      r5,0xfffc(r30)
    c31c:	dc 2b 00 c0 	ajal    0x0000af70
    c320:	05 10 80 00 	orr     r4,r0,r2
    c324:	ec ff 9e 34 	sw      0xffec(r30),r4
    c328:	ec ff 5e 30 	lw      r2,0xffec(r30)
    c32c:	24 00 bd 07 	addi    r29,r29,0x0024
    c330:	05 f0 a0 03 	orr     r29,r0,r30
    c334:	08 00 bd 07 	addi    r29,r29,0x0008
    c338:	fc ff fd 33 	lw      r31,0xfffc(r29)
    c33c:	f8 ff dd 33 	lw      r30,0xfff8(r29)
    c340:	00 00 e0 47 	jmpr    r31
    c344:	00 00 00 00 	nop
    c348:	00 00 00 00 	nop
    c34c:	00 00 00 00 	nop

0000c350 <__gtdf2>:
    c350:	fc ff fd 37 	sw      0xfffc(r29),r31
    c354:	f8 ff dd 37 	sw      0xfff8(r29),r30
    c358:	f8 ff bd 07 	addi    r29,r29,0xfff8
    c35c:	05 e8 c0 03 	orr     r30,r0,r29
    c360:	b4 ff bd 07 	addi    r29,r29,0xffb4
    c364:	f8 ff 9e 34 	sw      0xfff8(r30),r4
    c368:	fc ff be 34 	sw      0xfffc(r30),r5
    c36c:	f0 ff de 34 	sw      0xfff0(r30),r6
    c370:	f4 ff fe 34 	sw      0xfff4(r30),r7
    c374:	f8 ff 9e 30 	lw      r4,0xfff8(r30)
    c378:	c0 ff 9e 34 	sw      0xffc0(r30),r4
    c37c:	fc ff 9e 30 	lw      r4,0xfffc(r30)
    c380:	c4 ff 9e 34 	sw      0xffc4(r30),r4
    c384:	f0 ff 9e 30 	lw      r4,0xfff0(r30)
    c388:	b8 ff 9e 34 	sw      0xffb8(r30),r4
    c38c:	f4 ff 9e 30 	lw      r4,0xfff4(r30)
    c390:	bc ff 9e 34 	sw      0xffbc(r30),r4
    c394:	c0 ff 9e 04 	addi    r4,r30,0xffc0
    c398:	dc ff be 04 	addi    r5,r30,0xffdc
    c39c:	c4 31 00 c0 	ajal    0x0000c710
    c3a0:	b8 ff 9e 04 	addi    r4,r30,0xffb8
    c3a4:	c8 ff be 04 	addi    r5,r30,0xffc8
    c3a8:	c4 31 00 c0 	ajal    0x0000c710
    c3ac:	dc ff 9e 04 	addi    r4,r30,0xffdc
    c3b0:	08 31 00 c0 	ajal    0x0000c420
    c3b4:	05 10 a0 00 	orr     r5,r0,r2
    c3b8:	00 00 80 18 	ori     r4,r0,0x0000
    c3bc:	02 20 05 00 	sub     r0,r5,r4
    c3c0:	08 00 40 40 	bne     0x0000c3e0
    c3c4:	c8 ff 9e 04 	addi    r4,r30,0xffc8
    c3c8:	08 31 00 c0 	ajal    0x0000c420
    c3cc:	05 10 a0 00 	orr     r5,r0,r2
    c3d0:	00 00 80 18 	ori     r4,r0,0x0000
    c3d4:	02 20 05 00 	sub     r0,r5,r4
    c3d8:	02 00 40 40 	bne     0x0000c3e0
    c3dc:	fc 30 00 80 	ajmp    0x0000c3f0
    c3e0:	ff ff 80 2c 	ldih    r4,0xffff
    c3e4:	ff ff 84 18 	ori     r4,r4,0xffff
    c3e8:	b4 ff 9e 34 	sw      0xffb4(r30),r4
    c3ec:	01 31 00 80 	ajmp    0x0000c404
    c3f0:	dc ff 9e 04 	addi    r4,r30,0xffdc
    c3f4:	c8 ff be 04 	addi    r5,r30,0xffc8
    c3f8:	80 32 00 c0 	ajal    0x0000ca00
    c3fc:	05 10 80 00 	orr     r4,r0,r2
    c400:	b4 ff 9e 34 	sw      0xffb4(r30),r4
    c404:	b4 ff 5e 30 	lw      r2,0xffb4(r30)
    c408:	4c 00 bd 07 	addi    r29,r29,0x004c
    c40c:	05 f0 a0 03 	orr     r29,r0,r30
    c410:	08 00 bd 07 	addi    r29,r29,0x0008
    c414:	fc ff fd 33 	lw      r31,0xfffc(r29)
    c418:	f8 ff dd 33 	lw      r30,0xfff8(r29)
    c41c:	00 00 e0 47 	jmpr    r31

0000c420 <isnan>:
    c420:	fc ff dd 37 	sw      0xfffc(r29),r30
    c424:	fc ff bd 07 	addi    r29,r29,0xfffc
    c428:	05 e8 c0 03 	orr     r30,r0,r29
    c42c:	f8 ff bd 07 	addi    r29,r29,0xfff8
    c430:	fc ff 9e 34 	sw      0xfffc(r30),r4
    c434:	00 00 80 18 	ori     r4,r0,0x0000
    c438:	f8 ff 9e 34 	sw      0xfff8(r30),r4
    c43c:	fc ff 9e 30 	lw      r4,0xfffc(r30)
    c440:	00 00 a4 30 	lw      r5,0x0000(r4)
    c444:	00 00 80 18 	ori     r4,r0,0x0000
    c448:	02 20 05 00 	sub     r0,r5,r4
    c44c:	07 00 00 40 	beq     0x0000c468
    c450:	fc ff 9e 30 	lw      r4,0xfffc(r30)
    c454:	00 00 a4 30 	lw      r5,0x0000(r4)
    c458:	01 00 80 18 	ori     r4,r0,0x0001
    c45c:	02 20 05 00 	sub     r0,r5,r4
    c460:	02 00 00 40 	beq     0x0000c468
    c464:	1c 31 00 80 	ajmp    0x0000c470
    c468:	01 00 80 18 	ori     r4,r0,0x0001
    c46c:	f8 ff 9e 34 	sw      0xfff8(r30),r4
    c470:	f8 ff 9e 30 	lw      r4,0xfff8(r30)
    c474:	05 20 40 00 	orr     r2,r0,r4
    c478:	08 00 bd 07 	addi    r29,r29,0x0008
    c47c:	05 f0 a0 03 	orr     r29,r0,r30
    c480:	04 00 bd 07 	addi    r29,r29,0x0004
    c484:	fc ff dd 33 	lw      r30,0xfffc(r29)
    c488:	00 00 e0 47 	jmpr    r31
    c48c:	00 00 00 00 	nop

0000c490 <__gedf2>:
    c490:	fc ff fd 37 	sw      0xfffc(r29),r31
    c494:	f8 ff dd 37 	sw      0xfff8(r29),r30
    c498:	f8 ff bd 07 	addi    r29,r29,0xfff8
    c49c:	05 e8 c0 03 	orr     r30,r0,r29
    c4a0:	b4 ff bd 07 	addi    r29,r29,0xffb4
    c4a4:	f8 ff 9e 34 	sw      0xfff8(r30),r4
    c4a8:	fc ff be 34 	sw      0xfffc(r30),r5
    c4ac:	f0 ff de 34 	sw      0xfff0(r30),r6
    c4b0:	f4 ff fe 34 	sw      0xfff4(r30),r7
    c4b4:	f8 ff 9e 30 	lw      r4,0xfff8(r30)
    c4b8:	c0 ff 9e 34 	sw      0xffc0(r30),r4
    c4bc:	fc ff 9e 30 	lw      r4,0xfffc(r30)
    c4c0:	c4 ff 9e 34 	sw      0xffc4(r30),r4
    c4c4:	f0 ff 9e 30 	lw      r4,0xfff0(r30)
    c4c8:	b8 ff 9e 34 	sw      0xffb8(r30),r4
    c4cc:	f4 ff 9e 30 	lw      r4,0xfff4(r30)
    c4d0:	bc ff 9e 34 	sw      0xffbc(r30),r4
    c4d4:	c0 ff 9e 04 	addi    r4,r30,0xffc0
    c4d8:	dc ff be 04 	addi    r5,r30,0xffdc
    c4dc:	c4 31 00 c0 	ajal    0x0000c710
    c4e0:	b8 ff 9e 04 	addi    r4,r30,0xffb8
    c4e4:	c8 ff be 04 	addi    r5,r30,0xffc8
    c4e8:	c4 31 00 c0 	ajal    0x0000c710
    c4ec:	dc ff 9e 04 	addi    r4,r30,0xffdc
    c4f0:	58 31 00 c0 	ajal    0x0000c560
    c4f4:	05 10 a0 00 	orr     r5,r0,r2
    c4f8:	00 00 80 18 	ori     r4,r0,0x0000
    c4fc:	02 20 05 00 	sub     r0,r5,r4
    c500:	08 00 40 40 	bne     0x0000c520
    c504:	c8 ff 9e 04 	addi    r4,r30,0xffc8
    c508:	58 31 00 c0 	ajal    0x0000c560
    c50c:	05 10 a0 00 	orr     r5,r0,r2
    c510:	00 00 80 18 	ori     r4,r0,0x0000
    c514:	02 20 05 00 	sub     r0,r5,r4
    c518:	02 00 40 40 	bne     0x0000c520
    c51c:	4c 31 00 80 	ajmp    0x0000c530
    c520:	ff ff 80 2c 	ldih    r4,0xffff
    c524:	ff ff 84 18 	ori     r4,r4,0xffff
    c528:	b4 ff 9e 34 	sw      0xffb4(r30),r4
    c52c:	51 31 00 80 	ajmp    0x0000c544
    c530:	dc ff 9e 04 	addi    r4,r30,0xffdc
    c534:	c8 ff be 04 	addi    r5,r30,0xffc8
    c538:	80 32 00 c0 	ajal    0x0000ca00
    c53c:	05 10 80 00 	orr     r4,r0,r2
    c540:	b4 ff 9e 34 	sw      0xffb4(r30),r4
    c544:	b4 ff 5e 30 	lw      r2,0xffb4(r30)
    c548:	4c 00 bd 07 	addi    r29,r29,0x004c
    c54c:	05 f0 a0 03 	orr     r29,r0,r30
    c550:	08 00 bd 07 	addi    r29,r29,0x0008
    c554:	fc ff fd 33 	lw      r31,0xfffc(r29)
    c558:	f8 ff dd 33 	lw      r30,0xfff8(r29)
    c55c:	00 00 e0 47 	jmpr    r31

0000c560 <isnan>:
    c560:	fc ff dd 37 	sw      0xfffc(r29),r30
    c564:	fc ff bd 07 	addi    r29,r29,0xfffc
    c568:	05 e8 c0 03 	orr     r30,r0,r29
    c56c:	f8 ff bd 07 	addi    r29,r29,0xfff8
    c570:	fc ff 9e 34 	sw      0xfffc(r30),r4
    c574:	00 00 80 18 	ori     r4,r0,0x0000
    c578:	f8 ff 9e 34 	sw      0xfff8(r30),r4
    c57c:	fc ff 9e 30 	lw      r4,0xfffc(r30)
    c580:	00 00 a4 30 	lw      r5,0x0000(r4)
    c584:	00 00 80 18 	ori     r4,r0,0x0000
    c588:	02 20 05 00 	sub     r0,r5,r4
    c58c:	07 00 00 40 	beq     0x0000c5a8
    c590:	fc ff 9e 30 	lw      r4,0xfffc(r30)
    c594:	00 00 a4 30 	lw      r5,0x0000(r4)
    c598:	01 00 80 18 	ori     r4,r0,0x0001
    c59c:	02 20 05 00 	sub     r0,r5,r4
    c5a0:	02 00 00 40 	beq     0x0000c5a8
    c5a4:	6c 31 00 80 	ajmp    0x0000c5b0
    c5a8:	01 00 80 18 	ori     r4,r0,0x0001
    c5ac:	f8 ff 9e 34 	sw      0xfff8(r30),r4
    c5b0:	f8 ff 9e 30 	lw      r4,0xfff8(r30)
    c5b4:	05 20 40 00 	orr     r2,r0,r4
    c5b8:	08 00 bd 07 	addi    r29,r29,0x0008
    c5bc:	05 f0 a0 03 	orr     r29,r0,r30
    c5c0:	04 00 bd 07 	addi    r29,r29,0x0004
    c5c4:	fc ff dd 33 	lw      r30,0xfffc(r29)
    c5c8:	00 00 e0 47 	jmpr    r31
    c5cc:	00 00 00 00 	nop

0000c5d0 <__eqdf2>:
    c5d0:	fc ff fd 37 	sw      0xfffc(r29),r31
    c5d4:	f8 ff dd 37 	sw      0xfff8(r29),r30
    c5d8:	f8 ff bd 07 	addi    r29,r29,0xfff8
    c5dc:	05 e8 c0 03 	orr     r30,r0,r29
    c5e0:	b4 ff bd 07 	addi    r29,r29,0xffb4
    c5e4:	f8 ff 9e 34 	sw      0xfff8(r30),r4
    c5e8:	fc ff be 34 	sw      0xfffc(r30),r5
    c5ec:	f0 ff de 34 	sw      0xfff0(r30),r6
    c5f0:	f4 ff fe 34 	sw      0xfff4(r30),r7
    c5f4:	f8 ff 9e 30 	lw      r4,0xfff8(r30)
    c5f8:	c0 ff 9e 34 	sw      0xffc0(r30),r4
    c5fc:	fc ff 9e 30 	lw      r4,0xfffc(r30)
    c600:	c4 ff 9e 34 	sw      0xffc4(r30),r4
    c604:	f0 ff 9e 30 	lw      r4,0xfff0(r30)
    c608:	b8 ff 9e 34 	sw      0xffb8(r30),r4
    c60c:	f4 ff 9e 30 	lw      r4,0xfff4(r30)
    c610:	bc ff 9e 34 	sw      0xffbc(r30),r4
    c614:	c0 ff 9e 04 	addi    r4,r30,0xffc0
    c618:	dc ff be 04 	addi    r5,r30,0xffdc
    c61c:	c4 31 00 c0 	ajal    0x0000c710
    c620:	b8 ff 9e 04 	addi    r4,r30,0xffb8
    c624:	c8 ff be 04 	addi    r5,r30,0xffc8
    c628:	c4 31 00 c0 	ajal    0x0000c710
    c62c:	dc ff 9e 04 	addi    r4,r30,0xffdc
    c630:	a8 31 00 c0 	ajal    0x0000c6a0
    c634:	05 10 a0 00 	orr     r5,r0,r2
    c638:	00 00 80 18 	ori     r4,r0,0x0000
    c63c:	02 20 05 00 	sub     r0,r5,r4
    c640:	08 00 40 40 	bne     0x0000c660
    c644:	c8 ff 9e 04 	addi    r4,r30,0xffc8
    c648:	a8 31 00 c0 	ajal    0x0000c6a0
    c64c:	05 10 a0 00 	orr     r5,r0,r2
    c650:	00 00 80 18 	ori     r4,r0,0x0000
    c654:	02 20 05 00 	sub     r0,r5,r4
    c658:	02 00 40 40 	bne     0x0000c660
    c65c:	9b 31 00 80 	ajmp    0x0000c66c
    c660:	01 00 80 18 	ori     r4,r0,0x0001
    c664:	b4 ff 9e 34 	sw      0xffb4(r30),r4
    c668:	a0 31 00 80 	ajmp    0x0000c680
    c66c:	dc ff 9e 04 	addi    r4,r30,0xffdc
    c670:	c8 ff be 04 	addi    r5,r30,0xffc8
    c674:	80 32 00 c0 	ajal    0x0000ca00
    c678:	05 10 80 00 	orr     r4,r0,r2
    c67c:	b4 ff 9e 34 	sw      0xffb4(r30),r4
    c680:	b4 ff 5e 30 	lw      r2,0xffb4(r30)
    c684:	4c 00 bd 07 	addi    r29,r29,0x004c
    c688:	05 f0 a0 03 	orr     r29,r0,r30
    c68c:	08 00 bd 07 	addi    r29,r29,0x0008
    c690:	fc ff fd 33 	lw      r31,0xfffc(r29)
    c694:	f8 ff dd 33 	lw      r30,0xfff8(r29)
    c698:	00 00 e0 47 	jmpr    r31
    c69c:	00 00 00 00 	nop

0000c6a0 <isnan>:
    c6a0:	fc ff dd 37 	sw      0xfffc(r29),r30
    c6a4:	fc ff bd 07 	addi    r29,r29,0xfffc
    c6a8:	05 e8 c0 03 	orr     r30,r0,r29
    c6ac:	f8 ff bd 07 	addi    r29,r29,0xfff8
    c6b0:	fc ff 9e 34 	sw      0xfffc(r30),r4
    c6b4:	00 00 80 18 	ori     r4,r0,0x0000
    c6b8:	f8 ff 9e 34 	sw      0xfff8(r30),r4
    c6bc:	fc ff 9e 30 	lw      r4,0xfffc(r30)
    c6c0:	00 00 a4 30 	lw      r5,0x0000(r4)
    c6c4:	00 00 80 18 	ori     r4,r0,0x0000
    c6c8:	02 20 05 00 	sub     r0,r5,r4
    c6cc:	07 00 00 40 	beq     0x0000c6e8
    c6d0:	fc ff 9e 30 	lw      r4,0xfffc(r30)
    c6d4:	00 00 a4 30 	lw      r5,0x0000(r4)
    c6d8:	01 00 80 18 	ori     r4,r0,0x0001
    c6dc:	02 20 05 00 	sub     r0,r5,r4
    c6e0:	02 00 00 40 	beq     0x0000c6e8
    c6e4:	bc 31 00 80 	ajmp    0x0000c6f0
    c6e8:	01 00 80 18 	ori     r4,r0,0x0001
    c6ec:	f8 ff 9e 34 	sw      0xfff8(r30),r4
    c6f0:	f8 ff 9e 30 	lw      r4,0xfff8(r30)
    c6f4:	05 20 40 00 	orr     r2,r0,r4
    c6f8:	08 00 bd 07 	addi    r29,r29,0x0008
    c6fc:	05 f0 a0 03 	orr     r29,r0,r30
    c700:	04 00 bd 07 	addi    r29,r29,0x0004
    c704:	fc ff dd 33 	lw      r30,0xfffc(r29)
    c708:	00 00 e0 47 	jmpr    r31
    c70c:	00 00 00 00 	nop

0000c710 <__unpack_d>:
    c710:	fc ff dd 37 	sw      0xfffc(r29),r30
    c714:	fc ff bd 07 	addi    r29,r29,0xfffc
    c718:	05 e8 c0 03 	orr     r30,r0,r29
    c71c:	98 ff bd 07 	addi    r29,r29,0xff98
    c720:	fc ff 9e 34 	sw      0xfffc(r30),r4
    c724:	f8 ff be 34 	sw      0xfff8(r30),r5
    c728:	fc ff 9e 30 	lw      r4,0xfffc(r30)
    c72c:	00 00 a4 30 	lw      r5,0x0000(r4)
    c730:	e0 ff be 34 	sw      0xffe0(r30),r5
    c734:	04 00 84 30 	lw      r4,0x0004(r4)
    c738:	e4 ff 9e 34 	sw      0xffe4(r30),r4
    c73c:	ff ff 80 2c 	ldih    r4,0xffff
    c740:	ff ff 84 18 	ori     r4,r4,0xffff
    c744:	e0 ff be 30 	lw      r5,0xffe0(r30)
    c748:	04 20 85 00 	and     r4,r5,r4
    c74c:	f0 ff 9e 34 	sw      0xfff0(r30),r4
    c750:	0f 00 80 2c 	ldih    r4,0x000f
    c754:	ff ff 84 18 	ori     r4,r4,0xffff
    c758:	e4 ff be 30 	lw      r5,0xffe4(r30)
    c75c:	04 20 85 00 	and     r4,r5,r4
    c760:	f4 ff 9e 34 	sw      0xfff4(r30),r4
    c764:	fc ff 9e 30 	lw      r4,0xfffc(r30)
    c768:	00 00 a4 30 	lw      r5,0x0000(r4)
    c76c:	d8 ff be 34 	sw      0xffd8(r30),r5
    c770:	04 00 84 30 	lw      r4,0x0004(r4)
    c774:	dc ff 9e 34 	sw      0xffdc(r30),r4
    c778:	dc ff 9e 30 	lw      r4,0xffdc(r30)
    c77c:	14 00 84 24 	lsri    r4,r4,0x0014
    c780:	d0 ff 9e 34 	sw      0xffd0(r30),r4
    c784:	00 00 a0 18 	ori     r5,r0,0x0000
    c788:	d4 ff be 34 	sw      0xffd4(r30),r5
    c78c:	d0 ff be 30 	lw      r5,0xffd0(r30)
    c790:	ff 07 85 14 	andi    r4,r5,0x07ff
    c794:	ec ff 9e 34 	sw      0xffec(r30),r4
    c798:	fc ff 9e 30 	lw      r4,0xfffc(r30)
    c79c:	00 00 a4 30 	lw      r5,0x0000(r4)
    c7a0:	c8 ff be 34 	sw      0xffc8(r30),r5
    c7a4:	04 00 84 30 	lw      r4,0x0004(r4)
    c7a8:	cc ff 9e 34 	sw      0xffcc(r30),r4
    c7ac:	cc ff 9e 30 	lw      r4,0xffcc(r30)
    c7b0:	1f 00 84 24 	lsri    r4,r4,0x001f
    c7b4:	c0 ff 9e 34 	sw      0xffc0(r30),r4
    c7b8:	00 00 a0 18 	ori     r5,r0,0x0000
    c7bc:	c4 ff be 34 	sw      0xffc4(r30),r5
    c7c0:	c0 ff be 30 	lw      r5,0xffc0(r30)
    c7c4:	01 00 85 14 	andi    r4,r5,0x0001
    c7c8:	e8 ff 9e 34 	sw      0xffe8(r30),r4
    c7cc:	f8 ff be 30 	lw      r5,0xfff8(r30)
    c7d0:	e8 ff 9e 30 	lw      r4,0xffe8(r30)
    c7d4:	04 00 85 34 	sw      0x0004(r5),r4
    c7d8:	ec ff be 30 	lw      r5,0xffec(r30)
    c7dc:	00 00 80 18 	ori     r4,r0,0x0000
    c7e0:	02 20 05 00 	sub     r0,r5,r4
    c7e4:	3d 00 40 40 	bne     0x0000c8d8
    c7e8:	f0 ff 9e 30 	lw      r4,0xfff0(r30)
    c7ec:	f4 ff be 30 	lw      r5,0xfff4(r30)
    c7f0:	05 28 84 00 	orr     r4,r4,r5
    c7f4:	00 00 a0 18 	ori     r5,r0,0x0000
    c7f8:	02 28 04 00 	sub     r0,r4,r5
    c7fc:	05 00 40 40 	bne     0x0000c810
    c800:	f8 ff be 30 	lw      r5,0xfff8(r30)
    c804:	02 00 80 18 	ori     r4,r0,0x0002
    c808:	00 00 85 34 	sw      0x0000(r5),r4
    c80c:	78 32 00 80 	ajmp    0x0000c9e0
    c810:	f8 ff be 30 	lw      r5,0xfff8(r30)
    c814:	ec ff 9e 30 	lw      r4,0xffec(r30)
    c818:	02 fc 84 04 	addi    r4,r4,0xfc02
    c81c:	08 00 85 34 	sw      0x0008(r5),r4
    c820:	f0 ff 9e 30 	lw      r4,0xfff0(r30)
    c824:	18 00 c4 24 	lsri    r6,r4,0x0018
    c828:	f4 ff 9e 30 	lw      r4,0xfff4(r30)
    c82c:	08 00 84 20 	lsli    r4,r4,0x0008
    c830:	f0 ff be 30 	lw      r5,0xfff0(r30)
    c834:	05 20 c6 00 	orr     r6,r6,r4
    c838:	bc ff de 34 	sw      0xffbc(r30),r6
    c83c:	08 00 a5 20 	lsli    r5,r5,0x0008
    c840:	b8 ff be 34 	sw      0xffb8(r30),r5
    c844:	b8 ff 9e 30 	lw      r4,0xffb8(r30)
    c848:	f0 ff 9e 34 	sw      0xfff0(r30),r4
    c84c:	bc ff be 30 	lw      r5,0xffbc(r30)
    c850:	f4 ff be 34 	sw      0xfff4(r30),r5
    c854:	f8 ff be 30 	lw      r5,0xfff8(r30)
    c858:	03 00 80 18 	ori     r4,r0,0x0003
    c85c:	00 00 85 34 	sw      0x0000(r5),r4
    c860:	f4 ff be 30 	lw      r5,0xfff4(r30)
    c864:	ff 0f 80 2c 	ldih    r4,0x0fff
    c868:	ff ff 84 18 	ori     r4,r4,0xffff
    c86c:	02 20 05 00 	sub     r0,r5,r4
    c870:	14 00 00 42 	bhi     0x0000c8c0
    c874:	f0 ff 9e 30 	lw      r4,0xfff0(r30)
    c878:	1f 00 c4 24 	lsri    r6,r4,0x001f
    c87c:	f4 ff 9e 30 	lw      r4,0xfff4(r30)
    c880:	01 00 84 20 	lsli    r4,r4,0x0001
    c884:	f0 ff be 30 	lw      r5,0xfff0(r30)
    c888:	05 20 c6 00 	orr     r6,r6,r4
    c88c:	b4 ff de 34 	sw      0xffb4(r30),r6
    c890:	01 00 a5 20 	lsli    r5,r5,0x0001
    c894:	b0 ff be 34 	sw      0xffb0(r30),r5
    c898:	b0 ff 9e 30 	lw      r4,0xffb0(r30)
    c89c:	f0 ff 9e 34 	sw      0xfff0(r30),r4
    c8a0:	b4 ff be 30 	lw      r5,0xffb4(r30)
    c8a4:	f4 ff be 34 	sw      0xfff4(r30),r5
    c8a8:	f8 ff be 30 	lw      r5,0xfff8(r30)
    c8ac:	f8 ff 9e 30 	lw      r4,0xfff8(r30)
    c8b0:	08 00 84 30 	lw      r4,0x0008(r4)
    c8b4:	ff ff 84 04 	addi    r4,r4,0xffff
    c8b8:	08 00 85 34 	sw      0x0008(r5),r4
    c8bc:	18 32 00 80 	ajmp    0x0000c860
    c8c0:	f8 ff 9e 30 	lw      r4,0xfff8(r30)
    c8c4:	f0 ff be 30 	lw      r5,0xfff0(r30)
    c8c8:	0c 00 a4 34 	sw      0x000c(r4),r5
    c8cc:	f4 ff be 30 	lw      r5,0xfff4(r30)
    c8d0:	10 00 a4 34 	sw      0x0010(r4),r5
    c8d4:	78 32 00 80 	ajmp    0x0000c9e0
    c8d8:	ec ff be 30 	lw      r5,0xffec(r30)
    c8dc:	ff 07 80 18 	ori     r4,r0,0x07ff
    c8e0:	02 20 05 00 	sub     r0,r5,r4
    c8e4:	22 00 40 40 	bne     0x0000c96c
    c8e8:	f0 ff 9e 30 	lw      r4,0xfff0(r30)
    c8ec:	f4 ff be 30 	lw      r5,0xfff4(r30)
    c8f0:	05 28 84 00 	orr     r4,r4,r5
    c8f4:	00 00 a0 18 	ori     r5,r0,0x0000
    c8f8:	02 28 04 00 	sub     r0,r4,r5
    c8fc:	05 00 40 40 	bne     0x0000c910
    c900:	f8 ff be 30 	lw      r5,0xfff8(r30)
    c904:	04 00 80 18 	ori     r4,r0,0x0004
    c908:	00 00 85 34 	sw      0x0000(r5),r4
    c90c:	78 32 00 80 	ajmp    0x0000c9e0
    c910:	f4 ff 9e 30 	lw      r4,0xfff4(r30)
    c914:	13 00 84 24 	lsri    r4,r4,0x0013
    c918:	a8 ff 9e 34 	sw      0xffa8(r30),r4
    c91c:	00 00 80 18 	ori     r4,r0,0x0000
    c920:	ac ff 9e 34 	sw      0xffac(r30),r4
    c924:	a8 ff 9e 30 	lw      r4,0xffa8(r30)
    c928:	01 00 a4 14 	andi    r5,r4,0x0001
    c92c:	00 00 80 18 	ori     r4,r0,0x0000
    c930:	02 20 05 00 	sub     r0,r5,r4
    c934:	05 00 00 40 	beq     0x0000c948
    c938:	f8 ff be 30 	lw      r5,0xfff8(r30)
    c93c:	01 00 80 18 	ori     r4,r0,0x0001
    c940:	00 00 85 34 	sw      0x0000(r5),r4
    c944:	55 32 00 80 	ajmp    0x0000c954
    c948:	f8 ff be 30 	lw      r5,0xfff8(r30)
    c94c:	00 00 80 18 	ori     r4,r0,0x0000
    c950:	00 00 85 34 	sw      0x0000(r5),r4
    c954:	f8 ff 9e 30 	lw      r4,0xfff8(r30)
    c958:	f0 ff be 30 	lw      r5,0xfff0(r30)
    c95c:	0c 00 a4 34 	sw      0x000c(r4),r5
    c960:	f4 ff be 30 	lw      r5,0xfff4(r30)
    c964:	10 00 a4 34 	sw      0x0010(r4),r5
    c968:	78 32 00 80 	ajmp    0x0000c9e0
    c96c:	f8 ff be 30 	lw      r5,0xfff8(r30)
    c970:	ec ff 9e 30 	lw      r4,0xffec(r30)
    c974:	01 fc 84 04 	addi    r4,r4,0xfc01
    c978:	08 00 85 34 	sw      0x0008(r5),r4
    c97c:	f8 ff be 30 	lw      r5,0xfff8(r30)
    c980:	03 00 80 18 	ori     r4,r0,0x0003
    c984:	00 00 85 34 	sw      0x0000(r5),r4
    c988:	f8 ff fe 30 	lw      r7,0xfff8(r30)
    c98c:	f0 ff 9e 30 	lw      r4,0xfff0(r30)
    c990:	18 00 c4 24 	lsri    r6,r4,0x0018
    c994:	f4 ff 9e 30 	lw      r4,0xfff4(r30)
    c998:	08 00 84 20 	lsli    r4,r4,0x0008
    c99c:	f0 ff be 30 	lw      r5,0xfff0(r30)
    c9a0:	05 20 c6 00 	orr     r6,r6,r4
    c9a4:	a4 ff de 34 	sw      0xffa4(r30),r6
    c9a8:	08 00 a5 20 	lsli    r5,r5,0x0008
    c9ac:	a0 ff be 34 	sw      0xffa0(r30),r5
    c9b0:	00 10 80 2c 	ldih    r4,0x1000
    c9b4:	00 00 84 18 	ori     r4,r4,0x0000
    c9b8:	a0 ff be 30 	lw      r5,0xffa0(r30)
    c9bc:	00 00 a5 18 	ori     r5,r5,0x0000
    c9c0:	98 ff be 34 	sw      0xff98(r30),r5
    c9c4:	a4 ff be 30 	lw      r5,0xffa4(r30)
    c9c8:	05 20 a5 00 	orr     r5,r5,r4
    c9cc:	9c ff be 34 	sw      0xff9c(r30),r5
    c9d0:	98 ff 9e 30 	lw      r4,0xff98(r30)
    c9d4:	0c 00 87 34 	sw      0x000c(r7),r4
    c9d8:	9c ff be 30 	lw      r5,0xff9c(r30)
    c9dc:	10 00 a7 34 	sw      0x0010(r7),r5
    c9e0:	68 00 bd 07 	addi    r29,r29,0x0068
    c9e4:	05 f0 a0 03 	orr     r29,r0,r30
    c9e8:	04 00 bd 07 	addi    r29,r29,0x0004
    c9ec:	fc ff dd 33 	lw      r30,0xfffc(r29)
    c9f0:	00 00 e0 47 	jmpr    r31
    c9f4:	00 00 00 00 	nop
    c9f8:	00 00 00 00 	nop
    c9fc:	00 00 00 00 	nop

0000ca00 <__fpcmp_parts_d>:
    ca00:	fc ff fd 37 	sw      0xfffc(r29),r31
    ca04:	f8 ff dd 37 	sw      0xfff8(r29),r30
    ca08:	f8 ff bd 07 	addi    r29,r29,0xfff8
    ca0c:	05 e8 c0 03 	orr     r30,r0,r29
    ca10:	b0 ff bd 07 	addi    r29,r29,0xffb0
    ca14:	fc ff 9e 34 	sw      0xfffc(r30),r4
    ca18:	f8 ff be 34 	sw      0xfff8(r30),r5
    ca1c:	fc ff 9e 30 	lw      r4,0xfffc(r30)
    ca20:	c8 33 00 c0 	ajal    0x0000cf20
    ca24:	05 10 a0 00 	orr     r5,r0,r2
    ca28:	00 00 80 18 	ori     r4,r0,0x0000
    ca2c:	02 20 05 00 	sub     r0,r5,r4
    ca30:	08 00 40 40 	bne     0x0000ca50
    ca34:	f8 ff 9e 30 	lw      r4,0xfff8(r30)
    ca38:	c8 33 00 c0 	ajal    0x0000cf20
    ca3c:	05 10 a0 00 	orr     r5,r0,r2
    ca40:	00 00 80 18 	ori     r4,r0,0x0000
    ca44:	02 20 05 00 	sub     r0,r5,r4
    ca48:	02 00 40 40 	bne     0x0000ca50
    ca4c:	97 32 00 80 	ajmp    0x0000ca5c
    ca50:	01 00 80 18 	ori     r4,r0,0x0001
    ca54:	f4 ff 9e 34 	sw      0xfff4(r30),r4
    ca58:	91 33 00 80 	ajmp    0x0000ce44
    ca5c:	fc ff 9e 30 	lw      r4,0xfffc(r30)
    ca60:	b0 33 00 c0 	ajal    0x0000cec0
    ca64:	05 10 a0 00 	orr     r5,r0,r2
    ca68:	00 00 80 18 	ori     r4,r0,0x0000
    ca6c:	02 20 05 00 	sub     r0,r5,r4
    ca70:	0e 00 00 40 	beq     0x0000caa8
    ca74:	f8 ff 9e 30 	lw      r4,0xfff8(r30)
    ca78:	b0 33 00 c0 	ajal    0x0000cec0
    ca7c:	05 10 a0 00 	orr     r5,r0,r2
    ca80:	00 00 80 18 	ori     r4,r0,0x0000
    ca84:	02 20 05 00 	sub     r0,r5,r4
    ca88:	08 00 00 40 	beq     0x0000caa8
    ca8c:	f8 ff 9e 30 	lw      r4,0xfff8(r30)
    ca90:	fc ff be 30 	lw      r5,0xfffc(r30)
    ca94:	04 00 c4 30 	lw      r6,0x0004(r4)
    ca98:	04 00 85 30 	lw      r4,0x0004(r5)
    ca9c:	02 20 86 00 	sub     r4,r6,r4
    caa0:	f4 ff 9e 34 	sw      0xfff4(r30),r4
    caa4:	91 33 00 80 	ajmp    0x0000ce44
    caa8:	fc ff 9e 30 	lw      r4,0xfffc(r30)
    caac:	b0 33 00 c0 	ajal    0x0000cec0
    cab0:	05 10 a0 00 	orr     r5,r0,r2
    cab4:	00 00 80 18 	ori     r4,r0,0x0000
    cab8:	02 20 05 00 	sub     r0,r5,r4
    cabc:	0f 00 00 40 	beq     0x0000caf8
    cac0:	fc ff 9e 30 	lw      r4,0xfffc(r30)
    cac4:	04 00 a4 30 	lw      r5,0x0004(r4)
    cac8:	00 00 80 18 	ori     r4,r0,0x0000
    cacc:	02 20 05 00 	sub     r0,r5,r4
    cad0:	05 00 00 40 	beq     0x0000cae4
    cad4:	ff ff a0 2c 	ldih    r5,0xffff
    cad8:	ff ff a5 18 	ori     r5,r5,0xffff
    cadc:	f0 ff be 34 	sw      0xfff0(r30),r5
    cae0:	bb 32 00 80 	ajmp    0x0000caec
    cae4:	01 00 80 18 	ori     r4,r0,0x0001
    cae8:	f0 ff 9e 34 	sw      0xfff0(r30),r4
    caec:	f0 ff be 30 	lw      r5,0xfff0(r30)
    caf0:	f4 ff be 34 	sw      0xfff4(r30),r5
    caf4:	91 33 00 80 	ajmp    0x0000ce44
    caf8:	f8 ff 9e 30 	lw      r4,0xfff8(r30)
    cafc:	b0 33 00 c0 	ajal    0x0000cec0
    cb00:	05 10 a0 00 	orr     r5,r0,r2
    cb04:	00 00 80 18 	ori     r4,r0,0x0000
    cb08:	02 20 05 00 	sub     r0,r5,r4
    cb0c:	0f 00 00 40 	beq     0x0000cb48
    cb10:	f8 ff 9e 30 	lw      r4,0xfff8(r30)
    cb14:	04 00 a4 30 	lw      r5,0x0004(r4)
    cb18:	00 00 80 18 	ori     r4,r0,0x0000
    cb1c:	02 20 05 00 	sub     r0,r5,r4
    cb20:	04 00 00 40 	beq     0x0000cb30
    cb24:	01 00 80 18 	ori     r4,r0,0x0001
    cb28:	ec ff 9e 34 	sw      0xffec(r30),r4
    cb2c:	cf 32 00 80 	ajmp    0x0000cb3c
    cb30:	ff ff a0 2c 	ldih    r5,0xffff
    cb34:	ff ff a5 18 	ori     r5,r5,0xffff
    cb38:	ec ff be 34 	sw      0xffec(r30),r5
    cb3c:	ec ff 9e 30 	lw      r4,0xffec(r30)
    cb40:	f4 ff 9e 34 	sw      0xfff4(r30),r4
    cb44:	91 33 00 80 	ajmp    0x0000ce44
    cb48:	fc ff 9e 30 	lw      r4,0xfffc(r30)
    cb4c:	98 33 00 c0 	ajal    0x0000ce60
    cb50:	05 10 a0 00 	orr     r5,r0,r2
    cb54:	00 00 80 18 	ori     r4,r0,0x0000
    cb58:	02 20 05 00 	sub     r0,r5,r4
    cb5c:	0a 00 00 40 	beq     0x0000cb84
    cb60:	f8 ff 9e 30 	lw      r4,0xfff8(r30)
    cb64:	98 33 00 c0 	ajal    0x0000ce60
    cb68:	05 10 a0 00 	orr     r5,r0,r2
    cb6c:	00 00 80 18 	ori     r4,r0,0x0000
    cb70:	02 20 05 00 	sub     r0,r5,r4
    cb74:	04 00 00 40 	beq     0x0000cb84
    cb78:	00 00 a0 18 	ori     r5,r0,0x0000
    cb7c:	f4 ff be 34 	sw      0xfff4(r30),r5
    cb80:	91 33 00 80 	ajmp    0x0000ce44
    cb84:	fc ff 9e 30 	lw      r4,0xfffc(r30)
    cb88:	98 33 00 c0 	ajal    0x0000ce60
    cb8c:	05 10 a0 00 	orr     r5,r0,r2
    cb90:	00 00 80 18 	ori     r4,r0,0x0000
    cb94:	02 20 05 00 	sub     r0,r5,r4
    cb98:	0f 00 00 40 	beq     0x0000cbd4
    cb9c:	f8 ff 9e 30 	lw      r4,0xfff8(r30)
    cba0:	04 00 a4 30 	lw      r5,0x0004(r4)
    cba4:	00 00 80 18 	ori     r4,r0,0x0000
    cba8:	02 20 05 00 	sub     r0,r5,r4
    cbac:	04 00 00 40 	beq     0x0000cbbc
    cbb0:	01 00 80 18 	ori     r4,r0,0x0001
    cbb4:	e8 ff 9e 34 	sw      0xffe8(r30),r4
    cbb8:	f2 32 00 80 	ajmp    0x0000cbc8
    cbbc:	ff ff a0 2c 	ldih    r5,0xffff
    cbc0:	ff ff a5 18 	ori     r5,r5,0xffff
    cbc4:	e8 ff be 34 	sw      0xffe8(r30),r5
    cbc8:	e8 ff 9e 30 	lw      r4,0xffe8(r30)
    cbcc:	f4 ff 9e 34 	sw      0xfff4(r30),r4
    cbd0:	91 33 00 80 	ajmp    0x0000ce44
    cbd4:	f8 ff 9e 30 	lw      r4,0xfff8(r30)
    cbd8:	98 33 00 c0 	ajal    0x0000ce60
    cbdc:	05 10 a0 00 	orr     r5,r0,r2
    cbe0:	00 00 80 18 	ori     r4,r0,0x0000
    cbe4:	02 20 05 00 	sub     r0,r5,r4
    cbe8:	0f 00 00 40 	beq     0x0000cc24
    cbec:	fc ff 9e 30 	lw      r4,0xfffc(r30)
    cbf0:	04 00 a4 30 	lw      r5,0x0004(r4)
    cbf4:	00 00 80 18 	ori     r4,r0,0x0000
    cbf8:	02 20 05 00 	sub     r0,r5,r4
    cbfc:	05 00 00 40 	beq     0x0000cc10
    cc00:	ff ff a0 2c 	ldih    r5,0xffff
    cc04:	ff ff a5 18 	ori     r5,r5,0xffff
    cc08:	e4 ff be 34 	sw      0xffe4(r30),r5
    cc0c:	06 33 00 80 	ajmp    0x0000cc18
    cc10:	01 00 80 18 	ori     r4,r0,0x0001
    cc14:	e4 ff 9e 34 	sw      0xffe4(r30),r4
    cc18:	e4 ff be 30 	lw      r5,0xffe4(r30)
    cc1c:	f4 ff be 34 	sw      0xfff4(r30),r5
    cc20:	91 33 00 80 	ajmp    0x0000ce44
    cc24:	fc ff 9e 30 	lw      r4,0xfffc(r30)
    cc28:	f8 ff be 30 	lw      r5,0xfff8(r30)
    cc2c:	04 00 c4 30 	lw      r6,0x0004(r4)
    cc30:	04 00 85 30 	lw      r4,0x0004(r5)
    cc34:	02 20 06 00 	sub     r0,r6,r4
    cc38:	0f 00 00 40 	beq     0x0000cc74
    cc3c:	fc ff 9e 30 	lw      r4,0xfffc(r30)
    cc40:	04 00 a4 30 	lw      r5,0x0004(r4)
    cc44:	00 00 80 18 	ori     r4,r0,0x0000
    cc48:	02 20 05 00 	sub     r0,r5,r4
    cc4c:	05 00 00 40 	beq     0x0000cc60
    cc50:	ff ff 80 2c 	ldih    r4,0xffff
    cc54:	ff ff 84 18 	ori     r4,r4,0xffff
    cc58:	e0 ff 9e 34 	sw      0xffe0(r30),r4
    cc5c:	1a 33 00 80 	ajmp    0x0000cc68
    cc60:	01 00 a0 18 	ori     r5,r0,0x0001
    cc64:	e0 ff be 34 	sw      0xffe0(r30),r5
    cc68:	e0 ff 9e 30 	lw      r4,0xffe0(r30)
    cc6c:	f4 ff 9e 34 	sw      0xfff4(r30),r4
    cc70:	91 33 00 80 	ajmp    0x0000ce44
    cc74:	fc ff 9e 30 	lw      r4,0xfffc(r30)
    cc78:	f8 ff be 30 	lw      r5,0xfff8(r30)
    cc7c:	08 00 c4 30 	lw      r6,0x0008(r4)
    cc80:	08 00 85 30 	lw      r4,0x0008(r5)
    cc84:	02 20 06 00 	sub     r0,r6,r4
    cc88:	0f 00 40 43 	ble     0x0000ccc4
    cc8c:	fc ff 9e 30 	lw      r4,0xfffc(r30)
    cc90:	04 00 a4 30 	lw      r5,0x0004(r4)
    cc94:	00 00 80 18 	ori     r4,r0,0x0000
    cc98:	02 20 05 00 	sub     r0,r5,r4
    cc9c:	05 00 00 40 	beq     0x0000ccb0
    cca0:	ff ff a0 2c 	ldih    r5,0xffff
    cca4:	ff ff a5 18 	ori     r5,r5,0xffff
    cca8:	dc ff be 34 	sw      0xffdc(r30),r5
    ccac:	2e 33 00 80 	ajmp    0x0000ccb8
    ccb0:	01 00 80 18 	ori     r4,r0,0x0001
    ccb4:	dc ff 9e 34 	sw      0xffdc(r30),r4
    ccb8:	dc ff be 30 	lw      r5,0xffdc(r30)
    ccbc:	f4 ff be 34 	sw      0xfff4(r30),r5
    ccc0:	91 33 00 80 	ajmp    0x0000ce44
    ccc4:	fc ff 9e 30 	lw      r4,0xfffc(r30)
    ccc8:	f8 ff be 30 	lw      r5,0xfff8(r30)
    cccc:	08 00 c4 30 	lw      r6,0x0008(r4)
    ccd0:	08 00 85 30 	lw      r4,0x0008(r5)
    ccd4:	02 20 06 00 	sub     r0,r6,r4
    ccd8:	0f 00 80 42 	bge     0x0000cd14
    ccdc:	fc ff 9e 30 	lw      r4,0xfffc(r30)
    cce0:	04 00 a4 30 	lw      r5,0x0004(r4)
    cce4:	00 00 80 18 	ori     r4,r0,0x0000
    cce8:	02 20 05 00 	sub     r0,r5,r4
    ccec:	04 00 00 40 	beq     0x0000ccfc
    ccf0:	01 00 80 18 	ori     r4,r0,0x0001
    ccf4:	d8 ff 9e 34 	sw      0xffd8(r30),r4
    ccf8:	42 33 00 80 	ajmp    0x0000cd08
    ccfc:	ff ff a0 2c 	ldih    r5,0xffff
    cd00:	ff ff a5 18 	ori     r5,r5,0xffff
    cd04:	d8 ff be 34 	sw      0xffd8(r30),r5
    cd08:	d8 ff 9e 30 	lw      r4,0xffd8(r30)
    cd0c:	f4 ff 9e 34 	sw      0xfff4(r30),r4
    cd10:	91 33 00 80 	ajmp    0x0000ce44
    cd14:	fc ff 9e 30 	lw      r4,0xfffc(r30)
    cd18:	0c 00 a4 30 	lw      r5,0x000c(r4)
    cd1c:	d0 ff be 34 	sw      0xffd0(r30),r5
    cd20:	10 00 84 30 	lw      r4,0x0010(r4)
    cd24:	d4 ff 9e 34 	sw      0xffd4(r30),r4
    cd28:	f8 ff 9e 30 	lw      r4,0xfff8(r30)
    cd2c:	0c 00 a4 30 	lw      r5,0x000c(r4)
    cd30:	c8 ff be 34 	sw      0xffc8(r30),r5
    cd34:	10 00 84 30 	lw      r4,0x0010(r4)
    cd38:	cc ff 9e 34 	sw      0xffcc(r30),r4
    cd3c:	d4 ff 9e 30 	lw      r4,0xffd4(r30)
    cd40:	cc ff be 30 	lw      r5,0xffcc(r30)
    cd44:	02 28 04 00 	sub     r0,r4,r5
    cd48:	0a 00 00 42 	bhi     0x0000cd70
    cd4c:	d4 ff 9e 30 	lw      r4,0xffd4(r30)
    cd50:	cc ff be 30 	lw      r5,0xffcc(r30)
    cd54:	02 28 04 00 	sub     r0,r4,r5
    cd58:	14 00 40 40 	bne     0x0000cda8
    cd5c:	d0 ff 9e 30 	lw      r4,0xffd0(r30)
    cd60:	c8 ff be 30 	lw      r5,0xffc8(r30)
    cd64:	02 28 04 00 	sub     r0,r4,r5
    cd68:	02 00 00 42 	bhi     0x0000cd70
    cd6c:	6a 33 00 80 	ajmp    0x0000cda8
    cd70:	fc ff 9e 30 	lw      r4,0xfffc(r30)
    cd74:	04 00 a4 30 	lw      r5,0x0004(r4)
    cd78:	00 00 80 18 	ori     r4,r0,0x0000
    cd7c:	02 20 05 00 	sub     r0,r5,r4
    cd80:	05 00 00 40 	beq     0x0000cd94
    cd84:	ff ff 80 2c 	ldih    r4,0xffff
    cd88:	ff ff 84 18 	ori     r4,r4,0xffff
    cd8c:	c4 ff 9e 34 	sw      0xffc4(r30),r4
    cd90:	67 33 00 80 	ajmp    0x0000cd9c
    cd94:	01 00 a0 18 	ori     r5,r0,0x0001
    cd98:	c4 ff be 34 	sw      0xffc4(r30),r5
    cd9c:	c4 ff 9e 30 	lw      r4,0xffc4(r30)
    cda0:	f4 ff 9e 34 	sw      0xfff4(r30),r4
    cda4:	91 33 00 80 	ajmp    0x0000ce44
    cda8:	f8 ff 9e 30 	lw      r4,0xfff8(r30)
    cdac:	0c 00 a4 30 	lw      r5,0x000c(r4)
    cdb0:	bc ff be 34 	sw      0xffbc(r30),r5
    cdb4:	10 00 84 30 	lw      r4,0x0010(r4)
    cdb8:	c0 ff 9e 34 	sw      0xffc0(r30),r4
    cdbc:	fc ff 9e 30 	lw      r4,0xfffc(r30)
    cdc0:	0c 00 a4 30 	lw      r5,0x000c(r4)
    cdc4:	b4 ff be 34 	sw      0xffb4(r30),r5
    cdc8:	10 00 84 30 	lw      r4,0x0010(r4)
    cdcc:	b8 ff 9e 34 	sw      0xffb8(r30),r4
    cdd0:	c0 ff 9e 30 	lw      r4,0xffc0(r30)
    cdd4:	b8 ff be 30 	lw      r5,0xffb8(r30)
    cdd8:	02 28 04 00 	sub     r0,r4,r5
    cddc:	0a 00 00 42 	bhi     0x0000ce04
    cde0:	c0 ff 9e 30 	lw      r4,0xffc0(r30)
    cde4:	b8 ff be 30 	lw      r5,0xffb8(r30)
    cde8:	02 28 04 00 	sub     r0,r4,r5
    cdec:	14 00 40 40 	bne     0x0000ce3c
    cdf0:	bc ff 9e 30 	lw      r4,0xffbc(r30)
    cdf4:	b4 ff be 30 	lw      r5,0xffb4(r30)
    cdf8:	02 28 04 00 	sub     r0,r4,r5
    cdfc:	02 00 00 42 	bhi     0x0000ce04
    ce00:	8f 33 00 80 	ajmp    0x0000ce3c
    ce04:	fc ff 9e 30 	lw      r4,0xfffc(r30)
    ce08:	04 00 a4 30 	lw      r5,0x0004(r4)
    ce0c:	00 00 80 18 	ori     r4,r0,0x0000
    ce10:	02 20 05 00 	sub     r0,r5,r4
    ce14:	04 00 00 40 	beq     0x0000ce24
    ce18:	01 00 80 18 	ori     r4,r0,0x0001
    ce1c:	b0 ff 9e 34 	sw      0xffb0(r30),r4
    ce20:	8c 33 00 80 	ajmp    0x0000ce30
    ce24:	ff ff a0 2c 	ldih    r5,0xffff
    ce28:	ff ff a5 18 	ori     r5,r5,0xffff
    ce2c:	b0 ff be 34 	sw      0xffb0(r30),r5
    ce30:	b0 ff 9e 30 	lw      r4,0xffb0(r30)
    ce34:	f4 ff 9e 34 	sw      0xfff4(r30),r4
    ce38:	91 33 00 80 	ajmp    0x0000ce44
    ce3c:	00 00 a0 18 	ori     r5,r0,0x0000
    ce40:	f4 ff be 34 	sw      0xfff4(r30),r5
    ce44:	f4 ff 5e 30 	lw      r2,0xfff4(r30)
    ce48:	50 00 bd 07 	addi    r29,r29,0x0050
    ce4c:	05 f0 a0 03 	orr     r29,r0,r30
    ce50:	08 00 bd 07 	addi    r29,r29,0x0008
    ce54:	fc ff fd 33 	lw      r31,0xfffc(r29)
    ce58:	f8 ff dd 33 	lw      r30,0xfff8(r29)
    ce5c:	00 00 e0 47 	jmpr    r31

0000ce60 <iszero>:
    ce60:	fc ff dd 37 	sw      0xfffc(r29),r30
    ce64:	fc ff bd 07 	addi    r29,r29,0xfffc
    ce68:	05 e8 c0 03 	orr     r30,r0,r29
    ce6c:	f8 ff bd 07 	addi    r29,r29,0xfff8
    ce70:	fc ff 9e 34 	sw      0xfffc(r30),r4
    ce74:	00 00 80 18 	ori     r4,r0,0x0000
    ce78:	f8 ff 9e 34 	sw      0xfff8(r30),r4
    ce7c:	fc ff 9e 30 	lw      r4,0xfffc(r30)
    ce80:	00 00 a4 30 	lw      r5,0x0000(r4)
    ce84:	02 00 80 18 	ori     r4,r0,0x0002
    ce88:	02 20 05 00 	sub     r0,r5,r4
    ce8c:	03 00 40 40 	bne     0x0000ce98
    ce90:	01 00 80 18 	ori     r4,r0,0x0001
    ce94:	f8 ff 9e 34 	sw      0xfff8(r30),r4
    ce98:	f8 ff 9e 30 	lw      r4,0xfff8(r30)
    ce9c:	05 20 40 00 	orr     r2,r0,r4
    cea0:	08 00 bd 07 	addi    r29,r29,0x0008
    cea4:	05 f0 a0 03 	orr     r29,r0,r30
    cea8:	04 00 bd 07 	addi    r29,r29,0x0004
    ceac:	fc ff dd 33 	lw      r30,0xfffc(r29)
    ceb0:	00 00 e0 47 	jmpr    r31
    ceb4:	00 00 00 00 	nop
    ceb8:	00 00 00 00 	nop
    cebc:	00 00 00 00 	nop

0000cec0 <isinf>:
    cec0:	fc ff dd 37 	sw      0xfffc(r29),r30
    cec4:	fc ff bd 07 	addi    r29,r29,0xfffc
    cec8:	05 e8 c0 03 	orr     r30,r0,r29
    cecc:	f8 ff bd 07 	addi    r29,r29,0xfff8
    ced0:	fc ff 9e 34 	sw      0xfffc(r30),r4
    ced4:	00 00 80 18 	ori     r4,r0,0x0000
    ced8:	f8 ff 9e 34 	sw      0xfff8(r30),r4
    cedc:	fc ff 9e 30 	lw      r4,0xfffc(r30)
    cee0:	00 00 a4 30 	lw      r5,0x0000(r4)
    cee4:	04 00 80 18 	ori     r4,r0,0x0004
    cee8:	02 20 05 00 	sub     r0,r5,r4
    ceec:	03 00 40 40 	bne     0x0000cef8
    cef0:	01 00 80 18 	ori     r4,r0,0x0001
    cef4:	f8 ff 9e 34 	sw      0xfff8(r30),r4
    cef8:	f8 ff 9e 30 	lw      r4,0xfff8(r30)
    cefc:	05 20 40 00 	orr     r2,r0,r4
    cf00:	08 00 bd 07 	addi    r29,r29,0x0008
    cf04:	05 f0 a0 03 	orr     r29,r0,r30
    cf08:	04 00 bd 07 	addi    r29,r29,0x0004
    cf0c:	fc ff dd 33 	lw      r30,0xfffc(r29)
    cf10:	00 00 e0 47 	jmpr    r31
    cf14:	00 00 00 00 	nop
    cf18:	00 00 00 00 	nop
    cf1c:	00 00 00 00 	nop

0000cf20 <isnan>:
    cf20:	fc ff dd 37 	sw      0xfffc(r29),r30
    cf24:	fc ff bd 07 	addi    r29,r29,0xfffc
    cf28:	05 e8 c0 03 	orr     r30,r0,r29
    cf2c:	f8 ff bd 07 	addi    r29,r29,0xfff8
    cf30:	fc ff 9e 34 	sw      0xfffc(r30),r4
    cf34:	00 00 80 18 	ori     r4,r0,0x0000
    cf38:	f8 ff 9e 34 	sw      0xfff8(r30),r4
    cf3c:	fc ff 9e 30 	lw      r4,0xfffc(r30)
    cf40:	00 00 a4 30 	lw      r5,0x0000(r4)
    cf44:	00 00 80 18 	ori     r4,r0,0x0000
    cf48:	02 20 05 00 	sub     r0,r5,r4
    cf4c:	07 00 00 40 	beq     0x0000cf68
    cf50:	fc ff 9e 30 	lw      r4,0xfffc(r30)
    cf54:	00 00 a4 30 	lw      r5,0x0000(r4)
    cf58:	01 00 80 18 	ori     r4,r0,0x0001
    cf5c:	02 20 05 00 	sub     r0,r5,r4
    cf60:	02 00 00 40 	beq     0x0000cf68
    cf64:	dc 33 00 80 	ajmp    0x0000cf70
    cf68:	01 00 80 18 	ori     r4,r0,0x0001
    cf6c:	f8 ff 9e 34 	sw      0xfff8(r30),r4
    cf70:	f8 ff 9e 30 	lw      r4,0xfff8(r30)
    cf74:	05 20 40 00 	orr     r2,r0,r4
    cf78:	08 00 bd 07 	addi    r29,r29,0x0008
    cf7c:	05 f0 a0 03 	orr     r29,r0,r30
    cf80:	04 00 bd 07 	addi    r29,r29,0x0004
    cf84:	fc ff dd 33 	lw      r30,0xfffc(r29)
    cf88:	00 00 e0 47 	jmpr    r31
    cf8c:	00 00 00 00 	nop

0000cf90 <__negdi2>:
    cf90:	fc ff dd 37 	sw      0xfffc(r29),r30
    cf94:	fc ff bd 07 	addi    r29,r29,0xfffc
    cf98:	05 e8 c0 03 	orr     r30,r0,r29
    cf9c:	e0 ff bd 07 	addi    r29,r29,0xffe0
    cfa0:	e4 ff 9e 34 	sw      0xffe4(r30),r4
    cfa4:	f8 ff be 34 	sw      0xfff8(r30),r5
    cfa8:	fc ff de 34 	sw      0xfffc(r30),r6
    cfac:	00 00 80 18 	ori     r4,r0,0x0000
    cfb0:	f0 ff 9e 34 	sw      0xfff0(r30),r4
    cfb4:	00 00 80 18 	ori     r4,r0,0x0000
    cfb8:	f4 ff 9e 34 	sw      0xfff4(r30),r4
    cfbc:	f8 ff 9e 30 	lw      r4,0xfff8(r30)
    cfc0:	f0 ff 9e 34 	sw      0xfff0(r30),r4
    cfc4:	fc ff 9e 30 	lw      r4,0xfffc(r30)
    cfc8:	f4 ff 9e 34 	sw      0xfff4(r30),r4
    cfcc:	00 00 80 18 	ori     r4,r0,0x0000
    cfd0:	e8 ff 9e 34 	sw      0xffe8(r30),r4
    cfd4:	00 00 80 18 	ori     r4,r0,0x0000
    cfd8:	ec ff 9e 34 	sw      0xffec(r30),r4
    cfdc:	f0 ff 9e 30 	lw      r4,0xfff0(r30)
    cfe0:	02 20 80 00 	sub     r4,r0,r4
    cfe4:	e8 ff 9e 34 	sw      0xffe8(r30),r4
    cfe8:	f4 ff 9e 30 	lw      r4,0xfff4(r30)
    cfec:	02 20 80 00 	sub     r4,r0,r4
    cff0:	e0 ff 9e 34 	sw      0xffe0(r30),r4
    cff4:	f0 ff be 30 	lw      r5,0xfff0(r30)
    cff8:	00 00 80 18 	ori     r4,r0,0x0000
    cffc:	02 20 05 00 	sub     r0,r5,r4
    d000:	04 00 00 40 	beq     0x0000d010
    d004:	e0 ff 9e 30 	lw      r4,0xffe0(r30)
    d008:	ff ff 84 04 	addi    r4,r4,0xffff
    d00c:	e0 ff 9e 34 	sw      0xffe0(r30),r4
    d010:	e0 ff be 30 	lw      r5,0xffe0(r30)
    d014:	ec ff be 34 	sw      0xffec(r30),r5
    d018:	e8 ff 9e 30 	lw      r4,0xffe8(r30)
    d01c:	e4 ff be 30 	lw      r5,0xffe4(r30)
    d020:	00 00 85 34 	sw      0x0000(r5),r4
    d024:	ec ff 9e 30 	lw      r4,0xffec(r30)
    d028:	e4 ff be 30 	lw      r5,0xffe4(r30)
    d02c:	04 00 85 34 	sw      0x0004(r5),r4
    d030:	e4 ff 5e 30 	lw      r2,0xffe4(r30)
    d034:	20 00 bd 07 	addi    r29,r29,0x0020
    d038:	05 f0 a0 03 	orr     r29,r0,r30
    d03c:	04 00 bd 07 	addi    r29,r29,0x0004
    d040:	fc ff dd 33 	lw      r30,0xfffc(r29)
    d044:	00 00 e0 47 	jmpr    r31
    d048:	00 00 00 00 	nop
    d04c:	00 00 00 00 	nop

0000d050 <__pack_d>:
    d050:	fc ff fd 37 	sw      0xfffc(r29),r31
    d054:	f8 ff dd 37 	sw      0xfff8(r29),r30
    d058:	f8 ff bd 07 	addi    r29,r29,0xfff8
    d05c:	05 e8 c0 03 	orr     r30,r0,r29
    d060:	9c fe bd 07 	addi    r29,r29,0xfe9c
    d064:	d0 ff 9e 34 	sw      0xffd0(r30),r4
    d068:	fc ff be 34 	sw      0xfffc(r30),r5
    d06c:	fc ff 9e 30 	lw      r4,0xfffc(r30)
    d070:	0c 00 a4 30 	lw      r5,0x000c(r4)
    d074:	c8 ff be 34 	sw      0xffc8(r30),r5
    d078:	10 00 84 30 	lw      r4,0x0010(r4)
    d07c:	cc ff 9e 34 	sw      0xffcc(r30),r4
    d080:	c8 ff de 30 	lw      r6,0xffc8(r30)
    d084:	ec ff de 34 	sw      0xffec(r30),r6
    d088:	cc ff 9e 30 	lw      r4,0xffcc(r30)
    d08c:	f0 ff 9e 34 	sw      0xfff0(r30),r4
    d090:	fc ff 9e 30 	lw      r4,0xfffc(r30)
    d094:	04 00 84 30 	lw      r4,0x0004(r4)
    d098:	e8 ff 9e 34 	sw      0xffe8(r30),r4
    d09c:	00 00 80 18 	ori     r4,r0,0x0000
    d0a0:	e4 ff 9e 34 	sw      0xffe4(r30),r4
    d0a4:	fc ff 9e 30 	lw      r4,0xfffc(r30)
    d0a8:	54 36 00 c0 	ajal    0x0000d950
    d0ac:	05 10 a0 00 	orr     r5,r0,r2
    d0b0:	00 00 80 18 	ori     r4,r0,0x0000
    d0b4:	02 20 05 00 	sub     r0,r5,r4
    d0b8:	10 00 00 40 	beq     0x0000d0f8
    d0bc:	ff 07 80 18 	ori     r4,r0,0x07ff
    d0c0:	e4 ff 9e 34 	sw      0xffe4(r30),r4
    d0c4:	ec ff be 30 	lw      r5,0xffec(r30)
    d0c8:	f0 ff de 30 	lw      r6,0xfff0(r30)
    d0cc:	08 00 80 2c 	ldih    r4,0x0008
    d0d0:	00 00 84 18 	ori     r4,r4,0x0000
    d0d4:	00 00 a5 18 	ori     r5,r5,0x0000
    d0d8:	c0 ff be 34 	sw      0xffc0(r30),r5
    d0dc:	05 20 c6 00 	orr     r6,r6,r4
    d0e0:	c4 ff de 34 	sw      0xffc4(r30),r6
    d0e4:	c0 ff be 30 	lw      r5,0xffc0(r30)
    d0e8:	ec ff be 34 	sw      0xffec(r30),r5
    d0ec:	c4 ff de 30 	lw      r6,0xffc4(r30)
    d0f0:	f0 ff de 34 	sw      0xfff0(r30),r6
    d0f4:	d1 35 00 80 	ajmp    0x0000d744
    d0f8:	fc ff 9e 30 	lw      r4,0xfffc(r30)
    d0fc:	3c 36 00 c0 	ajal    0x0000d8f0
    d100:	05 10 a0 00 	orr     r5,r0,r2
    d104:	00 00 80 18 	ori     r4,r0,0x0000
    d108:	02 20 05 00 	sub     r0,r5,r4
    d10c:	08 00 00 40 	beq     0x0000d12c
    d110:	ff 07 80 18 	ori     r4,r0,0x07ff
    d114:	e4 ff 9e 34 	sw      0xffe4(r30),r4
    d118:	00 00 80 18 	ori     r4,r0,0x0000
    d11c:	ec ff 9e 34 	sw      0xffec(r30),r4
    d120:	00 00 80 18 	ori     r4,r0,0x0000
    d124:	f0 ff 9e 34 	sw      0xfff0(r30),r4
    d128:	d1 35 00 80 	ajmp    0x0000d744
    d12c:	fc ff 9e 30 	lw      r4,0xfffc(r30)
    d130:	24 36 00 c0 	ajal    0x0000d890
    d134:	05 10 a0 00 	orr     r5,r0,r2
    d138:	00 00 80 18 	ori     r4,r0,0x0000
    d13c:	02 20 05 00 	sub     r0,r5,r4
    d140:	08 00 00 40 	beq     0x0000d160
    d144:	00 00 80 18 	ori     r4,r0,0x0000
    d148:	e4 ff 9e 34 	sw      0xffe4(r30),r4
    d14c:	00 00 80 18 	ori     r4,r0,0x0000
    d150:	ec ff 9e 34 	sw      0xffec(r30),r4
    d154:	00 00 80 18 	ori     r4,r0,0x0000
    d158:	f0 ff 9e 34 	sw      0xfff0(r30),r4
    d15c:	d1 35 00 80 	ajmp    0x0000d744
    d160:	ec ff 9e 30 	lw      r4,0xffec(r30)
    d164:	f0 ff be 30 	lw      r5,0xfff0(r30)
    d168:	05 28 84 00 	orr     r4,r4,r5
    d16c:	00 00 a0 18 	ori     r5,r0,0x0000
    d170:	02 28 04 00 	sub     r0,r4,r5
    d174:	04 00 40 40 	bne     0x0000d184
    d178:	00 00 80 18 	ori     r4,r0,0x0000
    d17c:	e4 ff 9e 34 	sw      0xffe4(r30),r4
    d180:	d1 35 00 80 	ajmp    0x0000d744
    d184:	fc ff 9e 30 	lw      r4,0xfffc(r30)
    d188:	08 00 a4 30 	lw      r5,0x0008(r4)
    d18c:	ff ff 80 2c 	ldih    r4,0xffff
    d190:	02 fc 84 18 	ori     r4,r4,0xfc02
    d194:	02 20 05 00 	sub     r0,r5,r4
    d198:	d6 00 80 42 	bge     0x0000d4f0
    d19c:	fc ff 9e 30 	lw      r4,0xfffc(r30)
    d1a0:	ff ff a0 2c 	ldih    r5,0xffff
    d1a4:	02 fc a5 18 	ori     r5,r5,0xfc02
    d1a8:	08 00 84 30 	lw      r4,0x0008(r4)
    d1ac:	02 20 85 00 	sub     r4,r5,r4
    d1b0:	e0 ff 9e 34 	sw      0xffe0(r30),r4
    d1b4:	00 00 80 18 	ori     r4,r0,0x0000
    d1b8:	e4 ff 9e 34 	sw      0xffe4(r30),r4
    d1bc:	e0 ff be 30 	lw      r5,0xffe0(r30)
    d1c0:	38 00 80 18 	ori     r4,r0,0x0038
    d1c4:	02 20 05 00 	sub     r0,r5,r4
    d1c8:	06 00 40 43 	ble     0x0000d1e0
    d1cc:	00 00 80 18 	ori     r4,r0,0x0000
    d1d0:	ec ff 9e 34 	sw      0xffec(r30),r4
    d1d4:	00 00 80 18 	ori     r4,r0,0x0000
    d1d8:	f0 ff 9e 34 	sw      0xfff0(r30),r4
    d1dc:	c3 34 00 80 	ajmp    0x0000d30c
    d1e0:	00 00 80 18 	ori     r4,r0,0x0000
    d1e4:	dc ff 9e 34 	sw      0xffdc(r30),r4
    d1e8:	d4 ff 9e 04 	addi    r4,r30,0xffd4
    d1ec:	01 00 a0 18 	ori     r5,r0,0x0001
    d1f0:	00 00 c0 18 	ori     r6,r0,0x0000
    d1f4:	e0 ff fe 30 	lw      r7,0xffe0(r30)
    d1f8:	2c 37 00 c0 	ajal    0x0000dcb0
    d1fc:	d4 ff 9e 30 	lw      r4,0xffd4(r30)
    d200:	b8 ff 9e 34 	sw      0xffb8(r30),r4
    d204:	d8 ff be 30 	lw      r5,0xffd8(r30)
    d208:	bc ff be 34 	sw      0xffbc(r30),r5
    d20c:	ff ff c0 2c 	ldih    r6,0xffff
    d210:	ff ff c6 18 	ori     r6,r6,0xffff
    d214:	b0 ff de 34 	sw      0xffb0(r30),r6
    d218:	ff ff 80 2c 	ldih    r4,0xffff
    d21c:	ff ff 84 18 	ori     r4,r4,0xffff
    d220:	b4 ff 9e 34 	sw      0xffb4(r30),r4
    d224:	b8 ff be 30 	lw      r5,0xffb8(r30)
    d228:	b0 ff de 30 	lw      r6,0xffb0(r30)
    d22c:	00 30 a5 00 	add     r5,r5,r6
    d230:	a8 ff be 34 	sw      0xffa8(r30),r5
    d234:	01 00 80 18 	ori     r4,r0,0x0001
    d238:	a4 ff 9e 34 	sw      0xffa4(r30),r4
    d23c:	a8 ff be 30 	lw      r5,0xffa8(r30)
    d240:	b8 ff de 30 	lw      r6,0xffb8(r30)
    d244:	02 30 05 00 	sub     r0,r5,r6
    d248:	03 00 40 41 	blo     0x0000d254
    d24c:	00 00 80 18 	ori     r4,r0,0x0000
    d250:	a4 ff 9e 34 	sw      0xffa4(r30),r4
    d254:	bc ff be 30 	lw      r5,0xffbc(r30)
    d258:	b4 ff de 30 	lw      r6,0xffb4(r30)
    d25c:	00 30 a5 00 	add     r5,r5,r6
    d260:	ac ff be 34 	sw      0xffac(r30),r5
    d264:	a4 ff be 30 	lw      r5,0xffa4(r30)
    d268:	ac ff de 30 	lw      r6,0xffac(r30)
    d26c:	00 30 85 00 	add     r4,r5,r6
    d270:	ac ff 9e 34 	sw      0xffac(r30),r4
    d274:	ec ff 9e 30 	lw      r4,0xffec(r30)
    d278:	f0 ff be 30 	lw      r5,0xfff0(r30)
    d27c:	a8 ff de 30 	lw      r6,0xffa8(r30)
    d280:	04 20 c6 00 	and     r6,r6,r4
    d284:	9c ff de 34 	sw      0xff9c(r30),r6
    d288:	ac ff 9e 30 	lw      r4,0xffac(r30)
    d28c:	04 28 84 00 	and     r4,r4,r5
    d290:	a0 ff 9e 34 	sw      0xffa0(r30),r4
    d294:	9c ff 9e 30 	lw      r4,0xff9c(r30)
    d298:	a0 ff be 30 	lw      r5,0xffa0(r30)
    d29c:	05 28 84 00 	orr     r4,r4,r5
    d2a0:	00 00 a0 18 	ori     r5,r0,0x0000
    d2a4:	02 28 04 00 	sub     r0,r4,r5
    d2a8:	03 00 00 40 	beq     0x0000d2b4
    d2ac:	01 00 80 18 	ori     r4,r0,0x0001
    d2b0:	dc ff 9e 34 	sw      0xffdc(r30),r4
    d2b4:	d4 ff 9e 04 	addi    r4,r30,0xffd4
    d2b8:	ec ff be 30 	lw      r5,0xffec(r30)
    d2bc:	f0 ff de 30 	lw      r6,0xfff0(r30)
    d2c0:	e0 ff fe 30 	lw      r7,0xffe0(r30)
    d2c4:	70 36 00 c0 	ajal    0x0000d9c0
    d2c8:	d4 ff de 30 	lw      r6,0xffd4(r30)
    d2cc:	94 ff de 34 	sw      0xff94(r30),r6
    d2d0:	d8 ff 9e 30 	lw      r4,0xffd8(r30)
    d2d4:	98 ff 9e 34 	sw      0xff98(r30),r4
    d2d8:	dc ff 9e 30 	lw      r4,0xffdc(r30)
    d2dc:	1f 00 84 28 	asri    r4,r4,0x001f
    d2e0:	dc ff be 30 	lw      r5,0xffdc(r30)
    d2e4:	8c ff be 34 	sw      0xff8c(r30),r5
    d2e8:	90 ff 9e 34 	sw      0xff90(r30),r4
    d2ec:	94 ff de 30 	lw      r6,0xff94(r30)
    d2f0:	8c ff be 30 	lw      r5,0xff8c(r30)
    d2f4:	05 28 86 00 	orr     r4,r6,r5
    d2f8:	ec ff 9e 34 	sw      0xffec(r30),r4
    d2fc:	98 ff de 30 	lw      r6,0xff98(r30)
    d300:	90 ff be 30 	lw      r5,0xff90(r30)
    d304:	05 28 86 00 	orr     r4,r6,r5
    d308:	f0 ff 9e 34 	sw      0xfff0(r30),r4
    d30c:	ec ff 9e 30 	lw      r4,0xffec(r30)
    d310:	f0 ff be 30 	lw      r5,0xfff0(r30)
    d314:	ff 00 84 14 	andi    r4,r4,0x00ff
    d318:	84 ff 9e 34 	sw      0xff84(r30),r4
    d31c:	00 00 a5 14 	andi    r5,r5,0x0000
    d320:	88 ff be 34 	sw      0xff88(r30),r5
    d324:	80 00 80 18 	ori     r4,r0,0x0080
    d328:	84 ff de 30 	lw      r6,0xff84(r30)
    d32c:	02 20 06 00 	sub     r0,r6,r4
    d330:	34 00 40 40 	bne     0x0000d400
    d334:	00 00 80 18 	ori     r4,r0,0x0000
    d338:	88 ff be 30 	lw      r5,0xff88(r30)
    d33c:	02 20 05 00 	sub     r0,r5,r4
    d340:	30 00 40 40 	bne     0x0000d400
    d344:	f0 ff 9e 30 	lw      r4,0xfff0(r30)
    d348:	18 00 c4 20 	lsli    r6,r4,0x0018
    d34c:	ec ff 9e 30 	lw      r4,0xffec(r30)
    d350:	08 00 84 24 	lsri    r4,r4,0x0008
    d354:	f0 ff be 30 	lw      r5,0xfff0(r30)
    d358:	05 20 c6 00 	orr     r6,r6,r4
    d35c:	7c ff de 34 	sw      0xff7c(r30),r6
    d360:	08 00 a5 24 	lsri    r5,r5,0x0008
    d364:	80 ff be 34 	sw      0xff80(r30),r5
    d368:	7c ff de 30 	lw      r6,0xff7c(r30)
    d36c:	01 00 a6 14 	andi    r5,r6,0x0001
    d370:	00 00 80 18 	ori     r4,r0,0x0000
    d374:	02 20 05 00 	sub     r0,r5,r4
    d378:	42 00 00 40 	beq     0x0000d480
    d37c:	ec ff 9e 30 	lw      r4,0xffec(r30)
    d380:	74 ff 9e 34 	sw      0xff74(r30),r4
    d384:	f0 ff be 30 	lw      r5,0xfff0(r30)
    d388:	78 ff be 34 	sw      0xff78(r30),r5
    d38c:	80 00 c0 18 	ori     r6,r0,0x0080
    d390:	6c ff de 34 	sw      0xff6c(r30),r6
    d394:	00 00 80 18 	ori     r4,r0,0x0000
    d398:	70 ff 9e 34 	sw      0xff70(r30),r4
    d39c:	74 ff be 30 	lw      r5,0xff74(r30)
    d3a0:	6c ff de 30 	lw      r6,0xff6c(r30)
    d3a4:	00 30 a5 00 	add     r5,r5,r6
    d3a8:	64 ff be 34 	sw      0xff64(r30),r5
    d3ac:	01 00 80 18 	ori     r4,r0,0x0001
    d3b0:	60 ff 9e 34 	sw      0xff60(r30),r4
    d3b4:	64 ff be 30 	lw      r5,0xff64(r30)
    d3b8:	74 ff de 30 	lw      r6,0xff74(r30)
    d3bc:	02 30 05 00 	sub     r0,r5,r6
    d3c0:	03 00 40 41 	blo     0x0000d3cc
    d3c4:	00 00 80 18 	ori     r4,r0,0x0000
    d3c8:	60 ff 9e 34 	sw      0xff60(r30),r4
    d3cc:	78 ff be 30 	lw      r5,0xff78(r30)
    d3d0:	70 ff de 30 	lw      r6,0xff70(r30)
    d3d4:	00 30 a5 00 	add     r5,r5,r6
    d3d8:	68 ff be 34 	sw      0xff68(r30),r5
    d3dc:	60 ff be 30 	lw      r5,0xff60(r30)
    d3e0:	68 ff de 30 	lw      r6,0xff68(r30)
    d3e4:	00 30 85 00 	add     r4,r5,r6
    d3e8:	68 ff 9e 34 	sw      0xff68(r30),r4
    d3ec:	64 ff 9e 30 	lw      r4,0xff64(r30)
    d3f0:	ec ff 9e 34 	sw      0xffec(r30),r4
    d3f4:	68 ff be 30 	lw      r5,0xff68(r30)
    d3f8:	f0 ff be 34 	sw      0xfff0(r30),r5
    d3fc:	20 35 00 80 	ajmp    0x0000d480
    d400:	ec ff de 30 	lw      r6,0xffec(r30)
    d404:	58 ff de 34 	sw      0xff58(r30),r6
    d408:	f0 ff 9e 30 	lw      r4,0xfff0(r30)
    d40c:	5c ff 9e 34 	sw      0xff5c(r30),r4
    d410:	7f 00 a0 18 	ori     r5,r0,0x007f
    d414:	50 ff be 34 	sw      0xff50(r30),r5
    d418:	00 00 c0 18 	ori     r6,r0,0x0000
    d41c:	54 ff de 34 	sw      0xff54(r30),r6
    d420:	58 ff 9e 30 	lw      r4,0xff58(r30)
    d424:	50 ff be 30 	lw      r5,0xff50(r30)
    d428:	00 28 84 00 	add     r4,r4,r5
    d42c:	48 ff 9e 34 	sw      0xff48(r30),r4
    d430:	01 00 c0 18 	ori     r6,r0,0x0001
    d434:	44 ff de 34 	sw      0xff44(r30),r6
    d438:	48 ff 9e 30 	lw      r4,0xff48(r30)
    d43c:	58 ff be 30 	lw      r5,0xff58(r30)
    d440:	02 28 04 00 	sub     r0,r4,r5
    d444:	03 00 40 41 	blo     0x0000d450
    d448:	00 00 c0 18 	ori     r6,r0,0x0000
    d44c:	44 ff de 34 	sw      0xff44(r30),r6
    d450:	5c ff 9e 30 	lw      r4,0xff5c(r30)
    d454:	54 ff be 30 	lw      r5,0xff54(r30)
    d458:	00 28 84 00 	add     r4,r4,r5
    d45c:	4c ff 9e 34 	sw      0xff4c(r30),r4
    d460:	44 ff de 30 	lw      r6,0xff44(r30)
    d464:	4c ff be 30 	lw      r5,0xff4c(r30)
    d468:	00 28 86 00 	add     r4,r6,r5
    d46c:	4c ff 9e 34 	sw      0xff4c(r30),r4
    d470:	48 ff de 30 	lw      r6,0xff48(r30)
    d474:	ec ff de 34 	sw      0xffec(r30),r6
    d478:	4c ff 9e 30 	lw      r4,0xff4c(r30)
    d47c:	f0 ff 9e 34 	sw      0xfff0(r30),r4
    d480:	f0 ff be 30 	lw      r5,0xfff0(r30)
    d484:	ff 0f 80 2c 	ldih    r4,0x0fff
    d488:	ff ff 84 18 	ori     r4,r4,0xffff
    d48c:	02 20 05 00 	sub     r0,r5,r4
    d490:	07 00 00 42 	bhi     0x0000d4ac
    d494:	f0 ff be 30 	lw      r5,0xfff0(r30)
    d498:	ff 0f 80 2c 	ldih    r4,0x0fff
    d49c:	ff ff 84 18 	ori     r4,r4,0xffff
    d4a0:	02 20 05 00 	sub     r0,r5,r4
    d4a4:	05 00 40 40 	bne     0x0000d4b8
    d4a8:	2e 35 00 80 	ajmp    0x0000d4b8
    d4ac:	e4 ff 9e 30 	lw      r4,0xffe4(r30)
    d4b0:	01 00 84 04 	addi    r4,r4,0x0001
    d4b4:	e4 ff 9e 34 	sw      0xffe4(r30),r4
    d4b8:	f0 ff 9e 30 	lw      r4,0xfff0(r30)
    d4bc:	18 00 c4 20 	lsli    r6,r4,0x0018
    d4c0:	ec ff 9e 30 	lw      r4,0xffec(r30)
    d4c4:	08 00 84 24 	lsri    r4,r4,0x0008
    d4c8:	f0 ff be 30 	lw      r5,0xfff0(r30)
    d4cc:	05 20 c6 00 	orr     r6,r6,r4
    d4d0:	3c ff de 34 	sw      0xff3c(r30),r6
    d4d4:	08 00 a5 24 	lsri    r5,r5,0x0008
    d4d8:	40 ff be 34 	sw      0xff40(r30),r5
    d4dc:	3c ff be 30 	lw      r5,0xff3c(r30)
    d4e0:	ec ff be 34 	sw      0xffec(r30),r5
    d4e4:	40 ff de 30 	lw      r6,0xff40(r30)
    d4e8:	f0 ff de 34 	sw      0xfff0(r30),r6
    d4ec:	d1 35 00 80 	ajmp    0x0000d744
    d4f0:	fc ff 9e 30 	lw      r4,0xfffc(r30)
    d4f4:	08 00 a4 30 	lw      r5,0x0008(r4)
    d4f8:	ff 03 80 18 	ori     r4,r0,0x03ff
    d4fc:	02 20 05 00 	sub     r0,r5,r4
    d500:	08 00 40 43 	ble     0x0000d520
    d504:	ff 07 80 18 	ori     r4,r0,0x07ff
    d508:	e4 ff 9e 34 	sw      0xffe4(r30),r4
    d50c:	00 00 80 18 	ori     r4,r0,0x0000
    d510:	ec ff 9e 34 	sw      0xffec(r30),r4
    d514:	00 00 80 18 	ori     r4,r0,0x0000
    d518:	f0 ff 9e 34 	sw      0xfff0(r30),r4
    d51c:	d1 35 00 80 	ajmp    0x0000d744
    d520:	fc ff 9e 30 	lw      r4,0xfffc(r30)
    d524:	08 00 84 30 	lw      r4,0x0008(r4)
    d528:	ff 03 84 04 	addi    r4,r4,0x03ff
    d52c:	e4 ff 9e 34 	sw      0xffe4(r30),r4
    d530:	ec ff 9e 30 	lw      r4,0xffec(r30)
    d534:	f0 ff be 30 	lw      r5,0xfff0(r30)
    d538:	ff 00 84 14 	andi    r4,r4,0x00ff
    d53c:	34 ff 9e 34 	sw      0xff34(r30),r4
    d540:	00 00 a5 14 	andi    r5,r5,0x0000
    d544:	38 ff be 34 	sw      0xff38(r30),r5
    d548:	80 00 80 18 	ori     r4,r0,0x0080
    d54c:	34 ff be 30 	lw      r5,0xff34(r30)
    d550:	02 20 05 00 	sub     r0,r5,r4
    d554:	34 00 40 40 	bne     0x0000d624
    d558:	00 00 80 18 	ori     r4,r0,0x0000
    d55c:	38 ff de 30 	lw      r6,0xff38(r30)
    d560:	02 20 06 00 	sub     r0,r6,r4
    d564:	30 00 40 40 	bne     0x0000d624
    d568:	f0 ff 9e 30 	lw      r4,0xfff0(r30)
    d56c:	18 00 c4 20 	lsli    r6,r4,0x0018
    d570:	ec ff 9e 30 	lw      r4,0xffec(r30)
    d574:	08 00 84 24 	lsri    r4,r4,0x0008
    d578:	f0 ff be 30 	lw      r5,0xfff0(r30)
    d57c:	05 20 c6 00 	orr     r6,r6,r4
    d580:	2c ff de 34 	sw      0xff2c(r30),r6
    d584:	08 00 a5 24 	lsri    r5,r5,0x0008
    d588:	30 ff be 34 	sw      0xff30(r30),r5
    d58c:	2c ff 9e 30 	lw      r4,0xff2c(r30)
    d590:	01 00 a4 14 	andi    r5,r4,0x0001
    d594:	00 00 80 18 	ori     r4,r0,0x0000
    d598:	02 20 05 00 	sub     r0,r5,r4
    d59c:	42 00 00 40 	beq     0x0000d6a4
    d5a0:	ec ff be 30 	lw      r5,0xffec(r30)
    d5a4:	24 ff be 34 	sw      0xff24(r30),r5
    d5a8:	f0 ff de 30 	lw      r6,0xfff0(r30)
    d5ac:	28 ff de 34 	sw      0xff28(r30),r6
    d5b0:	80 00 80 18 	ori     r4,r0,0x0080
    d5b4:	1c ff 9e 34 	sw      0xff1c(r30),r4
    d5b8:	00 00 a0 18 	ori     r5,r0,0x0000
    d5bc:	20 ff be 34 	sw      0xff20(r30),r5
    d5c0:	24 ff de 30 	lw      r6,0xff24(r30)
    d5c4:	1c ff 9e 30 	lw      r4,0xff1c(r30)
    d5c8:	00 20 c6 00 	add     r6,r6,r4
    d5cc:	14 ff de 34 	sw      0xff14(r30),r6
    d5d0:	01 00 a0 18 	ori     r5,r0,0x0001
    d5d4:	10 ff be 34 	sw      0xff10(r30),r5
    d5d8:	14 ff de 30 	lw      r6,0xff14(r30)
    d5dc:	24 ff 9e 30 	lw      r4,0xff24(r30)
    d5e0:	02 20 06 00 	sub     r0,r6,r4
    d5e4:	03 00 40 41 	blo     0x0000d5f0
    d5e8:	00 00 a0 18 	ori     r5,r0,0x0000
    d5ec:	10 ff be 34 	sw      0xff10(r30),r5
    d5f0:	28 ff de 30 	lw      r6,0xff28(r30)
    d5f4:	20 ff 9e 30 	lw      r4,0xff20(r30)
    d5f8:	00 20 c6 00 	add     r6,r6,r4
    d5fc:	18 ff de 34 	sw      0xff18(r30),r6
    d600:	10 ff be 30 	lw      r5,0xff10(r30)
    d604:	18 ff de 30 	lw      r6,0xff18(r30)
    d608:	00 30 85 00 	add     r4,r5,r6
    d60c:	18 ff 9e 34 	sw      0xff18(r30),r4
    d610:	14 ff 9e 30 	lw      r4,0xff14(r30)
    d614:	ec ff 9e 34 	sw      0xffec(r30),r4
    d618:	18 ff be 30 	lw      r5,0xff18(r30)
    d61c:	f0 ff be 34 	sw      0xfff0(r30),r5
    d620:	a9 35 00 80 	ajmp    0x0000d6a4
    d624:	ec ff de 30 	lw      r6,0xffec(r30)
    d628:	08 ff de 34 	sw      0xff08(r30),r6
    d62c:	f0 ff 9e 30 	lw      r4,0xfff0(r30)
    d630:	0c ff 9e 34 	sw      0xff0c(r30),r4
    d634:	7f 00 a0 18 	ori     r5,r0,0x007f
    d638:	00 ff be 34 	sw      0xff00(r30),r5
    d63c:	00 00 c0 18 	ori     r6,r0,0x0000
    d640:	04 ff de 34 	sw      0xff04(r30),r6
    d644:	08 ff 9e 30 	lw      r4,0xff08(r30)
    d648:	00 ff be 30 	lw      r5,0xff00(r30)
    d64c:	00 28 84 00 	add     r4,r4,r5
    d650:	f8 fe 9e 34 	sw      0xfef8(r30),r4
    d654:	01 00 c0 18 	ori     r6,r0,0x0001
    d658:	f4 fe de 34 	sw      0xfef4(r30),r6
    d65c:	f8 fe 9e 30 	lw      r4,0xfef8(r30)
    d660:	08 ff be 30 	lw      r5,0xff08(r30)
    d664:	02 28 04 00 	sub     r0,r4,r5
    d668:	03 00 40 41 	blo     0x0000d674
    d66c:	00 00 c0 18 	ori     r6,r0,0x0000
    d670:	f4 fe de 34 	sw      0xfef4(r30),r6
    d674:	0c ff 9e 30 	lw      r4,0xff0c(r30)
    d678:	04 ff be 30 	lw      r5,0xff04(r30)
    d67c:	00 28 84 00 	add     r4,r4,r5
    d680:	fc fe 9e 34 	sw      0xfefc(r30),r4
    d684:	f4 fe de 30 	lw      r6,0xfef4(r30)
    d688:	fc fe be 30 	lw      r5,0xfefc(r30)
    d68c:	00 28 86 00 	add     r4,r6,r5
    d690:	fc fe 9e 34 	sw      0xfefc(r30),r4
    d694:	f8 fe de 30 	lw      r6,0xfef8(r30)
    d698:	ec ff de 34 	sw      0xffec(r30),r6
    d69c:	fc fe 9e 30 	lw      r4,0xfefc(r30)
    d6a0:	f0 ff 9e 34 	sw      0xfff0(r30),r4
    d6a4:	f0 ff be 30 	lw      r5,0xfff0(r30)
    d6a8:	ff 1f 80 2c 	ldih    r4,0x1fff
    d6ac:	ff ff 84 18 	ori     r4,r4,0xffff
    d6b0:	02 20 05 00 	sub     r0,r5,r4
    d6b4:	07 00 00 42 	bhi     0x0000d6d0
    d6b8:	f0 ff be 30 	lw      r5,0xfff0(r30)
    d6bc:	ff 1f 80 2c 	ldih    r4,0x1fff
    d6c0:	ff ff 84 18 	ori     r4,r4,0xffff
    d6c4:	02 20 05 00 	sub     r0,r5,r4
    d6c8:	12 00 40 40 	bne     0x0000d710
    d6cc:	c4 35 00 80 	ajmp    0x0000d710
    d6d0:	f0 ff 9e 30 	lw      r4,0xfff0(r30)
    d6d4:	1f 00 c4 20 	lsli    r6,r4,0x001f
    d6d8:	ec ff 9e 30 	lw      r4,0xffec(r30)
    d6dc:	01 00 84 24 	lsri    r4,r4,0x0001
    d6e0:	f0 ff be 30 	lw      r5,0xfff0(r30)
    d6e4:	05 20 c6 00 	orr     r6,r6,r4
    d6e8:	ec fe de 34 	sw      0xfeec(r30),r6
    d6ec:	01 00 a5 24 	lsri    r5,r5,0x0001
    d6f0:	f0 fe be 34 	sw      0xfef0(r30),r5
    d6f4:	ec fe be 30 	lw      r5,0xfeec(r30)
    d6f8:	ec ff be 34 	sw      0xffec(r30),r5
    d6fc:	f0 fe de 30 	lw      r6,0xfef0(r30)
    d700:	f0 ff de 34 	sw      0xfff0(r30),r6
    d704:	e4 ff 9e 30 	lw      r4,0xffe4(r30)
    d708:	01 00 84 04 	addi    r4,r4,0x0001
    d70c:	e4 ff 9e 34 	sw      0xffe4(r30),r4
    d710:	f0 ff 9e 30 	lw      r4,0xfff0(r30)
    d714:	18 00 c4 20 	lsli    r6,r4,0x0018
    d718:	ec ff 9e 30 	lw      r4,0xffec(r30)
    d71c:	08 00 84 24 	lsri    r4,r4,0x0008
    d720:	f0 ff be 30 	lw      r5,0xfff0(r30)
    d724:	05 20 c6 00 	orr     r6,r6,r4
    d728:	e4 fe de 34 	sw      0xfee4(r30),r6
    d72c:	08 00 a5 24 	lsri    r5,r5,0x0008
    d730:	e8 fe be 34 	sw      0xfee8(r30),r5
    d734:	e4 fe 9e 30 	lw      r4,0xfee4(r30)
    d738:	ec ff 9e 34 	sw      0xffec(r30),r4
    d73c:	e8 fe be 30 	lw      r5,0xfee8(r30)
    d740:	f0 ff be 34 	sw      0xfff0(r30),r5
    d744:	ec ff be 30 	lw      r5,0xffec(r30)
    d748:	ff ff c0 2c 	ldih    r6,0xffff
    d74c:	ff ff c6 18 	ori     r6,r6,0xffff
    d750:	f0 ff fe 30 	lw      r7,0xfff0(r30)
    d754:	0f 00 80 2c 	ldih    r4,0x000f
    d758:	ff ff 84 18 	ori     r4,r4,0xffff
    d75c:	04 30 a5 00 	and     r5,r5,r6
    d760:	dc fe be 34 	sw      0xfedc(r30),r5
    d764:	04 20 e7 00 	and     r7,r7,r4
    d768:	e0 fe fe 34 	sw      0xfee0(r30),r7
    d76c:	dc fe de 30 	lw      r6,0xfedc(r30)
    d770:	f4 ff de 34 	sw      0xfff4(r30),r6
    d774:	e0 fe 9e 30 	lw      r4,0xfee0(r30)
    d778:	f8 ff 9e 34 	sw      0xfff8(r30),r4
    d77c:	e4 ff 9e 30 	lw      r4,0xffe4(r30)
    d780:	1f 00 84 28 	asri    r4,r4,0x001f
    d784:	e4 ff be 30 	lw      r5,0xffe4(r30)
    d788:	d4 fe be 34 	sw      0xfed4(r30),r5
    d78c:	d8 fe 9e 34 	sw      0xfed8(r30),r4
    d790:	d4 fe de 30 	lw      r6,0xfed4(r30)
    d794:	ff 07 c6 14 	andi    r6,r6,0x07ff
    d798:	cc fe de 34 	sw      0xfecc(r30),r6
    d79c:	d8 fe 9e 30 	lw      r4,0xfed8(r30)
    d7a0:	00 00 84 14 	andi    r4,r4,0x0000
    d7a4:	d0 fe 9e 34 	sw      0xfed0(r30),r4
    d7a8:	cc fe be 30 	lw      r5,0xfecc(r30)
    d7ac:	14 00 a5 20 	lsli    r5,r5,0x0014
    d7b0:	c8 fe be 34 	sw      0xfec8(r30),r5
    d7b4:	00 00 c0 18 	ori     r6,r0,0x0000
    d7b8:	c4 fe de 34 	sw      0xfec4(r30),r6
    d7bc:	f4 ff 9e 30 	lw      r4,0xfff4(r30)
    d7c0:	f8 ff be 30 	lw      r5,0xfff8(r30)
    d7c4:	c4 fe de 30 	lw      r6,0xfec4(r30)
    d7c8:	05 20 c6 00 	orr     r6,r6,r4
    d7cc:	bc fe de 34 	sw      0xfebc(r30),r6
    d7d0:	c8 fe 9e 30 	lw      r4,0xfec8(r30)
    d7d4:	05 28 84 00 	orr     r4,r4,r5
    d7d8:	c0 fe 9e 34 	sw      0xfec0(r30),r4
    d7dc:	bc fe be 30 	lw      r5,0xfebc(r30)
    d7e0:	f4 ff be 34 	sw      0xfff4(r30),r5
    d7e4:	c0 fe de 30 	lw      r6,0xfec0(r30)
    d7e8:	f8 ff de 34 	sw      0xfff8(r30),r6
    d7ec:	e8 ff 9e 30 	lw      r4,0xffe8(r30)
    d7f0:	1f 00 84 28 	asri    r4,r4,0x001f
    d7f4:	e8 ff be 30 	lw      r5,0xffe8(r30)
    d7f8:	b4 fe be 34 	sw      0xfeb4(r30),r5
    d7fc:	b8 fe 9e 34 	sw      0xfeb8(r30),r4
    d800:	b4 fe de 30 	lw      r6,0xfeb4(r30)
    d804:	01 00 c6 14 	andi    r6,r6,0x0001
    d808:	ac fe de 34 	sw      0xfeac(r30),r6
    d80c:	b8 fe 9e 30 	lw      r4,0xfeb8(r30)
    d810:	00 00 84 14 	andi    r4,r4,0x0000
    d814:	b0 fe 9e 34 	sw      0xfeb0(r30),r4
    d818:	ac fe be 30 	lw      r5,0xfeac(r30)
    d81c:	1f 00 a5 20 	lsli    r5,r5,0x001f
    d820:	a8 fe be 34 	sw      0xfea8(r30),r5
    d824:	00 00 c0 18 	ori     r6,r0,0x0000
    d828:	a4 fe de 34 	sw      0xfea4(r30),r6
    d82c:	f4 ff 9e 30 	lw      r4,0xfff4(r30)
    d830:	f8 ff be 30 	lw      r5,0xfff8(r30)
    d834:	a4 fe de 30 	lw      r6,0xfea4(r30)
    d838:	05 20 c6 00 	orr     r6,r6,r4
    d83c:	9c fe de 34 	sw      0xfe9c(r30),r6
    d840:	a8 fe 9e 30 	lw      r4,0xfea8(r30)
    d844:	05 28 84 00 	orr     r4,r4,r5
    d848:	a0 fe 9e 34 	sw      0xfea0(r30),r4
    d84c:	9c fe be 30 	lw      r5,0xfe9c(r30)
    d850:	f4 ff be 34 	sw      0xfff4(r30),r5
    d854:	a0 fe de 30 	lw      r6,0xfea0(r30)
    d858:	f8 ff de 34 	sw      0xfff8(r30),r6
    d85c:	f4 ff 9e 30 	lw      r4,0xfff4(r30)
    d860:	d0 ff be 30 	lw      r5,0xffd0(r30)
    d864:	00 00 85 34 	sw      0x0000(r5),r4
    d868:	f8 ff 9e 30 	lw      r4,0xfff8(r30)
    d86c:	d0 ff de 30 	lw      r6,0xffd0(r30)
    d870:	04 00 86 34 	sw      0x0004(r6),r4
    d874:	d0 ff 5e 30 	lw      r2,0xffd0(r30)
    d878:	64 01 bd 07 	addi    r29,r29,0x0164
    d87c:	05 f0 a0 03 	orr     r29,r0,r30
    d880:	08 00 bd 07 	addi    r29,r29,0x0008
    d884:	fc ff fd 33 	lw      r31,0xfffc(r29)
    d888:	f8 ff dd 33 	lw      r30,0xfff8(r29)
    d88c:	00 00 e0 47 	jmpr    r31

0000d890 <iszero>:
    d890:	fc ff dd 37 	sw      0xfffc(r29),r30
    d894:	fc ff bd 07 	addi    r29,r29,0xfffc
    d898:	05 e8 c0 03 	orr     r30,r0,r29
    d89c:	f8 ff bd 07 	addi    r29,r29,0xfff8
    d8a0:	fc ff 9e 34 	sw      0xfffc(r30),r4
    d8a4:	00 00 80 18 	ori     r4,r0,0x0000
    d8a8:	f8 ff 9e 34 	sw      0xfff8(r30),r4
    d8ac:	fc ff 9e 30 	lw      r4,0xfffc(r30)
    d8b0:	00 00 a4 30 	lw      r5,0x0000(r4)
    d8b4:	02 00 80 18 	ori     r4,r0,0x0002
    d8b8:	02 20 05 00 	sub     r0,r5,r4
    d8bc:	03 00 40 40 	bne     0x0000d8c8
    d8c0:	01 00 80 18 	ori     r4,r0,0x0001
    d8c4:	f8 ff 9e 34 	sw      0xfff8(r30),r4
    d8c8:	f8 ff 9e 30 	lw      r4,0xfff8(r30)
    d8cc:	05 20 40 00 	orr     r2,r0,r4
    d8d0:	08 00 bd 07 	addi    r29,r29,0x0008
    d8d4:	05 f0 a0 03 	orr     r29,r0,r30
    d8d8:	04 00 bd 07 	addi    r29,r29,0x0004
    d8dc:	fc ff dd 33 	lw      r30,0xfffc(r29)
    d8e0:	00 00 e0 47 	jmpr    r31
    d8e4:	00 00 00 00 	nop
    d8e8:	00 00 00 00 	nop
    d8ec:	00 00 00 00 	nop

0000d8f0 <isinf>:
    d8f0:	fc ff dd 37 	sw      0xfffc(r29),r30
    d8f4:	fc ff bd 07 	addi    r29,r29,0xfffc
    d8f8:	05 e8 c0 03 	orr     r30,r0,r29
    d8fc:	f8 ff bd 07 	addi    r29,r29,0xfff8
    d900:	fc ff 9e 34 	sw      0xfffc(r30),r4
    d904:	00 00 80 18 	ori     r4,r0,0x0000
    d908:	f8 ff 9e 34 	sw      0xfff8(r30),r4
    d90c:	fc ff 9e 30 	lw      r4,0xfffc(r30)
    d910:	00 00 a4 30 	lw      r5,0x0000(r4)
    d914:	04 00 80 18 	ori     r4,r0,0x0004
    d918:	02 20 05 00 	sub     r0,r5,r4
    d91c:	03 00 40 40 	bne     0x0000d928
    d920:	01 00 80 18 	ori     r4,r0,0x0001
    d924:	f8 ff 9e 34 	sw      0xfff8(r30),r4
    d928:	f8 ff 9e 30 	lw      r4,0xfff8(r30)
    d92c:	05 20 40 00 	orr     r2,r0,r4
    d930:	08 00 bd 07 	addi    r29,r29,0x0008
    d934:	05 f0 a0 03 	orr     r29,r0,r30
    d938:	04 00 bd 07 	addi    r29,r29,0x0004
    d93c:	fc ff dd 33 	lw      r30,0xfffc(r29)
    d940:	00 00 e0 47 	jmpr    r31
    d944:	00 00 00 00 	nop
    d948:	00 00 00 00 	nop
    d94c:	00 00 00 00 	nop

0000d950 <isnan>:
    d950:	fc ff dd 37 	sw      0xfffc(r29),r30
    d954:	fc ff bd 07 	addi    r29,r29,0xfffc
    d958:	05 e8 c0 03 	orr     r30,r0,r29
    d95c:	f8 ff bd 07 	addi    r29,r29,0xfff8
    d960:	fc ff 9e 34 	sw      0xfffc(r30),r4
    d964:	00 00 80 18 	ori     r4,r0,0x0000
    d968:	f8 ff 9e 34 	sw      0xfff8(r30),r4
    d96c:	fc ff 9e 30 	lw      r4,0xfffc(r30)
    d970:	00 00 a4 30 	lw      r5,0x0000(r4)
    d974:	00 00 80 18 	ori     r4,r0,0x0000
    d978:	02 20 05 00 	sub     r0,r5,r4
    d97c:	07 00 00 40 	beq     0x0000d998
    d980:	fc ff 9e 30 	lw      r4,0xfffc(r30)
    d984:	00 00 a4 30 	lw      r5,0x0000(r4)
    d988:	01 00 80 18 	ori     r4,r0,0x0001
    d98c:	02 20 05 00 	sub     r0,r5,r4
    d990:	02 00 00 40 	beq     0x0000d998
    d994:	68 36 00 80 	ajmp    0x0000d9a0
    d998:	01 00 80 18 	ori     r4,r0,0x0001
    d99c:	f8 ff 9e 34 	sw      0xfff8(r30),r4
    d9a0:	f8 ff 9e 30 	lw      r4,0xfff8(r30)
    d9a4:	05 20 40 00 	orr     r2,r0,r4
    d9a8:	08 00 bd 07 	addi    r29,r29,0x0008
    d9ac:	05 f0 a0 03 	orr     r29,r0,r30
    d9b0:	04 00 bd 07 	addi    r29,r29,0x0004
    d9b4:	fc ff dd 33 	lw      r30,0xfffc(r29)
    d9b8:	00 00 e0 47 	jmpr    r31
    d9bc:	00 00 00 00 	nop

0000d9c0 <__lshrdi3>:
    d9c0:	fc ff dd 37 	sw      0xfffc(r29),r30
    d9c4:	fc ff bd 07 	addi    r29,r29,0xfffc
    d9c8:	05 e8 c0 03 	orr     r30,r0,r29
    d9cc:	d8 ff bd 07 	addi    r29,r29,0xffd8
    d9d0:	d8 ff 9e 34 	sw      0xffd8(r30),r4
    d9d4:	f8 ff be 34 	sw      0xfff8(r30),r5
    d9d8:	fc ff de 34 	sw      0xfffc(r30),r6
    d9dc:	f4 ff fe 34 	sw      0xfff4(r30),r7
    d9e0:	f4 ff be 30 	lw      r5,0xfff4(r30)
    d9e4:	00 00 80 18 	ori     r4,r0,0x0000
    d9e8:	02 20 05 00 	sub     r0,r5,r4
    d9ec:	08 00 40 40 	bne     0x0000da0c
    d9f0:	f8 ff 9e 30 	lw      r4,0xfff8(r30)
    d9f4:	d8 ff be 30 	lw      r5,0xffd8(r30)
    d9f8:	00 00 85 34 	sw      0x0000(r5),r4
    d9fc:	fc ff 9e 30 	lw      r4,0xfffc(r30)
    da00:	d8 ff be 30 	lw      r5,0xffd8(r30)
    da04:	04 00 85 34 	sw      0x0004(r5),r4
    da08:	af 36 00 80 	ajmp    0x0000dabc
    da0c:	00 00 80 18 	ori     r4,r0,0x0000
    da10:	ec ff 9e 34 	sw      0xffec(r30),r4
    da14:	00 00 80 18 	ori     r4,r0,0x0000
    da18:	f0 ff 9e 34 	sw      0xfff0(r30),r4
    da1c:	f8 ff 9e 30 	lw      r4,0xfff8(r30)
    da20:	ec ff 9e 34 	sw      0xffec(r30),r4
    da24:	fc ff 9e 30 	lw      r4,0xfffc(r30)
    da28:	f0 ff 9e 34 	sw      0xfff0(r30),r4
    da2c:	20 00 a0 18 	ori     r5,r0,0x0020
    da30:	f4 ff 9e 30 	lw      r4,0xfff4(r30)
    da34:	02 20 85 00 	sub     r4,r5,r4
    da38:	e8 ff 9e 34 	sw      0xffe8(r30),r4
    da3c:	e8 ff be 30 	lw      r5,0xffe8(r30)
    da40:	00 00 80 18 	ori     r4,r0,0x0000
    da44:	02 20 05 00 	sub     r0,r5,r4
    da48:	09 00 00 43 	bgt     0x0000da6c
    da4c:	00 00 80 18 	ori     r4,r0,0x0000
    da50:	e4 ff 9e 34 	sw      0xffe4(r30),r4
    da54:	e8 ff 9e 30 	lw      r4,0xffe8(r30)
    da58:	02 20 a0 00 	sub     r5,r0,r4
    da5c:	f0 ff 9e 30 	lw      r4,0xfff0(r30)
    da60:	08 28 84 00 	lsr     r4,r4,r5
    da64:	e0 ff 9e 34 	sw      0xffe0(r30),r4
    da68:	a9 36 00 80 	ajmp    0x0000daa4
    da6c:	f0 ff be 30 	lw      r5,0xfff0(r30)
    da70:	e8 ff 9e 30 	lw      r4,0xffe8(r30)
    da74:	07 20 85 00 	lsl     r4,r5,r4
    da78:	dc ff 9e 34 	sw      0xffdc(r30),r4
    da7c:	f0 ff be 30 	lw      r5,0xfff0(r30)
    da80:	f4 ff 9e 30 	lw      r4,0xfff4(r30)
    da84:	08 20 85 00 	lsr     r4,r5,r4
    da88:	e4 ff 9e 34 	sw      0xffe4(r30),r4
    da8c:	ec ff be 30 	lw      r5,0xffec(r30)
    da90:	f4 ff 9e 30 	lw      r4,0xfff4(r30)
    da94:	08 20 a5 00 	lsr     r5,r5,r4
    da98:	dc ff 9e 30 	lw      r4,0xffdc(r30)
    da9c:	05 20 85 00 	orr     r4,r5,r4
    daa0:	e0 ff 9e 34 	sw      0xffe0(r30),r4
    daa4:	e0 ff 9e 30 	lw      r4,0xffe0(r30)
    daa8:	d8 ff be 30 	lw      r5,0xffd8(r30)
    daac:	00 00 85 34 	sw      0x0000(r5),r4
    dab0:	e4 ff 9e 30 	lw      r4,0xffe4(r30)
    dab4:	d8 ff be 30 	lw      r5,0xffd8(r30)
    dab8:	04 00 85 34 	sw      0x0004(r5),r4
    dabc:	d8 ff 5e 30 	lw      r2,0xffd8(r30)
    dac0:	28 00 bd 07 	addi    r29,r29,0x0028
    dac4:	05 f0 a0 03 	orr     r29,r0,r30
    dac8:	04 00 bd 07 	addi    r29,r29,0x0004
    dacc:	fc ff dd 33 	lw      r30,0xfffc(r29)
    dad0:	00 00 e0 47 	jmpr    r31
    dad4:	00 00 00 00 	nop
    dad8:	00 00 00 00 	nop
    dadc:	00 00 00 00 	nop

0000dae0 <__muldi3>:
    dae0:	fc ff dd 37 	sw      0xfffc(r29),r30
    dae4:	fc ff bd 07 	addi    r29,r29,0xfffc
    dae8:	05 e8 c0 03 	orr     r30,r0,r29
    daec:	a4 ff bd 07 	addi    r29,r29,0xffa4
    daf0:	b4 ff 9e 34 	sw      0xffb4(r30),r4
    daf4:	f8 ff be 34 	sw      0xfff8(r30),r5
    daf8:	fc ff de 34 	sw      0xfffc(r30),r6
    dafc:	00 00 80 18 	ori     r4,r0,0x0000
    db00:	f0 ff 9e 34 	sw      0xfff0(r30),r4
    db04:	00 00 80 18 	ori     r4,r0,0x0000
    db08:	f4 ff 9e 34 	sw      0xfff4(r30),r4
    db0c:	f8 ff 9e 30 	lw      r4,0xfff8(r30)
    db10:	f0 ff 9e 34 	sw      0xfff0(r30),r4
    db14:	fc ff 9e 30 	lw      r4,0xfffc(r30)
    db18:	f4 ff 9e 34 	sw      0xfff4(r30),r4
    db1c:	04 00 9e 30 	lw      r4,0x0004(r30)
    db20:	ac ff 9e 34 	sw      0xffac(r30),r4
    db24:	08 00 be 30 	lw      r5,0x0008(r30)
    db28:	b0 ff be 34 	sw      0xffb0(r30),r5
    db2c:	ac ff 9e 30 	lw      r4,0xffac(r30)
    db30:	e8 ff 9e 34 	sw      0xffe8(r30),r4
    db34:	b0 ff be 30 	lw      r5,0xffb0(r30)
    db38:	ec ff be 34 	sw      0xffec(r30),r5
    db3c:	00 00 80 18 	ori     r4,r0,0x0000
    db40:	e0 ff 9e 34 	sw      0xffe0(r30),r4
    db44:	00 00 80 18 	ori     r4,r0,0x0000
    db48:	e4 ff 9e 34 	sw      0xffe4(r30),r4
    db4c:	f0 ff 9e 30 	lw      r4,0xfff0(r30)
    db50:	ff ff 84 14 	andi    r4,r4,0xffff
    db54:	c4 ff 9e 34 	sw      0xffc4(r30),r4
    db58:	f0 ff 9e 30 	lw      r4,0xfff0(r30)
    db5c:	10 00 84 24 	lsri    r4,r4,0x0010
    db60:	bc ff 9e 34 	sw      0xffbc(r30),r4
    db64:	e8 ff 9e 30 	lw      r4,0xffe8(r30)
    db68:	ff ff 84 14 	andi    r4,r4,0xffff
    db6c:	c0 ff 9e 34 	sw      0xffc0(r30),r4
    db70:	e8 ff 9e 30 	lw      r4,0xffe8(r30)
    db74:	10 00 84 24 	lsri    r4,r4,0x0010
    db78:	b8 ff 9e 34 	sw      0xffb8(r30),r4
    db7c:	c4 ff be 30 	lw      r5,0xffc4(r30)
    db80:	c0 ff 9e 30 	lw      r4,0xffc0(r30)
    db84:	0a 20 85 00 	mul     r4,r5,r4
    db88:	d4 ff 9e 34 	sw      0xffd4(r30),r4
    db8c:	c4 ff be 30 	lw      r5,0xffc4(r30)
    db90:	b8 ff 9e 30 	lw      r4,0xffb8(r30)
    db94:	0a 20 85 00 	mul     r4,r5,r4
    db98:	d0 ff 9e 34 	sw      0xffd0(r30),r4
    db9c:	bc ff be 30 	lw      r5,0xffbc(r30)
    dba0:	c0 ff 9e 30 	lw      r4,0xffc0(r30)
    dba4:	0a 20 85 00 	mul     r4,r5,r4
    dba8:	cc ff 9e 34 	sw      0xffcc(r30),r4
    dbac:	bc ff be 30 	lw      r5,0xffbc(r30)
    dbb0:	b8 ff 9e 30 	lw      r4,0xffb8(r30)
    dbb4:	0a 20 85 00 	mul     r4,r5,r4
    dbb8:	c8 ff 9e 34 	sw      0xffc8(r30),r4
    dbbc:	d4 ff 9e 30 	lw      r4,0xffd4(r30)
    dbc0:	10 00 a4 24 	lsri    r5,r4,0x0010
    dbc4:	d0 ff 9e 30 	lw      r4,0xffd0(r30)
    dbc8:	00 28 84 00 	add     r4,r4,r5
    dbcc:	d0 ff 9e 34 	sw      0xffd0(r30),r4
    dbd0:	d0 ff be 30 	lw      r5,0xffd0(r30)
    dbd4:	cc ff 9e 30 	lw      r4,0xffcc(r30)
    dbd8:	00 20 85 00 	add     r4,r5,r4
    dbdc:	d0 ff 9e 34 	sw      0xffd0(r30),r4
    dbe0:	d0 ff be 30 	lw      r5,0xffd0(r30)
    dbe4:	cc ff 9e 30 	lw      r4,0xffcc(r30)
    dbe8:	02 20 05 00 	sub     r0,r5,r4
    dbec:	06 00 00 41 	bhs     0x0000dc04
    dbf0:	c8 ff 9e 30 	lw      r4,0xffc8(r30)
    dbf4:	01 00 a0 2c 	ldih    r5,0x0001
    dbf8:	00 00 a5 18 	ori     r5,r5,0x0000
    dbfc:	00 28 84 00 	add     r4,r4,r5
    dc00:	c8 ff 9e 34 	sw      0xffc8(r30),r4
    dc04:	d0 ff 9e 30 	lw      r4,0xffd0(r30)
    dc08:	10 00 a4 24 	lsri    r5,r4,0x0010
    dc0c:	c8 ff 9e 30 	lw      r4,0xffc8(r30)
    dc10:	00 20 85 00 	add     r4,r5,r4
    dc14:	dc ff 9e 34 	sw      0xffdc(r30),r4
    dc18:	d0 ff 9e 30 	lw      r4,0xffd0(r30)
    dc1c:	ff ff 84 14 	andi    r4,r4,0xffff
    dc20:	10 00 a4 20 	lsli    r5,r4,0x0010
    dc24:	d4 ff 9e 30 	lw      r4,0xffd4(r30)
    dc28:	ff ff 84 14 	andi    r4,r4,0xffff
    dc2c:	00 20 85 00 	add     r4,r5,r4
    dc30:	d8 ff 9e 34 	sw      0xffd8(r30),r4
    dc34:	d8 ff 9e 30 	lw      r4,0xffd8(r30)
    dc38:	a4 ff 9e 34 	sw      0xffa4(r30),r4
    dc3c:	dc ff be 30 	lw      r5,0xffdc(r30)
    dc40:	a8 ff be 34 	sw      0xffa8(r30),r5
    dc44:	a4 ff 9e 30 	lw      r4,0xffa4(r30)
    dc48:	e0 ff 9e 34 	sw      0xffe0(r30),r4
    dc4c:	a8 ff be 30 	lw      r5,0xffa8(r30)
    dc50:	e4 ff be 34 	sw      0xffe4(r30),r5
    dc54:	f0 ff be 30 	lw      r5,0xfff0(r30)
    dc58:	ec ff 9e 30 	lw      r4,0xffec(r30)
    dc5c:	0a 20 c5 00 	mul     r6,r5,r4
    dc60:	f4 ff be 30 	lw      r5,0xfff4(r30)
    dc64:	e8 ff 9e 30 	lw      r4,0xffe8(r30)
    dc68:	0a 20 85 00 	mul     r4,r5,r4
    dc6c:	00 20 a6 00 	add     r5,r6,r4
    dc70:	e4 ff 9e 30 	lw      r4,0xffe4(r30)
    dc74:	00 28 84 00 	add     r4,r4,r5
    dc78:	e4 ff 9e 34 	sw      0xffe4(r30),r4
    dc7c:	e0 ff 9e 30 	lw      r4,0xffe0(r30)
    dc80:	b4 ff be 30 	lw      r5,0xffb4(r30)
    dc84:	00 00 85 34 	sw      0x0000(r5),r4
    dc88:	e4 ff 9e 30 	lw      r4,0xffe4(r30)
    dc8c:	b4 ff be 30 	lw      r5,0xffb4(r30)
    dc90:	04 00 85 34 	sw      0x0004(r5),r4
    dc94:	b4 ff 5e 30 	lw      r2,0xffb4(r30)
    dc98:	5c 00 bd 07 	addi    r29,r29,0x005c
    dc9c:	05 f0 a0 03 	orr     r29,r0,r30
    dca0:	04 00 bd 07 	addi    r29,r29,0x0004
    dca4:	fc ff dd 33 	lw      r30,0xfffc(r29)
    dca8:	00 00 e0 47 	jmpr    r31
    dcac:	00 00 00 00 	nop

0000dcb0 <__ashldi3>:
    dcb0:	fc ff dd 37 	sw      0xfffc(r29),r30
    dcb4:	fc ff bd 07 	addi    r29,r29,0xfffc
    dcb8:	05 e8 c0 03 	orr     r30,r0,r29
    dcbc:	d8 ff bd 07 	addi    r29,r29,0xffd8
    dcc0:	d8 ff 9e 34 	sw      0xffd8(r30),r4
    dcc4:	f8 ff be 34 	sw      0xfff8(r30),r5
    dcc8:	fc ff de 34 	sw      0xfffc(r30),r6
    dccc:	f4 ff fe 34 	sw      0xfff4(r30),r7
    dcd0:	f4 ff be 30 	lw      r5,0xfff4(r30)
    dcd4:	00 00 80 18 	ori     r4,r0,0x0000
    dcd8:	02 20 05 00 	sub     r0,r5,r4
    dcdc:	08 00 40 40 	bne     0x0000dcfc
    dce0:	f8 ff 9e 30 	lw      r4,0xfff8(r30)
    dce4:	d8 ff be 30 	lw      r5,0xffd8(r30)
    dce8:	00 00 85 34 	sw      0x0000(r5),r4
    dcec:	fc ff 9e 30 	lw      r4,0xfffc(r30)
    dcf0:	d8 ff be 30 	lw      r5,0xffd8(r30)
    dcf4:	04 00 85 34 	sw      0x0004(r5),r4
    dcf8:	6b 37 00 80 	ajmp    0x0000ddac
    dcfc:	00 00 80 18 	ori     r4,r0,0x0000
    dd00:	ec ff 9e 34 	sw      0xffec(r30),r4
    dd04:	00 00 80 18 	ori     r4,r0,0x0000
    dd08:	f0 ff 9e 34 	sw      0xfff0(r30),r4
    dd0c:	f8 ff 9e 30 	lw      r4,0xfff8(r30)
    dd10:	ec ff 9e 34 	sw      0xffec(r30),r4
    dd14:	fc ff 9e 30 	lw      r4,0xfffc(r30)
    dd18:	f0 ff 9e 34 	sw      0xfff0(r30),r4
    dd1c:	20 00 a0 18 	ori     r5,r0,0x0020
    dd20:	f4 ff 9e 30 	lw      r4,0xfff4(r30)
    dd24:	02 20 85 00 	sub     r4,r5,r4
    dd28:	e8 ff 9e 34 	sw      0xffe8(r30),r4
    dd2c:	e8 ff be 30 	lw      r5,0xffe8(r30)
    dd30:	00 00 80 18 	ori     r4,r0,0x0000
    dd34:	02 20 05 00 	sub     r0,r5,r4
    dd38:	09 00 00 43 	bgt     0x0000dd5c
    dd3c:	00 00 80 18 	ori     r4,r0,0x0000
    dd40:	e0 ff 9e 34 	sw      0xffe0(r30),r4
    dd44:	e8 ff 9e 30 	lw      r4,0xffe8(r30)
    dd48:	02 20 a0 00 	sub     r5,r0,r4
    dd4c:	ec ff 9e 30 	lw      r4,0xffec(r30)
    dd50:	07 28 84 00 	lsl     r4,r4,r5
    dd54:	e4 ff 9e 34 	sw      0xffe4(r30),r4
    dd58:	65 37 00 80 	ajmp    0x0000dd94
    dd5c:	ec ff be 30 	lw      r5,0xffec(r30)
    dd60:	e8 ff 9e 30 	lw      r4,0xffe8(r30)
    dd64:	08 20 85 00 	lsr     r4,r5,r4
    dd68:	dc ff 9e 34 	sw      0xffdc(r30),r4
    dd6c:	ec ff be 30 	lw      r5,0xffec(r30)
    dd70:	f4 ff 9e 30 	lw      r4,0xfff4(r30)
    dd74:	07 20 85 00 	lsl     r4,r5,r4
    dd78:	e0 ff 9e 34 	sw      0xffe0(r30),r4
    dd7c:	f0 ff be 30 	lw      r5,0xfff0(r30)
    dd80:	f4 ff 9e 30 	lw      r4,0xfff4(r30)
    dd84:	07 20 a5 00 	lsl     r5,r5,r4
    dd88:	dc ff 9e 30 	lw      r4,0xffdc(r30)
    dd8c:	05 20 85 00 	orr     r4,r5,r4
    dd90:	e4 ff 9e 34 	sw      0xffe4(r30),r4
    dd94:	e0 ff 9e 30 	lw      r4,0xffe0(r30)
    dd98:	d8 ff be 30 	lw      r5,0xffd8(r30)
    dd9c:	00 00 85 34 	sw      0x0000(r5),r4
    dda0:	e4 ff 9e 30 	lw      r4,0xffe4(r30)
    dda4:	d8 ff be 30 	lw      r5,0xffd8(r30)
    dda8:	04 00 85 34 	sw      0x0004(r5),r4
    ddac:	d8 ff 5e 30 	lw      r2,0xffd8(r30)
    ddb0:	28 00 bd 07 	addi    r29,r29,0x0028
    ddb4:	05 f0 a0 03 	orr     r29,r0,r30
    ddb8:	04 00 bd 07 	addi    r29,r29,0x0004
    ddbc:	fc ff dd 33 	lw      r30,0xfffc(r29)
    ddc0:	00 00 e0 47 	jmpr    r31
