logic32-elf-objdump -d a.out

a.out:     file format elf32-logic32

Disassembly of section .text:

00000000 <__start>:
       0:	00 01 a0 2f 	ldih    r29,0x0100
       4:	00 00 bd 1b 	ori     r29,r29,0x0000
       8:	64 03 00 c0 	ajal    0x00000d90
       c:	03 00 00 6c 	halt    
      10:	03 00 00 6c 	halt    
      14:	00 00 00 00 	nop
      18:	00 00 00 00 	nop
      1c:	00 00 00 00 	nop
      20:	03 00 00 6c 	halt    
      24:	00 00 00 00 	nop
      28:	00 00 00 00 	nop
      2c:	00 00 00 00 	nop
      30:	03 00 00 6c 	halt    
      34:	00 00 00 00 	nop
      38:	00 00 00 00 	nop
      3c:	00 00 00 00 	nop
      40:	03 00 00 6c 	halt    
      44:	00 00 00 00 	nop
      48:	00 00 00 00 	nop
      4c:	00 00 00 00 	nop
      50:	03 00 00 6c 	halt    
      54:	00 00 00 00 	nop
      58:	00 00 00 00 	nop
      5c:	00 00 00 00 	nop
      60:	03 00 00 6c 	halt    
      64:	00 00 00 00 	nop
      68:	00 00 00 00 	nop
      6c:	00 00 00 00 	nop
      70:	03 00 00 6c 	halt    
      74:	00 00 00 00 	nop
      78:	00 00 00 00 	nop
      7c:	00 00 00 00 	nop
      80:	03 00 00 6c 	halt    
      84:	00 00 00 00 	nop
      88:	00 00 00 00 	nop
      8c:	00 00 00 00 	nop
      90:	03 00 00 6c 	halt    
      94:	00 00 00 00 	nop
      98:	00 00 00 00 	nop
      9c:	00 00 00 00 	nop

000000a0 <putchar>:
      a0:	00 80 a0 2c 	ldih    r5,0x8000
      a4:	00 00 a5 18 	ori     r5,r5,0x0000
      a8:	00 00 85 3c 	sb      0x0000(r5),r4
      ac:	00 00 40 18 	ori     r2,r0,0x0000
      b0:	00 00 e0 47 	jmpr    r31
      b4:	00 00 00 00 	nop
      b8:	00 00 00 00 	nop
      bc:	00 00 00 00 	nop

000000c0 <puts>:
      c0:	05 20 c0 00 	orr     r6,r0,r4
      c4:	00 00 a4 38 	lb      r5,0x0000(r4)
      c8:	18 00 85 20 	lsli    r4,r5,0x0018
      cc:	18 00 84 24 	lsri    r4,r4,0x0018
      d0:	00 00 e0 18 	ori     r7,r0,0x0000
      d4:	02 38 04 00 	sub     r0,r4,r7
      d8:	0c 00 00 40 	beq     0x00000108
      dc:	18 00 a5 20 	lsli    r5,r5,0x0018
      e0:	00 80 00 2e 	ldih    r16,0x8000
      e4:	00 00 10 1a 	ori     r16,r16,0x0000
      e8:	18 00 85 24 	lsri    r4,r5,0x0018
      ec:	01 00 c6 04 	addi    r6,r6,0x0001
      f0:	00 00 90 3c 	sb      0x0000(r16),r4
      f4:	00 00 86 38 	lb      r4,0x0000(r6)
      f8:	18 00 a4 20 	lsli    r5,r4,0x0018
      fc:	18 00 85 24 	lsri    r4,r5,0x0018
     100:	02 38 04 00 	sub     r0,r4,r7
     104:	f9 ff 7f 40 	bne     0x000000e8
     108:	00 80 80 2c 	ldih    r4,0x8000
     10c:	00 00 84 18 	ori     r4,r4,0x0000
     110:	0a 00 a0 18 	ori     r5,r0,0x000a
     114:	00 00 a4 3c 	sb      0x0000(r4),r5
     118:	00 00 40 18 	ori     r2,r0,0x0000
     11c:	00 00 e0 47 	jmpr    r31

00000120 <printf>:
     120:	fc ff bd 07 	addi    r29,r29,0xfffc
     124:	00 00 fd 37 	sw      0x0000(r29),r31
     128:	01 00 80 2c 	ldih    r4,0x0001
     12c:	00 00 84 18 	ori     r4,r4,0x0000
     130:	04 00 bd 30 	lw      r5,0x0004(r29)
     134:	08 00 dd 04 	addi    r6,r29,0x0008
     138:	84 01 00 c0 	ajal    0x00000610
     13c:	05 10 20 02 	orr     r17,r0,r2
     140:	01 00 c0 2c 	ldih    r6,0x0001
     144:	00 00 c6 18 	ori     r6,r6,0x0000
     148:	00 00 a6 38 	lb      r5,0x0000(r6)
     14c:	18 00 85 20 	lsli    r4,r5,0x0018
     150:	18 00 84 24 	lsri    r4,r4,0x0018
     154:	00 00 e0 18 	ori     r7,r0,0x0000
     158:	02 38 04 00 	sub     r0,r4,r7
     15c:	0c 00 00 40 	beq     0x0000018c
     160:	18 00 a5 20 	lsli    r5,r5,0x0018
     164:	00 80 00 2e 	ldih    r16,0x8000
     168:	00 00 10 1a 	ori     r16,r16,0x0000
     16c:	18 00 85 24 	lsri    r4,r5,0x0018
     170:	01 00 c6 04 	addi    r6,r6,0x0001
     174:	00 00 90 3c 	sb      0x0000(r16),r4
     178:	00 00 86 38 	lb      r4,0x0000(r6)
     17c:	18 00 a4 20 	lsli    r5,r4,0x0018
     180:	18 00 85 24 	lsri    r4,r5,0x0018
     184:	02 38 04 00 	sub     r0,r4,r7
     188:	f9 ff 7f 40 	bne     0x0000016c
     18c:	05 88 40 00 	orr     r2,r0,r17
     190:	00 00 fd 33 	lw      r31,0x0000(r29)
     194:	04 00 bd 07 	addi    r29,r29,0x0004
     198:	00 00 e0 47 	jmpr    r31
     19c:	00 00 00 00 	nop

000001a0 <_putint0>:
     1a0:	f8 ff bd 07 	addi    r29,r29,0xfff8
     1a4:	00 00 fd 37 	sw      0x0000(r29),r31
     1a8:	04 00 1d 35 	sw      0x0004(r29),r8
     1ac:	05 20 00 01 	orr     r8,r0,r4
     1b0:	09 00 80 18 	ori     r4,r0,0x0009
     1b4:	02 20 08 00 	sub     r0,r8,r4
     1b8:	0b 00 00 43 	bgt     0x000001e4
     1bc:	0a 00 80 18 	ori     r4,r0,0x000a
     1c0:	0c 20 88 00 	mod     r4,r8,r4
     1c4:	30 00 84 04 	addi    r4,r4,0x0030
     1c8:	00 80 a0 2c 	ldih    r5,0x8000
     1cc:	00 00 a5 18 	ori     r5,r5,0x0000
     1d0:	00 00 85 3c 	sb      0x0000(r5),r4
     1d4:	00 00 fd 33 	lw      r31,0x0000(r29)
     1d8:	04 00 1d 31 	lw      r8,0x0004(r29)
     1dc:	08 00 bd 07 	addi    r29,r29,0x0008
     1e0:	00 00 e0 47 	jmpr    r31
     1e4:	0a 00 80 18 	ori     r4,r0,0x000a
     1e8:	0b 20 88 00 	div     r4,r8,r4
     1ec:	68 00 00 c0 	ajal    0x000001a0
     1f0:	0a 00 80 18 	ori     r4,r0,0x000a
     1f4:	0c 20 88 00 	mod     r4,r8,r4
     1f8:	30 00 84 04 	addi    r4,r4,0x0030
     1fc:	00 80 a0 2c 	ldih    r5,0x8000
     200:	00 00 a5 18 	ori     r5,r5,0x0000
     204:	00 00 85 3c 	sb      0x0000(r5),r4
     208:	00 00 fd 33 	lw      r31,0x0000(r29)
     20c:	04 00 1d 31 	lw      r8,0x0004(r29)
     210:	08 00 bd 07 	addi    r29,r29,0x0008
     214:	00 00 e0 47 	jmpr    r31
     218:	00 00 00 00 	nop
     21c:	00 00 00 00 	nop

00000220 <putint>:
     220:	f8 ff bd 07 	addi    r29,r29,0xfff8
     224:	00 00 fd 37 	sw      0x0000(r29),r31
     228:	04 00 1d 35 	sw      0x0004(r29),r8
     22c:	05 20 00 01 	orr     r8,r0,r4
     230:	00 00 80 18 	ori     r4,r0,0x0000
     234:	02 20 08 00 	sub     r0,r8,r4
     238:	06 00 80 42 	bge     0x00000250
     23c:	00 80 80 2c 	ldih    r4,0x8000
     240:	00 00 84 18 	ori     r4,r4,0x0000
     244:	2d 00 a0 18 	ori     r5,r0,0x002d
     248:	00 00 a4 3c 	sb      0x0000(r4),r5
     24c:	02 40 00 01 	sub     r8,r0,r8
     250:	09 00 80 18 	ori     r4,r0,0x0009
     254:	02 20 08 00 	sub     r0,r8,r4
     258:	0c 00 00 43 	bgt     0x00000288
     25c:	0a 00 80 18 	ori     r4,r0,0x000a
     260:	0c 20 a8 00 	mod     r5,r8,r4
     264:	30 00 a5 04 	addi    r5,r5,0x0030
     268:	00 80 c0 2c 	ldih    r6,0x8000
     26c:	00 00 c6 18 	ori     r6,r6,0x0000
     270:	00 00 a6 3c 	sb      0x0000(r6),r5
     274:	00 00 86 3c 	sb      0x0000(r6),r4
     278:	00 00 fd 33 	lw      r31,0x0000(r29)
     27c:	04 00 1d 31 	lw      r8,0x0004(r29)
     280:	08 00 bd 07 	addi    r29,r29,0x0008
     284:	00 00 e0 47 	jmpr    r31
     288:	0a 00 80 18 	ori     r4,r0,0x000a
     28c:	0b 20 88 00 	div     r4,r8,r4
     290:	68 00 00 c0 	ajal    0x000001a0
     294:	0a 00 80 18 	ori     r4,r0,0x000a
     298:	0c 20 a8 00 	mod     r5,r8,r4
     29c:	30 00 a5 04 	addi    r5,r5,0x0030
     2a0:	00 80 c0 2c 	ldih    r6,0x8000
     2a4:	00 00 c6 18 	ori     r6,r6,0x0000
     2a8:	00 00 a6 3c 	sb      0x0000(r6),r5
     2ac:	00 00 86 3c 	sb      0x0000(r6),r4
     2b0:	00 00 fd 33 	lw      r31,0x0000(r29)
     2b4:	04 00 1d 31 	lw      r8,0x0004(r29)
     2b8:	08 00 bd 07 	addi    r29,r29,0x0008
     2bc:	00 00 e0 47 	jmpr    r31

000002c0 <exit>:
     2c0:	03 00 00 6c 	halt    
     2c4:	00 00 e0 47 	jmpr    r31
     2c8:	00 00 00 00 	nop
     2cc:	00 00 00 00 	nop

000002d0 <number>:
     2d0:	f0 ff bd 07 	addi    r29,r29,0xfff0
     2d4:	00 00 7d 35 	sw      0x0000(r29),r11
     2d8:	04 00 5d 35 	sw      0x0004(r29),r10
     2dc:	08 00 3d 35 	sw      0x0008(r29),r9
     2e0:	0c 00 1d 35 	sw      0x000c(r29),r8
     2e4:	dc ff bd 07 	addi    r29,r29,0xffdc
     2e8:	05 20 20 02 	orr     r17,r0,r4
     2ec:	05 28 60 02 	orr     r19,r0,r5
     2f0:	34 00 9d 32 	lw      r20,0x0034(r29)
     2f4:	38 00 dd 32 	lw      r22,0x0038(r29)
     2f8:	01 00 e0 2e 	ldih    r23,0x0001
     2fc:	98 08 f7 1a 	ori     r23,r23,0x0898
     300:	06 00 96 24 	lsri    r4,r22,0x0006
     304:	01 00 84 14 	andi    r4,r4,0x0001
     308:	00 00 40 1a 	ori     r18,r0,0x0000
     30c:	02 90 04 00 	sub     r0,r4,r18
     310:	03 00 00 40 	beq     0x0000031c
     314:	01 00 e0 2e 	ldih    r23,0x0001
     318:	bd 08 f7 1a 	ori     r23,r23,0x08bd
     31c:	04 00 96 24 	lsri    r4,r22,0x0004
     320:	01 00 84 14 	andi    r4,r4,0x0001
     324:	02 90 04 00 	sub     r0,r4,r18
     328:	04 00 00 40 	beq     0x00000338
     32c:	ff ff 80 2c 	ldih    r4,0xffff
     330:	fe ff 84 18 	ori     r4,r4,0xfffe
     334:	04 20 d6 02 	and     r22,r22,r4
     338:	fe ff a6 04 	addi    r5,r6,0xfffe
     33c:	05 90 00 02 	orr     r16,r0,r18
     340:	22 00 80 18 	ori     r4,r0,0x0022
     344:	02 20 05 00 	sub     r0,r5,r4
     348:	70 00 00 42 	bhi     0x00000508
     34c:	01 00 96 14 	andi    r4,r22,0x0001
     350:	30 00 60 19 	ori     r11,r0,0x0030
     354:	02 90 04 00 	sub     r0,r4,r18
     358:	74 00 00 40 	beq     0x00000528
     35c:	01 00 96 24 	lsri    r4,r22,0x0001
     360:	01 00 84 14 	andi    r4,r4,0x0001
     364:	00 00 a0 18 	ori     r5,r0,0x0000
     368:	02 28 04 00 	sub     r0,r4,r5
     36c:	75 00 00 40 	beq     0x00000540
     370:	02 28 13 00 	sub     r0,r19,r5
     374:	73 00 80 42 	bge     0x00000540
     378:	2d 00 40 19 	ori     r10,r0,0x002d
     37c:	02 98 60 02 	sub     r19,r0,r19
     380:	18 00 2a 21 	lsli    r9,r10,0x0018
     384:	18 00 89 24 	lsri    r4,r9,0x0018
     388:	00 00 a0 18 	ori     r5,r0,0x0000
     38c:	02 28 04 00 	sub     r0,r4,r5
     390:	02 00 00 40 	beq     0x00000398
     394:	ff ff e7 04 	addi    r7,r7,0xffff
     398:	05 00 16 25 	lsri    r8,r22,0x0005
     39c:	01 00 88 14 	andi    r4,r8,0x0001
     3a0:	02 28 04 00 	sub     r0,r4,r5
     3a4:	07 00 00 40 	beq     0x000003c0
     3a8:	10 00 80 18 	ori     r4,r0,0x0010
     3ac:	02 20 06 00 	sub     r0,r6,r4
     3b0:	96 00 00 40 	beq     0x00000608
     3b4:	08 00 80 18 	ori     r4,r0,0x0008
     3b8:	02 20 06 00 	sub     r0,r6,r4
     3bc:	8d 00 00 40 	beq     0x000005f0
     3c0:	00 00 40 1a 	ori     r18,r0,0x0000
     3c4:	02 90 13 00 	sub     r0,r19,r18
     3c8:	6b 00 00 40 	beq     0x00000574
     3cc:	05 90 a0 02 	orr     r21,r0,r18
     3d0:	ff ff 1d 06 	addi    r16,r29,0xffff
     3d4:	01 00 52 06 	addi    r18,r18,0x0001
     3d8:	01 00 10 06 	addi    r16,r16,0x0001
     3dc:	05 98 80 00 	orr     r4,r0,r19
     3e0:	0b 30 b3 00 	div     r5,r19,r6
     3e4:	05 28 60 02 	orr     r19,r0,r5
     3e8:	0c 30 84 00 	mod     r4,r4,r6
     3ec:	00 b8 84 00 	add     r4,r4,r23
     3f0:	00 00 84 38 	lb      r4,0x0000(r4)
     3f4:	00 00 90 3c 	sb      0x0000(r16),r4
     3f8:	02 a8 05 00 	sub     r0,r5,r21
     3fc:	f6 ff 7f 40 	bne     0x000003d4
     400:	02 a0 12 00 	sub     r0,r18,r20
     404:	02 00 40 43 	ble     0x0000040c
     408:	05 90 80 02 	orr     r20,r0,r18
     40c:	02 a0 e7 00 	sub     r7,r7,r20
     410:	11 00 96 14 	andi    r4,r22,0x0011
     414:	00 00 a0 18 	ori     r5,r0,0x0000
     418:	02 28 04 00 	sub     r0,r4,r5
     41c:	5a 00 00 40 	beq     0x00000584
     420:	18 00 89 24 	lsri    r4,r9,0x0018
     424:	00 00 a0 18 	ori     r5,r0,0x0000
     428:	02 28 04 00 	sub     r0,r4,r5
     42c:	03 00 00 40 	beq     0x00000438
     430:	00 00 51 3d 	sb      0x0000(r17),r10
     434:	01 00 31 06 	addi    r17,r17,0x0001
     438:	01 00 88 14 	andi    r4,r8,0x0001
     43c:	02 28 04 00 	sub     r0,r4,r5
     440:	07 00 00 40 	beq     0x0000045c
     444:	08 00 80 18 	ori     r4,r0,0x0008
     448:	02 20 06 00 	sub     r0,r6,r4
     44c:	6b 00 00 40 	beq     0x000005f8
     450:	10 00 80 18 	ori     r4,r0,0x0010
     454:	02 20 06 00 	sub     r0,r6,r4
     458:	5a 00 00 40 	beq     0x000005c0
     45c:	04 00 96 24 	lsri    r4,r22,0x0004
     460:	01 00 84 14 	andi    r4,r4,0x0001
     464:	00 00 a0 18 	ori     r5,r0,0x0000
     468:	02 28 04 00 	sub     r0,r4,r5
     46c:	4e 00 00 40 	beq     0x000005a4
     470:	05 a0 80 00 	orr     r4,r0,r20
     474:	ff ff 94 06 	addi    r20,r20,0xffff
     478:	02 90 04 00 	sub     r0,r4,r18
     47c:	08 00 40 43 	ble     0x0000049c
     480:	30 00 80 18 	ori     r4,r0,0x0030
     484:	00 00 91 3c 	sb      0x0000(r17),r4
     488:	01 00 31 06 	addi    r17,r17,0x0001
     48c:	05 a0 80 00 	orr     r4,r0,r20
     490:	ff ff 94 06 	addi    r20,r20,0xffff
     494:	02 90 04 00 	sub     r0,r4,r18
     498:	fa ff 3f 43 	bgt     0x00000480
     49c:	05 90 80 00 	orr     r4,r0,r18
     4a0:	ff ff 52 06 	addi    r18,r18,0xffff
     4a4:	00 00 c0 18 	ori     r6,r0,0x0000
     4a8:	02 30 04 00 	sub     r0,r4,r6
     4ac:	0a 00 40 43 	ble     0x000004d4
     4b0:	05 e8 a0 00 	orr     r5,r0,r29
     4b4:	00 90 85 00 	add     r4,r5,r18
     4b8:	00 00 84 38 	lb      r4,0x0000(r4)
     4bc:	00 00 91 3c 	sb      0x0000(r17),r4
     4c0:	01 00 31 06 	addi    r17,r17,0x0001
     4c4:	05 90 80 00 	orr     r4,r0,r18
     4c8:	ff ff 52 06 	addi    r18,r18,0xffff
     4cc:	02 30 04 00 	sub     r0,r4,r6
     4d0:	f9 ff 3f 43 	bgt     0x000004b4
     4d4:	05 38 80 00 	orr     r4,r0,r7
     4d8:	ff ff e7 04 	addi    r7,r7,0xffff
     4dc:	00 00 a0 18 	ori     r5,r0,0x0000
     4e0:	02 28 04 00 	sub     r0,r4,r5
     4e4:	08 00 40 43 	ble     0x00000504
     4e8:	20 00 80 18 	ori     r4,r0,0x0020
     4ec:	00 00 91 3c 	sb      0x0000(r17),r4
     4f0:	01 00 31 06 	addi    r17,r17,0x0001
     4f4:	05 38 80 00 	orr     r4,r0,r7
     4f8:	ff ff e7 04 	addi    r7,r7,0xffff
     4fc:	02 28 04 00 	sub     r0,r4,r5
     500:	fa ff 3f 43 	bgt     0x000004e8
     504:	05 88 00 02 	orr     r16,r0,r17
     508:	05 80 40 00 	orr     r2,r0,r16
     50c:	24 00 bd 07 	addi    r29,r29,0x0024
     510:	00 00 7d 31 	lw      r11,0x0000(r29)
     514:	04 00 5d 31 	lw      r10,0x0004(r29)
     518:	08 00 3d 31 	lw      r9,0x0008(r29)
     51c:	0c 00 1d 31 	lw      r8,0x000c(r29)
     520:	10 00 bd 07 	addi    r29,r29,0x0010
     524:	00 00 e0 47 	jmpr    r31
     528:	20 00 60 19 	ori     r11,r0,0x0020
     52c:	01 00 96 24 	lsri    r4,r22,0x0001
     530:	01 00 84 14 	andi    r4,r4,0x0001
     534:	00 00 a0 18 	ori     r5,r0,0x0000
     538:	02 28 04 00 	sub     r0,r4,r5
     53c:	8d ff 7f 40 	bne     0x00000370
     540:	02 00 96 24 	lsri    r4,r22,0x0002
     544:	01 00 a4 14 	andi    r5,r4,0x0001
     548:	2b 00 40 19 	ori     r10,r0,0x002b
     54c:	00 00 80 18 	ori     r4,r0,0x0000
     550:	02 20 05 00 	sub     r0,r5,r4
     554:	8b ff 7f 40 	bne     0x00000380
     558:	03 00 96 24 	lsri    r4,r22,0x0003
     55c:	01 00 84 14 	andi    r4,r4,0x0001
     560:	20 00 40 19 	ori     r10,r0,0x0020
     564:	02 28 04 00 	sub     r0,r4,r5
     568:	86 ff 7f 40 	bne     0x00000380
     56c:	05 20 40 01 	orr     r10,r0,r4
     570:	e0 00 00 80 	ajmp    0x00000380
     574:	30 00 80 18 	ori     r4,r0,0x0030
     578:	00 00 9d 3c 	sb      0x0000(r29),r4
     57c:	01 00 40 1a 	ori     r18,r0,0x0001
     580:	00 01 00 80 	ajmp    0x00000400
     584:	05 38 80 00 	orr     r4,r0,r7
     588:	ff ff e7 04 	addi    r7,r7,0xffff
     58c:	02 28 04 00 	sub     r0,r4,r5
     590:	a4 ff 7f 43 	ble     0x00000420
     594:	20 00 80 18 	ori     r4,r0,0x0020
     598:	00 00 91 3c 	sb      0x0000(r17),r4
     59c:	01 00 31 06 	addi    r17,r17,0x0001
     5a0:	61 01 00 80 	ajmp    0x00000584
     5a4:	05 38 80 00 	orr     r4,r0,r7
     5a8:	ff ff e7 04 	addi    r7,r7,0xffff
     5ac:	02 28 04 00 	sub     r0,r4,r5
     5b0:	b0 ff 7f 43 	ble     0x00000470
     5b4:	00 00 71 3d 	sb      0x0000(r17),r11
     5b8:	01 00 31 06 	addi    r17,r17,0x0001
     5bc:	69 01 00 80 	ajmp    0x000005a4
     5c0:	30 00 80 18 	ori     r4,r0,0x0030
     5c4:	00 00 91 3c 	sb      0x0000(r17),r4
     5c8:	01 00 31 06 	addi    r17,r17,0x0001
     5cc:	21 00 f7 3a 	lb      r23,0x0021(r23)
     5d0:	00 00 f1 3e 	sb      0x0000(r17),r23
     5d4:	01 00 31 06 	addi    r17,r17,0x0001
     5d8:	04 00 96 24 	lsri    r4,r22,0x0004
     5dc:	01 00 84 14 	andi    r4,r4,0x0001
     5e0:	00 00 a0 18 	ori     r5,r0,0x0000
     5e4:	02 28 04 00 	sub     r0,r4,r5
     5e8:	a2 ff 7f 40 	bne     0x00000470
     5ec:	69 01 00 80 	ajmp    0x000005a4
     5f0:	ff ff e7 04 	addi    r7,r7,0xffff
     5f4:	f0 00 00 80 	ajmp    0x000003c0
     5f8:	30 00 80 18 	ori     r4,r0,0x0030
     5fc:	00 00 91 3c 	sb      0x0000(r17),r4
     600:	01 00 31 06 	addi    r17,r17,0x0001
     604:	76 01 00 80 	ajmp    0x000005d8
     608:	fe ff e7 04 	addi    r7,r7,0xfffe
     60c:	f0 00 00 80 	ajmp    0x000003c0

00000610 <vsprintf>:
     610:	e0 ff bd 07 	addi    r29,r29,0xffe0
     614:	00 00 fd 37 	sw      0x0000(r29),r31
     618:	04 00 dd 35 	sw      0x0004(r29),r14
     61c:	08 00 bd 35 	sw      0x0008(r29),r13
     620:	0c 00 9d 35 	sw      0x000c(r29),r12
     624:	10 00 7d 35 	sw      0x0010(r29),r11
     628:	14 00 5d 35 	sw      0x0014(r29),r10
     62c:	18 00 3d 35 	sw      0x0018(r29),r9
     630:	1c 00 1d 35 	sw      0x001c(r29),r8
     634:	f4 ff bd 07 	addi    r29,r29,0xfff4
     638:	05 20 c0 01 	orr     r14,r0,r4
     63c:	05 28 00 02 	orr     r16,r0,r5
     640:	08 00 bd 34 	sw      0x0008(r29),r5
     644:	05 30 a0 01 	orr     r13,r0,r6
     648:	05 20 00 01 	orr     r8,r0,r4
     64c:	00 00 d0 38 	lb      r6,0x0000(r16)
     650:	18 00 86 20 	lsli    r4,r6,0x0018
     654:	18 00 84 24 	lsri    r4,r4,0x0018
     658:	00 00 a0 18 	ori     r5,r0,0x0000
     65c:	02 28 04 00 	sub     r0,r4,r5
     660:	13 00 00 40 	beq     0x000006ac
     664:	18 00 86 20 	lsli    r4,r6,0x0018
     668:	18 00 84 24 	lsri    r4,r4,0x0018
     66c:	25 00 a0 18 	ori     r5,r0,0x0025
     670:	00 00 20 19 	ori     r9,r0,0x0000
     674:	02 28 04 00 	sub     r0,r4,r5
     678:	1c 00 00 40 	beq     0x000006e8
     67c:	00 00 c8 3c 	sb      0x0000(r8),r6
     680:	01 00 08 05 	addi    r8,r8,0x0001
     684:	08 00 1d 32 	lw      r16,0x0008(r29)
     688:	01 00 90 04 	addi    r4,r16,0x0001
     68c:	08 00 9d 34 	sw      0x0008(r29),r4
     690:	05 20 00 02 	orr     r16,r0,r4
     694:	00 00 d0 38 	lb      r6,0x0000(r16)
     698:	18 00 86 20 	lsli    r4,r6,0x0018
     69c:	18 00 84 24 	lsri    r4,r4,0x0018
     6a0:	00 00 a0 18 	ori     r5,r0,0x0000
     6a4:	02 28 04 00 	sub     r0,r4,r5
     6a8:	ef ff 7f 40 	bne     0x00000664
     6ac:	00 00 e0 18 	ori     r7,r0,0x0000
     6b0:	00 00 e8 3c 	sb      0x0000(r8),r7
     6b4:	02 70 48 00 	sub     r2,r8,r14
     6b8:	0c 00 bd 07 	addi    r29,r29,0x000c
     6bc:	00 00 fd 33 	lw      r31,0x0000(r29)
     6c0:	04 00 dd 31 	lw      r14,0x0004(r29)
     6c4:	08 00 bd 31 	lw      r13,0x0008(r29)
     6c8:	0c 00 9d 31 	lw      r12,0x000c(r29)
     6cc:	10 00 7d 31 	lw      r11,0x0010(r29)
     6d0:	14 00 5d 31 	lw      r10,0x0014(r29)
     6d4:	18 00 3d 31 	lw      r9,0x0018(r29)
     6d8:	1c 00 1d 31 	lw      r8,0x001c(r29)
     6dc:	20 00 bd 07 	addi    r29,r29,0x0020
     6e0:	00 00 e0 47 	jmpr    r31
     6e4:	01 00 29 19 	ori     r9,r9,0x0001
     6e8:	01 00 10 06 	addi    r16,r16,0x0001
     6ec:	08 00 1d 36 	sw      0x0008(r29),r16
     6f0:	00 00 b0 38 	lb      r5,0x0000(r16)
     6f4:	18 00 85 20 	lsli    r4,r5,0x0018
     6f8:	18 00 84 24 	lsri    r4,r4,0x0018
     6fc:	e0 ff a4 04 	addi    r5,r4,0xffe0
     700:	10 00 80 18 	ori     r4,r0,0x0010
     704:	02 20 05 00 	sub     r0,r5,r4
     708:	07 00 00 42 	bhi     0x00000724
     70c:	02 00 85 20 	lsli    r4,r5,0x0002
     710:	01 00 a0 2c 	ldih    r5,0x0001
     714:	40 0a a5 18 	ori     r5,r5,0x0a40
     718:	00 28 84 00 	add     r4,r4,r5
     71c:	00 00 84 30 	lw      r4,0x0000(r4)
     720:	00 00 80 44 	jmpr    r4
     724:	ff ff 40 2d 	ldih    r10,0xffff
     728:	ff ff 4a 19 	ori     r10,r10,0xffff
     72c:	00 00 b0 38 	lb      r5,0x0000(r16)
     730:	d0 ff 85 04 	addi    r4,r5,0xffd0
     734:	18 00 84 20 	lsli    r4,r4,0x0018
     738:	18 00 84 24 	lsri    r4,r4,0x0018
     73c:	09 00 20 1a 	ori     r17,r0,0x0009
     740:	02 88 04 00 	sub     r0,r4,r17
     744:	85 00 00 42 	bhi     0x00000958
     748:	08 00 1d 06 	addi    r16,r29,0x0008
     74c:	00 00 e0 18 	ori     r7,r0,0x0000
     750:	00 00 d0 30 	lw      r6,0x0000(r16)
     754:	03 00 87 20 	lsli    r4,r7,0x0003
     758:	00 38 84 00 	add     r4,r4,r7
     75c:	00 38 84 00 	add     r4,r4,r7
     760:	00 00 e6 38 	lb      r7,0x0000(r6)
     764:	18 00 a7 20 	lsli    r5,r7,0x0018
     768:	18 00 a5 24 	lsri    r5,r5,0x0018
     76c:	00 28 84 00 	add     r4,r4,r5
     770:	d0 ff e4 04 	addi    r7,r4,0xffd0
     774:	01 00 86 04 	addi    r4,r6,0x0001
     778:	05 20 c0 00 	orr     r6,r0,r4
     77c:	00 00 90 34 	sw      0x0000(r16),r4
     780:	00 00 84 39 	lb      r12,0x0000(r4)
     784:	d0 ff 8c 04 	addi    r4,r12,0xffd0
     788:	18 00 84 20 	lsli    r4,r4,0x0018
     78c:	18 00 84 24 	lsri    r4,r4,0x0018
     790:	02 88 04 00 	sub     r0,r4,r17
     794:	f0 ff 7f 42 	bls     0x00000754
     798:	08 00 1d 32 	lw      r16,0x0008(r29)
     79c:	05 38 40 01 	orr     r10,r0,r7
     7a0:	ff ff 80 2d 	ldih    r12,0xffff
     7a4:	ff ff 8c 19 	ori     r12,r12,0xffff
     7a8:	00 00 b0 38 	lb      r5,0x0000(r16)
     7ac:	18 00 85 20 	lsli    r4,r5,0x0018
     7b0:	18 00 84 24 	lsri    r4,r4,0x0018
     7b4:	2e 00 a0 18 	ori     r5,r0,0x002e
     7b8:	02 28 04 00 	sub     r0,r4,r5
     7bc:	22 00 00 40 	beq     0x00000844
     7c0:	00 00 b0 38 	lb      r5,0x0000(r16)
     7c4:	18 00 85 20 	lsli    r4,r5,0x0018
     7c8:	18 00 a4 24 	lsri    r5,r4,0x0018
     7cc:	68 00 80 18 	ori     r4,r0,0x0068
     7d0:	02 20 05 00 	sub     r0,r5,r4
     7d4:	45 00 00 40 	beq     0x000008e8
     7d8:	6c 00 80 18 	ori     r4,r0,0x006c
     7dc:	02 20 05 00 	sub     r0,r5,r4
     7e0:	42 00 00 40 	beq     0x000008e8
     7e4:	4c 00 80 18 	ori     r4,r0,0x004c
     7e8:	02 20 05 00 	sub     r0,r5,r4
     7ec:	3f 00 00 40 	beq     0x000008e8
     7f0:	00 00 f0 38 	lb      r7,0x0000(r16)
     7f4:	18 00 87 20 	lsli    r4,r7,0x0018
     7f8:	18 00 84 24 	lsri    r4,r4,0x0018
     7fc:	a8 ff a4 04 	addi    r5,r4,0xffa8
     800:	20 00 80 18 	ori     r4,r0,0x0020
     804:	02 20 05 00 	sub     r0,r5,r4
     808:	41 00 00 42 	bhi     0x0000090c
     80c:	02 00 85 20 	lsli    r4,r5,0x0002
     810:	01 00 a0 2c 	ldih    r5,0x0001
     814:	90 0a a5 18 	ori     r5,r5,0x0a90
     818:	00 28 84 00 	add     r4,r4,r5
     81c:	00 00 84 30 	lw      r4,0x0000(r4)
     820:	00 00 80 44 	jmpr    r4
     824:	10 00 29 19 	ori     r9,r9,0x0010
     828:	ba 01 00 80 	ajmp    0x000006e8
     82c:	04 00 29 19 	ori     r9,r9,0x0004
     830:	ba 01 00 80 	ajmp    0x000006e8
     834:	20 00 29 19 	ori     r9,r9,0x0020
     838:	ba 01 00 80 	ajmp    0x000006e8
     83c:	08 00 29 19 	ori     r9,r9,0x0008
     840:	ba 01 00 80 	ajmp    0x000006e8
     844:	01 00 10 06 	addi    r16,r16,0x0001
     848:	08 00 1d 36 	sw      0x0008(r29),r16
     84c:	00 00 b0 38 	lb      r5,0x0000(r16)
     850:	d0 ff 85 04 	addi    r4,r5,0xffd0
     854:	18 00 84 20 	lsli    r4,r4,0x0018
     858:	18 00 84 24 	lsri    r4,r4,0x0018
     85c:	09 00 e0 18 	ori     r7,r0,0x0009
     860:	02 38 04 00 	sub     r0,r4,r7
     864:	52 00 00 42 	bhi     0x000009ac
     868:	08 00 7d 05 	addi    r11,r29,0x0008
     86c:	00 00 a0 18 	ori     r5,r0,0x0000
     870:	05 80 c0 00 	orr     r6,r0,r16
     874:	03 00 85 20 	lsli    r4,r5,0x0003
     878:	00 28 84 00 	add     r4,r4,r5
     87c:	00 28 84 00 	add     r4,r4,r5
     880:	00 00 86 39 	lb      r12,0x0000(r6)
     884:	18 00 ac 20 	lsli    r5,r12,0x0018
     888:	18 00 a5 24 	lsri    r5,r5,0x0018
     88c:	00 28 84 00 	add     r4,r4,r5
     890:	d0 ff a4 04 	addi    r5,r4,0xffd0
     894:	01 00 86 04 	addi    r4,r6,0x0001
     898:	05 20 c0 00 	orr     r6,r0,r4
     89c:	00 00 8b 34 	sw      0x0000(r11),r4
     8a0:	00 00 84 39 	lb      r12,0x0000(r4)
     8a4:	d0 ff 8c 04 	addi    r4,r12,0xffd0
     8a8:	18 00 84 20 	lsli    r4,r4,0x0018
     8ac:	18 00 84 24 	lsri    r4,r4,0x0018
     8b0:	02 38 04 00 	sub     r0,r4,r7
     8b4:	f0 ff 7f 42 	bls     0x00000874
     8b8:	08 00 1d 32 	lw      r16,0x0008(r29)
     8bc:	05 28 80 01 	orr     r12,r0,r5
     8c0:	00 00 80 18 	ori     r4,r0,0x0000
     8c4:	02 20 0c 00 	sub     r0,r12,r4
     8c8:	be ff bf 42 	bge     0x000007c0
     8cc:	05 20 80 01 	orr     r12,r0,r4
     8d0:	00 00 b0 38 	lb      r5,0x0000(r16)
     8d4:	18 00 85 20 	lsli    r4,r5,0x0018
     8d8:	18 00 a4 24 	lsri    r5,r4,0x0018
     8dc:	68 00 80 18 	ori     r4,r0,0x0068
     8e0:	02 20 05 00 	sub     r0,r5,r4
     8e4:	bd ff 7f 40 	bne     0x000007d8
     8e8:	01 00 10 06 	addi    r16,r16,0x0001
     8ec:	08 00 1d 36 	sw      0x0008(r29),r16
     8f0:	00 00 f0 38 	lb      r7,0x0000(r16)
     8f4:	18 00 87 20 	lsli    r4,r7,0x0018
     8f8:	18 00 84 24 	lsri    r4,r4,0x0018
     8fc:	a8 ff a4 04 	addi    r5,r4,0xffa8
     900:	20 00 80 18 	ori     r4,r0,0x0020
     904:	02 20 05 00 	sub     r0,r5,r4
     908:	c1 ff 7f 42 	bls     0x0000080c
     90c:	00 00 b0 38 	lb      r5,0x0000(r16)
     910:	18 00 85 20 	lsli    r4,r5,0x0018
     914:	18 00 84 24 	lsri    r4,r4,0x0018
     918:	25 00 a0 18 	ori     r5,r0,0x0025
     91c:	02 28 04 00 	sub     r0,r4,r5
     920:	04 00 00 40 	beq     0x00000930
     924:	00 00 a8 3c 	sb      0x0000(r8),r5
     928:	01 00 08 05 	addi    r8,r8,0x0001
     92c:	08 00 1d 32 	lw      r16,0x0008(r29)
     930:	00 00 d0 38 	lb      r6,0x0000(r16)
     934:	18 00 86 20 	lsli    r4,r6,0x0018
     938:	18 00 84 24 	lsri    r4,r4,0x0018
     93c:	ff ff 10 06 	addi    r16,r16,0xffff
     940:	00 00 a0 18 	ori     r5,r0,0x0000
     944:	02 28 04 00 	sub     r0,r4,r5
     948:	50 ff 3f 40 	beq     0x00000688
     94c:	00 00 c8 3c 	sb      0x0000(r8),r6
     950:	01 00 08 05 	addi    r8,r8,0x0001
     954:	a1 01 00 80 	ajmp    0x00000684
     958:	18 00 85 20 	lsli    r4,r5,0x0018
     95c:	18 00 84 24 	lsri    r4,r4,0x0018
     960:	2a 00 a0 18 	ori     r5,r0,0x002a
     964:	02 28 04 00 	sub     r0,r4,r5
     968:	8e ff 7f 40 	bne     0x000007a0
     96c:	04 00 ad 05 	addi    r13,r13,0x0004
     970:	fc ff 4d 31 	lw      r10,0xfffc(r13)
     974:	00 00 80 18 	ori     r4,r0,0x0000
     978:	02 20 0a 00 	sub     r0,r10,r4
     97c:	89 ff bf 42 	bge     0x000007a0
     980:	02 50 40 01 	sub     r10,r0,r10
     984:	10 00 29 19 	ori     r9,r9,0x0010
     988:	ff ff 80 2d 	ldih    r12,0xffff
     98c:	ff ff 8c 19 	ori     r12,r12,0xffff
     990:	00 00 b0 38 	lb      r5,0x0000(r16)
     994:	18 00 85 20 	lsli    r4,r5,0x0018
     998:	18 00 84 24 	lsri    r4,r4,0x0018
     99c:	2e 00 a0 18 	ori     r5,r0,0x002e
     9a0:	02 28 04 00 	sub     r0,r4,r5
     9a4:	87 ff 7f 40 	bne     0x000007c0
     9a8:	11 02 00 80 	ajmp    0x00000844
     9ac:	18 00 85 20 	lsli    r4,r5,0x0018
     9b0:	18 00 84 24 	lsri    r4,r4,0x0018
     9b4:	2a 00 a0 18 	ori     r5,r0,0x002a
     9b8:	02 28 04 00 	sub     r0,r4,r5
     9bc:	c1 ff 7f 40 	bne     0x000008c0
     9c0:	04 00 ad 05 	addi    r13,r13,0x0004
     9c4:	fc ff 8d 31 	lw      r12,0xfffc(r13)
     9c8:	30 02 00 80 	ajmp    0x000008c0
     9cc:	ff ff 80 2c 	ldih    r4,0xffff
     9d0:	ff ff 84 18 	ori     r4,r4,0xffff
     9d4:	02 20 0a 00 	sub     r0,r10,r4
     9d8:	03 00 40 40 	bne     0x000009e4
     9dc:	08 00 40 19 	ori     r10,r0,0x0008
     9e0:	01 00 29 19 	ori     r9,r9,0x0001
     9e4:	04 00 ad 05 	addi    r13,r13,0x0004
     9e8:	fc ff ad 30 	lw      r5,0xfffc(r13)
     9ec:	00 00 9d 35 	sw      0x0000(r29),r12
     9f0:	04 00 3d 35 	sw      0x0004(r29),r9
     9f4:	05 40 80 00 	orr     r4,r0,r8
     9f8:	10 00 c0 18 	ori     r6,r0,0x0010
     9fc:	05 50 e0 00 	orr     r7,r0,r10
     a00:	b4 00 00 c0 	ajal    0x000002d0
     a04:	05 10 00 01 	orr     r8,r0,r2
     a08:	08 00 1d 32 	lw      r16,0x0008(r29)
     a0c:	a2 01 00 80 	ajmp    0x00000688
     a10:	02 00 29 19 	ori     r9,r9,0x0002
     a14:	04 00 ad 05 	addi    r13,r13,0x0004
     a18:	fc ff ad 30 	lw      r5,0xfffc(r13)
     a1c:	00 00 9d 35 	sw      0x0000(r29),r12
     a20:	04 00 3d 35 	sw      0x0004(r29),r9
     a24:	05 40 80 00 	orr     r4,r0,r8
     a28:	0a 00 c0 18 	ori     r6,r0,0x000a
     a2c:	05 50 e0 00 	orr     r7,r0,r10
     a30:	b4 00 00 c0 	ajal    0x000002d0
     a34:	05 10 00 01 	orr     r8,r0,r2
     a38:	82 02 00 80 	ajmp    0x00000a08
     a3c:	40 00 29 19 	ori     r9,r9,0x0040
     a40:	04 00 ad 05 	addi    r13,r13,0x0004
     a44:	fc ff ad 30 	lw      r5,0xfffc(r13)
     a48:	00 00 9d 35 	sw      0x0000(r29),r12
     a4c:	04 00 3d 35 	sw      0x0004(r29),r9
     a50:	05 40 80 00 	orr     r4,r0,r8
     a54:	10 00 c0 18 	ori     r6,r0,0x0010
     a58:	7f 02 00 80 	ajmp    0x000009fc
     a5c:	04 00 ad 05 	addi    r13,r13,0x0004
     a60:	fc ff 6d 31 	lw      r11,0xfffc(r13)
     a64:	05 58 80 00 	orr     r4,r0,r11
     a68:	f0 02 00 c0 	ajal    0x00000bc0
     a6c:	05 10 c0 00 	orr     r6,r0,r2
     a70:	00 00 80 18 	ori     r4,r0,0x0000
     a74:	02 20 0c 00 	sub     r0,r12,r4
     a78:	04 00 c0 42 	blt     0x00000a88
     a7c:	02 60 02 00 	sub     r0,r2,r12
     a80:	02 00 40 43 	ble     0x00000a88
     a84:	05 60 c0 00 	orr     r6,r0,r12
     a88:	04 00 89 24 	lsri    r4,r9,0x0004
     a8c:	01 00 84 14 	andi    r4,r4,0x0001
     a90:	00 00 a0 18 	ori     r5,r0,0x0000
     a94:	02 28 04 00 	sub     r0,r4,r5
     a98:	40 00 00 40 	beq     0x00000b98
     a9c:	00 00 a0 18 	ori     r5,r0,0x0000
     aa0:	02 30 05 00 	sub     r0,r5,r6
     aa4:	0a 00 80 42 	bge     0x00000acc
     aa8:	05 30 a0 00 	orr     r5,r0,r6
     aac:	00 00 e0 18 	ori     r7,r0,0x0000
     ab0:	00 00 8b 38 	lb      r4,0x0000(r11)
     ab4:	01 00 6b 05 	addi    r11,r11,0x0001
     ab8:	00 00 88 3c 	sb      0x0000(r8),r4
     abc:	01 00 08 05 	addi    r8,r8,0x0001
     ac0:	ff ff a5 04 	addi    r5,r5,0xffff
     ac4:	02 38 05 00 	sub     r0,r5,r7
     ac8:	fa ff 7f 40 	bne     0x00000ab0
     acc:	05 50 80 00 	orr     r4,r0,r10
     ad0:	ff ff 4a 05 	addi    r10,r10,0xffff
     ad4:	02 30 04 00 	sub     r0,r4,r6
     ad8:	eb fe 7f 43 	ble     0x00000684
     adc:	20 00 80 19 	ori     r12,r0,0x0020
     ae0:	00 00 88 3d 	sb      0x0000(r8),r12
     ae4:	01 00 08 05 	addi    r8,r8,0x0001
     ae8:	b3 02 00 80 	ajmp    0x00000acc
     aec:	04 00 ad 05 	addi    r13,r13,0x0004
     af0:	fc ff ad 30 	lw      r5,0xfffc(r13)
     af4:	00 00 9d 35 	sw      0x0000(r29),r12
     af8:	04 00 3d 35 	sw      0x0004(r29),r9
     afc:	05 40 80 00 	orr     r4,r0,r8
     b00:	08 00 c0 18 	ori     r6,r0,0x0008
     b04:	05 50 e0 00 	orr     r7,r0,r10
     b08:	b4 00 00 c0 	ajal    0x000002d0
     b0c:	05 10 00 01 	orr     r8,r0,r2
     b10:	82 02 00 80 	ajmp    0x00000a08
     b14:	04 00 ad 05 	addi    r13,r13,0x0004
     b18:	fc ff ad 30 	lw      r5,0xfffc(r13)
     b1c:	02 70 88 00 	sub     r4,r8,r14
     b20:	00 00 85 34 	sw      0x0000(r5),r4
     b24:	01 00 90 04 	addi    r4,r16,0x0001
     b28:	08 00 9d 34 	sw      0x0008(r29),r4
     b2c:	05 20 00 02 	orr     r16,r0,r4
     b30:	a5 01 00 80 	ajmp    0x00000694
     b34:	04 00 89 24 	lsri    r4,r9,0x0004
     b38:	01 00 84 14 	andi    r4,r4,0x0001
     b3c:	00 00 a0 18 	ori     r5,r0,0x0000
     b40:	02 28 04 00 	sub     r0,r4,r5
     b44:	0e 00 00 40 	beq     0x00000b7c
     b48:	04 00 ad 05 	addi    r13,r13,0x0004
     b4c:	fc ff 8d 38 	lb      r4,0xfffc(r13)
     b50:	00 00 88 3c 	sb      0x0000(r8),r4
     b54:	01 00 08 05 	addi    r8,r8,0x0001
     b58:	ff ff 4a 05 	addi    r10,r10,0xffff
     b5c:	00 00 80 18 	ori     r4,r0,0x0000
     b60:	02 20 0a 00 	sub     r0,r10,r4
     b64:	c8 fe 7f 43 	ble     0x00000684
     b68:	20 00 a0 18 	ori     r5,r0,0x0020
     b6c:	00 00 a8 3c 	sb      0x0000(r8),r5
     b70:	01 00 08 05 	addi    r8,r8,0x0001
     b74:	ff ff 4a 05 	addi    r10,r10,0xffff
     b78:	d8 02 00 80 	ajmp    0x00000b60
     b7c:	ff ff 4a 05 	addi    r10,r10,0xffff
     b80:	02 28 0a 00 	sub     r0,r10,r5
     b84:	f1 ff 7f 43 	ble     0x00000b48
     b88:	20 00 80 19 	ori     r12,r0,0x0020
     b8c:	00 00 88 3d 	sb      0x0000(r8),r12
     b90:	01 00 08 05 	addi    r8,r8,0x0001
     b94:	df 02 00 80 	ajmp    0x00000b7c
     b98:	05 50 80 00 	orr     r4,r0,r10
     b9c:	ff ff 4a 05 	addi    r10,r10,0xffff
     ba0:	02 30 04 00 	sub     r0,r4,r6
     ba4:	be ff 7f 43 	ble     0x00000a9c
     ba8:	20 00 e0 18 	ori     r7,r0,0x0020
     bac:	00 00 e8 3c 	sb      0x0000(r8),r7
     bb0:	01 00 08 05 	addi    r8,r8,0x0001
     bb4:	e6 02 00 80 	ajmp    0x00000b98
     bb8:	00 00 00 00 	nop
     bbc:	00 00 00 00 	nop

00000bc0 <strlen>:
     bc0:	fc ff bd 07 	addi    r29,r29,0xfffc
     bc4:	00 00 1d 35 	sw      0x0000(r29),r8
     bc8:	05 20 a0 00 	orr     r5,r0,r4
     bcc:	00 00 c0 18 	ori     r6,r0,0x0000
     bd0:	00 00 e4 38 	lb      r7,0x0000(r4)
     bd4:	18 00 87 20 	lsli    r4,r7,0x0018
     bd8:	18 00 84 24 	lsri    r4,r4,0x0018
     bdc:	02 30 04 00 	sub     r0,r4,r6
     be0:	09 00 00 40 	beq     0x00000c04
     be4:	05 30 e0 00 	orr     r7,r0,r6
     be8:	01 00 c6 04 	addi    r6,r6,0x0001
     bec:	01 00 a5 04 	addi    r5,r5,0x0001
     bf0:	00 00 05 39 	lb      r8,0x0000(r5)
     bf4:	18 00 88 20 	lsli    r4,r8,0x0018
     bf8:	18 00 84 24 	lsri    r4,r4,0x0018
     bfc:	02 38 04 00 	sub     r0,r4,r7
     c00:	fa ff 7f 40 	bne     0x00000be8
     c04:	05 30 40 00 	orr     r2,r0,r6
     c08:	00 00 1d 31 	lw      r8,0x0000(r29)
     c0c:	04 00 bd 07 	addi    r29,r29,0x0004
     c10:	00 00 e0 47 	jmpr    r31
     c14:	00 00 00 00 	nop
     c18:	00 00 00 00 	nop
     c1c:	00 00 00 00 	nop

00000c20 <strcmp>:
     c20:	fc ff bd 07 	addi    r29,r29,0xfffc
     c24:	00 00 1d 35 	sw      0x0000(r29),r8
     c28:	05 20 00 02 	orr     r16,r0,r4
     c2c:	05 28 e0 00 	orr     r7,r0,r5
     c30:	00 00 c4 38 	lb      r6,0x0000(r4)
     c34:	18 00 a6 20 	lsli    r5,r6,0x0018
     c38:	18 00 a5 24 	lsri    r5,r5,0x0018
     c3c:	00 00 07 39 	lb      r8,0x0000(r7)
     c40:	18 00 88 20 	lsli    r4,r8,0x0018
     c44:	18 00 84 24 	lsri    r4,r4,0x0018
     c48:	02 20 05 00 	sub     r0,r5,r4
     c4c:	10 00 40 40 	bne     0x00000c8c
     c50:	18 00 c6 20 	lsli    r6,r6,0x0018
     c54:	00 00 20 1a 	ori     r17,r0,0x0000
     c58:	18 00 a6 24 	lsri    r5,r6,0x0018
     c5c:	02 88 05 00 	sub     r0,r5,r17
     c60:	0d 00 00 40 	beq     0x00000c94
     c64:	01 00 10 06 	addi    r16,r16,0x0001
     c68:	01 00 e7 04 	addi    r7,r7,0x0001
     c6c:	00 00 90 38 	lb      r4,0x0000(r16)
     c70:	18 00 c4 20 	lsli    r6,r4,0x0018
     c74:	18 00 a6 24 	lsri    r5,r6,0x0018
     c78:	00 00 07 39 	lb      r8,0x0000(r7)
     c7c:	18 00 88 20 	lsli    r4,r8,0x0018
     c80:	18 00 84 24 	lsri    r4,r4,0x0018
     c84:	02 20 05 00 	sub     r0,r5,r4
     c88:	f4 ff 3f 40 	beq     0x00000c58
     c8c:	ff ff a0 2c 	ldih    r5,0xffff
     c90:	ff ff a5 18 	ori     r5,r5,0xffff
     c94:	05 28 40 00 	orr     r2,r0,r5
     c98:	00 00 1d 31 	lw      r8,0x0000(r29)
     c9c:	04 00 bd 07 	addi    r29,r29,0x0004
     ca0:	00 00 e0 47 	jmpr    r31
     ca4:	00 00 00 00 	nop
     ca8:	00 00 00 00 	nop
     cac:	00 00 00 00 	nop

00000cb0 <strncmp>:
     cb0:	fc ff bd 07 	addi    r29,r29,0xfffc
     cb4:	00 00 1d 35 	sw      0x0000(r29),r8
     cb8:	05 20 20 02 	orr     r17,r0,r4
     cbc:	05 28 00 02 	orr     r16,r0,r5
     cc0:	00 00 e4 38 	lb      r7,0x0000(r4)
     cc4:	18 00 a7 20 	lsli    r5,r7,0x0018
     cc8:	18 00 a5 24 	lsri    r5,r5,0x0018
     ccc:	00 00 10 39 	lb      r8,0x0000(r16)
     cd0:	18 00 88 20 	lsli    r4,r8,0x0018
     cd4:	18 00 84 24 	lsri    r4,r4,0x0018
     cd8:	02 20 05 00 	sub     r0,r5,r4
     cdc:	16 00 40 40 	bne     0x00000d34
     ce0:	00 00 80 18 	ori     r4,r0,0x0000
     ce4:	02 20 06 00 	sub     r0,r6,r4
     ce8:	13 00 00 40 	beq     0x00000d34
     cec:	18 00 e7 20 	lsli    r7,r7,0x0018
     cf0:	05 20 40 02 	orr     r18,r0,r4
     cf4:	18 00 87 24 	lsri    r4,r7,0x0018
     cf8:	02 90 04 00 	sub     r0,r4,r18
     cfc:	14 00 00 40 	beq     0x00000d4c
     d00:	01 00 31 06 	addi    r17,r17,0x0001
     d04:	01 00 10 06 	addi    r16,r16,0x0001
     d08:	ff ff c6 04 	addi    r6,r6,0xffff
     d0c:	00 00 91 38 	lb      r4,0x0000(r17)
     d10:	18 00 e4 20 	lsli    r7,r4,0x0018
     d14:	18 00 a7 24 	lsri    r5,r7,0x0018
     d18:	00 00 10 39 	lb      r8,0x0000(r16)
     d1c:	18 00 88 20 	lsli    r4,r8,0x0018
     d20:	18 00 84 24 	lsri    r4,r4,0x0018
     d24:	02 20 05 00 	sub     r0,r5,r4
     d28:	03 00 40 40 	bne     0x00000d34
     d2c:	02 90 06 00 	sub     r0,r6,r18
     d30:	f1 ff 7f 40 	bne     0x00000cf4
     d34:	ff ff 80 2c 	ldih    r4,0xffff
     d38:	ff ff 84 18 	ori     r4,r4,0xffff
     d3c:	05 20 40 00 	orr     r2,r0,r4
     d40:	00 00 1d 31 	lw      r8,0x0000(r29)
     d44:	04 00 bd 07 	addi    r29,r29,0x0004
     d48:	00 00 e0 47 	jmpr    r31
     d4c:	00 00 80 18 	ori     r4,r0,0x0000
     d50:	05 20 40 00 	orr     r2,r0,r4
     d54:	00 00 1d 31 	lw      r8,0x0000(r29)
     d58:	04 00 bd 07 	addi    r29,r29,0x0004
     d5c:	00 00 e0 47 	jmpr    r31

00000d60 <die>:
     d60:	fc ff bd 07 	addi    r29,r29,0xfffc
     d64:	00 00 fd 37 	sw      0x0000(r29),r31
     d68:	f8 ff bd 07 	addi    r29,r29,0xfff8
     d6c:	01 00 a0 2c 	ldih    r5,0x0001
     d70:	e2 08 a5 18 	ori     r5,r5,0x08e2
     d74:	00 00 bd 34 	sw      0x0000(r29),r5
     d78:	04 00 9d 34 	sw      0x0004(r29),r4
     d7c:	48 00 00 c0 	ajal    0x00000120
     d80:	01 00 80 18 	ori     r4,r0,0x0001
     d84:	b0 00 00 c0 	ajal    0x000002c0
     d88:	00 00 00 00 	nop
     d8c:	00 00 00 00 	nop

00000d90 <main>:
     d90:	ec ff bd 07 	addi    r29,r29,0xffec
     d94:	00 00 fd 37 	sw      0x0000(r29),r31
     d98:	04 00 7d 35 	sw      0x0004(r29),r11
     d9c:	08 00 5d 35 	sw      0x0008(r29),r10
     da0:	0c 00 3d 35 	sw      0x000c(r29),r9
     da4:	10 00 1d 35 	sw      0x0010(r29),r8
     da8:	60 ff bd 07 	addi    r29,r29,0xff60
     dac:	01 00 80 2c 	ldih    r4,0x0001
     db0:	f6 08 84 18 	ori     r4,r4,0x08f6
     db4:	30 00 00 c0 	ajal    0x000000c0
     db8:	7c 00 9d 04 	addi    r4,r29,0x007c
     dbc:	98 06 00 c0 	ajal    0x00001a60
     dc0:	00 00 20 19 	ori     r9,r0,0x0000
     dc4:	02 48 02 00 	sub     r0,r2,r9
     dc8:	87 00 40 40 	bne     0x00000fe4
     dcc:	01 00 80 2c 	ldih    r4,0x0001
     dd0:	07 09 84 18 	ori     r4,r4,0x0907
     dd4:	30 00 00 c0 	ajal    0x000000c0
     dd8:	01 00 80 2c 	ldih    r4,0x0001
     ddc:	11 09 84 18 	ori     r4,r4,0x0911
     de0:	30 00 00 c0 	ajal    0x000000c0
     de4:	01 00 80 2c 	ldih    r4,0x0001
     de8:	34 09 84 18 	ori     r4,r4,0x0934
     dec:	dc 07 00 c0 	ajal    0x00001f70
     df0:	02 48 02 00 	sub     r0,r2,r9
     df4:	83 00 40 40 	bne     0x00001000
     df8:	01 00 80 2c 	ldih    r4,0x0001
     dfc:	3e 09 84 18 	ori     r4,r4,0x093e
     e00:	30 00 00 c0 	ajal    0x000000c0
     e04:	01 00 80 2c 	ldih    r4,0x0001
     e08:	61 09 84 18 	ori     r4,r4,0x0961
     e0c:	0e 00 a0 18 	ori     r5,r0,0x000e
     e10:	10 00 dd 04 	addi    r6,r29,0x0010
     e14:	dc 08 00 c0 	ajal    0x00002370
     e18:	05 10 00 01 	orr     r8,r0,r2
     e1c:	02 48 02 00 	sub     r0,r2,r9
     e20:	71 00 40 40 	bne     0x00000fe4
     e24:	01 00 80 2c 	ldih    r4,0x0001
     e28:	70 09 84 18 	ori     r4,r4,0x0970
     e2c:	30 00 00 c0 	ajal    0x000000c0
     e30:	05 40 80 00 	orr     r4,r0,r8
     e34:	05 40 a0 00 	orr     r5,r0,r8
     e38:	10 00 dd 04 	addi    r6,r29,0x0010
     e3c:	dc 08 00 c0 	ajal    0x00002370
     e40:	02 48 02 00 	sub     r0,r2,r9
     e44:	6f 00 40 40 	bne     0x00001000
     e48:	01 00 80 2c 	ldih    r4,0x0001
     e4c:	93 09 84 18 	ori     r4,r4,0x0993
     e50:	30 00 00 c0 	ajal    0x000000c0
     e54:	01 00 80 2c 	ldih    r4,0x0001
     e58:	34 09 84 18 	ori     r4,r4,0x0934
     e5c:	dc 07 00 c0 	ajal    0x00001f70
     e60:	02 48 02 00 	sub     r0,r2,r9
     e64:	60 00 40 40 	bne     0x00000fe4
     e68:	01 00 80 2c 	ldih    r4,0x0001
     e6c:	b2 09 84 18 	ori     r4,r4,0x09b2
     e70:	30 00 00 c0 	ajal    0x000000c0
     e74:	14 00 3d 05 	addi    r9,r29,0x0014
     e78:	05 48 80 00 	orr     r4,r0,r9
     e7c:	40 00 a0 18 	ori     r5,r0,0x0040
     e80:	0c 00 dd 04 	addi    r6,r29,0x000c
     e84:	30 08 00 c0 	ajal    0x000020c0
     e88:	05 10 00 01 	orr     r8,r0,r2
     e8c:	00 00 80 18 	ori     r4,r0,0x0000
     e90:	02 20 02 00 	sub     r0,r2,r4
     e94:	0e 00 40 40 	bne     0x00000ecc
     e98:	0c 00 9d 30 	lw      r4,0x000c(r29)
     e9c:	02 10 04 00 	sub     r0,r4,r2
     ea0:	0b 00 00 40 	beq     0x00000ecc
     ea4:	02 20 08 00 	sub     r0,r8,r4
     ea8:	f4 ff 3f 41 	bhs     0x00000e78
     eac:	00 40 89 00 	add     r4,r9,r8
     eb0:	00 00 84 38 	lb      r4,0x0000(r4)
     eb4:	18 00 84 20 	lsli    r4,r4,0x0018
     eb8:	18 00 84 24 	lsri    r4,r4,0x0018
     ebc:	28 00 00 c0 	ajal    0x000000a0
     ec0:	01 00 08 05 	addi    r8,r8,0x0001
     ec4:	0c 00 9d 30 	lw      r4,0x000c(r29)
     ec8:	a9 03 00 80 	ajmp    0x00000ea4
     ecc:	00 00 20 19 	ori     r9,r0,0x0000
     ed0:	02 48 08 00 	sub     r0,r8,r9
     ed4:	50 00 40 40 	bne     0x00001014
     ed8:	01 00 80 2c 	ldih    r4,0x0001
     edc:	ca 09 84 18 	ori     r4,r4,0x09ca
     ee0:	30 00 00 c0 	ajal    0x000000c0
     ee4:	6c 00 7d 05 	addi    r11,r29,0x006c
     ee8:	05 58 80 00 	orr     r4,r0,r11
     eec:	01 00 a0 2c 	ldih    r5,0x0001
     ef0:	e0 09 a5 18 	ori     r5,r5,0x09e0
     ef4:	38 0a 00 c0 	ajal    0x000028e0
     ef8:	02 48 02 00 	sub     r0,r2,r9
     efc:	3a 00 40 40 	bne     0x00000fe4
     f00:	01 00 80 2c 	ldih    r4,0x0001
     f04:	e1 09 84 18 	ori     r4,r4,0x09e1
     f08:	30 00 00 c0 	ajal    0x000000c0
     f0c:	54 00 3d 05 	addi    r9,r29,0x0054
     f10:	5d 00 5d 05 	addi    r10,r29,0x005d
     f14:	05 58 80 00 	orr     r4,r0,r11
     f18:	05 48 a0 00 	orr     r5,r0,r9
     f1c:	a4 0a 00 c0 	ajal    0x00002a90
     f20:	05 10 00 01 	orr     r8,r0,r2
     f24:	00 00 80 18 	ori     r4,r0,0x0000
     f28:	02 20 02 00 	sub     r0,r2,r4
     f2c:	17 00 40 40 	bne     0x00000f88
     f30:	5d 00 bd 38 	lb      r5,0x005d(r29)
     f34:	18 00 85 20 	lsli    r4,r5,0x0018
     f38:	18 00 84 24 	lsri    r4,r4,0x0018
     f3c:	02 10 04 00 	sub     r0,r4,r2
     f40:	12 00 00 40 	beq     0x00000f88
     f44:	5c 00 bd 38 	lb      r5,0x005c(r29)
     f48:	04 00 85 24 	lsri    r4,r5,0x0004
     f4c:	01 00 84 14 	andi    r4,r4,0x0001
     f50:	02 10 04 00 	sub     r0,r4,r2
     f54:	1c 00 00 40 	beq     0x00000fc4
     f58:	01 00 80 2c 	ldih    r4,0x0001
     f5c:	f7 09 84 18 	ori     r4,r4,0x09f7
     f60:	00 00 9d 34 	sw      0x0000(r29),r4
     f64:	04 00 5d 35 	sw      0x0004(r29),r10
     f68:	48 00 00 c0 	ajal    0x00000120
     f6c:	05 58 80 00 	orr     r4,r0,r11
     f70:	05 48 a0 00 	orr     r5,r0,r9
     f74:	a4 0a 00 c0 	ajal    0x00002a90
     f78:	05 10 00 01 	orr     r8,r0,r2
     f7c:	00 00 80 18 	ori     r4,r0,0x0000
     f80:	02 20 02 00 	sub     r0,r2,r4
     f84:	eb ff 3f 40 	beq     0x00000f30
     f88:	00 00 80 18 	ori     r4,r0,0x0000
     f8c:	02 20 08 00 	sub     r0,r8,r4
     f90:	21 00 40 40 	bne     0x00001014
     f94:	01 00 80 2c 	ldih    r4,0x0001
     f98:	05 0a 84 18 	ori     r4,r4,0x0a05
     f9c:	30 00 00 c0 	ajal    0x000000c0
     fa0:	05 40 40 00 	orr     r2,r0,r8
     fa4:	a0 00 bd 07 	addi    r29,r29,0x00a0
     fa8:	00 00 fd 33 	lw      r31,0x0000(r29)
     fac:	04 00 7d 31 	lw      r11,0x0004(r29)
     fb0:	08 00 5d 31 	lw      r10,0x0008(r29)
     fb4:	0c 00 3d 31 	lw      r9,0x000c(r29)
     fb8:	10 00 1d 31 	lw      r8,0x0010(r29)
     fbc:	14 00 bd 07 	addi    r29,r29,0x0014
     fc0:	00 00 e0 47 	jmpr    r31
     fc4:	01 00 a0 2c 	ldih    r5,0x0001
     fc8:	16 0a a5 18 	ori     r5,r5,0x0a16
     fcc:	00 00 bd 34 	sw      0x0000(r29),r5
     fd0:	54 00 9d 30 	lw      r4,0x0054(r29)
     fd4:	04 00 9d 34 	sw      0x0004(r29),r4
     fd8:	08 00 5d 35 	sw      0x0008(r29),r10
     fdc:	48 00 00 c0 	ajal    0x00000120
     fe0:	c5 03 00 80 	ajmp    0x00000f14
     fe4:	01 00 80 2c 	ldih    r4,0x0001
     fe8:	e2 08 84 18 	ori     r4,r4,0x08e2
     fec:	00 00 9d 34 	sw      0x0000(r29),r4
     ff0:	04 00 5d 34 	sw      0x0004(r29),r2
     ff4:	48 00 00 c0 	ajal    0x00000120
     ff8:	01 00 80 18 	ori     r4,r0,0x0001
     ffc:	b0 00 00 c0 	ajal    0x000002c0
    1000:	01 00 a0 2c 	ldih    r5,0x0001
    1004:	e2 08 a5 18 	ori     r5,r5,0x08e2
    1008:	00 00 bd 34 	sw      0x0000(r29),r5
    100c:	04 00 5d 34 	sw      0x0004(r29),r2
    1010:	fd 03 00 80 	ajmp    0x00000ff4
    1014:	01 00 a0 2c 	ldih    r5,0x0001
    1018:	e2 08 a5 18 	ori     r5,r5,0x08e2
    101c:	00 00 bd 34 	sw      0x0000(r29),r5
    1020:	04 00 1d 35 	sw      0x0004(r29),r8
    1024:	48 00 00 c0 	ajal    0x00000120
    1028:	01 00 80 18 	ori     r4,r0,0x0001
    102c:	b0 00 00 c0 	ajal    0x000002c0

00001030 <disk_initialize>:
    1030:	00 00 40 18 	ori     r2,r0,0x0000
    1034:	00 00 e0 47 	jmpr    r31
    1038:	00 00 00 00 	nop
    103c:	00 00 00 00 	nop

00001040 <disk_readp>:
    1040:	f0 ff bd 07 	addi    r29,r29,0xfff0
    1044:	00 00 fd 37 	sw      0x0000(r29),r31
    1048:	04 00 5d 35 	sw      0x0004(r29),r10
    104c:	08 00 3d 35 	sw      0x0008(r29),r9
    1050:	0c 00 1d 35 	sw      0x000c(r29),r8
    1054:	f8 ff bd 07 	addi    r29,r29,0xfff8
    1058:	05 20 20 01 	orr     r9,r0,r4
    105c:	05 30 40 01 	orr     r10,r0,r6
    1060:	05 38 00 01 	orr     r8,r0,r7
    1064:	01 00 80 2c 	ldih    r4,0x0001
    1068:	04 04 84 18 	ori     r4,r4,0x0404
    106c:	40 0c 00 c0 	ajal    0x00003100
    1070:	01 00 a0 18 	ori     r5,r0,0x0001
    1074:	00 00 80 18 	ori     r4,r0,0x0000
    1078:	02 20 02 00 	sub     r0,r2,r4
    107c:	09 00 00 40 	beq     0x000010a0
    1080:	05 28 40 00 	orr     r2,r0,r5
    1084:	08 00 bd 07 	addi    r29,r29,0x0008
    1088:	00 00 fd 33 	lw      r31,0x0000(r29)
    108c:	04 00 5d 31 	lw      r10,0x0004(r29)
    1090:	08 00 3d 31 	lw      r9,0x0008(r29)
    1094:	0c 00 1d 31 	lw      r8,0x000c(r29)
    1098:	10 00 bd 07 	addi    r29,r29,0x0010
    109c:	00 00 e0 47 	jmpr    r31
    10a0:	05 10 00 02 	orr     r16,r0,r2
    10a4:	10 00 88 20 	lsli    r4,r8,0x0010
    10a8:	10 00 e4 24 	lsri    r7,r4,0x0010
    10ac:	02 10 07 00 	sub     r0,r7,r2
    10b0:	0d 00 40 43 	ble     0x000010e4
    10b4:	10 00 8a 20 	lsli    r4,r10,0x0010
    10b8:	10 00 84 24 	lsri    r4,r4,0x0010
    10bc:	01 00 a0 2c 	ldih    r5,0x0001
    10c0:	04 04 a5 18 	ori     r5,r5,0x0404
    10c4:	00 28 c4 00 	add     r6,r4,r5
    10c8:	00 80 a9 00 	add     r5,r9,r16
    10cc:	00 80 86 00 	add     r4,r6,r16
    10d0:	00 00 84 38 	lb      r4,0x0000(r4)
    10d4:	00 00 85 3c 	sb      0x0000(r5),r4
    10d8:	01 00 10 06 	addi    r16,r16,0x0001
    10dc:	02 80 07 00 	sub     r0,r7,r16
    10e0:	fa ff 3f 43 	bgt     0x000010c8
    10e4:	00 00 a0 18 	ori     r5,r0,0x0000
    10e8:	05 28 40 00 	orr     r2,r0,r5
    10ec:	08 00 bd 07 	addi    r29,r29,0x0008
    10f0:	00 00 fd 33 	lw      r31,0x0000(r29)
    10f4:	04 00 5d 31 	lw      r10,0x0004(r29)
    10f8:	08 00 3d 31 	lw      r9,0x0008(r29)
    10fc:	0c 00 1d 31 	lw      r8,0x000c(r29)
    1100:	10 00 bd 07 	addi    r29,r29,0x0010
    1104:	00 00 e0 47 	jmpr    r31
    1108:	00 00 00 00 	nop
    110c:	00 00 00 00 	nop

00001110 <disk_writep>:
    1110:	ec ff bd 07 	addi    r29,r29,0xffec
    1114:	00 00 fd 37 	sw      0x0000(r29),r31
    1118:	04 00 7d 35 	sw      0x0004(r29),r11
    111c:	08 00 5d 35 	sw      0x0008(r29),r10
    1120:	0c 00 3d 35 	sw      0x000c(r29),r9
    1124:	10 00 1d 35 	sw      0x0010(r29),r8
    1128:	f4 ff bd 07 	addi    r29,r29,0xfff4
    112c:	05 20 20 01 	orr     r9,r0,r4
    1130:	01 00 40 19 	ori     r10,r0,0x0001
    1134:	00 00 60 19 	ori     r11,r0,0x0000
    1138:	02 58 04 00 	sub     r0,r4,r11
    113c:	1b 00 00 40 	beq     0x000011a8
    1140:	01 00 80 2c 	ldih    r4,0x0001
    1144:	20 0a 84 18 	ori     r4,r4,0x0a20
    1148:	00 00 9d 34 	sw      0x0000(r29),r4
    114c:	01 00 00 2d 	ldih    r8,0x0001
    1150:	00 04 08 19 	ori     r8,r8,0x0400
    1154:	00 00 88 30 	lw      r4,0x0000(r8)
    1158:	04 00 9d 34 	sw      0x0004(r29),r4
    115c:	08 00 bd 34 	sw      0x0008(r29),r5
    1160:	48 00 00 c0 	ajal    0x00000120
    1164:	05 48 80 00 	orr     r4,r0,r9
    1168:	00 00 a8 30 	lw      r5,0x0000(r8)
    116c:	60 0c 00 c0 	ajal    0x00003180
    1170:	05 10 80 00 	orr     r4,r0,r2
    1174:	02 58 02 00 	sub     r0,r2,r11
    1178:	02 00 00 40 	beq     0x00001180
    117c:	05 50 80 00 	orr     r4,r0,r10
    1180:	05 20 40 01 	orr     r10,r0,r4
    1184:	05 50 40 00 	orr     r2,r0,r10
    1188:	0c 00 bd 07 	addi    r29,r29,0x000c
    118c:	00 00 fd 33 	lw      r31,0x0000(r29)
    1190:	04 00 7d 31 	lw      r11,0x0004(r29)
    1194:	08 00 5d 31 	lw      r10,0x0008(r29)
    1198:	0c 00 3d 31 	lw      r9,0x000c(r29)
    119c:	10 00 1d 31 	lw      r8,0x0010(r29)
    11a0:	14 00 bd 07 	addi    r29,r29,0x0014
    11a4:	00 00 e0 47 	jmpr    r31
    11a8:	05 28 40 01 	orr     r10,r0,r5
    11ac:	02 20 05 00 	sub     r0,r5,r4
    11b0:	f5 ff 3f 40 	beq     0x00001184
    11b4:	01 00 80 2c 	ldih    r4,0x0001
    11b8:	00 04 84 18 	ori     r4,r4,0x0400
    11bc:	00 00 a4 34 	sw      0x0000(r4),r5
    11c0:	05 48 40 01 	orr     r10,r0,r9
    11c4:	05 50 40 00 	orr     r2,r0,r10
    11c8:	0c 00 bd 07 	addi    r29,r29,0x000c
    11cc:	00 00 fd 33 	lw      r31,0x0000(r29)
    11d0:	04 00 7d 31 	lw      r11,0x0004(r29)
    11d4:	08 00 5d 31 	lw      r10,0x0008(r29)
    11d8:	0c 00 3d 31 	lw      r9,0x000c(r29)
    11dc:	10 00 1d 31 	lw      r8,0x0010(r29)
    11e0:	14 00 bd 07 	addi    r29,r29,0x0014
    11e4:	00 00 e0 47 	jmpr    r31
    11e8:	00 00 00 00 	nop
    11ec:	00 00 00 00 	nop

000011f0 <get_fat>:
    11f0:	e8 ff bd 07 	addi    r29,r29,0xffe8
    11f4:	00 00 fd 37 	sw      0x0000(r29),r31
    11f8:	04 00 9d 35 	sw      0x0004(r29),r12
    11fc:	08 00 7d 35 	sw      0x0008(r29),r11
    1200:	0c 00 5d 35 	sw      0x000c(r29),r10
    1204:	10 00 3d 35 	sw      0x0010(r29),r9
    1208:	14 00 1d 35 	sw      0x0014(r29),r8
    120c:	fc ff bd 07 	addi    r29,r29,0xfffc
    1210:	01 00 a0 2c 	ldih    r5,0x0001
    1214:	04 08 a5 18 	ori     r5,r5,0x0804
    1218:	00 00 05 31 	lw      r8,0x0000(r5)
    121c:	10 00 44 21 	lsli    r10,r4,0x0010
    1220:	10 00 ca 24 	lsri    r6,r10,0x0010
    1224:	01 00 a0 18 	ori     r5,r0,0x0001
    1228:	02 28 06 00 	sub     r0,r6,r5
    122c:	06 00 40 42 	bls     0x00001244
    1230:	06 00 e8 64 	lh      r7,0x0006(r8)
    1234:	10 00 87 20 	lsli    r4,r7,0x0010
    1238:	10 00 84 24 	lsri    r4,r4,0x0010
    123c:	02 30 04 00 	sub     r0,r4,r6
    1240:	0c 00 00 42 	bhi     0x00001270
    1244:	05 28 80 00 	orr     r4,r0,r5
    1248:	05 20 40 00 	orr     r2,r0,r4
    124c:	04 00 bd 07 	addi    r29,r29,0x0004
    1250:	00 00 fd 33 	lw      r31,0x0000(r29)
    1254:	04 00 9d 31 	lw      r12,0x0004(r29)
    1258:	08 00 7d 31 	lw      r11,0x0008(r29)
    125c:	0c 00 5d 31 	lw      r10,0x000c(r29)
    1260:	10 00 3d 31 	lw      r9,0x0010(r29)
    1264:	14 00 1d 31 	lw      r8,0x0014(r29)
    1268:	18 00 bd 07 	addi    r29,r29,0x0018
    126c:	00 00 e0 47 	jmpr    r31
    1270:	00 00 88 38 	lb      r4,0x0000(r8)
    1274:	18 00 24 21 	lsli    r9,r4,0x0018
    1278:	18 00 29 25 	lsri    r9,r9,0x0018
    127c:	02 28 09 00 	sub     r0,r9,r5
    1280:	0f 00 00 40 	beq     0x000012bc
    1284:	02 00 80 18 	ori     r4,r0,0x0002
    1288:	02 20 09 00 	sub     r0,r9,r4
    128c:	33 00 00 40 	beq     0x00001358
    1290:	01 00 80 18 	ori     r4,r0,0x0001
    1294:	05 20 40 00 	orr     r2,r0,r4
    1298:	04 00 bd 07 	addi    r29,r29,0x0004
    129c:	00 00 fd 33 	lw      r31,0x0000(r29)
    12a0:	04 00 9d 31 	lw      r12,0x0004(r29)
    12a4:	08 00 7d 31 	lw      r11,0x0008(r29)
    12a8:	0c 00 5d 31 	lw      r10,0x000c(r29)
    12ac:	10 00 3d 31 	lw      r9,0x0010(r29)
    12b0:	14 00 1d 31 	lw      r8,0x0014(r29)
    12b4:	18 00 bd 07 	addi    r29,r29,0x0018
    12b8:	00 00 e0 47 	jmpr    r31
    12bc:	11 00 8a 24 	lsri    r4,r10,0x0011
    12c0:	00 20 66 01 	add     r11,r6,r4
    12c4:	ff 01 cb 14 	andi    r6,r11,0x01ff
    12c8:	09 00 6b 25 	lsri    r11,r11,0x0009
    12cc:	ff 01 80 18 	ori     r4,r0,0x01ff
    12d0:	02 20 06 00 	sub     r0,r6,r4
    12d4:	40 00 00 40 	beq     0x000013d4
    12d8:	08 00 a8 30 	lw      r5,0x0008(r8)
    12dc:	05 e8 80 00 	orr     r4,r0,r29
    12e0:	00 58 a5 00 	add     r5,r5,r11
    12e4:	02 00 e0 18 	ori     r7,r0,0x0002
    12e8:	10 04 00 c0 	ajal    0x00001040
    12ec:	00 00 80 18 	ori     r4,r0,0x0000
    12f0:	02 20 02 00 	sub     r0,r2,r4
    12f4:	e7 ff 7f 40 	bne     0x00001290
    12f8:	01 00 dd 38 	lb      r6,0x0001(r29)
    12fc:	18 00 a6 20 	lsli    r5,r6,0x0018
    1300:	00 00 fd 38 	lb      r7,0x0000(r29)
    1304:	18 00 87 20 	lsli    r4,r7,0x0018
    1308:	08 00 84 24 	lsri    r4,r4,0x0008
    130c:	05 28 c4 00 	orr     r6,r4,r5
    1310:	10 00 c6 24 	lsri    r6,r6,0x0010
    1314:	10 00 8a 24 	lsri    r4,r10,0x0010
    1318:	01 00 84 14 	andi    r4,r4,0x0001
    131c:	04 00 e6 24 	lsri    r7,r6,0x0004
    1320:	00 00 a0 18 	ori     r5,r0,0x0000
    1324:	02 28 04 00 	sub     r0,r4,r5
    1328:	28 00 00 40 	beq     0x000013c8
    132c:	05 38 80 00 	orr     r4,r0,r7
    1330:	05 20 40 00 	orr     r2,r0,r4
    1334:	04 00 bd 07 	addi    r29,r29,0x0004
    1338:	00 00 fd 33 	lw      r31,0x0000(r29)
    133c:	04 00 9d 31 	lw      r12,0x0004(r29)
    1340:	08 00 7d 31 	lw      r11,0x0008(r29)
    1344:	0c 00 5d 31 	lw      r10,0x000c(r29)
    1348:	10 00 3d 31 	lw      r9,0x0010(r29)
    134c:	14 00 1d 31 	lw      r8,0x0014(r29)
    1350:	18 00 bd 07 	addi    r29,r29,0x0018
    1354:	00 00 e0 47 	jmpr    r31
    1358:	18 00 ea 24 	lsri    r7,r10,0x0018
    135c:	08 00 a8 30 	lw      r5,0x0008(r8)
    1360:	ff 00 c6 14 	andi    r6,r6,0x00ff
    1364:	05 e8 80 00 	orr     r4,r0,r29
    1368:	00 38 a5 00 	add     r5,r5,r7
    136c:	01 00 c6 20 	lsli    r6,r6,0x0001
    1370:	05 48 e0 00 	orr     r7,r0,r9
    1374:	10 04 00 c0 	ajal    0x00001040
    1378:	00 00 80 18 	ori     r4,r0,0x0000
    137c:	02 20 02 00 	sub     r0,r2,r4
    1380:	c4 ff 7f 40 	bne     0x00001290
    1384:	01 00 9d 38 	lb      r4,0x0001(r29)
    1388:	18 00 a4 20 	lsli    r5,r4,0x0018
    138c:	00 00 dd 38 	lb      r6,0x0000(r29)
    1390:	18 00 86 20 	lsli    r4,r6,0x0018
    1394:	08 00 84 24 	lsri    r4,r4,0x0008
    1398:	05 28 84 00 	orr     r4,r4,r5
    139c:	10 00 84 24 	lsri    r4,r4,0x0010
    13a0:	05 20 40 00 	orr     r2,r0,r4
    13a4:	04 00 bd 07 	addi    r29,r29,0x0004
    13a8:	00 00 fd 33 	lw      r31,0x0000(r29)
    13ac:	04 00 9d 31 	lw      r12,0x0004(r29)
    13b0:	08 00 7d 31 	lw      r11,0x0008(r29)
    13b4:	0c 00 5d 31 	lw      r10,0x000c(r29)
    13b8:	10 00 3d 31 	lw      r9,0x0010(r29)
    13bc:	14 00 1d 31 	lw      r8,0x0014(r29)
    13c0:	18 00 bd 07 	addi    r29,r29,0x0018
    13c4:	00 00 e0 47 	jmpr    r31
    13c8:	ff 0f e6 14 	andi    r7,r6,0x0fff
    13cc:	05 38 80 00 	orr     r4,r0,r7
    13d0:	cc 04 00 80 	ajmp    0x00001330
    13d4:	08 00 a8 30 	lw      r5,0x0008(r8)
    13d8:	05 e8 80 00 	orr     r4,r0,r29
    13dc:	00 58 a5 00 	add     r5,r5,r11
    13e0:	05 48 e0 00 	orr     r7,r0,r9
    13e4:	10 04 00 c0 	ajal    0x00001040
    13e8:	05 10 80 01 	orr     r12,r0,r2
    13ec:	00 00 80 18 	ori     r4,r0,0x0000
    13f0:	02 20 02 00 	sub     r0,r2,r4
    13f4:	a7 ff 7f 40 	bne     0x00001290
    13f8:	08 00 a8 30 	lw      r5,0x0008(r8)
    13fc:	00 58 a5 00 	add     r5,r5,r11
    1400:	01 00 9d 04 	addi    r4,r29,0x0001
    1404:	01 00 a5 04 	addi    r5,r5,0x0001
    1408:	05 10 c0 00 	orr     r6,r0,r2
    140c:	05 48 e0 00 	orr     r7,r0,r9
    1410:	10 04 00 c0 	ajal    0x00001040
    1414:	02 60 02 00 	sub     r0,r2,r12
    1418:	b8 ff 3f 40 	beq     0x000012f8
    141c:	01 00 80 18 	ori     r4,r0,0x0001
    1420:	a5 04 00 80 	ajmp    0x00001294
    1424:	00 00 00 00 	nop
    1428:	00 00 00 00 	nop
    142c:	00 00 00 00 	nop

00001430 <follow_path>:
    1430:	dc ff bd 07 	addi    r29,r29,0xffdc
    1434:	00 00 fd 37 	sw      0x0000(r29),r31
    1438:	04 00 fd 35 	sw      0x0004(r29),r15
    143c:	08 00 dd 35 	sw      0x0008(r29),r14
    1440:	0c 00 bd 35 	sw      0x000c(r29),r13
    1444:	10 00 9d 35 	sw      0x0010(r29),r12
    1448:	14 00 7d 35 	sw      0x0014(r29),r11
    144c:	18 00 5d 35 	sw      0x0018(r29),r10
    1450:	1c 00 3d 35 	sw      0x001c(r29),r9
    1454:	20 00 1d 35 	sw      0x0020(r29),r8
    1458:	fc ff bd 07 	addi    r29,r29,0xfffc
    145c:	05 20 00 01 	orr     r8,r0,r4
    1460:	05 28 40 01 	orr     r10,r0,r5
    1464:	00 00 dd 34 	sw      0x0000(r29),r6
    1468:	00 00 a6 38 	lb      r5,0x0000(r6)
    146c:	18 00 85 20 	lsli    r4,r5,0x0018
    1470:	18 00 84 24 	lsri    r4,r4,0x0018
    1474:	20 00 a0 18 	ori     r5,r0,0x0020
    1478:	02 28 04 00 	sub     r0,r4,r5
    147c:	08 00 40 40 	bne     0x0000149c
    1480:	01 00 c6 04 	addi    r6,r6,0x0001
    1484:	00 00 dd 34 	sw      0x0000(r29),r6
    1488:	00 00 e6 38 	lb      r7,0x0000(r6)
    148c:	18 00 87 20 	lsli    r4,r7,0x0018
    1490:	18 00 84 24 	lsri    r4,r4,0x0018
    1494:	02 28 04 00 	sub     r0,r4,r5
    1498:	fa ff 3f 40 	beq     0x00001480
    149c:	00 00 26 39 	lb      r9,0x0000(r6)
    14a0:	18 00 89 20 	lsli    r4,r9,0x0018
    14a4:	18 00 84 24 	lsri    r4,r4,0x0018
    14a8:	2f 00 a0 18 	ori     r5,r0,0x002f
    14ac:	02 28 04 00 	sub     r0,r4,r5
    14b0:	28 00 00 40 	beq     0x00001550
    14b4:	00 00 80 18 	ori     r4,r0,0x0000
    14b8:	08 00 88 68 	sh      0x0008(r8),r4
    14bc:	00 00 c6 38 	lb      r6,0x0000(r6)
    14c0:	18 00 86 20 	lsli    r4,r6,0x0018
    14c4:	18 00 84 24 	lsri    r4,r4,0x0018
    14c8:	1f 00 a0 18 	ori     r5,r0,0x001f
    14cc:	02 28 04 00 	sub     r0,r4,r5
    14d0:	2a 00 00 42 	bhi     0x00001578
    14d4:	01 00 80 2c 	ldih    r4,0x0001
    14d8:	04 08 84 18 	ori     r4,r4,0x0804
    14dc:	00 00 e4 30 	lw      r7,0x0000(r4)
    14e0:	00 00 a0 18 	ori     r5,r0,0x0000
    14e4:	00 00 a8 68 	sh      0x0000(r8),r5
    14e8:	00 00 a0 18 	ori     r5,r0,0x0000
    14ec:	06 00 c7 64 	lh      r6,0x0006(r7)
    14f0:	10 00 86 20 	lsli    r4,r6,0x0010
    14f4:	10 00 84 24 	lsri    r4,r4,0x0010
    14f8:	01 00 c0 18 	ori     r6,r0,0x0001
    14fc:	02 28 04 00 	sub     r0,r4,r5
    1500:	05 00 40 42 	bls     0x00001514
    1504:	0a 00 a8 68 	sh      0x000a(r8),r5
    1508:	0c 00 e7 30 	lw      r7,0x000c(r7)
    150c:	0c 00 e8 34 	sw      0x000c(r8),r7
    1510:	05 28 c0 00 	orr     r6,r0,r5
    1514:	00 00 e0 18 	ori     r7,r0,0x0000
    1518:	00 00 ea 3c 	sb      0x0000(r10),r7
    151c:	05 30 40 00 	orr     r2,r0,r6
    1520:	04 00 bd 07 	addi    r29,r29,0x0004
    1524:	00 00 fd 33 	lw      r31,0x0000(r29)
    1528:	04 00 fd 31 	lw      r15,0x0004(r29)
    152c:	08 00 dd 31 	lw      r14,0x0008(r29)
    1530:	0c 00 bd 31 	lw      r13,0x000c(r29)
    1534:	10 00 9d 31 	lw      r12,0x0010(r29)
    1538:	14 00 7d 31 	lw      r11,0x0014(r29)
    153c:	18 00 5d 31 	lw      r10,0x0018(r29)
    1540:	1c 00 3d 31 	lw      r9,0x001c(r29)
    1544:	20 00 1d 31 	lw      r8,0x0020(r29)
    1548:	24 00 bd 07 	addi    r29,r29,0x0024
    154c:	00 00 e0 47 	jmpr    r31
    1550:	01 00 c6 04 	addi    r6,r6,0x0001
    1554:	00 00 dd 34 	sw      0x0000(r29),r6
    1558:	00 00 80 18 	ori     r4,r0,0x0000
    155c:	08 00 88 68 	sh      0x0008(r8),r4
    1560:	00 00 c6 38 	lb      r6,0x0000(r6)
    1564:	18 00 86 20 	lsli    r4,r6,0x0018
    1568:	18 00 84 24 	lsri    r4,r4,0x0018
    156c:	1f 00 a0 18 	ori     r5,r0,0x001f
    1570:	02 28 04 00 	sub     r0,r4,r5
    1574:	d8 ff 7f 42 	bls     0x000014d4
    1578:	01 00 c0 2d 	ldih    r14,0x0001
    157c:	04 08 ce 19 	ori     r14,r14,0x0804
    1580:	05 e8 e0 01 	orr     r15,r0,r29
    1584:	04 00 88 32 	lw      r20,0x0004(r8)
    1588:	05 a0 80 00 	orr     r4,r0,r20
    158c:	0a 00 a0 18 	ori     r5,r0,0x000a
    1590:	ff ff c0 2c 	ldih    r6,0xffff
    1594:	ff ff c6 18 	ori     r6,r6,0xffff
    1598:	20 00 20 19 	ori     r9,r0,0x0020
    159c:	00 00 24 3d 	sb      0x0000(r4),r9
    15a0:	01 00 84 04 	addi    r4,r4,0x0001
    15a4:	ff ff a5 04 	addi    r5,r5,0xffff
    15a8:	02 30 05 00 	sub     r0,r5,r6
    15ac:	fb ff 7f 40 	bne     0x00001598
    15b0:	00 00 20 1a 	ori     r17,r0,0x0000
    15b4:	05 88 60 02 	orr     r19,r0,r17
    15b8:	08 00 20 19 	ori     r9,r0,0x0008
    15bc:	00 00 af 32 	lw      r21,0x0000(r15)
    15c0:	05 88 80 00 	orr     r4,r0,r17
    15c4:	01 00 31 06 	addi    r17,r17,0x0001
    15c8:	18 00 84 20 	lsli    r4,r4,0x0018
    15cc:	18 00 84 24 	lsri    r4,r4,0x0018
    15d0:	00 a8 84 00 	add     r4,r4,r21
    15d4:	00 00 04 3a 	lb      r16,0x0000(r4)
    15d8:	18 00 f0 20 	lsli    r7,r16,0x0018
    15dc:	18 00 a7 24 	lsri    r5,r7,0x0018
    15e0:	20 00 80 18 	ori     r4,r0,0x0020
    15e4:	02 20 05 00 	sub     r0,r5,r4
    15e8:	14 00 40 42 	bls     0x00001638
    15ec:	2f 00 80 18 	ori     r4,r0,0x002f
    15f0:	02 20 05 00 	sub     r0,r5,r4
    15f4:	11 00 00 40 	beq     0x00001638
    15f8:	2e 00 40 1a 	ori     r18,r0,0x002e
    15fc:	02 90 05 00 	sub     r0,r5,r18
    1600:	68 00 00 40 	beq     0x000017a0
    1604:	18 00 93 20 	lsli    r4,r19,0x0018
    1608:	18 00 84 24 	lsri    r4,r4,0x0018
    160c:	18 00 c9 20 	lsli    r6,r9,0x0018
    1610:	18 00 a6 24 	lsri    r5,r6,0x0018
    1614:	02 28 04 00 	sub     r0,r4,r5
    1618:	58 00 40 41 	blo     0x00001778
    161c:	18 00 a6 24 	lsri    r5,r6,0x0018
    1620:	08 00 80 18 	ori     r4,r0,0x0008
    1624:	02 20 05 00 	sub     r0,r5,r4
    1628:	04 00 40 40 	bne     0x00001638
    162c:	18 00 87 24 	lsri    r4,r7,0x0018
    1630:	02 90 04 00 	sub     r0,r4,r18
    1634:	58 00 00 40 	beq     0x00001794
    1638:	18 00 91 20 	lsli    r4,r17,0x0018
    163c:	18 00 84 24 	lsri    r4,r4,0x0018
    1640:	00 a8 84 00 	add     r4,r4,r21
    1644:	00 00 8f 34 	sw      0x0000(r15),r4
    1648:	00 00 a0 18 	ori     r5,r0,0x0000
    164c:	00 20 80 2c 	ldih    r4,0x2000
    1650:	00 00 84 18 	ori     r4,r4,0x0000
    1654:	02 20 07 00 	sub     r0,r7,r4
    1658:	02 00 00 42 	bhi     0x00001660
    165c:	01 00 a0 18 	ori     r5,r0,0x0001
    1660:	0b 00 b4 3c 	sb      0x000b(r20),r5
    1664:	00 00 c0 18 	ori     r6,r0,0x0000
    1668:	00 00 2e 32 	lw      r17,0x0000(r14)
    166c:	00 00 c8 68 	sh      0x0000(r8),r6
    1670:	08 00 e8 64 	lh      r7,0x0008(r8)
    1674:	10 00 87 20 	lsli    r4,r7,0x0010
    1678:	10 00 a4 24 	lsri    r5,r4,0x0010
    167c:	01 00 00 1a 	ori     r16,r0,0x0001
    1680:	02 80 05 00 	sub     r0,r5,r16
    1684:	49 00 00 40 	beq     0x000017a8
    1688:	06 00 31 65 	lh      r9,0x0006(r17)
    168c:	10 00 89 20 	lsli    r4,r9,0x0010
    1690:	10 00 84 24 	lsri    r4,r4,0x0010
    1694:	02 28 04 00 	sub     r0,r4,r5
    1698:	44 00 40 42 	bls     0x000017a8
    169c:	0a 00 e8 68 	sh      0x000a(r8),r7
    16a0:	02 30 05 00 	sub     r0,r5,r6
    16a4:	ce 00 00 40 	beq     0x000019dc
    16a8:	fe ff 87 04 	addi    r4,r7,0xfffe
    16ac:	10 00 84 20 	lsli    r4,r4,0x0010
    16b0:	10 00 e4 24 	lsri    r7,r4,0x0010
    16b4:	06 00 b1 64 	lh      r5,0x0006(r17)
    16b8:	10 00 85 20 	lsli    r4,r5,0x0010
    16bc:	10 00 84 24 	lsri    r4,r4,0x0010
    16c0:	fe ff 84 04 	addi    r4,r4,0xfffe
    16c4:	05 30 a0 00 	orr     r5,r0,r6
    16c8:	02 20 07 00 	sub     r0,r7,r4
    16cc:	07 00 80 42 	bge     0x000016e8
    16d0:	02 00 d1 38 	lb      r6,0x0002(r17)
    16d4:	18 00 86 20 	lsli    r4,r6,0x0018
    16d8:	18 00 84 24 	lsri    r4,r4,0x0018
    16dc:	0a 20 87 00 	mul     r4,r7,r4
    16e0:	10 00 b1 30 	lw      r5,0x0010(r17)
    16e4:	00 28 a4 00 	add     r5,r4,r5
    16e8:	05 28 80 00 	orr     r4,r0,r5
    16ec:	0c 00 88 34 	sw      0x000c(r8),r4
    16f0:	00 00 80 18 	ori     r4,r0,0x0000
    16f4:	05 20 c0 00 	orr     r6,r0,r4
    16f8:	05 20 a0 00 	orr     r5,r0,r4
    16fc:	00 00 80 18 	ori     r4,r0,0x0000
    1700:	02 20 06 00 	sub     r0,r6,r4
    1704:	2f 00 00 40 	beq     0x000017c0
    1708:	05 28 c0 00 	orr     r6,r0,r5
    170c:	00 00 80 18 	ori     r4,r0,0x0000
    1710:	02 20 05 00 	sub     r0,r5,r4
    1714:	82 ff 7f 40 	bne     0x0000151c
    1718:	04 00 88 32 	lw      r20,0x0004(r8)
    171c:	0b 00 f4 38 	lb      r7,0x000b(r20)
    1720:	18 00 87 20 	lsli    r4,r7,0x0018
    1724:	18 00 84 24 	lsri    r4,r4,0x0018
    1728:	02 28 04 00 	sub     r0,r4,r5
    172c:	7c ff 7f 40 	bne     0x0000151c
    1730:	0b 00 2a 39 	lb      r9,0x000b(r10)
    1734:	04 00 89 24 	lsri    r4,r9,0x0004
    1738:	01 00 84 14 	andi    r4,r4,0x0001
    173c:	02 28 04 00 	sub     r0,r4,r5
    1740:	b7 00 00 40 	beq     0x00001a1c
    1744:	1b 00 8a 38 	lb      r4,0x001b(r10)
    1748:	18 00 a4 20 	lsli    r5,r4,0x0018
    174c:	1a 00 ca 38 	lb      r6,0x001a(r10)
    1750:	18 00 86 20 	lsli    r4,r6,0x0018
    1754:	08 00 84 24 	lsri    r4,r4,0x0008
    1758:	05 28 84 00 	orr     r4,r4,r5
    175c:	10 00 84 24 	lsri    r4,r4,0x0010
    1760:	08 00 88 68 	sh      0x0008(r8),r4
    1764:	05 a0 80 00 	orr     r4,r0,r20
    1768:	0a 00 a0 18 	ori     r5,r0,0x000a
    176c:	ff ff c0 2c 	ldih    r6,0xffff
    1770:	ff ff c6 18 	ori     r6,r6,0xffff
    1774:	66 05 00 80 	ajmp    0x00001598
    1778:	05 98 80 00 	orr     r4,r0,r19
    177c:	01 00 73 06 	addi    r19,r19,0x0001
    1780:	18 00 84 20 	lsli    r4,r4,0x0018
    1784:	18 00 84 24 	lsri    r4,r4,0x0018
    1788:	00 a0 84 00 	add     r4,r4,r20
    178c:	00 00 04 3e 	sb      0x0000(r4),r16
    1790:	70 05 00 80 	ajmp    0x000015c0
    1794:	05 28 60 02 	orr     r19,r0,r5
    1798:	0b 00 20 19 	ori     r9,r0,0x000b
    179c:	70 05 00 80 	ajmp    0x000015c0
    17a0:	18 00 c9 20 	lsli    r6,r9,0x0018
    17a4:	87 05 00 80 	ajmp    0x0000161c
    17a8:	05 80 80 00 	orr     r4,r0,r16
    17ac:	05 20 c0 00 	orr     r6,r0,r4
    17b0:	05 20 a0 00 	orr     r5,r0,r4
    17b4:	00 00 80 18 	ori     r4,r0,0x0000
    17b8:	02 20 06 00 	sub     r0,r6,r4
    17bc:	d3 ff 7f 40 	bne     0x00001708
    17c0:	05 30 60 01 	orr     r11,r0,r6
    17c4:	00 00 e8 64 	lh      r7,0x0000(r8)
    17c8:	0f 00 c7 14 	andi    r6,r7,0x000f
    17cc:	05 50 80 00 	orr     r4,r0,r10
    17d0:	0c 00 a8 30 	lw      r5,0x000c(r8)
    17d4:	05 00 c6 20 	lsli    r6,r6,0x0005
    17d8:	20 00 e0 18 	ori     r7,r0,0x0020
    17dc:	10 04 00 c0 	ajal    0x00001040
    17e0:	05 10 c0 00 	orr     r6,r0,r2
    17e4:	02 58 02 00 	sub     r0,r2,r11
    17e8:	02 00 00 40 	beq     0x000017f0
    17ec:	01 00 c0 18 	ori     r6,r0,0x0001
    17f0:	02 58 06 00 	sub     r0,r6,r11
    17f4:	1f 00 40 40 	bne     0x00001870
    17f8:	00 00 2a 39 	lb      r9,0x0000(r10)
    17fc:	18 00 89 20 	lsli    r4,r9,0x0018
    1800:	18 00 84 24 	lsri    r4,r4,0x0018
    1804:	02 30 04 00 	sub     r0,r4,r6
    1808:	82 00 00 40 	beq     0x00001a10
    180c:	0b 00 aa 38 	lb      r5,0x000b(r10)
    1810:	03 00 85 24 	lsri    r4,r5,0x0003
    1814:	01 00 84 14 	andi    r4,r4,0x0001
    1818:	02 30 04 00 	sub     r0,r4,r6
    181c:	17 00 00 40 	beq     0x00001878
    1820:	00 00 2e 31 	lw      r9,0x0000(r14)
    1824:	00 00 a8 64 	lh      r5,0x0000(r8)
    1828:	01 00 85 04 	addi    r4,r5,0x0001
    182c:	05 20 80 01 	orr     r12,r0,r4
    1830:	10 00 a4 20 	lsli    r5,r4,0x0010
    1834:	10 00 e5 24 	lsri    r7,r5,0x0010
    1838:	00 00 c0 18 	ori     r6,r0,0x0000
    183c:	02 30 07 00 	sub     r0,r7,r6
    1840:	2e 00 00 40 	beq     0x000018f8
    1844:	0c 00 88 30 	lw      r4,0x000c(r8)
    1848:	02 30 04 00 	sub     r0,r4,r6
    184c:	2b 00 00 40 	beq     0x000018f8
    1850:	0f 00 07 16 	andi    r16,r7,0x000f
    1854:	02 30 10 00 	sub     r0,r16,r6
    1858:	2d 00 00 40 	beq     0x0000190c
    185c:	00 00 88 69 	sh      0x0000(r8),r12
    1860:	00 00 a0 18 	ori     r5,r0,0x0000
    1864:	05 28 c0 00 	orr     r6,r0,r5
    1868:	02 58 05 00 	sub     r0,r5,r11
    186c:	d6 ff 3f 40 	beq     0x000017c4
    1870:	05 30 a0 00 	orr     r5,r0,r6
    1874:	c2 05 00 80 	ajmp    0x00001708
    1878:	0b 00 20 1a 	ori     r17,r0,0x000b
    187c:	05 50 00 02 	orr     r16,r0,r10
    1880:	04 00 e8 30 	lw      r7,0x0004(r8)
    1884:	05 30 a0 00 	orr     r5,r0,r6
    1888:	ff ff 60 2e 	ldih    r19,0xffff
    188c:	ff ff 73 1a 	ori     r19,r19,0xffff
    1890:	05 30 40 02 	orr     r18,r0,r6
    1894:	ff ff 31 06 	addi    r17,r17,0xffff
    1898:	02 98 11 00 	sub     r0,r17,r19
    189c:	0c 00 00 40 	beq     0x000018cc
    18a0:	00 00 30 39 	lb      r9,0x0000(r16)
    18a4:	18 00 a9 20 	lsli    r5,r9,0x0018
    18a8:	18 00 a5 24 	lsri    r5,r5,0x0018
    18ac:	00 00 27 39 	lb      r9,0x0000(r7)
    18b0:	18 00 89 20 	lsli    r4,r9,0x0018
    18b4:	18 00 84 24 	lsri    r4,r4,0x0018
    18b8:	02 20 a5 00 	sub     r5,r5,r4
    18bc:	01 00 e7 04 	addi    r7,r7,0x0001
    18c0:	01 00 10 06 	addi    r16,r16,0x0001
    18c4:	02 90 05 00 	sub     r0,r5,r18
    18c8:	f3 ff 3f 40 	beq     0x00001894
    18cc:	02 58 05 00 	sub     r0,r5,r11
    18d0:	e8 ff 3f 40 	beq     0x00001870
    18d4:	00 00 2e 31 	lw      r9,0x0000(r14)
    18d8:	00 00 a8 64 	lh      r5,0x0000(r8)
    18dc:	01 00 85 04 	addi    r4,r5,0x0001
    18e0:	05 20 80 01 	orr     r12,r0,r4
    18e4:	10 00 a4 20 	lsli    r5,r4,0x0010
    18e8:	10 00 e5 24 	lsri    r7,r5,0x0010
    18ec:	00 00 c0 18 	ori     r6,r0,0x0000
    18f0:	02 30 07 00 	sub     r0,r7,r6
    18f4:	d4 ff 7f 40 	bne     0x00001844
    18f8:	03 00 a0 18 	ori     r5,r0,0x0003
    18fc:	05 28 c0 00 	orr     r6,r0,r5
    1900:	02 58 05 00 	sub     r0,r5,r11
    1904:	b0 ff 3f 40 	beq     0x000017c4
    1908:	1c 06 00 80 	ajmp    0x00001870
    190c:	01 00 84 04 	addi    r4,r4,0x0001
    1910:	0c 00 88 34 	sw      0x000c(r8),r4
    1914:	0a 00 c8 64 	lh      r6,0x000a(r8)
    1918:	10 00 86 20 	lsli    r4,r6,0x0010
    191c:	10 00 84 24 	lsri    r4,r4,0x0010
    1920:	02 80 04 00 	sub     r0,r4,r16
    1924:	32 00 00 40 	beq     0x000019ec
    1928:	14 00 a5 24 	lsri    r5,r5,0x0014
    192c:	02 00 e9 38 	lb      r7,0x0002(r9)
    1930:	18 00 87 20 	lsli    r4,r7,0x0018
    1934:	18 00 84 24 	lsri    r4,r4,0x0018
    1938:	ff ff 84 04 	addi    r4,r4,0xffff
    193c:	04 20 a5 01 	and     r13,r5,r4
    1940:	02 80 0d 00 	sub     r0,r13,r16
    1944:	c6 ff 7f 40 	bne     0x0000185c
    1948:	05 30 80 00 	orr     r4,r0,r6
    194c:	7c 04 00 c0 	ajal    0x000011f0
    1950:	10 00 82 20 	lsli    r4,r2,0x0010
    1954:	10 00 c4 24 	lsri    r6,r4,0x0010
    1958:	01 00 a0 18 	ori     r5,r0,0x0001
    195c:	02 28 06 00 	sub     r0,r6,r5
    1960:	c1 ff 7f 42 	bls     0x00001864
    1964:	06 00 29 65 	lh      r9,0x0006(r9)
    1968:	10 00 89 20 	lsli    r4,r9,0x0010
    196c:	10 00 84 24 	lsri    r4,r4,0x0010
    1970:	03 00 a0 18 	ori     r5,r0,0x0003
    1974:	02 30 04 00 	sub     r0,r4,r6
    1978:	bb ff 7f 42 	bls     0x00001864
    197c:	0a 00 48 68 	sh      0x000a(r8),r2
    1980:	01 00 80 2c 	ldih    r4,0x0001
    1984:	04 08 84 18 	ori     r4,r4,0x0804
    1988:	00 00 c4 30 	lw      r6,0x0000(r4)
    198c:	fe ff 82 04 	addi    r4,r2,0xfffe
    1990:	10 00 84 20 	lsli    r4,r4,0x0010
    1994:	10 00 e4 24 	lsri    r7,r4,0x0010
    1998:	06 00 26 65 	lh      r9,0x0006(r6)
    199c:	10 00 89 20 	lsli    r4,r9,0x0010
    19a0:	10 00 84 24 	lsri    r4,r4,0x0010
    19a4:	fe ff 84 04 	addi    r4,r4,0xfffe
    19a8:	05 68 a0 00 	orr     r5,r0,r13
    19ac:	02 20 07 00 	sub     r0,r7,r4
    19b0:	07 00 80 42 	bge     0x000019cc
    19b4:	02 00 a6 38 	lb      r5,0x0002(r6)
    19b8:	18 00 85 20 	lsli    r4,r5,0x0018
    19bc:	18 00 84 24 	lsri    r4,r4,0x0018
    19c0:	0a 20 87 00 	mul     r4,r7,r4
    19c4:	10 00 a6 30 	lw      r5,0x0010(r6)
    19c8:	00 28 a4 00 	add     r5,r4,r5
    19cc:	0c 00 a8 34 	sw      0x000c(r8),r5
    19d0:	00 00 88 69 	sh      0x0000(r8),r12
    19d4:	00 00 a0 18 	ori     r5,r0,0x0000
    19d8:	19 06 00 80 	ajmp    0x00001864
    19dc:	0c 00 91 30 	lw      r4,0x000c(r17)
    19e0:	0c 00 88 34 	sw      0x000c(r8),r4
    19e4:	00 00 80 18 	ori     r4,r0,0x0000
    19e8:	bd 05 00 80 	ajmp    0x000016f4
    19ec:	04 00 29 65 	lh      r9,0x0004(r9)
    19f0:	10 00 89 20 	lsli    r4,r9,0x0010
    19f4:	10 00 84 24 	lsri    r4,r4,0x0010
    19f8:	03 00 a0 18 	ori     r5,r0,0x0003
    19fc:	02 38 04 00 	sub     r0,r4,r7
    1a00:	99 ff 7f 42 	bls     0x00001864
    1a04:	00 00 88 69 	sh      0x0000(r8),r12
    1a08:	00 00 a0 18 	ori     r5,r0,0x0000
    1a0c:	19 06 00 80 	ajmp    0x00001864
    1a10:	03 00 c0 18 	ori     r6,r0,0x0003
    1a14:	05 30 a0 00 	orr     r5,r0,r6
    1a18:	c2 05 00 80 	ajmp    0x00001708
    1a1c:	03 00 c0 18 	ori     r6,r0,0x0003
    1a20:	05 30 40 00 	orr     r2,r0,r6
    1a24:	04 00 bd 07 	addi    r29,r29,0x0004
    1a28:	00 00 fd 33 	lw      r31,0x0000(r29)
    1a2c:	04 00 fd 31 	lw      r15,0x0004(r29)
    1a30:	08 00 dd 31 	lw      r14,0x0008(r29)
    1a34:	0c 00 bd 31 	lw      r13,0x000c(r29)
    1a38:	10 00 9d 31 	lw      r12,0x0010(r29)
    1a3c:	14 00 7d 31 	lw      r11,0x0014(r29)
    1a40:	18 00 5d 31 	lw      r10,0x0018(r29)
    1a44:	1c 00 3d 31 	lw      r9,0x001c(r29)
    1a48:	20 00 1d 31 	lw      r8,0x0020(r29)
    1a4c:	24 00 bd 07 	addi    r29,r29,0x0024
    1a50:	00 00 e0 47 	jmpr    r31
    1a54:	00 00 00 00 	nop
    1a58:	00 00 00 00 	nop
    1a5c:	00 00 00 00 	nop

00001a60 <pf_mount>:
    1a60:	e4 ff bd 07 	addi    r29,r29,0xffe4
    1a64:	00 00 fd 37 	sw      0x0000(r29),r31
    1a68:	04 00 bd 35 	sw      0x0004(r29),r13
    1a6c:	08 00 9d 35 	sw      0x0008(r29),r12
    1a70:	0c 00 7d 35 	sw      0x000c(r29),r11
    1a74:	10 00 5d 35 	sw      0x0010(r29),r10
    1a78:	14 00 3d 35 	sw      0x0014(r29),r9
    1a7c:	18 00 1d 35 	sw      0x0018(r29),r8
    1a80:	dc ff bd 07 	addi    r29,r29,0xffdc
    1a84:	05 20 60 01 	orr     r11,r0,r4
    1a88:	01 00 80 2d 	ldih    r12,0x0001
    1a8c:	04 08 8c 19 	ori     r12,r12,0x0804
    1a90:	00 00 00 19 	ori     r8,r0,0x0000
    1a94:	00 00 0c 35 	sw      0x0000(r12),r8
    1a98:	0c 04 00 c0 	ajal    0x00001030
    1a9c:	01 00 a2 14 	andi    r5,r2,0x0001
    1aa0:	02 00 c0 18 	ori     r6,r0,0x0002
    1aa4:	02 40 05 00 	sub     r0,r5,r8
    1aa8:	23 00 40 40 	bne     0x00001b34
    1aac:	05 28 20 01 	orr     r9,r0,r5
    1ab0:	05 e8 40 01 	orr     r10,r0,r29
    1ab4:	05 e8 80 00 	orr     r4,r0,r29
    1ab8:	fe 01 c0 18 	ori     r6,r0,0x01fe
    1abc:	02 00 e0 18 	ori     r7,r0,0x0002
    1ac0:	10 04 00 c0 	ajal    0x00001040
    1ac4:	05 10 00 01 	orr     r8,r0,r2
    1ac8:	03 00 c0 18 	ori     r6,r0,0x0003
    1acc:	02 48 02 00 	sub     r0,r2,r9
    1ad0:	24 00 00 40 	beq     0x00001b60
    1ad4:	05 30 00 01 	orr     r8,r0,r6
    1ad8:	18 00 86 20 	lsli    r4,r6,0x0018
    1adc:	18 00 84 24 	lsri    r4,r4,0x0018
    1ae0:	01 00 a0 18 	ori     r5,r0,0x0001
    1ae4:	02 28 04 00 	sub     r0,r4,r5
    1ae8:	8d 00 00 40 	beq     0x00001d1c
    1aec:	18 00 88 20 	lsli    r4,r8,0x0018
    1af0:	18 00 04 25 	lsri    r8,r4,0x0018
    1af4:	01 00 c0 18 	ori     r6,r0,0x0001
    1af8:	03 00 80 18 	ori     r4,r0,0x0003
    1afc:	02 20 08 00 	sub     r0,r8,r4
    1b00:	0d 00 00 40 	beq     0x00001b34
    1b04:	06 00 c0 18 	ori     r6,r0,0x0006
    1b08:	00 00 80 18 	ori     r4,r0,0x0000
    1b0c:	02 20 08 00 	sub     r0,r8,r4
    1b10:	09 00 40 40 	bne     0x00001b34
    1b14:	05 50 80 00 	orr     r4,r0,r10
    1b18:	05 48 a0 00 	orr     r5,r0,r9
    1b1c:	0d 00 c0 18 	ori     r6,r0,0x000d
    1b20:	24 00 e0 18 	ori     r7,r0,0x0024
    1b24:	10 04 00 c0 	ajal    0x00001040
    1b28:	01 00 c0 18 	ori     r6,r0,0x0001
    1b2c:	02 40 02 00 	sub     r0,r2,r8
    1b30:	26 00 00 40 	beq     0x00001bc8
    1b34:	05 30 40 00 	orr     r2,r0,r6
    1b38:	24 00 bd 07 	addi    r29,r29,0x0024
    1b3c:	00 00 fd 33 	lw      r31,0x0000(r29)
    1b40:	04 00 bd 31 	lw      r13,0x0004(r29)
    1b44:	08 00 9d 31 	lw      r12,0x0008(r29)
    1b48:	0c 00 7d 31 	lw      r11,0x000c(r29)
    1b4c:	10 00 5d 31 	lw      r10,0x0010(r29)
    1b50:	14 00 3d 31 	lw      r9,0x0014(r29)
    1b54:	18 00 1d 31 	lw      r8,0x0018(r29)
    1b58:	1c 00 bd 07 	addi    r29,r29,0x001c
    1b5c:	00 00 e0 47 	jmpr    r31
    1b60:	01 00 bd 38 	lb      r5,0x0001(r29)
    1b64:	18 00 85 20 	lsli    r4,r5,0x0018
    1b68:	00 00 dd 38 	lb      r6,0x0000(r29)
    1b6c:	18 00 a6 20 	lsli    r5,r6,0x0018
    1b70:	08 00 a5 24 	lsri    r5,r5,0x0008
    1b74:	05 20 a5 00 	orr     r5,r5,r4
    1b78:	10 00 a5 24 	lsri    r5,r5,0x0010
    1b7c:	02 00 c0 18 	ori     r6,r0,0x0002
    1b80:	55 aa 80 18 	ori     r4,r0,0xaa55
    1b84:	02 20 05 00 	sub     r0,r5,r4
    1b88:	d3 ff 7f 40 	bne     0x00001ad4
    1b8c:	05 e8 80 00 	orr     r4,r0,r29
    1b90:	05 10 a0 00 	orr     r5,r0,r2
    1b94:	36 00 c0 18 	ori     r6,r0,0x0036
    1b98:	02 00 e0 18 	ori     r7,r0,0x0002
    1b9c:	10 04 00 c0 	ajal    0x00001040
    1ba0:	02 40 02 00 	sub     r0,r2,r8
    1ba4:	a6 00 00 40 	beq     0x00001e3c
    1ba8:	01 00 c0 18 	ori     r6,r0,0x0001
    1bac:	05 30 00 01 	orr     r8,r0,r6
    1bb0:	18 00 86 20 	lsli    r4,r6,0x0018
    1bb4:	18 00 84 24 	lsri    r4,r4,0x0018
    1bb8:	01 00 a0 18 	ori     r5,r0,0x0001
    1bbc:	02 28 04 00 	sub     r0,r4,r5
    1bc0:	cb ff 7f 40 	bne     0x00001aec
    1bc4:	47 07 00 80 	ajmp    0x00001d1c
    1bc8:	0a 00 9d 38 	lb      r4,0x000a(r29)
    1bcc:	18 00 a4 20 	lsli    r5,r4,0x0018
    1bd0:	09 00 dd 38 	lb      r6,0x0009(r29)
    1bd4:	18 00 86 20 	lsli    r4,r6,0x0018
    1bd8:	08 00 84 24 	lsri    r4,r4,0x0008
    1bdc:	05 28 e4 00 	orr     r7,r4,r5
    1be0:	10 00 e7 24 	lsri    r7,r7,0x0010
    1be4:	02 10 07 00 	sub     r0,r7,r2
    1be8:	66 00 00 40 	beq     0x00001d80
    1bec:	03 00 bd 38 	lb      r5,0x0003(r29)
    1bf0:	18 00 85 20 	lsli    r4,r5,0x0018
    1bf4:	18 00 84 24 	lsri    r4,r4,0x0018
    1bf8:	0a 20 e7 00 	mul     r7,r7,r4
    1bfc:	02 00 dd 38 	lb      r6,0x0002(r29)
    1c00:	18 00 a6 20 	lsli    r5,r6,0x0018
    1c04:	10 00 a5 24 	lsri    r5,r5,0x0010
    1c08:	01 00 dd 38 	lb      r6,0x0001(r29)
    1c0c:	18 00 86 20 	lsli    r4,r6,0x0018
    1c10:	18 00 84 24 	lsri    r4,r4,0x0018
    1c14:	05 28 04 01 	orr     r8,r4,r5
    1c18:	00 48 48 01 	add     r10,r8,r9
    1c1c:	08 00 4b 35 	sw      0x0008(r11),r10
    1c20:	00 00 3d 39 	lb      r9,0x0000(r29)
    1c24:	02 00 2b 3d 	sb      0x0002(r11),r9
    1c28:	05 00 9d 38 	lb      r4,0x0005(r29)
    1c2c:	18 00 a4 20 	lsli    r5,r4,0x0018
    1c30:	10 00 a5 24 	lsri    r5,r5,0x0010
    1c34:	04 00 dd 38 	lb      r6,0x0004(r29)
    1c38:	18 00 86 20 	lsli    r4,r6,0x0018
    1c3c:	18 00 84 24 	lsri    r4,r4,0x0018
    1c40:	05 28 c4 00 	orr     r6,r4,r5
    1c44:	04 00 cb 68 	sh      0x0004(r11),r6
    1c48:	07 00 3d 39 	lb      r9,0x0007(r29)
    1c4c:	18 00 a9 20 	lsli    r5,r9,0x0018
    1c50:	06 00 3d 39 	lb      r9,0x0006(r29)
    1c54:	18 00 89 20 	lsli    r4,r9,0x0018
    1c58:	08 00 84 24 	lsri    r4,r4,0x0008
    1c5c:	05 28 84 00 	orr     r4,r4,r5
    1c60:	10 00 84 24 	lsri    r4,r4,0x0010
    1c64:	02 10 04 00 	sub     r0,r4,r2
    1c68:	37 00 00 40 	beq     0x00001d44
    1c6c:	02 40 a4 00 	sub     r5,r4,r8
    1c70:	02 38 a5 00 	sub     r5,r5,r7
    1c74:	04 00 26 25 	lsri    r9,r6,0x0004
    1c78:	02 48 a5 00 	sub     r5,r5,r9
    1c7c:	00 00 dd 38 	lb      r6,0x0000(r29)
    1c80:	18 00 86 20 	lsli    r4,r6,0x0018
    1c84:	18 00 84 24 	lsri    r4,r4,0x0018
    1c88:	0e 20 c5 00 	divu    r6,r5,r4
    1c8c:	02 00 a6 04 	addi    r5,r6,0x0002
    1c90:	06 00 ab 68 	sh      0x0006(r11),r5
    1c94:	05 10 00 01 	orr     r8,r0,r2
    1c98:	f6 0f 80 18 	ori     r4,r0,0x0ff6
    1c9c:	02 20 05 00 	sub     r0,r5,r4
    1ca0:	02 00 00 42 	bhi     0x00001ca8
    1ca4:	01 00 00 19 	ori     r8,r0,0x0001
    1ca8:	0a f0 a6 04 	addi    r5,r6,0xf00a
    1cac:	fe ef 80 18 	ori     r4,r0,0xeffe
    1cb0:	02 20 05 00 	sub     r0,r5,r4
    1cb4:	02 00 00 42 	bhi     0x00001cbc
    1cb8:	02 00 00 19 	ori     r8,r0,0x0002
    1cbc:	18 00 88 20 	lsli    r4,r8,0x0018
    1cc0:	18 00 84 24 	lsri    r4,r4,0x0018
    1cc4:	06 00 c0 18 	ori     r6,r0,0x0006
    1cc8:	02 10 04 00 	sub     r0,r4,r2
    1ccc:	9a ff 3f 40 	beq     0x00001b34
    1cd0:	00 00 0b 3d 	sb      0x0000(r11),r8
    1cd4:	00 38 8a 00 	add     r4,r10,r7
    1cd8:	0c 00 8b 34 	sw      0x000c(r11),r4
    1cdc:	00 48 84 00 	add     r4,r4,r9
    1ce0:	10 00 8b 34 	sw      0x0010(r11),r4
    1ce4:	01 00 4b 3c 	sb      0x0001(r11),r2
    1ce8:	00 00 6c 35 	sw      0x0000(r12),r11
    1cec:	05 10 c0 00 	orr     r6,r0,r2
    1cf0:	05 30 40 00 	orr     r2,r0,r6
    1cf4:	24 00 bd 07 	addi    r29,r29,0x0024
    1cf8:	00 00 fd 33 	lw      r31,0x0000(r29)
    1cfc:	04 00 bd 31 	lw      r13,0x0004(r29)
    1d00:	08 00 9d 31 	lw      r12,0x0008(r29)
    1d04:	0c 00 7d 31 	lw      r11,0x000c(r29)
    1d08:	10 00 5d 31 	lw      r10,0x0010(r29)
    1d0c:	14 00 3d 31 	lw      r9,0x0014(r29)
    1d10:	18 00 1d 31 	lw      r8,0x0018(r29)
    1d14:	1c 00 bd 07 	addi    r29,r29,0x001c
    1d18:	00 00 e0 47 	jmpr    r31
    1d1c:	05 50 80 00 	orr     r4,r0,r10
    1d20:	00 00 a0 18 	ori     r5,r0,0x0000
    1d24:	be 01 c0 18 	ori     r6,r0,0x01be
    1d28:	10 00 e0 18 	ori     r7,r0,0x0010
    1d2c:	10 04 00 c0 	ajal    0x00001040
    1d30:	00 00 a0 19 	ori     r13,r0,0x0000
    1d34:	02 68 02 00 	sub     r0,r2,r13
    1d38:	4e 00 00 40 	beq     0x00001e70
    1d3c:	03 00 00 19 	ori     r8,r0,0x0003
    1d40:	bb 06 00 80 	ajmp    0x00001aec
    1d44:	16 00 9d 38 	lb      r4,0x0016(r29)
    1d48:	18 00 a4 20 	lsli    r5,r4,0x0018
    1d4c:	15 00 3d 39 	lb      r9,0x0015(r29)
    1d50:	18 00 89 20 	lsli    r4,r9,0x0018
    1d54:	08 00 84 24 	lsri    r4,r4,0x0008
    1d58:	05 20 a5 00 	orr     r5,r5,r4
    1d5c:	14 00 3d 39 	lb      r9,0x0014(r29)
    1d60:	18 00 89 20 	lsli    r4,r9,0x0018
    1d64:	10 00 84 24 	lsri    r4,r4,0x0010
    1d68:	05 20 a5 00 	orr     r5,r5,r4
    1d6c:	13 00 3d 39 	lb      r9,0x0013(r29)
    1d70:	18 00 89 20 	lsli    r4,r9,0x0018
    1d74:	18 00 84 24 	lsri    r4,r4,0x0018
    1d78:	05 20 85 00 	orr     r4,r5,r4
    1d7c:	1b 07 00 80 	ajmp    0x00001c6c
    1d80:	1a 00 9d 38 	lb      r4,0x001a(r29)
    1d84:	18 00 a4 20 	lsli    r5,r4,0x0018
    1d88:	19 00 dd 38 	lb      r6,0x0019(r29)
    1d8c:	18 00 86 20 	lsli    r4,r6,0x0018
    1d90:	08 00 84 24 	lsri    r4,r4,0x0008
    1d94:	05 20 a5 00 	orr     r5,r5,r4
    1d98:	18 00 dd 38 	lb      r6,0x0018(r29)
    1d9c:	18 00 86 20 	lsli    r4,r6,0x0018
    1da0:	10 00 84 24 	lsri    r4,r4,0x0010
    1da4:	05 20 a5 00 	orr     r5,r5,r4
    1da8:	17 00 dd 38 	lb      r6,0x0017(r29)
    1dac:	18 00 86 20 	lsli    r4,r6,0x0018
    1db0:	18 00 84 24 	lsri    r4,r4,0x0018
    1db4:	05 20 e5 00 	orr     r7,r5,r4
    1db8:	03 00 bd 38 	lb      r5,0x0003(r29)
    1dbc:	18 00 85 20 	lsli    r4,r5,0x0018
    1dc0:	18 00 84 24 	lsri    r4,r4,0x0018
    1dc4:	0a 20 e7 00 	mul     r7,r7,r4
    1dc8:	02 00 dd 38 	lb      r6,0x0002(r29)
    1dcc:	18 00 a6 20 	lsli    r5,r6,0x0018
    1dd0:	10 00 a5 24 	lsri    r5,r5,0x0010
    1dd4:	01 00 dd 38 	lb      r6,0x0001(r29)
    1dd8:	18 00 86 20 	lsli    r4,r6,0x0018
    1ddc:	18 00 84 24 	lsri    r4,r4,0x0018
    1de0:	05 28 04 01 	orr     r8,r4,r5
    1de4:	00 48 48 01 	add     r10,r8,r9
    1de8:	08 00 4b 35 	sw      0x0008(r11),r10
    1dec:	00 00 3d 39 	lb      r9,0x0000(r29)
    1df0:	02 00 2b 3d 	sb      0x0002(r11),r9
    1df4:	05 00 9d 38 	lb      r4,0x0005(r29)
    1df8:	18 00 a4 20 	lsli    r5,r4,0x0018
    1dfc:	10 00 a5 24 	lsri    r5,r5,0x0010
    1e00:	04 00 dd 38 	lb      r6,0x0004(r29)
    1e04:	18 00 86 20 	lsli    r4,r6,0x0018
    1e08:	18 00 84 24 	lsri    r4,r4,0x0018
    1e0c:	05 28 c4 00 	orr     r6,r4,r5
    1e10:	04 00 cb 68 	sh      0x0004(r11),r6
    1e14:	07 00 3d 39 	lb      r9,0x0007(r29)
    1e18:	18 00 a9 20 	lsli    r5,r9,0x0018
    1e1c:	06 00 3d 39 	lb      r9,0x0006(r29)
    1e20:	18 00 89 20 	lsli    r4,r9,0x0018
    1e24:	08 00 84 24 	lsri    r4,r4,0x0008
    1e28:	05 28 84 00 	orr     r4,r4,r5
    1e2c:	10 00 84 24 	lsri    r4,r4,0x0010
    1e30:	02 10 04 00 	sub     r0,r4,r2
    1e34:	8e ff 7f 40 	bne     0x00001c6c
    1e38:	51 07 00 80 	ajmp    0x00001d44
    1e3c:	01 00 bd 38 	lb      r5,0x0001(r29)
    1e40:	18 00 85 20 	lsli    r4,r5,0x0018
    1e44:	00 00 dd 38 	lb      r6,0x0000(r29)
    1e48:	18 00 a6 20 	lsli    r5,r6,0x0018
    1e4c:	08 00 a5 24 	lsri    r5,r5,0x0008
    1e50:	05 20 a5 00 	orr     r5,r5,r4
    1e54:	10 00 a5 24 	lsri    r5,r5,0x0010
    1e58:	05 10 c0 00 	orr     r6,r0,r2
    1e5c:	46 41 80 18 	ori     r4,r0,0x4146
    1e60:	02 20 05 00 	sub     r0,r5,r4
    1e64:	1c ff 3f 40 	beq     0x00001ad4
    1e68:	01 00 c0 18 	ori     r6,r0,0x0001
    1e6c:	eb 06 00 80 	ajmp    0x00001bac
    1e70:	04 00 bd 38 	lb      r5,0x0004(r29)
    1e74:	18 00 85 20 	lsli    r4,r5,0x0018
    1e78:	18 00 84 24 	lsri    r4,r4,0x0018
    1e7c:	02 10 04 00 	sub     r0,r4,r2
    1e80:	1b ff 3f 40 	beq     0x00001aec
    1e84:	0b 00 dd 38 	lb      r6,0x000b(r29)
    1e88:	18 00 a6 20 	lsli    r5,r6,0x0018
    1e8c:	0a 00 3d 39 	lb      r9,0x000a(r29)
    1e90:	18 00 89 20 	lsli    r4,r9,0x0018
    1e94:	08 00 84 24 	lsri    r4,r4,0x0008
    1e98:	05 20 a5 00 	orr     r5,r5,r4
    1e9c:	09 00 dd 38 	lb      r6,0x0009(r29)
    1ea0:	18 00 86 20 	lsli    r4,r6,0x0018
    1ea4:	10 00 84 24 	lsri    r4,r4,0x0010
    1ea8:	05 20 a5 00 	orr     r5,r5,r4
    1eac:	08 00 3d 39 	lb      r9,0x0008(r29)
    1eb0:	18 00 89 20 	lsli    r4,r9,0x0018
    1eb4:	18 00 84 24 	lsri    r4,r4,0x0018
    1eb8:	05 20 25 01 	orr     r9,r5,r4
    1ebc:	05 50 80 00 	orr     r4,r0,r10
    1ec0:	05 48 a0 00 	orr     r5,r0,r9
    1ec4:	fe 01 c0 18 	ori     r6,r0,0x01fe
    1ec8:	02 00 e0 18 	ori     r7,r0,0x0002
    1ecc:	10 04 00 c0 	ajal    0x00001040
    1ed0:	05 10 00 01 	orr     r8,r0,r2
    1ed4:	03 00 c0 18 	ori     r6,r0,0x0003
    1ed8:	02 68 02 00 	sub     r0,r2,r13
    1edc:	03 00 00 40 	beq     0x00001ee8
    1ee0:	05 30 00 01 	orr     r8,r0,r6
    1ee4:	bb 06 00 80 	ajmp    0x00001aec
    1ee8:	01 00 bd 38 	lb      r5,0x0001(r29)
    1eec:	18 00 85 20 	lsli    r4,r5,0x0018
    1ef0:	00 00 ca 38 	lb      r6,0x0000(r10)
    1ef4:	18 00 a6 20 	lsli    r5,r6,0x0018
    1ef8:	08 00 a5 24 	lsri    r5,r5,0x0008
    1efc:	05 20 a5 00 	orr     r5,r5,r4
    1f00:	10 00 a5 24 	lsri    r5,r5,0x0010
    1f04:	02 00 c0 18 	ori     r6,r0,0x0002
    1f08:	55 aa 80 18 	ori     r4,r0,0xaa55
    1f0c:	02 20 05 00 	sub     r0,r5,r4
    1f10:	f4 ff 7f 40 	bne     0x00001ee0
    1f14:	05 50 80 00 	orr     r4,r0,r10
    1f18:	05 48 a0 00 	orr     r5,r0,r9
    1f1c:	36 00 c0 18 	ori     r6,r0,0x0036
    1f20:	02 00 e0 18 	ori     r7,r0,0x0002
    1f24:	10 04 00 c0 	ajal    0x00001040
    1f28:	02 40 02 00 	sub     r0,r2,r8
    1f2c:	04 00 00 40 	beq     0x00001f3c
    1f30:	01 00 c0 18 	ori     r6,r0,0x0001
    1f34:	05 30 00 01 	orr     r8,r0,r6
    1f38:	bb 06 00 80 	ajmp    0x00001aec
    1f3c:	01 00 bd 38 	lb      r5,0x0001(r29)
    1f40:	18 00 85 20 	lsli    r4,r5,0x0018
    1f44:	00 00 ca 38 	lb      r6,0x0000(r10)
    1f48:	18 00 a6 20 	lsli    r5,r6,0x0018
    1f4c:	08 00 a5 24 	lsri    r5,r5,0x0008
    1f50:	05 20 a5 00 	orr     r5,r5,r4
    1f54:	10 00 a5 24 	lsri    r5,r5,0x0010
    1f58:	05 10 c0 00 	orr     r6,r0,r2
    1f5c:	46 41 80 18 	ori     r4,r0,0x4146
    1f60:	02 20 05 00 	sub     r0,r5,r4
    1f64:	df ff 3f 40 	beq     0x00001ee0
    1f68:	01 00 c0 18 	ori     r6,r0,0x0001
    1f6c:	cd 07 00 80 	ajmp    0x00001f34

00001f70 <pf_open>:
    1f70:	f4 ff bd 07 	addi    r29,r29,0xfff4
    1f74:	00 00 fd 37 	sw      0x0000(r29),r31
    1f78:	04 00 3d 35 	sw      0x0004(r29),r9
    1f7c:	08 00 1d 35 	sw      0x0008(r29),r8
    1f80:	c4 ff bd 07 	addi    r29,r29,0xffc4
    1f84:	05 20 c0 00 	orr     r6,r0,r4
    1f88:	01 00 80 2c 	ldih    r4,0x0001
    1f8c:	04 08 84 18 	ori     r4,r4,0x0804
    1f90:	00 00 24 31 	lw      r9,0x0000(r4)
    1f94:	00 00 00 19 	ori     r8,r0,0x0000
    1f98:	05 00 80 18 	ori     r4,r0,0x0005
    1f9c:	02 40 09 00 	sub     r0,r9,r8
    1fa0:	0a 00 00 40 	beq     0x00001fc8
    1fa4:	01 00 09 3d 	sb      0x0001(r9),r8
    1fa8:	20 00 9d 04 	addi    r4,r29,0x0020
    1fac:	30 00 9d 34 	sw      0x0030(r29),r4
    1fb0:	2c 00 9d 04 	addi    r4,r29,0x002c
    1fb4:	05 e8 a0 00 	orr     r5,r0,r29
    1fb8:	0c 05 00 c0 	ajal    0x00001430
    1fbc:	05 10 80 00 	orr     r4,r0,r2
    1fc0:	02 40 02 00 	sub     r0,r2,r8
    1fc4:	08 00 00 40 	beq     0x00001fe4
    1fc8:	05 20 40 00 	orr     r2,r0,r4
    1fcc:	3c 00 bd 07 	addi    r29,r29,0x003c
    1fd0:	00 00 fd 33 	lw      r31,0x0000(r29)
    1fd4:	04 00 3d 31 	lw      r9,0x0004(r29)
    1fd8:	08 00 1d 31 	lw      r8,0x0008(r29)
    1fdc:	0c 00 bd 07 	addi    r29,r29,0x000c
    1fe0:	00 00 e0 47 	jmpr    r31
    1fe4:	00 00 bd 38 	lb      r5,0x0000(r29)
    1fe8:	18 00 85 20 	lsli    r4,r5,0x0018
    1fec:	18 00 84 24 	lsri    r4,r4,0x0018
    1ff0:	02 10 04 00 	sub     r0,r4,r2
    1ff4:	06 00 00 40 	beq     0x0000200c
    1ff8:	0b 00 dd 38 	lb      r6,0x000b(r29)
    1ffc:	04 00 86 24 	lsri    r4,r6,0x0004
    2000:	01 00 84 14 	andi    r4,r4,0x0001
    2004:	02 10 04 00 	sub     r0,r4,r2
    2008:	09 00 00 40 	beq     0x0000202c
    200c:	03 00 80 18 	ori     r4,r0,0x0003
    2010:	05 20 40 00 	orr     r2,r0,r4
    2014:	3c 00 bd 07 	addi    r29,r29,0x003c
    2018:	00 00 fd 33 	lw      r31,0x0000(r29)
    201c:	04 00 3d 31 	lw      r9,0x0004(r29)
    2020:	08 00 1d 31 	lw      r8,0x0008(r29)
    2024:	0c 00 bd 07 	addi    r29,r29,0x000c
    2028:	00 00 e0 47 	jmpr    r31
    202c:	1b 00 9d 38 	lb      r4,0x001b(r29)
    2030:	18 00 a4 20 	lsli    r5,r4,0x0018
    2034:	1a 00 dd 38 	lb      r6,0x001a(r29)
    2038:	18 00 86 20 	lsli    r4,r6,0x0018
    203c:	08 00 84 24 	lsri    r4,r4,0x0008
    2040:	05 28 84 00 	orr     r4,r4,r5
    2044:	10 00 84 24 	lsri    r4,r4,0x0010
    2048:	1c 00 89 68 	sh      0x001c(r9),r4
    204c:	1f 00 9d 38 	lb      r4,0x001f(r29)
    2050:	18 00 a4 20 	lsli    r5,r4,0x0018
    2054:	1e 00 dd 38 	lb      r6,0x001e(r29)
    2058:	18 00 86 20 	lsli    r4,r6,0x0018
    205c:	08 00 84 24 	lsri    r4,r4,0x0008
    2060:	05 20 a5 00 	orr     r5,r5,r4
    2064:	1d 00 dd 38 	lb      r6,0x001d(r29)
    2068:	18 00 86 20 	lsli    r4,r6,0x0018
    206c:	10 00 84 24 	lsri    r4,r4,0x0010
    2070:	05 20 a5 00 	orr     r5,r5,r4
    2074:	1c 00 dd 38 	lb      r6,0x001c(r29)
    2078:	18 00 86 20 	lsli    r4,r6,0x0018
    207c:	18 00 84 24 	lsri    r4,r4,0x0018
    2080:	05 20 a5 00 	orr     r5,r5,r4
    2084:	18 00 a9 34 	sw      0x0018(r9),r5
    2088:	14 00 49 34 	sw      0x0014(r9),r2
    208c:	01 00 80 18 	ori     r4,r0,0x0001
    2090:	01 00 89 3c 	sb      0x0001(r9),r4
    2094:	05 10 80 00 	orr     r4,r0,r2
    2098:	05 20 40 00 	orr     r2,r0,r4
    209c:	3c 00 bd 07 	addi    r29,r29,0x003c
    20a0:	00 00 fd 33 	lw      r31,0x0000(r29)
    20a4:	04 00 3d 31 	lw      r9,0x0004(r29)
    20a8:	08 00 1d 31 	lw      r8,0x0008(r29)
    20ac:	0c 00 bd 07 	addi    r29,r29,0x000c
    20b0:	00 00 e0 47 	jmpr    r31
    20b4:	00 00 00 00 	nop
    20b8:	00 00 00 00 	nop
    20bc:	00 00 00 00 	nop

000020c0 <pf_read>:
    20c0:	dc ff bd 07 	addi    r29,r29,0xffdc
    20c4:	00 00 fd 37 	sw      0x0000(r29),r31
    20c8:	04 00 fd 35 	sw      0x0004(r29),r15
    20cc:	08 00 dd 35 	sw      0x0008(r29),r14
    20d0:	0c 00 bd 35 	sw      0x000c(r29),r13
    20d4:	10 00 9d 35 	sw      0x0010(r29),r12
    20d8:	14 00 7d 35 	sw      0x0014(r29),r11
    20dc:	18 00 5d 35 	sw      0x0018(r29),r10
    20e0:	1c 00 3d 35 	sw      0x001c(r29),r9
    20e4:	20 00 1d 35 	sw      0x0020(r29),r8
    20e8:	05 20 c0 01 	orr     r14,r0,r4
    20ec:	05 28 40 01 	orr     r10,r0,r5
    20f0:	05 30 80 01 	orr     r12,r0,r6
    20f4:	05 20 60 01 	orr     r11,r0,r4
    20f8:	01 00 e0 2d 	ldih    r15,0x0001
    20fc:	04 08 ef 19 	ori     r15,r15,0x0804
    2100:	00 00 2f 31 	lw      r9,0x0000(r15)
    2104:	00 00 a0 18 	ori     r5,r0,0x0000
    2108:	00 00 a6 34 	sw      0x0000(r6),r5
    210c:	05 00 c0 18 	ori     r6,r0,0x0005
    2110:	02 28 09 00 	sub     r0,r9,r5
    2114:	2e 00 00 40 	beq     0x000021cc
    2118:	01 00 c9 38 	lb      r6,0x0001(r9)
    211c:	01 00 86 14 	andi    r4,r6,0x0001
    2120:	04 00 c0 18 	ori     r6,r0,0x0004
    2124:	02 28 04 00 	sub     r0,r4,r5
    2128:	29 00 00 40 	beq     0x000021cc
    212c:	18 00 89 30 	lw      r4,0x0018(r9)
    2130:	14 00 c9 30 	lw      r6,0x0014(r9)
    2134:	02 30 84 00 	sub     r4,r4,r6
    2138:	02 20 0a 00 	sub     r0,r10,r4
    213c:	30 00 00 42 	bhi     0x000021fc
    2140:	02 28 0a 00 	sub     r0,r10,r5
    2144:	21 00 00 40 	beq     0x000021c8
    2148:	05 28 a0 01 	orr     r13,r0,r5
    214c:	ff 01 86 14 	andi    r4,r6,0x01ff
    2150:	02 68 04 00 	sub     r0,r4,r13
    2154:	2c 00 00 40 	beq     0x00002204
    2158:	20 00 e9 30 	lw      r7,0x0020(r9)
    215c:	ff 01 a6 14 	andi    r5,r6,0x01ff
    2160:	00 02 80 18 	ori     r4,r0,0x0200
    2164:	02 28 04 01 	sub     r8,r4,r5
    2168:	02 50 08 00 	sub     r0,r8,r10
    216c:	02 00 40 42 	bls     0x00002174
    2170:	05 50 00 01 	orr     r8,r0,r10
    2174:	05 58 80 00 	orr     r4,r0,r11
    2178:	02 68 0e 00 	sub     r0,r14,r13
    217c:	54 00 00 40 	beq     0x000022cc
    2180:	05 38 a0 00 	orr     r5,r0,r7
    2184:	ff 01 c6 14 	andi    r6,r6,0x01ff
    2188:	05 40 e0 00 	orr     r7,r0,r8
    218c:	10 04 00 c0 	ajal    0x00001040
    2190:	00 00 80 18 	ori     r4,r0,0x0000
    2194:	02 20 02 00 	sub     r0,r2,r4
    2198:	55 00 40 40 	bne     0x000022ec
    219c:	14 00 89 30 	lw      r4,0x0014(r9)
    21a0:	00 40 84 00 	add     r4,r4,r8
    21a4:	05 20 c0 00 	orr     r6,r0,r4
    21a8:	14 00 89 34 	sw      0x0014(r9),r4
    21ac:	00 40 6b 01 	add     r11,r11,r8
    21b0:	02 40 4a 01 	sub     r10,r10,r8
    21b4:	00 00 8c 30 	lw      r4,0x0000(r12)
    21b8:	00 40 84 00 	add     r4,r4,r8
    21bc:	00 00 8c 34 	sw      0x0000(r12),r4
    21c0:	02 10 0a 00 	sub     r0,r10,r2
    21c4:	e2 ff 7f 40 	bne     0x0000214c
    21c8:	00 00 c0 18 	ori     r6,r0,0x0000
    21cc:	05 30 40 00 	orr     r2,r0,r6
    21d0:	00 00 fd 33 	lw      r31,0x0000(r29)
    21d4:	04 00 fd 31 	lw      r15,0x0004(r29)
    21d8:	08 00 dd 31 	lw      r14,0x0008(r29)
    21dc:	0c 00 bd 31 	lw      r13,0x000c(r29)
    21e0:	10 00 9d 31 	lw      r12,0x0010(r29)
    21e4:	14 00 7d 31 	lw      r11,0x0014(r29)
    21e8:	18 00 5d 31 	lw      r10,0x0018(r29)
    21ec:	1c 00 3d 31 	lw      r9,0x001c(r29)
    21f0:	20 00 1d 31 	lw      r8,0x0020(r29)
    21f4:	24 00 bd 07 	addi    r29,r29,0x0024
    21f8:	00 00 e0 47 	jmpr    r31
    21fc:	05 20 40 01 	orr     r10,r0,r4
    2200:	50 08 00 80 	ajmp    0x00002140
    2204:	09 00 86 24 	lsri    r4,r6,0x0009
    2208:	02 00 e9 38 	lb      r7,0x0002(r9)
    220c:	ff ff a7 04 	addi    r5,r7,0xffff
    2210:	04 28 84 00 	and     r4,r4,r5
    2214:	05 20 00 01 	orr     r8,r0,r4
    2218:	18 00 84 20 	lsli    r4,r4,0x0018
    221c:	18 00 84 24 	lsri    r4,r4,0x0018
    2220:	02 68 04 00 	sub     r0,r4,r13
    2224:	1b 00 00 40 	beq     0x00002290
    2228:	1e 00 89 64 	lh      r4,0x001e(r9)
    222c:	00 00 cf 30 	lw      r6,0x0000(r15)
    2230:	fe ff 84 04 	addi    r4,r4,0xfffe
    2234:	10 00 84 20 	lsli    r4,r4,0x0010
    2238:	10 00 e4 24 	lsri    r7,r4,0x0010
    223c:	06 00 a6 64 	lh      r5,0x0006(r6)
    2240:	10 00 85 20 	lsli    r4,r5,0x0010
    2244:	10 00 84 24 	lsri    r4,r4,0x0010
    2248:	fe ff 84 04 	addi    r4,r4,0xfffe
    224c:	00 00 a0 18 	ori     r5,r0,0x0000
    2250:	02 20 07 00 	sub     r0,r7,r4
    2254:	07 00 80 42 	bge     0x00002270
    2258:	02 00 a6 38 	lb      r5,0x0002(r6)
    225c:	18 00 85 20 	lsli    r4,r5,0x0018
    2260:	18 00 84 24 	lsri    r4,r4,0x0018
    2264:	0a 20 87 00 	mul     r4,r7,r4
    2268:	10 00 a6 30 	lw      r5,0x0010(r6)
    226c:	00 28 a4 00 	add     r5,r4,r5
    2270:	02 68 05 00 	sub     r0,r5,r13
    2274:	2c 00 00 40 	beq     0x00002324
    2278:	18 00 88 20 	lsli    r4,r8,0x0018
    227c:	18 00 84 24 	lsri    r4,r4,0x0018
    2280:	00 28 e4 00 	add     r7,r4,r5
    2284:	20 00 e9 34 	sw      0x0020(r9),r7
    2288:	14 00 c9 30 	lw      r6,0x0014(r9)
    228c:	57 08 00 80 	ajmp    0x0000215c
    2290:	02 68 06 00 	sub     r0,r6,r13
    2294:	0a 00 40 40 	bne     0x000022bc
    2298:	1c 00 a9 64 	lh      r5,0x001c(r9)
    229c:	10 00 85 20 	lsli    r4,r5,0x0010
    22a0:	10 00 84 24 	lsri    r4,r4,0x0010
    22a4:	01 00 c0 18 	ori     r6,r0,0x0001
    22a8:	02 30 04 00 	sub     r0,r4,r6
    22ac:	21 00 40 42 	bls     0x00002330
    22b0:	05 28 80 00 	orr     r4,r0,r5
    22b4:	1e 00 a9 68 	sh      0x001e(r9),r5
    22b8:	8b 08 00 80 	ajmp    0x0000222c
    22bc:	1e 00 89 64 	lh      r4,0x001e(r9)
    22c0:	7c 04 00 c0 	ajal    0x000011f0
    22c4:	05 10 a0 00 	orr     r5,r0,r2
    22c8:	a7 08 00 80 	ajmp    0x0000229c
    22cc:	05 70 80 00 	orr     r4,r0,r14
    22d0:	05 38 a0 00 	orr     r5,r0,r7
    22d4:	ff 01 c6 14 	andi    r6,r6,0x01ff
    22d8:	05 40 e0 00 	orr     r7,r0,r8
    22dc:	10 04 00 c0 	ajal    0x00001040
    22e0:	00 00 80 18 	ori     r4,r0,0x0000
    22e4:	02 20 02 00 	sub     r0,r2,r4
    22e8:	ad ff 3f 40 	beq     0x0000219c
    22ec:	01 00 89 3c 	sb      0x0001(r9),r4
    22f0:	01 00 c0 18 	ori     r6,r0,0x0001
    22f4:	05 30 40 00 	orr     r2,r0,r6
    22f8:	00 00 fd 33 	lw      r31,0x0000(r29)
    22fc:	04 00 fd 31 	lw      r15,0x0004(r29)
    2300:	08 00 dd 31 	lw      r14,0x0008(r29)
    2304:	0c 00 bd 31 	lw      r13,0x000c(r29)
    2308:	10 00 9d 31 	lw      r12,0x0010(r29)
    230c:	14 00 7d 31 	lw      r11,0x0014(r29)
    2310:	18 00 5d 31 	lw      r10,0x0018(r29)
    2314:	1c 00 3d 31 	lw      r9,0x001c(r29)
    2318:	20 00 1d 31 	lw      r8,0x0020(r29)
    231c:	24 00 bd 07 	addi    r29,r29,0x0024
    2320:	00 00 e0 47 	jmpr    r31
    2324:	01 00 a9 3d 	sb      0x0001(r9),r13
    2328:	01 00 c0 18 	ori     r6,r0,0x0001
    232c:	bd 08 00 80 	ajmp    0x000022f4
    2330:	00 00 e0 18 	ori     r7,r0,0x0000
    2334:	01 00 e9 3c 	sb      0x0001(r9),r7
    2338:	05 30 40 00 	orr     r2,r0,r6
    233c:	00 00 fd 33 	lw      r31,0x0000(r29)
    2340:	04 00 fd 31 	lw      r15,0x0004(r29)
    2344:	08 00 dd 31 	lw      r14,0x0008(r29)
    2348:	0c 00 bd 31 	lw      r13,0x000c(r29)
    234c:	10 00 9d 31 	lw      r12,0x0010(r29)
    2350:	14 00 7d 31 	lw      r11,0x0014(r29)
    2354:	18 00 5d 31 	lw      r10,0x0018(r29)
    2358:	1c 00 3d 31 	lw      r9,0x001c(r29)
    235c:	20 00 1d 31 	lw      r8,0x0020(r29)
    2360:	24 00 bd 07 	addi    r29,r29,0x0024
    2364:	00 00 e0 47 	jmpr    r31
    2368:	00 00 00 00 	nop
    236c:	00 00 00 00 	nop

00002370 <pf_write>:
    2370:	e0 ff bd 07 	addi    r29,r29,0xffe0
    2374:	00 00 fd 37 	sw      0x0000(r29),r31
    2378:	04 00 dd 35 	sw      0x0004(r29),r14
    237c:	08 00 bd 35 	sw      0x0008(r29),r13
    2380:	0c 00 9d 35 	sw      0x000c(r29),r12
    2384:	10 00 7d 35 	sw      0x0010(r29),r11
    2388:	14 00 5d 35 	sw      0x0014(r29),r10
    238c:	18 00 3d 35 	sw      0x0018(r29),r9
    2390:	1c 00 1d 35 	sw      0x001c(r29),r8
    2394:	05 28 60 01 	orr     r11,r0,r5
    2398:	05 30 a0 01 	orr     r13,r0,r6
    239c:	05 20 80 01 	orr     r12,r0,r4
    23a0:	01 00 c0 2d 	ldih    r14,0x0001
    23a4:	04 08 ce 19 	ori     r14,r14,0x0804
    23a8:	00 00 2e 31 	lw      r9,0x0000(r14)
    23ac:	00 00 00 19 	ori     r8,r0,0x0000
    23b0:	00 00 06 35 	sw      0x0000(r6),r8
    23b4:	05 00 e0 18 	ori     r7,r0,0x0005
    23b8:	02 40 09 00 	sub     r0,r9,r8
    23bc:	71 00 00 40 	beq     0x00002580
    23c0:	01 00 c9 38 	lb      r6,0x0001(r9)
    23c4:	18 00 46 21 	lsli    r10,r6,0x0018
    23c8:	01 00 86 14 	andi    r4,r6,0x0001
    23cc:	04 00 e0 18 	ori     r7,r0,0x0004
    23d0:	02 40 04 00 	sub     r0,r4,r8
    23d4:	6b 00 00 40 	beq     0x00002580
    23d8:	02 40 05 00 	sub     r0,r5,r8
    23dc:	78 00 00 40 	beq     0x000025bc
    23e0:	1e 00 8a 24 	lsri    r4,r10,0x001e
    23e4:	01 00 84 14 	andi    r4,r4,0x0001
    23e8:	02 40 04 00 	sub     r0,r4,r8
    23ec:	92 00 00 40 	beq     0x00002634
    23f0:	14 00 c9 30 	lw      r6,0x0014(r9)
    23f4:	18 00 89 30 	lw      r4,0x0018(r9)
    23f8:	02 30 84 00 	sub     r4,r4,r6
    23fc:	02 20 0b 00 	sub     r0,r11,r4
    2400:	02 00 40 42 	bls     0x00002408
    2404:	05 20 60 01 	orr     r11,r0,r4
    2408:	02 40 0b 00 	sub     r0,r11,r8
    240c:	5c 00 00 40 	beq     0x0000257c
    2410:	ff 01 e6 14 	andi    r7,r6,0x01ff
    2414:	00 00 80 18 	ori     r4,r0,0x0000
    2418:	02 20 07 00 	sub     r0,r7,r4
    241c:	1f 00 00 40 	beq     0x00002498
    2420:	ff 01 a6 14 	andi    r5,r6,0x01ff
    2424:	00 02 80 18 	ori     r4,r0,0x0200
    2428:	02 28 04 01 	sub     r8,r4,r5
    242c:	02 58 08 00 	sub     r0,r8,r11
    2430:	02 00 40 42 	bls     0x00002438
    2434:	05 58 00 01 	orr     r8,r0,r11
    2438:	05 60 80 00 	orr     r4,r0,r12
    243c:	05 40 a0 00 	orr     r5,r0,r8
    2440:	44 04 00 c0 	ajal    0x00001110
    2444:	00 00 40 19 	ori     r10,r0,0x0000
    2448:	02 50 02 00 	sub     r0,r2,r10
    244c:	80 00 40 40 	bne     0x0000264c
    2450:	14 00 a9 30 	lw      r5,0x0014(r9)
    2454:	00 40 a5 00 	add     r5,r5,r8
    2458:	14 00 a9 34 	sw      0x0014(r9),r5
    245c:	00 40 8c 01 	add     r12,r12,r8
    2460:	02 40 6b 01 	sub     r11,r11,r8
    2464:	00 00 8d 30 	lw      r4,0x0000(r13)
    2468:	00 40 84 00 	add     r4,r4,r8
    246c:	00 00 8d 34 	sw      0x0000(r13),r4
    2470:	ff 01 05 15 	andi    r8,r5,0x01ff
    2474:	02 10 08 00 	sub     r0,r8,r2
    2478:	66 00 00 40 	beq     0x00002610
    247c:	02 50 0b 00 	sub     r0,r11,r10
    2480:	3f 00 00 40 	beq     0x0000257c
    2484:	14 00 c9 30 	lw      r6,0x0014(r9)
    2488:	ff 01 e6 14 	andi    r7,r6,0x01ff
    248c:	00 00 80 18 	ori     r4,r0,0x0000
    2490:	02 20 07 00 	sub     r0,r7,r4
    2494:	e3 ff 7f 40 	bne     0x00002420
    2498:	09 00 86 24 	lsri    r4,r6,0x0009
    249c:	02 00 09 39 	lb      r8,0x0002(r9)
    24a0:	ff ff a8 04 	addi    r5,r8,0xffff
    24a4:	04 28 84 00 	and     r4,r4,r5
    24a8:	05 20 40 01 	orr     r10,r0,r4
    24ac:	18 00 84 20 	lsli    r4,r4,0x0018
    24b0:	18 00 84 24 	lsri    r4,r4,0x0018
    24b4:	02 38 04 00 	sub     r0,r4,r7
    24b8:	23 00 00 40 	beq     0x00002544
    24bc:	1e 00 89 64 	lh      r4,0x001e(r9)
    24c0:	00 00 ae 30 	lw      r5,0x0000(r14)
    24c4:	fe ff 84 04 	addi    r4,r4,0xfffe
    24c8:	10 00 84 20 	lsli    r4,r4,0x0010
    24cc:	10 00 e4 24 	lsri    r7,r4,0x0010
    24d0:	06 00 c5 64 	lh      r6,0x0006(r5)
    24d4:	10 00 86 20 	lsli    r4,r6,0x0010
    24d8:	10 00 84 24 	lsri    r4,r4,0x0010
    24dc:	fe ff 84 04 	addi    r4,r4,0xfffe
    24e0:	00 00 c0 18 	ori     r6,r0,0x0000
    24e4:	02 20 07 00 	sub     r0,r7,r4
    24e8:	07 00 80 42 	bge     0x00002504
    24ec:	02 00 05 39 	lb      r8,0x0002(r5)
    24f0:	18 00 88 20 	lsli    r4,r8,0x0018
    24f4:	18 00 84 24 	lsri    r4,r4,0x0018
    24f8:	0a 20 87 00 	mul     r4,r7,r4
    24fc:	10 00 a5 30 	lw      r5,0x0010(r5)
    2500:	00 28 c4 00 	add     r6,r4,r5
    2504:	00 00 00 19 	ori     r8,r0,0x0000
    2508:	02 40 06 00 	sub     r0,r6,r8
    250c:	53 00 00 40 	beq     0x00002658
    2510:	18 00 aa 20 	lsli    r5,r10,0x0018
    2514:	18 00 a5 24 	lsri    r5,r5,0x0018
    2518:	00 30 a5 00 	add     r5,r5,r6
    251c:	20 00 a9 34 	sw      0x0020(r9),r5
    2520:	05 40 80 00 	orr     r4,r0,r8
    2524:	44 04 00 c0 	ajal    0x00001110
    2528:	02 40 02 00 	sub     r0,r2,r8
    252c:	4b 00 40 40 	bne     0x00002658
    2530:	01 00 a9 38 	lb      r5,0x0001(r9)
    2534:	40 00 85 18 	ori     r4,r5,0x0040
    2538:	01 00 89 3c 	sb      0x0001(r9),r4
    253c:	14 00 c9 30 	lw      r6,0x0014(r9)
    2540:	08 09 00 80 	ajmp    0x00002420
    2544:	02 20 06 00 	sub     r0,r6,r4
    2548:	19 00 40 40 	bne     0x000025ac
    254c:	1c 00 a9 64 	lh      r5,0x001c(r9)
    2550:	10 00 85 20 	lsli    r4,r5,0x0010
    2554:	10 00 84 24 	lsri    r4,r4,0x0010
    2558:	01 00 c0 18 	ori     r6,r0,0x0001
    255c:	02 30 04 00 	sub     r0,r4,r6
    2560:	41 00 40 42 	bls     0x00002664
    2564:	05 28 80 00 	orr     r4,r0,r5
    2568:	1e 00 a9 68 	sh      0x001e(r9),r5
    256c:	30 09 00 80 	ajmp    0x000024c0
    2570:	01 00 c9 38 	lb      r6,0x0001(r9)
    2574:	bf 00 86 14 	andi    r4,r6,0x00bf
    2578:	01 00 89 3c 	sb      0x0001(r9),r4
    257c:	00 00 e0 18 	ori     r7,r0,0x0000
    2580:	05 38 40 00 	orr     r2,r0,r7
    2584:	00 00 fd 33 	lw      r31,0x0000(r29)
    2588:	04 00 dd 31 	lw      r14,0x0004(r29)
    258c:	08 00 bd 31 	lw      r13,0x0008(r29)
    2590:	0c 00 9d 31 	lw      r12,0x000c(r29)
    2594:	10 00 7d 31 	lw      r11,0x0010(r29)
    2598:	14 00 5d 31 	lw      r10,0x0014(r29)
    259c:	18 00 3d 31 	lw      r9,0x0018(r29)
    25a0:	1c 00 1d 31 	lw      r8,0x001c(r29)
    25a4:	20 00 bd 07 	addi    r29,r29,0x0020
    25a8:	00 00 e0 47 	jmpr    r31
    25ac:	1e 00 89 64 	lh      r4,0x001e(r9)
    25b0:	7c 04 00 c0 	ajal    0x000011f0
    25b4:	05 10 a0 00 	orr     r5,r0,r2
    25b8:	54 09 00 80 	ajmp    0x00002550
    25bc:	1e 00 8a 24 	lsri    r4,r10,0x001e
    25c0:	01 00 84 14 	andi    r4,r4,0x0001
    25c4:	02 28 04 00 	sub     r0,r4,r5
    25c8:	eb ff 3f 40 	beq     0x00002574
    25cc:	05 28 80 00 	orr     r4,r0,r5
    25d0:	44 04 00 c0 	ajal    0x00001110
    25d4:	02 58 02 00 	sub     r0,r2,r11
    25d8:	e6 ff 3f 40 	beq     0x00002570
    25dc:	01 00 69 3d 	sb      0x0001(r9),r11
    25e0:	01 00 e0 18 	ori     r7,r0,0x0001
    25e4:	05 38 40 00 	orr     r2,r0,r7
    25e8:	00 00 fd 33 	lw      r31,0x0000(r29)
    25ec:	04 00 dd 31 	lw      r14,0x0004(r29)
    25f0:	08 00 bd 31 	lw      r13,0x0008(r29)
    25f4:	0c 00 9d 31 	lw      r12,0x000c(r29)
    25f8:	10 00 7d 31 	lw      r11,0x0010(r29)
    25fc:	14 00 5d 31 	lw      r10,0x0014(r29)
    2600:	18 00 3d 31 	lw      r9,0x0018(r29)
    2604:	1c 00 1d 31 	lw      r8,0x001c(r29)
    2608:	20 00 bd 07 	addi    r29,r29,0x0020
    260c:	00 00 e0 47 	jmpr    r31
    2610:	05 10 80 00 	orr     r4,r0,r2
    2614:	05 10 a0 00 	orr     r5,r0,r2
    2618:	44 04 00 c0 	ajal    0x00001110
    261c:	02 40 02 00 	sub     r0,r2,r8
    2620:	0e 00 40 40 	bne     0x00002658
    2624:	01 00 c9 38 	lb      r6,0x0001(r9)
    2628:	bf 00 86 14 	andi    r4,r6,0x00bf
    262c:	01 00 89 3c 	sb      0x0001(r9),r4
    2630:	1f 09 00 80 	ajmp    0x0000247c
    2634:	14 00 a9 30 	lw      r5,0x0014(r9)
    2638:	ff ff 80 2c 	ldih    r4,0xffff
    263c:	00 fe 84 18 	ori     r4,r4,0xfe00
    2640:	04 20 c5 00 	and     r6,r5,r4
    2644:	14 00 c9 34 	sw      0x0014(r9),r6
    2648:	fd 08 00 80 	ajmp    0x000023f4
    264c:	01 00 49 3d 	sb      0x0001(r9),r10
    2650:	01 00 e0 18 	ori     r7,r0,0x0001
    2654:	79 09 00 80 	ajmp    0x000025e4
    2658:	01 00 09 3d 	sb      0x0001(r9),r8
    265c:	01 00 e0 18 	ori     r7,r0,0x0001
    2660:	79 09 00 80 	ajmp    0x000025e4
    2664:	00 00 80 18 	ori     r4,r0,0x0000
    2668:	01 00 89 3c 	sb      0x0001(r9),r4
    266c:	05 30 e0 00 	orr     r7,r0,r6
    2670:	05 38 40 00 	orr     r2,r0,r7
    2674:	00 00 fd 33 	lw      r31,0x0000(r29)
    2678:	04 00 dd 31 	lw      r14,0x0004(r29)
    267c:	08 00 bd 31 	lw      r13,0x0008(r29)
    2680:	0c 00 9d 31 	lw      r12,0x000c(r29)
    2684:	10 00 7d 31 	lw      r11,0x0010(r29)
    2688:	14 00 5d 31 	lw      r10,0x0014(r29)
    268c:	18 00 3d 31 	lw      r9,0x0018(r29)
    2690:	1c 00 1d 31 	lw      r8,0x001c(r29)
    2694:	20 00 bd 07 	addi    r29,r29,0x0020
    2698:	00 00 e0 47 	jmpr    r31
    269c:	00 00 00 00 	nop

000026a0 <pf_lseek>:
    26a0:	e8 ff bd 07 	addi    r29,r29,0xffe8
    26a4:	00 00 fd 37 	sw      0x0000(r29),r31
    26a8:	04 00 9d 35 	sw      0x0004(r29),r12
    26ac:	08 00 7d 35 	sw      0x0008(r29),r11
    26b0:	0c 00 5d 35 	sw      0x000c(r29),r10
    26b4:	10 00 3d 35 	sw      0x0010(r29),r9
    26b8:	14 00 1d 35 	sw      0x0014(r29),r8
    26bc:	05 20 40 01 	orr     r10,r0,r4
    26c0:	01 00 60 2d 	ldih    r11,0x0001
    26c4:	04 08 6b 19 	ori     r11,r11,0x0804
    26c8:	00 00 0b 31 	lw      r8,0x0000(r11)
    26cc:	00 00 c0 18 	ori     r6,r0,0x0000
    26d0:	05 00 a0 18 	ori     r5,r0,0x0005
    26d4:	02 30 08 00 	sub     r0,r8,r6
    26d8:	53 00 00 40 	beq     0x00002824
    26dc:	01 00 a8 38 	lb      r5,0x0001(r8)
    26e0:	01 00 85 14 	andi    r4,r5,0x0001
    26e4:	04 00 a0 18 	ori     r5,r0,0x0004
    26e8:	02 30 04 00 	sub     r0,r4,r6
    26ec:	4e 00 00 40 	beq     0x00002824
    26f0:	18 00 88 30 	lw      r4,0x0018(r8)
    26f4:	02 50 04 00 	sub     r0,r4,r10
    26f8:	54 00 40 41 	blo     0x00002848
    26fc:	14 00 a8 30 	lw      r5,0x0014(r8)
    2700:	02 30 0a 00 	sub     r0,r10,r6
    2704:	55 00 00 40 	beq     0x00002858
    2708:	02 00 e8 38 	lb      r7,0x0002(r8)
    270c:	18 00 87 20 	lsli    r4,r7,0x0018
    2710:	0f 00 24 25 	lsri    r9,r4,0x000f
    2714:	02 30 05 00 	sub     r0,r5,r6
    2718:	53 00 00 40 	beq     0x00002864
    271c:	ff ff 8a 04 	addi    r4,r10,0xffff
    2720:	0e 48 84 00 	divu    r4,r4,r9
    2724:	ff ff c5 04 	addi    r6,r5,0xffff
    2728:	0e 48 a6 00 	divu    r5,r6,r9
    272c:	02 28 04 00 	sub     r0,r4,r5
    2730:	4d 00 40 41 	blo     0x00002864
    2734:	02 48 80 00 	sub     r4,r0,r9
    2738:	04 20 86 00 	and     r4,r6,r4
    273c:	14 00 88 34 	sw      0x0014(r8),r4
    2740:	02 20 4a 01 	sub     r10,r10,r4
    2744:	1e 00 c8 64 	lh      r6,0x001e(r8)
    2748:	02 48 0a 00 	sub     r0,r10,r9
    274c:	15 00 40 42 	bls     0x000027a0
    2750:	05 30 80 00 	orr     r4,r0,r6
    2754:	7c 04 00 c0 	ajal    0x000011f0
    2758:	05 10 c0 00 	orr     r6,r0,r2
    275c:	10 00 82 20 	lsli    r4,r2,0x0010
    2760:	10 00 a4 24 	lsri    r5,r4,0x0010
    2764:	01 00 e0 18 	ori     r7,r0,0x0001
    2768:	02 38 05 00 	sub     r0,r5,r7
    276c:	4e 00 40 42 	bls     0x000028a4
    2770:	06 00 88 65 	lh      r12,0x0006(r8)
    2774:	10 00 8c 20 	lsli    r4,r12,0x0010
    2778:	10 00 84 24 	lsri    r4,r4,0x0010
    277c:	02 28 04 00 	sub     r0,r4,r5
    2780:	49 00 40 42 	bls     0x000028a4
    2784:	1e 00 48 68 	sh      0x001e(r8),r2
    2788:	14 00 88 30 	lw      r4,0x0014(r8)
    278c:	00 48 84 00 	add     r4,r4,r9
    2790:	14 00 88 34 	sw      0x0014(r8),r4
    2794:	02 48 4a 01 	sub     r10,r10,r9
    2798:	02 48 0a 00 	sub     r0,r10,r9
    279c:	ed ff 3f 42 	bhi     0x00002750
    27a0:	14 00 88 30 	lw      r4,0x0014(r8)
    27a4:	00 50 84 00 	add     r4,r4,r10
    27a8:	14 00 88 34 	sw      0x0014(r8),r4
    27ac:	00 00 ab 30 	lw      r5,0x0000(r11)
    27b0:	fe ff 86 04 	addi    r4,r6,0xfffe
    27b4:	10 00 84 20 	lsli    r4,r4,0x0010
    27b8:	10 00 c4 24 	lsri    r6,r4,0x0010
    27bc:	06 00 e5 64 	lh      r7,0x0006(r5)
    27c0:	10 00 87 20 	lsli    r4,r7,0x0010
    27c4:	10 00 84 24 	lsri    r4,r4,0x0010
    27c8:	fe ff 84 04 	addi    r4,r4,0xfffe
    27cc:	00 00 e0 18 	ori     r7,r0,0x0000
    27d0:	02 20 06 00 	sub     r0,r6,r4
    27d4:	07 00 80 42 	bge     0x000027f0
    27d8:	02 00 85 39 	lb      r12,0x0002(r5)
    27dc:	18 00 8c 20 	lsli    r4,r12,0x0018
    27e0:	18 00 84 24 	lsri    r4,r4,0x0018
    27e4:	0a 20 86 00 	mul     r4,r6,r4
    27e8:	10 00 a5 30 	lw      r5,0x0010(r5)
    27ec:	00 28 e4 00 	add     r7,r4,r5
    27f0:	00 00 80 18 	ori     r4,r0,0x0000
    27f4:	02 20 07 00 	sub     r0,r7,r4
    27f8:	20 00 00 40 	beq     0x00002878
    27fc:	14 00 a8 30 	lw      r5,0x0014(r8)
    2800:	09 00 a5 24 	lsri    r5,r5,0x0009
    2804:	02 00 c8 38 	lb      r6,0x0002(r8)
    2808:	18 00 86 20 	lsli    r4,r6,0x0018
    280c:	18 00 84 24 	lsri    r4,r4,0x0018
    2810:	ff ff 84 04 	addi    r4,r4,0xffff
    2814:	04 20 a5 00 	and     r5,r5,r4
    2818:	00 38 a5 00 	add     r5,r5,r7
    281c:	20 00 a8 34 	sw      0x0020(r8),r5
    2820:	00 00 a0 18 	ori     r5,r0,0x0000
    2824:	05 28 40 00 	orr     r2,r0,r5
    2828:	00 00 fd 33 	lw      r31,0x0000(r29)
    282c:	04 00 9d 31 	lw      r12,0x0004(r29)
    2830:	08 00 7d 31 	lw      r11,0x0008(r29)
    2834:	0c 00 5d 31 	lw      r10,0x000c(r29)
    2838:	10 00 3d 31 	lw      r9,0x0010(r29)
    283c:	14 00 1d 31 	lw      r8,0x0014(r29)
    2840:	18 00 bd 07 	addi    r29,r29,0x0018
    2844:	00 00 e0 47 	jmpr    r31
    2848:	05 20 40 01 	orr     r10,r0,r4
    284c:	14 00 a8 30 	lw      r5,0x0014(r8)
    2850:	02 30 0a 00 	sub     r0,r10,r6
    2854:	ad ff 7f 40 	bne     0x00002708
    2858:	14 00 48 35 	sw      0x0014(r8),r10
    285c:	00 00 a0 18 	ori     r5,r0,0x0000
    2860:	09 0a 00 80 	ajmp    0x00002824
    2864:	00 00 80 19 	ori     r12,r0,0x0000
    2868:	14 00 88 35 	sw      0x0014(r8),r12
    286c:	1c 00 c8 64 	lh      r6,0x001c(r8)
    2870:	1e 00 c8 68 	sh      0x001e(r8),r6
    2874:	d2 09 00 80 	ajmp    0x00002748
    2878:	01 00 e8 3c 	sb      0x0001(r8),r7
    287c:	01 00 a0 18 	ori     r5,r0,0x0001
    2880:	05 28 40 00 	orr     r2,r0,r5
    2884:	00 00 fd 33 	lw      r31,0x0000(r29)
    2888:	04 00 9d 31 	lw      r12,0x0004(r29)
    288c:	08 00 7d 31 	lw      r11,0x0008(r29)
    2890:	0c 00 5d 31 	lw      r10,0x000c(r29)
    2894:	10 00 3d 31 	lw      r9,0x0010(r29)
    2898:	14 00 1d 31 	lw      r8,0x0014(r29)
    289c:	18 00 bd 07 	addi    r29,r29,0x0018
    28a0:	00 00 e0 47 	jmpr    r31
    28a4:	00 00 80 18 	ori     r4,r0,0x0000
    28a8:	01 00 88 3c 	sb      0x0001(r8),r4
    28ac:	05 38 a0 00 	orr     r5,r0,r7
    28b0:	05 28 40 00 	orr     r2,r0,r5
    28b4:	00 00 fd 33 	lw      r31,0x0000(r29)
    28b8:	04 00 9d 31 	lw      r12,0x0004(r29)
    28bc:	08 00 7d 31 	lw      r11,0x0008(r29)
    28c0:	0c 00 5d 31 	lw      r10,0x000c(r29)
    28c4:	10 00 3d 31 	lw      r9,0x0010(r29)
    28c8:	14 00 1d 31 	lw      r8,0x0014(r29)
    28cc:	18 00 bd 07 	addi    r29,r29,0x0018
    28d0:	00 00 e0 47 	jmpr    r31
    28d4:	00 00 00 00 	nop
    28d8:	00 00 00 00 	nop
    28dc:	00 00 00 00 	nop

000028e0 <pf_opendir>:
    28e0:	ec ff bd 07 	addi    r29,r29,0xffec
    28e4:	00 00 fd 37 	sw      0x0000(r29),r31
    28e8:	04 00 7d 35 	sw      0x0004(r29),r11
    28ec:	08 00 5d 35 	sw      0x0008(r29),r10
    28f0:	0c 00 3d 35 	sw      0x000c(r29),r9
    28f4:	10 00 1d 35 	sw      0x0010(r29),r8
    28f8:	d4 ff bd 07 	addi    r29,r29,0xffd4
    28fc:	05 20 20 01 	orr     r9,r0,r4
    2900:	05 28 c0 00 	orr     r6,r0,r5
    2904:	01 00 40 2d 	ldih    r10,0x0001
    2908:	04 08 4a 19 	ori     r10,r10,0x0804
    290c:	00 00 aa 30 	lw      r5,0x0000(r10)
    2910:	00 00 00 19 	ori     r8,r0,0x0000
    2914:	05 00 e0 18 	ori     r7,r0,0x0005
    2918:	02 40 05 00 	sub     r0,r5,r8
    291c:	08 00 00 40 	beq     0x0000293c
    2920:	20 00 bd 04 	addi    r5,r29,0x0020
    2924:	04 00 a4 34 	sw      0x0004(r4),r5
    2928:	05 e8 a0 00 	orr     r5,r0,r29
    292c:	0c 05 00 c0 	ajal    0x00001430
    2930:	05 10 e0 00 	orr     r7,r0,r2
    2934:	02 40 02 00 	sub     r0,r2,r8
    2938:	0a 00 00 40 	beq     0x00002960
    293c:	05 38 40 00 	orr     r2,r0,r7
    2940:	2c 00 bd 07 	addi    r29,r29,0x002c
    2944:	00 00 fd 33 	lw      r31,0x0000(r29)
    2948:	04 00 7d 31 	lw      r11,0x0004(r29)
    294c:	08 00 5d 31 	lw      r10,0x0008(r29)
    2950:	0c 00 3d 31 	lw      r9,0x000c(r29)
    2954:	10 00 1d 31 	lw      r8,0x0010(r29)
    2958:	14 00 bd 07 	addi    r29,r29,0x0014
    295c:	00 00 e0 47 	jmpr    r31
    2960:	00 00 bd 38 	lb      r5,0x0000(r29)
    2964:	18 00 85 20 	lsli    r4,r5,0x0018
    2968:	18 00 84 24 	lsri    r4,r4,0x0018
    296c:	02 10 04 00 	sub     r0,r4,r2
    2970:	0e 00 00 40 	beq     0x000029a8
    2974:	0b 00 dd 38 	lb      r6,0x000b(r29)
    2978:	04 00 86 24 	lsri    r4,r6,0x0004
    297c:	01 00 84 14 	andi    r4,r4,0x0001
    2980:	02 10 04 00 	sub     r0,r4,r2
    2984:	3c 00 00 40 	beq     0x00002a74
    2988:	1b 00 7d 39 	lb      r11,0x001b(r29)
    298c:	18 00 ab 20 	lsli    r5,r11,0x0018
    2990:	1a 00 dd 38 	lb      r6,0x001a(r29)
    2994:	18 00 86 20 	lsli    r4,r6,0x0018
    2998:	08 00 84 24 	lsri    r4,r4,0x0008
    299c:	05 28 84 00 	orr     r4,r4,r5
    29a0:	10 00 84 24 	lsri    r4,r4,0x0010
    29a4:	08 00 89 68 	sh      0x0008(r9),r4
    29a8:	00 00 80 18 	ori     r4,r0,0x0000
    29ac:	02 20 07 00 	sub     r0,r7,r4
    29b0:	e3 ff 7f 40 	bne     0x0000293c
    29b4:	00 00 aa 30 	lw      r5,0x0000(r10)
    29b8:	00 00 e9 68 	sh      0x0000(r9),r7
    29bc:	08 00 09 65 	lh      r8,0x0008(r9)
    29c0:	10 00 88 20 	lsli    r4,r8,0x0010
    29c4:	10 00 c4 24 	lsri    r6,r4,0x0010
    29c8:	01 00 40 19 	ori     r10,r0,0x0001
    29cc:	02 50 06 00 	sub     r0,r6,r10
    29d0:	26 00 00 40 	beq     0x00002a68
    29d4:	06 00 65 65 	lh      r11,0x0006(r5)
    29d8:	10 00 8b 20 	lsli    r4,r11,0x0010
    29dc:	10 00 84 24 	lsri    r4,r4,0x0010
    29e0:	02 30 04 00 	sub     r0,r4,r6
    29e4:	21 00 40 42 	bls     0x00002a68
    29e8:	0a 00 09 69 	sh      0x000a(r9),r8
    29ec:	02 38 06 00 	sub     r0,r6,r7
    29f0:	23 00 00 40 	beq     0x00002a7c
    29f4:	fe ff 88 04 	addi    r4,r8,0xfffe
    29f8:	10 00 84 20 	lsli    r4,r4,0x0010
    29fc:	10 00 04 25 	lsri    r8,r4,0x0010
    2a00:	06 00 c5 64 	lh      r6,0x0006(r5)
    2a04:	10 00 86 20 	lsli    r4,r6,0x0010
    2a08:	10 00 84 24 	lsri    r4,r4,0x0010
    2a0c:	fe ff 84 04 	addi    r4,r4,0xfffe
    2a10:	05 38 c0 00 	orr     r6,r0,r7
    2a14:	02 20 08 00 	sub     r0,r8,r4
    2a18:	07 00 80 42 	bge     0x00002a34
    2a1c:	02 00 65 39 	lb      r11,0x0002(r5)
    2a20:	18 00 8b 20 	lsli    r4,r11,0x0018
    2a24:	18 00 84 24 	lsri    r4,r4,0x0018
    2a28:	0a 20 88 00 	mul     r4,r8,r4
    2a2c:	10 00 a5 30 	lw      r5,0x0010(r5)
    2a30:	00 28 c4 00 	add     r6,r4,r5
    2a34:	05 30 80 00 	orr     r4,r0,r6
    2a38:	0c 00 89 34 	sw      0x000c(r9),r4
    2a3c:	00 00 80 18 	ori     r4,r0,0x0000
    2a40:	05 20 e0 00 	orr     r7,r0,r4
    2a44:	05 38 40 00 	orr     r2,r0,r7
    2a48:	2c 00 bd 07 	addi    r29,r29,0x002c
    2a4c:	00 00 fd 33 	lw      r31,0x0000(r29)
    2a50:	04 00 7d 31 	lw      r11,0x0004(r29)
    2a54:	08 00 5d 31 	lw      r10,0x0008(r29)
    2a58:	0c 00 3d 31 	lw      r9,0x000c(r29)
    2a5c:	10 00 1d 31 	lw      r8,0x0010(r29)
    2a60:	14 00 bd 07 	addi    r29,r29,0x0014
    2a64:	00 00 e0 47 	jmpr    r31
    2a68:	05 50 80 00 	orr     r4,r0,r10
    2a6c:	05 20 e0 00 	orr     r7,r0,r4
    2a70:	91 0a 00 80 	ajmp    0x00002a44
    2a74:	03 00 e0 18 	ori     r7,r0,0x0003
    2a78:	6a 0a 00 80 	ajmp    0x000029a8
    2a7c:	0c 00 85 30 	lw      r4,0x000c(r5)
    2a80:	0c 00 89 34 	sw      0x000c(r9),r4
    2a84:	00 00 80 18 	ori     r4,r0,0x0000
    2a88:	90 0a 00 80 	ajmp    0x00002a40
    2a8c:	00 00 00 00 	nop

00002a90 <pf_readdir>:
    2a90:	dc ff bd 07 	addi    r29,r29,0xffdc
    2a94:	00 00 fd 37 	sw      0x0000(r29),r31
    2a98:	04 00 fd 35 	sw      0x0004(r29),r15
    2a9c:	08 00 dd 35 	sw      0x0008(r29),r14
    2aa0:	0c 00 bd 35 	sw      0x000c(r29),r13
    2aa4:	10 00 9d 35 	sw      0x0010(r29),r12
    2aa8:	14 00 7d 35 	sw      0x0014(r29),r11
    2aac:	18 00 5d 35 	sw      0x0018(r29),r10
    2ab0:	1c 00 3d 35 	sw      0x001c(r29),r9
    2ab4:	20 00 1d 35 	sw      0x0020(r29),r8
    2ab8:	d4 ff bd 07 	addi    r29,r29,0xffd4
    2abc:	05 20 00 01 	orr     r8,r0,r4
    2ac0:	05 28 a0 01 	orr     r13,r0,r5
    2ac4:	01 00 e0 2d 	ldih    r15,0x0001
    2ac8:	04 08 ef 19 	ori     r15,r15,0x0804
    2acc:	00 00 af 30 	lw      r5,0x0000(r15)
    2ad0:	00 00 00 1a 	ori     r16,r0,0x0000
    2ad4:	05 00 c0 18 	ori     r6,r0,0x0005
    2ad8:	02 80 05 00 	sub     r0,r5,r16
    2adc:	b7 00 00 40 	beq     0x00002db8
    2ae0:	20 00 9d 04 	addi    r4,r29,0x0020
    2ae4:	04 00 88 34 	sw      0x0004(r8),r4
    2ae8:	02 80 0d 00 	sub     r0,r13,r16
    2aec:	03 01 00 40 	beq     0x00002ef8
    2af0:	05 e8 40 01 	orr     r10,r0,r29
    2af4:	03 00 e0 18 	ori     r7,r0,0x0003
    2af8:	0c 00 a8 30 	lw      r5,0x000c(r8)
    2afc:	02 80 05 00 	sub     r0,r5,r16
    2b00:	36 00 00 40 	beq     0x00002bd8
    2b04:	05 80 60 01 	orr     r11,r0,r16
    2b08:	00 00 88 64 	lh      r4,0x0000(r8)
    2b0c:	0f 00 c4 14 	andi    r6,r4,0x000f
    2b10:	05 50 80 00 	orr     r4,r0,r10
    2b14:	05 00 c6 20 	lsli    r6,r6,0x0005
    2b18:	20 00 e0 18 	ori     r7,r0,0x0020
    2b1c:	10 04 00 c0 	ajal    0x00001040
    2b20:	05 10 e0 00 	orr     r7,r0,r2
    2b24:	02 58 02 00 	sub     r0,r2,r11
    2b28:	02 00 00 40 	beq     0x00002b30
    2b2c:	01 00 e0 18 	ori     r7,r0,0x0001
    2b30:	02 58 07 00 	sub     r0,r7,r11
    2b34:	29 00 40 40 	bne     0x00002bd8
    2b38:	00 00 ca 38 	lb      r6,0x0000(r10)
    2b3c:	18 00 a6 20 	lsli    r5,r6,0x0018
    2b40:	18 00 a5 24 	lsri    r5,r5,0x0018
    2b44:	02 38 05 00 	sub     r0,r5,r7
    2b48:	2a 01 00 40 	beq     0x00002ff0
    2b4c:	0b 00 8a 38 	lb      r4,0x000b(r10)
    2b50:	3f 00 c4 14 	andi    r6,r4,0x003f
    2b54:	e5 00 80 18 	ori     r4,r0,0x00e5
    2b58:	02 20 05 00 	sub     r0,r5,r4
    2b5c:	08 00 00 40 	beq     0x00002b7c
    2b60:	2e 00 80 18 	ori     r4,r0,0x002e
    2b64:	02 20 05 00 	sub     r0,r5,r4
    2b68:	05 00 00 40 	beq     0x00002b7c
    2b6c:	03 00 86 24 	lsri    r4,r6,0x0003
    2b70:	01 00 84 14 	andi    r4,r4,0x0001
    2b74:	02 38 04 00 	sub     r0,r4,r7
    2b78:	18 00 00 40 	beq     0x00002bd8
    2b7c:	00 00 2f 31 	lw      r9,0x0000(r15)
    2b80:	00 00 a8 64 	lh      r5,0x0000(r8)
    2b84:	01 00 85 04 	addi    r4,r5,0x0001
    2b88:	05 20 80 01 	orr     r12,r0,r4
    2b8c:	10 00 a4 20 	lsli    r5,r4,0x0010
    2b90:	10 00 e5 24 	lsri    r7,r5,0x0010
    2b94:	00 00 c0 18 	ori     r6,r0,0x0000
    2b98:	02 30 07 00 	sub     r0,r7,r6
    2b9c:	c8 00 00 40 	beq     0x00002ebc
    2ba0:	0c 00 88 30 	lw      r4,0x000c(r8)
    2ba4:	02 30 04 00 	sub     r0,r4,r6
    2ba8:	c5 00 00 40 	beq     0x00002ebc
    2bac:	0f 00 07 16 	andi    r16,r7,0x000f
    2bb0:	02 30 10 00 	sub     r0,r16,r6
    2bb4:	8e 00 00 40 	beq     0x00002dec
    2bb8:	00 00 88 69 	sh      0x0000(r8),r12
    2bbc:	00 00 a0 18 	ori     r5,r0,0x0000
    2bc0:	05 28 e0 00 	orr     r7,r0,r5
    2bc4:	02 58 05 00 	sub     r0,r5,r11
    2bc8:	04 00 40 40 	bne     0x00002bd8
    2bcc:	0c 00 a8 30 	lw      r5,0x000c(r8)
    2bd0:	02 38 05 00 	sub     r0,r5,r7
    2bd4:	cd ff 7f 40 	bne     0x00002b08
    2bd8:	00 00 a0 18 	ori     r5,r0,0x0000
    2bdc:	02 28 07 00 	sub     r0,r7,r5
    2be0:	02 00 00 40 	beq     0x00002be8
    2be4:	0c 00 a8 34 	sw      0x000c(r8),r5
    2be8:	05 38 c0 00 	orr     r6,r0,r7
    2bec:	03 00 80 18 	ori     r4,r0,0x0003
    2bf0:	02 20 07 00 	sub     r0,r7,r4
    2bf4:	bf 00 00 40 	beq     0x00002ef0
    2bf8:	02 28 06 00 	sub     r0,r6,r5
    2bfc:	6f 00 40 40 	bne     0x00002db8
    2c00:	09 00 ed 04 	addi    r7,r13,0x0009
    2c04:	0c 00 88 30 	lw      r4,0x000c(r8)
    2c08:	02 30 04 00 	sub     r0,r4,r6
    2c0c:	53 00 00 40 	beq     0x00002d58
    2c10:	20 00 60 19 	ori     r11,r0,0x0020
    2c14:	05 00 80 19 	ori     r12,r0,0x0005
    2c18:	07 00 20 19 	ori     r9,r0,0x0007
    2c1c:	18 00 86 20 	lsli    r4,r6,0x0018
    2c20:	18 00 84 24 	lsri    r4,r4,0x0018
    2c24:	00 50 84 00 	add     r4,r4,r10
    2c28:	00 00 a4 38 	lb      r5,0x0000(r4)
    2c2c:	18 00 85 20 	lsli    r4,r5,0x0018
    2c30:	18 00 84 24 	lsri    r4,r4,0x0018
    2c34:	02 58 04 00 	sub     r0,r4,r11
    2c38:	0b 00 00 40 	beq     0x00002c64
    2c3c:	02 60 04 00 	sub     r0,r4,r12
    2c40:	a1 00 00 40 	beq     0x00002ec4
    2c44:	00 00 a7 3c 	sb      0x0000(r7),r5
    2c48:	01 00 e7 04 	addi    r7,r7,0x0001
    2c4c:	01 00 86 04 	addi    r4,r6,0x0001
    2c50:	05 20 c0 00 	orr     r6,r0,r4
    2c54:	18 00 84 20 	lsli    r4,r4,0x0018
    2c58:	18 00 84 24 	lsri    r4,r4,0x0018
    2c5c:	02 48 04 00 	sub     r0,r4,r9
    2c60:	ef ff 7f 42 	bls     0x00002c1c
    2c64:	08 00 ca 38 	lb      r6,0x0008(r10)
    2c68:	18 00 86 20 	lsli    r4,r6,0x0018
    2c6c:	18 00 84 24 	lsri    r4,r4,0x0018
    2c70:	20 00 a0 18 	ori     r5,r0,0x0020
    2c74:	02 28 04 00 	sub     r0,r4,r5
    2c78:	17 00 00 40 	beq     0x00002cd4
    2c7c:	2e 00 80 18 	ori     r4,r0,0x002e
    2c80:	00 00 87 3c 	sb      0x0000(r7),r4
    2c84:	01 00 e7 04 	addi    r7,r7,0x0001
    2c88:	08 00 c0 18 	ori     r6,r0,0x0008
    2c8c:	0a 00 60 19 	ori     r11,r0,0x000a
    2c90:	05 28 20 01 	orr     r9,r0,r5
    2c94:	18 00 86 20 	lsli    r4,r6,0x0018
    2c98:	18 00 84 24 	lsri    r4,r4,0x0018
    2c9c:	00 50 84 00 	add     r4,r4,r10
    2ca0:	00 00 a4 38 	lb      r5,0x0000(r4)
    2ca4:	18 00 85 20 	lsli    r4,r5,0x0018
    2ca8:	18 00 84 24 	lsri    r4,r4,0x0018
    2cac:	02 48 04 00 	sub     r0,r4,r9
    2cb0:	09 00 00 40 	beq     0x00002cd4
    2cb4:	00 00 a7 3c 	sb      0x0000(r7),r5
    2cb8:	01 00 e7 04 	addi    r7,r7,0x0001
    2cbc:	01 00 86 04 	addi    r4,r6,0x0001
    2cc0:	05 20 c0 00 	orr     r6,r0,r4
    2cc4:	18 00 84 20 	lsli    r4,r4,0x0018
    2cc8:	18 00 84 24 	lsri    r4,r4,0x0018
    2ccc:	02 58 04 00 	sub     r0,r4,r11
    2cd0:	f1 ff 7f 42 	bls     0x00002c94
    2cd4:	0b 00 aa 38 	lb      r5,0x000b(r10)
    2cd8:	08 00 ad 3c 	sb      0x0008(r13),r5
    2cdc:	1f 00 ca 38 	lb      r6,0x001f(r10)
    2ce0:	18 00 a6 20 	lsli    r5,r6,0x0018
    2ce4:	1e 00 ca 38 	lb      r6,0x001e(r10)
    2ce8:	18 00 86 20 	lsli    r4,r6,0x0018
    2cec:	08 00 84 24 	lsri    r4,r4,0x0008
    2cf0:	05 20 a5 00 	orr     r5,r5,r4
    2cf4:	1d 00 ca 38 	lb      r6,0x001d(r10)
    2cf8:	18 00 86 20 	lsli    r4,r6,0x0018
    2cfc:	10 00 84 24 	lsri    r4,r4,0x0010
    2d00:	05 20 a5 00 	orr     r5,r5,r4
    2d04:	1c 00 ca 38 	lb      r6,0x001c(r10)
    2d08:	18 00 86 20 	lsli    r4,r6,0x0018
    2d0c:	18 00 84 24 	lsri    r4,r4,0x0018
    2d10:	05 20 a5 00 	orr     r5,r5,r4
    2d14:	00 00 ad 34 	sw      0x0000(r13),r5
    2d18:	19 00 8a 38 	lb      r4,0x0019(r10)
    2d1c:	18 00 a4 20 	lsli    r5,r4,0x0018
    2d20:	10 00 a5 24 	lsri    r5,r5,0x0010
    2d24:	18 00 ca 38 	lb      r6,0x0018(r10)
    2d28:	18 00 86 20 	lsli    r4,r6,0x0018
    2d2c:	18 00 84 24 	lsri    r4,r4,0x0018
    2d30:	05 28 84 00 	orr     r4,r4,r5
    2d34:	04 00 8d 68 	sh      0x0004(r13),r4
    2d38:	17 00 8a 38 	lb      r4,0x0017(r10)
    2d3c:	18 00 a4 20 	lsli    r5,r4,0x0018
    2d40:	10 00 a5 24 	lsri    r5,r5,0x0010
    2d44:	16 00 4a 39 	lb      r10,0x0016(r10)
    2d48:	18 00 8a 20 	lsli    r4,r10,0x0018
    2d4c:	18 00 84 24 	lsri    r4,r4,0x0018
    2d50:	05 28 84 00 	orr     r4,r4,r5
    2d54:	06 00 8d 68 	sh      0x0006(r13),r4
    2d58:	00 00 a0 18 	ori     r5,r0,0x0000
    2d5c:	00 00 a7 3c 	sb      0x0000(r7),r5
    2d60:	00 00 4f 31 	lw      r10,0x0000(r15)
    2d64:	00 00 c8 64 	lh      r6,0x0000(r8)
    2d68:	01 00 86 04 	addi    r4,r6,0x0001
    2d6c:	05 20 60 01 	orr     r11,r0,r4
    2d70:	10 00 a4 20 	lsli    r5,r4,0x0010
    2d74:	10 00 e5 24 	lsri    r7,r5,0x0010
    2d78:	00 00 c0 18 	ori     r6,r0,0x0000
    2d7c:	02 30 07 00 	sub     r0,r7,r6
    2d80:	9a 00 00 40 	beq     0x00002fe8
    2d84:	0c 00 88 30 	lw      r4,0x000c(r8)
    2d88:	02 30 04 00 	sub     r0,r4,r6
    2d8c:	97 00 00 40 	beq     0x00002fe8
    2d90:	0f 00 27 15 	andi    r9,r7,0x000f
    2d94:	02 30 09 00 	sub     r0,r9,r6
    2d98:	98 00 00 40 	beq     0x00002ff8
    2d9c:	00 00 68 69 	sh      0x0000(r8),r11
    2da0:	00 00 a0 18 	ori     r5,r0,0x0000
    2da4:	05 28 c0 00 	orr     r6,r0,r5
    2da8:	03 00 80 18 	ori     r4,r0,0x0003
    2dac:	02 20 05 00 	sub     r0,r5,r4
    2db0:	02 00 40 40 	bne     0x00002db8
    2db4:	00 00 c0 18 	ori     r6,r0,0x0000
    2db8:	05 30 40 00 	orr     r2,r0,r6
    2dbc:	2c 00 bd 07 	addi    r29,r29,0x002c
    2dc0:	00 00 fd 33 	lw      r31,0x0000(r29)
    2dc4:	04 00 fd 31 	lw      r15,0x0004(r29)
    2dc8:	08 00 dd 31 	lw      r14,0x0008(r29)
    2dcc:	0c 00 bd 31 	lw      r13,0x000c(r29)
    2dd0:	10 00 9d 31 	lw      r12,0x0010(r29)
    2dd4:	14 00 7d 31 	lw      r11,0x0014(r29)
    2dd8:	18 00 5d 31 	lw      r10,0x0018(r29)
    2ddc:	1c 00 3d 31 	lw      r9,0x001c(r29)
    2de0:	20 00 1d 31 	lw      r8,0x0020(r29)
    2de4:	24 00 bd 07 	addi    r29,r29,0x0024
    2de8:	00 00 e0 47 	jmpr    r31
    2dec:	01 00 84 04 	addi    r4,r4,0x0001
    2df0:	0c 00 88 34 	sw      0x000c(r8),r4
    2df4:	0a 00 c8 64 	lh      r6,0x000a(r8)
    2df8:	10 00 86 20 	lsli    r4,r6,0x0010
    2dfc:	10 00 84 24 	lsri    r4,r4,0x0010
    2e00:	02 80 04 00 	sub     r0,r4,r16
    2e04:	70 00 00 40 	beq     0x00002fc4
    2e08:	14 00 a5 24 	lsri    r5,r5,0x0014
    2e0c:	02 00 e9 38 	lb      r7,0x0002(r9)
    2e10:	18 00 87 20 	lsli    r4,r7,0x0018
    2e14:	18 00 84 24 	lsri    r4,r4,0x0018
    2e18:	ff ff 84 04 	addi    r4,r4,0xffff
    2e1c:	04 20 c5 01 	and     r14,r5,r4
    2e20:	02 80 0e 00 	sub     r0,r14,r16
    2e24:	65 ff 7f 40 	bne     0x00002bb8
    2e28:	05 30 80 00 	orr     r4,r0,r6
    2e2c:	7c 04 00 c0 	ajal    0x000011f0
    2e30:	10 00 82 20 	lsli    r4,r2,0x0010
    2e34:	10 00 c4 24 	lsri    r6,r4,0x0010
    2e38:	01 00 a0 18 	ori     r5,r0,0x0001
    2e3c:	02 28 06 00 	sub     r0,r6,r5
    2e40:	60 ff 7f 42 	bls     0x00002bc0
    2e44:	06 00 29 65 	lh      r9,0x0006(r9)
    2e48:	10 00 89 20 	lsli    r4,r9,0x0010
    2e4c:	10 00 84 24 	lsri    r4,r4,0x0010
    2e50:	03 00 a0 18 	ori     r5,r0,0x0003
    2e54:	02 30 04 00 	sub     r0,r4,r6
    2e58:	5a ff 7f 42 	bls     0x00002bc0
    2e5c:	0a 00 48 68 	sh      0x000a(r8),r2
    2e60:	01 00 80 2c 	ldih    r4,0x0001
    2e64:	04 08 84 18 	ori     r4,r4,0x0804
    2e68:	00 00 c4 30 	lw      r6,0x0000(r4)
    2e6c:	fe ff 82 04 	addi    r4,r2,0xfffe
    2e70:	10 00 84 20 	lsli    r4,r4,0x0010
    2e74:	10 00 e4 24 	lsri    r7,r4,0x0010
    2e78:	06 00 a6 64 	lh      r5,0x0006(r6)
    2e7c:	10 00 85 20 	lsli    r4,r5,0x0010
    2e80:	10 00 84 24 	lsri    r4,r4,0x0010
    2e84:	fe ff 84 04 	addi    r4,r4,0xfffe
    2e88:	05 70 a0 00 	orr     r5,r0,r14
    2e8c:	02 20 07 00 	sub     r0,r7,r4
    2e90:	07 00 80 42 	bge     0x00002eac
    2e94:	02 00 a6 38 	lb      r5,0x0002(r6)
    2e98:	18 00 85 20 	lsli    r4,r5,0x0018
    2e9c:	18 00 84 24 	lsri    r4,r4,0x0018
    2ea0:	0a 20 87 00 	mul     r4,r7,r4
    2ea4:	10 00 a6 30 	lw      r5,0x0010(r6)
    2ea8:	00 28 a4 00 	add     r5,r4,r5
    2eac:	0c 00 a8 34 	sw      0x000c(r8),r5
    2eb0:	00 00 88 69 	sh      0x0000(r8),r12
    2eb4:	00 00 a0 18 	ori     r5,r0,0x0000
    2eb8:	f0 0a 00 80 	ajmp    0x00002bc0
    2ebc:	03 00 a0 18 	ori     r5,r0,0x0003
    2ec0:	f0 0a 00 80 	ajmp    0x00002bc0
    2ec4:	ff ff a0 2c 	ldih    r5,0xffff
    2ec8:	e5 ff a5 18 	ori     r5,r5,0xffe5
    2ecc:	00 00 a7 3c 	sb      0x0000(r7),r5
    2ed0:	01 00 e7 04 	addi    r7,r7,0x0001
    2ed4:	01 00 86 04 	addi    r4,r6,0x0001
    2ed8:	05 20 c0 00 	orr     r6,r0,r4
    2edc:	18 00 84 20 	lsli    r4,r4,0x0018
    2ee0:	18 00 84 24 	lsri    r4,r4,0x0018
    2ee4:	02 48 04 00 	sub     r0,r4,r9
    2ee8:	4d ff 7f 42 	bls     0x00002c1c
    2eec:	19 0b 00 80 	ajmp    0x00002c64
    2ef0:	05 28 c0 00 	orr     r6,r0,r5
    2ef4:	fe 0a 00 80 	ajmp    0x00002bf8
    2ef8:	00 00 a8 69 	sh      0x0000(r8),r13
    2efc:	08 00 e8 64 	lh      r7,0x0008(r8)
    2f00:	10 00 87 20 	lsli    r4,r7,0x0010
    2f04:	10 00 c4 24 	lsri    r6,r4,0x0010
    2f08:	01 00 20 19 	ori     r9,r0,0x0001
    2f0c:	02 48 06 00 	sub     r0,r6,r9
    2f10:	06 00 00 40 	beq     0x00002f28
    2f14:	06 00 45 65 	lh      r10,0x0006(r5)
    2f18:	10 00 8a 20 	lsli    r4,r10,0x0010
    2f1c:	10 00 84 24 	lsri    r4,r4,0x0010
    2f20:	02 30 04 00 	sub     r0,r4,r6
    2f24:	10 00 00 42 	bhi     0x00002f64
    2f28:	05 48 80 00 	orr     r4,r0,r9
    2f2c:	05 20 c0 00 	orr     r6,r0,r4
    2f30:	05 30 40 00 	orr     r2,r0,r6
    2f34:	2c 00 bd 07 	addi    r29,r29,0x002c
    2f38:	00 00 fd 33 	lw      r31,0x0000(r29)
    2f3c:	04 00 fd 31 	lw      r15,0x0004(r29)
    2f40:	08 00 dd 31 	lw      r14,0x0008(r29)
    2f44:	0c 00 bd 31 	lw      r13,0x000c(r29)
    2f48:	10 00 9d 31 	lw      r12,0x0010(r29)
    2f4c:	14 00 7d 31 	lw      r11,0x0014(r29)
    2f50:	18 00 5d 31 	lw      r10,0x0018(r29)
    2f54:	1c 00 3d 31 	lw      r9,0x001c(r29)
    2f58:	20 00 1d 31 	lw      r8,0x0020(r29)
    2f5c:	24 00 bd 07 	addi    r29,r29,0x0024
    2f60:	00 00 e0 47 	jmpr    r31
    2f64:	0a 00 e8 68 	sh      0x000a(r8),r7
    2f68:	02 68 06 00 	sub     r0,r6,r13
    2f6c:	57 00 00 40 	beq     0x000030c8
    2f70:	fe ff 87 04 	addi    r4,r7,0xfffe
    2f74:	10 00 84 20 	lsli    r4,r4,0x0010
    2f78:	10 00 e4 24 	lsri    r7,r4,0x0010
    2f7c:	06 00 c5 64 	lh      r6,0x0006(r5)
    2f80:	10 00 86 20 	lsli    r4,r6,0x0010
    2f84:	10 00 84 24 	lsri    r4,r4,0x0010
    2f88:	fe ff 84 04 	addi    r4,r4,0xfffe
    2f8c:	05 68 c0 00 	orr     r6,r0,r13
    2f90:	02 20 07 00 	sub     r0,r7,r4
    2f94:	07 00 80 42 	bge     0x00002fb0
    2f98:	02 00 45 39 	lb      r10,0x0002(r5)
    2f9c:	18 00 8a 20 	lsli    r4,r10,0x0018
    2fa0:	18 00 84 24 	lsri    r4,r4,0x0018
    2fa4:	0a 20 87 00 	mul     r4,r7,r4
    2fa8:	10 00 a5 30 	lw      r5,0x0010(r5)
    2fac:	00 28 c4 00 	add     r6,r4,r5
    2fb0:	05 30 a0 00 	orr     r5,r0,r6
    2fb4:	0c 00 a8 34 	sw      0x000c(r8),r5
    2fb8:	00 00 80 18 	ori     r4,r0,0x0000
    2fbc:	05 20 c0 00 	orr     r6,r0,r4
    2fc0:	cc 0b 00 80 	ajmp    0x00002f30
    2fc4:	04 00 29 65 	lh      r9,0x0004(r9)
    2fc8:	10 00 89 20 	lsli    r4,r9,0x0010
    2fcc:	10 00 84 24 	lsri    r4,r4,0x0010
    2fd0:	03 00 a0 18 	ori     r5,r0,0x0003
    2fd4:	02 38 04 00 	sub     r0,r4,r7
    2fd8:	fa fe 7f 42 	bls     0x00002bc0
    2fdc:	00 00 88 69 	sh      0x0000(r8),r12
    2fe0:	00 00 a0 18 	ori     r5,r0,0x0000
    2fe4:	f0 0a 00 80 	ajmp    0x00002bc0
    2fe8:	03 00 a0 18 	ori     r5,r0,0x0003
    2fec:	69 0b 00 80 	ajmp    0x00002da4
    2ff0:	03 00 e0 18 	ori     r7,r0,0x0003
    2ff4:	f6 0a 00 80 	ajmp    0x00002bd8
    2ff8:	01 00 84 04 	addi    r4,r4,0x0001
    2ffc:	0c 00 88 34 	sw      0x000c(r8),r4
    3000:	0a 00 c8 64 	lh      r6,0x000a(r8)
    3004:	10 00 86 20 	lsli    r4,r6,0x0010
    3008:	10 00 84 24 	lsri    r4,r4,0x0010
    300c:	02 48 04 00 	sub     r0,r4,r9
    3010:	32 00 00 40 	beq     0x000030d8
    3014:	14 00 a5 24 	lsri    r5,r5,0x0014
    3018:	02 00 ea 38 	lb      r7,0x0002(r10)
    301c:	18 00 87 20 	lsli    r4,r7,0x0018
    3020:	18 00 84 24 	lsri    r4,r4,0x0018
    3024:	ff ff 84 04 	addi    r4,r4,0xffff
    3028:	04 20 85 01 	and     r12,r5,r4
    302c:	02 48 0c 00 	sub     r0,r12,r9
    3030:	5b ff 7f 40 	bne     0x00002d9c
    3034:	05 30 80 00 	orr     r4,r0,r6
    3038:	7c 04 00 c0 	ajal    0x000011f0
    303c:	10 00 82 20 	lsli    r4,r2,0x0010
    3040:	10 00 c4 24 	lsri    r6,r4,0x0010
    3044:	01 00 a0 18 	ori     r5,r0,0x0001
    3048:	02 28 06 00 	sub     r0,r6,r5
    304c:	56 ff 7f 42 	bls     0x00002da4
    3050:	06 00 4a 65 	lh      r10,0x0006(r10)
    3054:	10 00 8a 20 	lsli    r4,r10,0x0010
    3058:	10 00 84 24 	lsri    r4,r4,0x0010
    305c:	03 00 a0 18 	ori     r5,r0,0x0003
    3060:	02 30 04 00 	sub     r0,r4,r6
    3064:	50 ff 7f 42 	bls     0x00002da4
    3068:	0a 00 48 68 	sh      0x000a(r8),r2
    306c:	01 00 80 2c 	ldih    r4,0x0001
    3070:	04 08 84 18 	ori     r4,r4,0x0804
    3074:	00 00 c4 30 	lw      r6,0x0000(r4)
    3078:	fe ff 82 04 	addi    r4,r2,0xfffe
    307c:	10 00 84 20 	lsli    r4,r4,0x0010
    3080:	10 00 e4 24 	lsri    r7,r4,0x0010
    3084:	06 00 46 65 	lh      r10,0x0006(r6)
    3088:	10 00 8a 20 	lsli    r4,r10,0x0010
    308c:	10 00 84 24 	lsri    r4,r4,0x0010
    3090:	fe ff 84 04 	addi    r4,r4,0xfffe
    3094:	05 60 a0 00 	orr     r5,r0,r12
    3098:	02 20 07 00 	sub     r0,r7,r4
    309c:	07 00 80 42 	bge     0x000030b8
    30a0:	02 00 a6 38 	lb      r5,0x0002(r6)
    30a4:	18 00 85 20 	lsli    r4,r5,0x0018
    30a8:	18 00 84 24 	lsri    r4,r4,0x0018
    30ac:	0a 20 87 00 	mul     r4,r7,r4
    30b0:	10 00 a6 30 	lw      r5,0x0010(r6)
    30b4:	00 28 a4 00 	add     r5,r4,r5
    30b8:	0c 00 a8 34 	sw      0x000c(r8),r5
    30bc:	00 00 68 69 	sh      0x0000(r8),r11
    30c0:	00 00 a0 18 	ori     r5,r0,0x0000
    30c4:	69 0b 00 80 	ajmp    0x00002da4
    30c8:	0c 00 a5 30 	lw      r5,0x000c(r5)
    30cc:	0c 00 a8 34 	sw      0x000c(r8),r5
    30d0:	00 00 80 18 	ori     r4,r0,0x0000
    30d4:	ef 0b 00 80 	ajmp    0x00002fbc
    30d8:	04 00 4a 65 	lh      r10,0x0004(r10)
    30dc:	10 00 8a 20 	lsli    r4,r10,0x0010
    30e0:	10 00 84 24 	lsri    r4,r4,0x0010
    30e4:	03 00 a0 18 	ori     r5,r0,0x0003
    30e8:	02 38 04 00 	sub     r0,r4,r7
    30ec:	2e ff 7f 42 	bls     0x00002da4
    30f0:	00 00 68 69 	sh      0x0000(r8),r11
    30f4:	00 00 a0 18 	ori     r5,r0,0x0000
    30f8:	69 0b 00 80 	ajmp    0x00002da4
    30fc:	00 00 00 00 	nop

00003100 <disk_readp0>:
    3100:	fc ff bd 07 	addi    r29,r29,0xfffc
    3104:	00 00 1d 35 	sw      0x0000(r29),r8
    3108:	05 20 00 02 	orr     r16,r0,r4
    310c:	00 82 c0 2c 	ldih    r6,0x8200
    3110:	04 00 c6 18 	ori     r6,r6,0x0004
    3114:	00 00 a6 34 	sw      0x0000(r6),r5
    3118:	00 82 c0 2c 	ldih    r6,0x8200
    311c:	00 00 c6 18 	ori     r6,r6,0x0000
    3120:	00 00 86 30 	lw      r4,0x0000(r6)
    3124:	08 00 84 18 	ori     r4,r4,0x0008
    3128:	00 00 86 34 	sw      0x0000(r6),r4
    312c:	00 82 c0 2c 	ldih    r6,0x8200
    3130:	0c 00 c6 18 	ori     r6,r6,0x000c
    3134:	00 00 80 18 	ori     r4,r0,0x0000
    3138:	00 00 86 34 	sw      0x0000(r6),r4
    313c:	00 82 c0 2c 	ldih    r6,0x8200
    3140:	14 00 c6 18 	ori     r6,r6,0x0014
    3144:	05 20 a0 00 	orr     r5,r0,r4
    3148:	ff 01 e0 18 	ori     r7,r0,0x01ff
    314c:	00 28 90 00 	add     r4,r16,r5
    3150:	00 00 06 39 	lb      r8,0x0000(r6)

    3154:	00 00 04 3d 	sb      0x0000(r4),r8
    3158:	01 00 a5 04 	addi    r5,r5,0x0001
    315c:	02 38 05 00 	sub     r0,r5,r7
    3160:	fb ff 7f 43 	ble     0x0000314c
    3164:	00 00 40 18 	ori     r2,r0,0x0000
    3168:	00 00 1d 31 	lw      r8,0x0000(r29)
    316c:	04 00 bd 07 	addi    r29,r29,0x0004
    3170:	00 00 e0 47 	jmpr    r31
    3174:	00 00 00 00 	nop
    3178:	00 00 00 00 	nop
    317c:	00 00 00 00 	nop

00003180 <disk_writep0>:
    3180:	05 20 e0 00 	orr     r7,r0,r4
    3184:	00 82 c0 2c 	ldih    r6,0x8200
    3188:	08 00 c6 18 	ori     r6,r6,0x0008
    318c:	00 00 a6 34 	sw      0x0000(r6),r5
    3190:	00 82 c0 2c 	ldih    r6,0x8200
    3194:	10 00 c6 18 	ori     r6,r6,0x0010
    3198:	00 00 80 18 	ori     r4,r0,0x0000
    319c:	00 00 86 34 	sw      0x0000(r6),r4
    31a0:	00 82 c0 2c 	ldih    r6,0x8200
    31a4:	14 00 c6 18 	ori     r6,r6,0x0014
    31a8:	05 20 a0 00 	orr     r5,r0,r4
    31ac:	ff 01 00 1a 	ori     r16,r0,0x01ff
    31b0:	00 28 87 00 	add     r4,r7,r5
    31b4:	00 00 84 38 	lb      r4,0x0000(r4)
    31b8:	18 00 84 20 	lsli    r4,r4,0x0018
    31bc:	18 00 84 24 	lsri    r4,r4,0x0018
    31c0:	00 00 86 34 	sw      0x0000(r6),r4
    31c4:	01 00 a5 04 	addi    r5,r5,0x0001
    31c8:	02 80 05 00 	sub     r0,r5,r16
    31cc:	f9 ff 7f 43 	ble     0x000031b0
    31d0:	00 82 c0 2c 	ldih    r6,0x8200
    31d4:	00 00 c6 18 	ori     r6,r6,0x0000
    31d8:	00 00 86 30 	lw      r4,0x0000(r6)
    31dc:	10 00 84 18 	ori     r4,r4,0x0010
    31e0:	00 00 86 34 	sw      0x0000(r6),r4
    31e4:	00 00 40 18 	ori     r2,r0,0x0000
    31e8:	00 00 e0 47 	jmpr    r31
